TN:
SF:/home/eladubuntu/Git Projects/OS_2024-FINAL_PROJECT_MST/ActiveObject.cpp
FN:4,_ZN12ActiveObjectD2Ev
FN:17,_ZN12ActiveObject3runEv
FN:25,_ZZN12ActiveObject3runEvENKUlvE_clEv
FNDA:42,_ZN12ActiveObject3runEv
FNDA:336,_ZZN12ActiveObject3runEvENKUlvE_clEv
FNDA:42,_ZN12ActiveObjectD2Ev
FNF:3
FNH:3
DA:4,42
DA:7,42
DA:10,42
DA:11,42
DA:12,42
DA:14,42
DA:15,42
DA:17,184
DA:22,184
DA:24,184
DA:25,520
DA:26,226
DA:27,142
DA:28,142
DA:29,184
DA:30,142
DA:32,326
LF:17
LH:17
end_of_record
TN:
SF:/home/eladubuntu/Git Projects/OS_2024-FINAL_PROJECT_MST/ActiveObject.hpp
FN:51,_ZN12ActiveObjectC2Ev
FN:63,_ZN12ActiveObject7enqueueIZZZZZZ14handleCommandsiRSt6vectorISt10unique_ptrIS_St14default_deleteIS_EESaIS5_EERS2_I5GraphS3_IS9_EER10MSTFactoryRS2_I4TreeS3_ISF_EEENKUlvE3_clEvENKUlvE_clEvENKUlvE_clEvENKUlvE_clEvENKUlvE_clEvEUlvE_EEvT_
FN:63,_ZN12ActiveObject7enqueueIZ14handleCommandsiRSt6vectorISt10unique_ptrIS_St14default_deleteIS_EESaIS5_EERS2_I5GraphS3_IS9_EER10MSTFactoryRS2_I4TreeS3_ISF_EEEUlvE3_EEvT_
FN:63,_ZN12ActiveObject7enqueueIZ14handleCommandsiRSt6vectorISt10unique_ptrIS_St14default_deleteIS_EESaIS5_EERS2_I5GraphS3_IS9_EER10MSTFactoryRS2_I4TreeS3_ISF_EEEUlvE4_EEvT_
FN:63,_ZN12ActiveObject7enqueueIZ14handleCommandsiRSt6vectorISt10unique_ptrIS_St14default_deleteIS_EESaIS5_EERS2_I5GraphS3_IS9_EER10MSTFactoryRS2_I4TreeS3_ISF_EEEUlvE10_EEvT_
FN:63,_ZN12ActiveObject7enqueueIZ14handleCommandsiRSt6vectorISt10unique_ptrIS_St14default_deleteIS_EESaIS5_EERS2_I5GraphS3_IS9_EER10MSTFactoryRS2_I4TreeS3_ISF_EEEUlvE0_EEvT_
FN:63,_ZN12ActiveObject7enqueueIZZZZZ14handleCommandsiRSt6vectorISt10unique_ptrIS_St14default_deleteIS_EESaIS5_EERS2_I5GraphS3_IS9_EER10MSTFactoryRS2_I4TreeS3_ISF_EEENKUlvE3_clEvENKUlvE_clEvENKUlvE_clEvENKUlvE_clEvEUlvE_EEvT_
FN:63,_ZN12ActiveObject7enqueueIZ14handleCommandsiRSt6vectorISt10unique_ptrIS_St14default_deleteIS_EESaIS5_EERS2_I5GraphS3_IS9_EER10MSTFactoryRS2_I4TreeS3_ISF_EEEUlvE8_EEvT_
FN:63,_ZN12ActiveObject7enqueueIZ14handleCommandsiRSt6vectorISt10unique_ptrIS_St14default_deleteIS_EESaIS5_EERS2_I5GraphS3_IS9_EER10MSTFactoryRS2_I4TreeS3_ISF_EEEUlvE9_EEvT_
FN:63,_ZN12ActiveObject7enqueueIZZZZ14handleCommandsiRSt6vectorISt10unique_ptrIS_St14default_deleteIS_EESaIS5_EERS2_I5GraphS3_IS9_EER10MSTFactoryRS2_I4TreeS3_ISF_EEENKUlvE3_clEvENKUlvE_clEvENKUlvE_clEvEUlvE_EEvT_
FN:63,_ZN12ActiveObject7enqueueIZ14handleCommandsiRSt6vectorISt10unique_ptrIS_St14default_deleteIS_EESaIS5_EERS2_I5GraphS3_IS9_EER10MSTFactoryRS2_I4TreeS3_ISF_EEEUlvE5_EEvT_
FN:63,_ZN12ActiveObject7enqueueIZ14handleCommandsiRSt6vectorISt10unique_ptrIS_St14default_deleteIS_EESaIS5_EERS2_I5GraphS3_IS9_EER10MSTFactoryRS2_I4TreeS3_ISF_EEEUlvE2_EEvT_
FN:63,_ZN12ActiveObject7enqueueIZZ14handleCommandsiRSt6vectorISt10unique_ptrIS_St14default_deleteIS_EESaIS5_EERS2_I5GraphS3_IS9_EER10MSTFactoryRS2_I4TreeS3_ISF_EEENKUlvE3_clEvEUlvE_EEvT_
FN:63,_ZN12ActiveObject7enqueueIZ14handleCommandsiRSt6vectorISt10unique_ptrIS_St14default_deleteIS_EESaIS5_EERS2_I5GraphS3_IS9_EER10MSTFactoryRS2_I4TreeS3_ISF_EEEUlvE1_EEvT_
FN:63,_ZN12ActiveObject7enqueueIZ14handleCommandsiRSt6vectorISt10unique_ptrIS_St14default_deleteIS_EESaIS5_EERS2_I5GraphS3_IS9_EER10MSTFactoryRS2_I4TreeS3_ISF_EEEUlvE_EEvT_
FN:63,_ZN12ActiveObject7enqueueIZZZ14handleCommandsiRSt6vectorISt10unique_ptrIS_St14default_deleteIS_EESaIS5_EERS2_I5GraphS3_IS9_EER10MSTFactoryRS2_I4TreeS3_ISF_EEENKUlvE3_clEvENKUlvE_clEvEUlvE_EEvT_
FN:63,_ZN12ActiveObject7enqueueIZ14handleCommandsiRSt6vectorISt10unique_ptrIS_St14default_deleteIS_EESaIS5_EERS2_I5GraphS3_IS9_EER10MSTFactoryRS2_I4TreeS3_ISF_EEEUlvE6_EEvT_
FN:73,_ZN12ActiveObject14getOutputMutexEv
FNDA:12,_ZN12ActiveObject7enqueueIZ14handleCommandsiRSt6vectorISt10unique_ptrIS_St14default_deleteIS_EESaIS5_EERS2_I5GraphS3_IS9_EER10MSTFactoryRS2_I4TreeS3_ISF_EEEUlvE2_EEvT_
FNDA:4,_ZN12ActiveObject7enqueueIZZ14handleCommandsiRSt6vectorISt10unique_ptrIS_St14default_deleteIS_EESaIS5_EERS2_I5GraphS3_IS9_EER10MSTFactoryRS2_I4TreeS3_ISF_EEENKUlvE3_clEvEUlvE_EEvT_
FNDA:12,_ZN12ActiveObject7enqueueIZ14handleCommandsiRSt6vectorISt10unique_ptrIS_St14default_deleteIS_EESaIS5_EERS2_I5GraphS3_IS9_EER10MSTFactoryRS2_I4TreeS3_ISF_EEEUlvE1_EEvT_
FNDA:16,_ZN12ActiveObject7enqueueIZ14handleCommandsiRSt6vectorISt10unique_ptrIS_St14default_deleteIS_EESaIS5_EERS2_I5GraphS3_IS9_EER10MSTFactoryRS2_I4TreeS3_ISF_EEEUlvE_EEvT_
FNDA:10,_ZN12ActiveObject7enqueueIZ14handleCommandsiRSt6vectorISt10unique_ptrIS_St14default_deleteIS_EESaIS5_EERS2_I5GraphS3_IS9_EER10MSTFactoryRS2_I4TreeS3_ISF_EEEUlvE6_EEvT_
FNDA:4,_ZN12ActiveObject7enqueueIZZZ14handleCommandsiRSt6vectorISt10unique_ptrIS_St14default_deleteIS_EESaIS5_EERS2_I5GraphS3_IS9_EER10MSTFactoryRS2_I4TreeS3_ISF_EEENKUlvE3_clEvENKUlvE_clEvEUlvE_EEvT_
FNDA:6,_ZN12ActiveObject7enqueueIZ14handleCommandsiRSt6vectorISt10unique_ptrIS_St14default_deleteIS_EESaIS5_EERS2_I5GraphS3_IS9_EER10MSTFactoryRS2_I4TreeS3_ISF_EEEUlvE8_EEvT_
FNDA:4,_ZN12ActiveObject7enqueueIZ14handleCommandsiRSt6vectorISt10unique_ptrIS_St14default_deleteIS_EESaIS5_EERS2_I5GraphS3_IS9_EER10MSTFactoryRS2_I4TreeS3_ISF_EEEUlvE9_EEvT_
FNDA:4,_ZN12ActiveObject7enqueueIZZZZ14handleCommandsiRSt6vectorISt10unique_ptrIS_St14default_deleteIS_EESaIS5_EERS2_I5GraphS3_IS9_EER10MSTFactoryRS2_I4TreeS3_ISF_EEENKUlvE3_clEvENKUlvE_clEvENKUlvE_clEvEUlvE_EEvT_
FNDA:4,_ZN12ActiveObject7enqueueIZ14handleCommandsiRSt6vectorISt10unique_ptrIS_St14default_deleteIS_EESaIS5_EERS2_I5GraphS3_IS9_EER10MSTFactoryRS2_I4TreeS3_ISF_EEEUlvE5_EEvT_
FNDA:6,_ZN12ActiveObject14getOutputMutexEv
FNDA:42,_ZN12ActiveObjectC2Ev
FNDA:34,_ZN12ActiveObject7enqueueIZ14handleCommandsiRSt6vectorISt10unique_ptrIS_St14default_deleteIS_EESaIS5_EERS2_I5GraphS3_IS9_EER10MSTFactoryRS2_I4TreeS3_ISF_EEEUlvE0_EEvT_
FNDA:4,_ZN12ActiveObject7enqueueIZZZZZ14handleCommandsiRSt6vectorISt10unique_ptrIS_St14default_deleteIS_EESaIS5_EERS2_I5GraphS3_IS9_EER10MSTFactoryRS2_I4TreeS3_ISF_EEENKUlvE3_clEvENKUlvE_clEvENKUlvE_clEvENKUlvE_clEvEUlvE_EEvT_
FNDA:4,_ZN12ActiveObject7enqueueIZZZZZZ14handleCommandsiRSt6vectorISt10unique_ptrIS_St14default_deleteIS_EESaIS5_EERS2_I5GraphS3_IS9_EER10MSTFactoryRS2_I4TreeS3_ISF_EEENKUlvE3_clEvENKUlvE_clEvENKUlvE_clEvENKUlvE_clEvENKUlvE_clEvEUlvE_EEvT_
FNDA:16,_ZN12ActiveObject7enqueueIZ14handleCommandsiRSt6vectorISt10unique_ptrIS_St14default_deleteIS_EESaIS5_EERS2_I5GraphS3_IS9_EER10MSTFactoryRS2_I4TreeS3_ISF_EEEUlvE3_EEvT_
FNDA:4,_ZN12ActiveObject7enqueueIZ14handleCommandsiRSt6vectorISt10unique_ptrIS_St14default_deleteIS_EESaIS5_EERS2_I5GraphS3_IS9_EER10MSTFactoryRS2_I4TreeS3_ISF_EEEUlvE10_EEvT_
FNDA:4,_ZN12ActiveObject7enqueueIZ14handleCommandsiRSt6vectorISt10unique_ptrIS_St14default_deleteIS_EESaIS5_EERS2_I5GraphS3_IS9_EER10MSTFactoryRS2_I4TreeS3_ISF_EEEUlvE4_EEvT_
FNF:18
FNH:18
DA:51,42
DA:63,142
DA:66,142
DA:68,142
DA:70,142
DA:71,142
DA:73,6
LF:7
LH:7
end_of_record
TN:
SF:/home/eladubuntu/Git Projects/OS_2024-FINAL_PROJECT_MST/Graph.cpp
FN:3,_ZN5Graph7addEdgeEiii
FN:25,_ZN5Graph10removeEdgeEii
FN:37,_ZZN5Graph10removeEdgeEiiENKUlRK4EdgeE_clES2_
FN:42,_ZZN5Graph10removeEdgeEiiENKUlRK4EdgeE0_clES2_
FNDA:7,_ZZN5Graph10removeEdgeEiiENKUlRK4EdgeE0_clES2_
FNDA:8,_ZN5Graph10removeEdgeEii
FNDA:9,_ZZN5Graph10removeEdgeEiiENKUlRK4EdgeE_clES2_
FNDA:70,_ZN5Graph7addEdgeEiii
FNF:4
FNH:4
DA:3,40
DA:4,30
DA:5,40
DA:6,40
DA:7,70
DA:8,6
DA:12,46
DA:13,23
DA:15,1
DA:20,23
DA:21,23
DA:22,23
DA:25,8
DA:28,8
DA:29,8
DA:31,8
DA:33,5
DA:37,6
DA:38,9
DA:39,3
DA:42,6
DA:43,7
DA:44,3
DA:47,3
DA:48,3
DA:51,3
DA:53,3
DA:54,3
DA:57,0
LF:29
LH:28
end_of_record
TN:
SF:/home/eladubuntu/Git Projects/OS_2024-FINAL_PROJECT_MST/Graph.hpp
FN:22,_ZN5GraphC2Ev
FN:23,_ZN5GraphC2Eii
FN:62,_ZN5GraphD2Ev
FN:62,_ZN5GraphD0Ev
FN:83,_ZNK5Graph17getVerticesNumberEv
FN:90,_ZNK5Graph6getAdjEv
FNDA:18,_ZN5GraphD0Ev
FNDA:24,_ZN5GraphC2Ev
FNDA:42,_ZNK5Graph17getVerticesNumberEv
FNDA:18,_ZN5GraphC2Eii
FNDA:146,_ZNK5Graph6getAdjEv
FNDA:42,_ZN5GraphD2Ev
FNF:6
FNH:6
DA:22,16
DA:23,12
DA:24,40
DA:28,16
DA:29,80
DA:44,8
DA:54,6
DA:62,20
DA:83,26
DA:90,66
LF:10
LH:10
end_of_record
TN:
SF:/home/eladubuntu/Git Projects/OS_2024-FINAL_PROJECT_MST/LFServer.cpp
FN:21,_Z13signalHandleri
FN:32,_Z12sendResponseiRKNSt7__cxx1112basic_stringIcSt11char_traitsIcESaIcEEE
FN:40,_Z9scanGraphiRiS_RNSt7__cxx1118basic_stringstreamIcSt11char_traitsIcESaIcEEERSt10unique_ptrI5GraphSt14default_deleteIS8_EE
FN:52,_Z11scanSrcDestRNSt7__cxx1118basic_stringstreamIcSt11char_traitsIcESaIcEEERiS6_
FN:63,_Z14handleCommandsiRSt10unique_ptrI5GraphSt14default_deleteIS0_EER10MSTFactoryRS_I4TreeS1_IS7_EE
FN:318,_Z16acceptConnectioniRSt10unique_ptrI5GraphSt14default_deleteIS0_EER10MSTFactoryRS_I4TreeS1_IS7_EERS_I12LFThreadPoolS1_ISB_EE
FN:342,_ZZ16acceptConnectioniRSt10unique_ptrI5GraphSt14default_deleteIS0_EER10MSTFactoryRS_I4TreeS1_IS7_EERS_I12LFThreadPoolS1_ISB_EEENKUlvE_clEv
FN:353,main
FN:364,_ZZ4mainENKUliE_clEi
FN:424,_ZZ4mainENKUlvE0_clEv
FNDA:12,_Z9scanGraphiRiS_RNSt7__cxx1118basic_stringstreamIcSt11char_traitsIcESaIcEEERSt10unique_ptrI5GraphSt14default_deleteIS8_EE
FNDA:5,main
FNDA:8,_ZZ4mainENKUlvE0_clEv
FNDA:8,_Z14handleCommandsiRSt10unique_ptrI5GraphSt14default_deleteIS0_EER10MSTFactoryRS_I4TreeS1_IS7_EE
FNDA:12,_Z11scanSrcDestRNSt7__cxx1118basic_stringstreamIcSt11char_traitsIcESaIcEEERiS6_
FNDA:91,_Z12sendResponseiRKNSt7__cxx1112basic_stringIcSt11char_traitsIcESaIcEEE
FNDA:5,_Z13signalHandleri
FNDA:8,_ZZ16acceptConnectioniRSt10unique_ptrI5GraphSt14default_deleteIS0_EER10MSTFactoryRS_I4TreeS1_IS7_EERS_I12LFThreadPoolS1_ISB_EEENKUlvE_clEv
FNDA:5,_ZZ4mainENKUliE_clEi
FNDA:8,_Z16acceptConnectioniRSt10unique_ptrI5GraphSt14default_deleteIS0_EER10MSTFactoryRS_I4TreeS1_IS7_EERS_I12LFThreadPoolS1_ISB_EE
FNF:10
FNH:10
DA:21,2
DA:24,2
DA:25,2
DA:26,2
DA:28,2
DA:29,2
DA:31,3
DA:32,58
DA:34,61
DA:35,3
DA:36,3
DA:38,61
DA:39,3
DA:40,8
DA:42,8
DA:44,2
DA:45,2
DA:48,39
DA:49,6
DA:50,33
DA:52,12
DA:54,45
DA:56,4
DA:57,4
DA:60,8
DA:63,70
DA:66,4
DA:68,4
DA:70,72
DA:71,72
DA:73,4
DA:74,6
DA:75,2
DA:77,4
DA:78,4
DA:79,4
DA:80,4
DA:84,0
DA:85,26
DA:88,66
DA:89,97
DA:90,66
DA:92,66
DA:93,66
DA:94,66
DA:95,66
DA:96,31
DA:97,97
DA:99,11
DA:100,11
DA:102,2
DA:103,3
DA:104,1
DA:105,1
DA:106,9
DA:108,4
DA:109,4
DA:110,0
DA:111,19
DA:113,4
DA:114,34
DA:115,30
DA:116,30
DA:117,8
DA:118,38
DA:119,30
DA:120,32
DA:121,32
DA:123,30
DA:125,35
DA:126,5
DA:127,26
DA:128,1
DA:129,1
DA:130,26
DA:132,4
DA:133,26
DA:134,27
DA:135,27
DA:136,26
DA:137,4
DA:139,27
DA:140,1
DA:142,2
DA:143,6
DA:144,4
DA:145,2
DA:146,4
DA:147,4
DA:148,2
DA:151,14
DA:152,0
DA:153,13
DA:156,13
DA:158,13
DA:159,37
DA:160,13
DA:161,13
DA:162,24
DA:163,13
DA:164,0
DA:165,1
DA:166,5
DA:168,1
DA:169,1
DA:170,1
DA:171,1
DA:172,24
DA:174,4
DA:175,4
DA:176,4
DA:179,32
DA:181,18
DA:182,10
DA:183,2
DA:184,58
DA:185,6
DA:186,8
DA:187,8
DA:189,12
DA:190,2
DA:191,6
DA:192,4
DA:193,4
DA:194,6
DA:196,8
DA:198,4
DA:199,5
DA:200,29
DA:202,10
DA:203,10
DA:205,2
DA:206,6
DA:207,2
DA:208,4
DA:210,10
DA:212,6
DA:213,10
DA:214,48
DA:216,12
DA:217,8
DA:218,3
DA:219,5
DA:220,2
DA:221,2
DA:222,4
DA:223,6
DA:224,2
DA:225,2
DA:226,4
DA:228,6
DA:230,2
DA:231,2
DA:233,0
DA:234,4
DA:236,4
DA:237,4
DA:238,8
DA:239,8
DA:240,8
DA:242,44
DA:243,4
DA:244,10
DA:245,6
DA:246,4
DA:247,2
DA:248,10
DA:249,17
DA:250,4
DA:251,8
DA:252,12
DA:253,6
DA:254,1
DA:255,35
DA:256,1
DA:257,14
DA:258,14
DA:259,7
DA:260,2
DA:261,3
DA:262,1
DA:263,1
DA:266,18
DA:267,6
DA:268,18
DA:269,4
DA:270,10
DA:271,8
DA:272,14
DA:273,20
DA:274,4
DA:275,6
DA:276,10
DA:278,5
DA:279,2
DA:281,4
DA:282,1
DA:283,4
DA:284,6
DA:285,22
DA:287,17
DA:288,8
DA:289,6
DA:290,10
DA:291,4
DA:292,1
DA:293,1
DA:294,5
DA:295,4
DA:296,8
DA:297,11
DA:299,3
DA:300,1
DA:301,3
DA:302,2
DA:303,2
DA:304,6
DA:305,6
DA:306,6
DA:308,2
DA:310,4
DA:312,2
DA:313,38
DA:314,215
DA:315,6
DA:316,6
DA:318,7
DA:320,6
DA:321,6
DA:322,9
DA:323,6
DA:324,1
DA:326,7
DA:327,7
DA:328,7
DA:329,1
DA:330,1
DA:331,1
DA:333,6
DA:335,8
DA:337,6
DA:338,24
DA:339,101
DA:340,8
DA:341,2
DA:342,6
DA:344,6
DA:345,6
DA:346,6
DA:348,6
DA:349,6
DA:350,6
DA:351,6
DA:353,2
DA:355,4
DA:356,2
DA:357,2
DA:358,4
DA:359,4
DA:360,4
DA:363,2
DA:364,4
DA:365,2
DA:367,2
DA:368,2
DA:369,2
DA:370,4
DA:371,2
DA:372,4
DA:373,2
DA:374,4
DA:375,4
DA:376,6
DA:377,2
DA:378,2
DA:380,4
DA:381,2
DA:382,2
DA:383,2
DA:384,2
DA:385,2
DA:386,2
DA:387,2
DA:390,2
DA:392,0
DA:393,0
DA:397,5
DA:398,2
DA:399,5
DA:400,5
DA:401,3
DA:402,3
DA:403,5
DA:404,3
DA:405,0
DA:406,0
DA:407,3
DA:410,5
DA:411,3
DA:412,3
DA:413,3
DA:414,3
DA:415,3
DA:416,3
DA:417,5
DA:418,5
DA:419,8
DA:420,2
DA:422,3
DA:423,2
DA:424,5
DA:425,6
DA:426,0
DA:427,0
DA:428,2
DA:429,2
DA:430,5
DA:432,0
DA:433,448196
DA:436,3
DA:437,3
DA:438,3
DA:439,3
DA:441,3
DA:443,0
DA:444,0
DA:447,3
DA:449,0
DA:450,0
DA:454,3
DA:455,3
DA:456,3
DA:457,3
DA:459,3
DA:460,3
DA:461,2
DA:463,3
DA:464,3
DA:465,3
DA:468,196651
DA:471,0
LF:341
LH:324
end_of_record
TN:
SF:/home/eladubuntu/Git Projects/OS_2024-FINAL_PROJECT_MST/LFThreadPool.cpp
FN:4,_ZN12LFThreadPoolC2EmR7Reactor
FN:23,_ZN12LFThreadPoolD2Ev
FN:36,_ZN12LFThreadPool16promoteNewLeaderEv
FN:69,_ZN12LFThreadPool12followerLoopEi
FN:103,_ZN12LFThreadPool5addFdEiSt8functionIFvvEE
FN:109,_ZN12LFThreadPool8stopPoolEv
FN:120,_ZN12LFThreadPool4joinEv
FNDA:5,_ZN12LFThreadPoolD2Ev
FNDA:8,_ZN12LFThreadPool5addFdEiSt8functionIFvvEE
FNDA:5,_ZN12LFThreadPool8stopPoolEv
FNDA:5,_ZN12LFThreadPool4joinEv
FNDA:13,_ZN12LFThreadPool16promoteNewLeaderEv
FNDA:50,_ZN12LFThreadPool12followerLoopEi
FNDA:5,_ZN12LFThreadPoolC2EmR7Reactor
FNF:7
FNH:7
DA:4,5
DA:5,5
DA:8,55
DA:11,50
DA:13,50
DA:15,50
DA:16,50
DA:17,50
DA:20,5
DA:21,5
DA:23,5
DA:26,5
DA:27,5
DA:28,5
DA:30,5
DA:32,5
DA:33,5
DA:34,5
DA:36,13
DA:39,13
DA:42,5
DA:43,5
DA:44,5
DA:45,5
DA:47,5
DA:48,5
DA:51,17
DA:54,17
DA:57,8
DA:58,8
DA:59,8
DA:60,8
DA:62,8
DA:63,8
DA:69,58
DA:74,58
DA:76,58
DA:77,58
DA:78,58
DA:81,58
DA:82,45
DA:85,13
DA:88,8
DA:89,8
DA:92,8
DA:94,8
DA:95,8
DA:96,8
DA:98,8
DA:99,8
DA:100,45
DA:103,8
DA:106,8
DA:107,8
DA:109,5
DA:112,5
DA:113,55
DA:115,50
DA:117,5
DA:118,5
DA:120,5
DA:122,55
DA:124,50
DA:126,50
DA:127,50
DA:128,50
DA:130,50
DA:131,50
DA:132,50
DA:134,5
LF:70
LH:70
end_of_record
TN:
SF:/home/eladubuntu/Git Projects/OS_2024-FINAL_PROJECT_MST/LFThreadPool.hpp
FN:116,_ZN12LFThreadPool11getOutputMxEv
FNDA:5,_ZN12LFThreadPool11getOutputMxEv
FNF:1
FNH:1
DA:116,5
LF:1
LH:1
end_of_record
TN:
SF:/home/eladubuntu/Git Projects/OS_2024-FINAL_PROJECT_MST/MSTFactory.cpp
FN:3,_ZN10MSTFactory11setStrategyEP11MSTStrategy
FN:12,_ZN10MSTFactory9createMSTERSt10unique_ptrI5GraphSt14default_deleteIS1_EE
FNDA:24,_ZN10MSTFactory11setStrategyEP11MSTStrategy
FNDA:24,_ZN10MSTFactory9createMSTERSt10unique_ptrI5GraphSt14default_deleteIS1_EE
FNF:2
FNH:2
DA:3,24
DA:5,24
DA:7,17
DA:9,24
DA:10,24
DA:12,24
DA:14,24
DA:15,48
DA:16,24
LF:9
LH:9
end_of_record
TN:
SF:/home/eladubuntu/Git Projects/OS_2024-FINAL_PROJECT_MST/MSTFactory.hpp
FN:25,_ZN10MSTFactory15destroyStrategyEv
FNDA:11,_ZN10MSTFactory15destroyStrategyEv
FNF:1
FNH:1
DA:25,11
LF:1
LH:1
end_of_record
TN:
SF:/home/eladubuntu/Git Projects/OS_2024-FINAL_PROJECT_MST/MSTStrategy.cpp
FN:3,_ZN12PrimStrategy6minKeyESt6vectorIiSaIiEES0_IbSaIbEEi
FN:17,_ZN12PrimStrategy7findMSTERK5Graph
FN:64,_ZN3DSU4findEi
FN:73,_ZN3DSU5uniteEii
FN:97,_ZN15KruskalStrategy7findMSTERK5Graph
FN:114,_ZZN15KruskalStrategy7findMSTERK5GraphENKUl4EdgeS3_E_clES3_S3_
FNDA:44,_ZN12PrimStrategy6minKeyESt6vectorIiSaIiEES0_IbSaIbEEi
FNDA:12,_ZN15KruskalStrategy7findMSTERK5Graph
FNDA:12,_ZN12PrimStrategy7findMSTERK5Graph
FNDA:199,_ZN3DSU4findEi
FNDA:44,_ZN3DSU5uniteEii
FNDA:94,_ZZN15KruskalStrategy7findMSTERK5GraphENKUl4EdgeS3_E_clES3_S3_
FNF:6
FNH:6
DA:3,44
DA:5,44
DA:6,252
DA:8,208
DA:10,66
DA:11,66
DA:14,44
DA:17,12
DA:19,12
DA:20,12
DA:22,12
DA:24,12
DA:26,12
DA:29,12
DA:31,12
DA:34,56
DA:37,44
DA:40,44
DA:44,136
DA:46,92
DA:47,92
DA:48,92
DA:50,52
DA:51,52
DA:56,56
DA:58,44
DA:61,24
DA:62,12
DA:64,199
DA:66,199
DA:68,176
DA:70,23
DA:73,44
DA:75,44
DA:76,44
DA:78,44
DA:80,44
DA:82,12
DA:84,32
DA:86,8
DA:90,24
DA:91,24
DA:94,44
DA:97,12
DA:98,12
DA:99,12
DA:100,12
DA:101,12
DA:104,12
DA:105,68
DA:106,168
DA:107,112
DA:108,56
DA:114,12
DA:115,94
DA:118,12
DA:121,56
DA:122,44
DA:124,44
DA:125,44
DA:127,44
DA:128,44
DA:129,44
DA:130,44
DA:133,8
DA:134,4
DA:139,16
DA:140,8
LF:68
LH:68
end_of_record
TN:
SF:/home/eladubuntu/Git Projects/OS_2024-FINAL_PROJECT_MST/MSTStrategy.hpp
FN:56,_ZN3DSUC2Ei
FNDA:12,_ZN3DSUC2Ei
FNF:1
FNH:1
DA:56,12
LF:1
LH:1
end_of_record
TN:
SF:/home/eladubuntu/Git Projects/OS_2024-FINAL_PROJECT_MST/PipelineServer.cpp
FN:34,_Z13signalHandleri
FN:47,_Z12sendResponseiRKNSt7__cxx1112basic_stringIcSt11char_traitsIcESaIcEEE
FN:56,_Z9scanGraphRiS_RNSt7__cxx1118basic_stringstreamIcSt11char_traitsIcESaIcEEERSt10unique_ptrI5GraphSt14default_deleteIS8_EE
FN:71,_Z11scanSrcDestRNSt7__cxx1118basic_stringstreamIcSt11char_traitsIcESaIcEEERSt6atomicIiES8_
FN:89,_Z14handleCommandsiRSt6vectorISt10unique_ptrI12ActiveObjectSt14default_deleteIS1_EESaIS4_EERS0_I5GraphS2_IS8_EER10MSTFactoryRS0_I4TreeS2_ISE_EE
FN:144,_ZZ14handleCommandsiRSt6vectorISt10unique_ptrI12ActiveObjectSt14default_deleteIS1_EESaIS4_EERS0_I5GraphS2_IS8_EER10MSTFactoryRS0_I4TreeS2_ISE_EEENKUlvE_clEv
FN:202,_ZZ14handleCommandsiRSt6vectorISt10unique_ptrI12ActiveObjectSt14default_deleteIS1_EESaIS4_EERS0_I5GraphS2_IS8_EER10MSTFactoryRS0_I4TreeS2_ISE_EEENKUlvE0_clEv
FN:226,_ZZ14handleCommandsiRSt6vectorISt10unique_ptrI12ActiveObjectSt14default_deleteIS1_EESaIS4_EERS0_I5GraphS2_IS8_EER10MSTFactoryRS0_I4TreeS2_ISE_EEENKUlvE1_clEv
FN:237,_ZZ14handleCommandsiRSt6vectorISt10unique_ptrI12ActiveObjectSt14default_deleteIS1_EESaIS4_EERS0_I5GraphS2_IS8_EER10MSTFactoryRS0_I4TreeS2_ISE_EEENKUlvE2_clEv
FN:256,_ZZ14handleCommandsiRSt6vectorISt10unique_ptrI12ActiveObjectSt14default_deleteIS1_EESaIS4_EERS0_I5GraphS2_IS8_EER10MSTFactoryRS0_I4TreeS2_ISE_EEENKUlvE3_clEv
FN:267,_ZZ14handleCommandsiRSt6vectorISt10unique_ptrI12ActiveObjectSt14default_deleteIS1_EESaIS4_EERS0_I5GraphS2_IS8_EER10MSTFactoryRS0_I4TreeS2_ISE_EEENKUlvE4_clEv
FN:286,_ZZ14handleCommandsiRSt6vectorISt10unique_ptrI12ActiveObjectSt14default_deleteIS1_EESaIS4_EERS0_I5GraphS2_IS8_EER10MSTFactoryRS0_I4TreeS2_ISE_EEENKUlvE5_clEv
FN:307,_ZZ14handleCommandsiRSt6vectorISt10unique_ptrI12ActiveObjectSt14default_deleteIS1_EESaIS4_EERS0_I5GraphS2_IS8_EER10MSTFactoryRS0_I4TreeS2_ISE_EEENKUlvE6_clEv
FN:316,_ZZ14handleCommandsiRSt6vectorISt10unique_ptrI12ActiveObjectSt14default_deleteIS1_EESaIS4_EERS0_I5GraphS2_IS8_EER10MSTFactoryRS0_I4TreeS2_ISE_EEENKUlvE7_clEv
FN:329,_ZZ14handleCommandsiRSt6vectorISt10unique_ptrI12ActiveObjectSt14default_deleteIS1_EESaIS4_EERS0_I5GraphS2_IS8_EER10MSTFactoryRS0_I4TreeS2_ISE_EEENKUlvE8_clEv
FN:350,_ZZ14handleCommandsiRSt6vectorISt10unique_ptrI12ActiveObjectSt14default_deleteIS1_EESaIS4_EERS0_I5GraphS2_IS8_EER10MSTFactoryRS0_I4TreeS2_ISE_EEENKUlvE9_clEv
FN:365,_ZZ14handleCommandsiRSt6vectorISt10unique_ptrI12ActiveObjectSt14default_deleteIS1_EESaIS4_EERS0_I5GraphS2_IS8_EER10MSTFactoryRS0_I4TreeS2_ISE_EEENKUlvE10_clEv
FN:372,_ZZZ14handleCommandsiRSt6vectorISt10unique_ptrI12ActiveObjectSt14default_deleteIS1_EESaIS4_EERS0_I5GraphS2_IS8_EER10MSTFactoryRS0_I4TreeS2_ISE_EEENKUlvE3_clEvENKUlvE_clEv
FN:382,_ZZZZ14handleCommandsiRSt6vectorISt10unique_ptrI12ActiveObjectSt14default_deleteIS1_EESaIS4_EERS0_I5GraphS2_IS8_EER10MSTFactoryRS0_I4TreeS2_ISE_EEENKUlvE3_clEvENKUlvE_clEvENKUlvE_clEv
FN:389,_ZZZZZ14handleCommandsiRSt6vectorISt10unique_ptrI12ActiveObjectSt14default_deleteIS1_EESaIS4_EERS0_I5GraphS2_IS8_EER10MSTFactoryRS0_I4TreeS2_ISE_EEENKUlvE3_clEvENKUlvE_clEvENKUlvE_clEvENKUlvE_clEv
FN:396,_ZZZZZZ14handleCommandsiRSt6vectorISt10unique_ptrI12ActiveObjectSt14default_deleteIS1_EESaIS4_EERS0_I5GraphS2_IS8_EER10MSTFactoryRS0_I4TreeS2_ISE_EEENKUlvE3_clEvENKUlvE_clEvENKUlvE_clEvENKUlvE_clEvENKUlvE_clEv
FN:400,_Z16acceptConnectioni
FN:403,_ZZZZZZZ14handleCommandsiRSt6vectorISt10unique_ptrI12ActiveObjectSt14default_deleteIS1_EESaIS4_EERS0_I5GraphS2_IS8_EER10MSTFactoryRS0_I4TreeS2_ISE_EEENKUlvE3_clEvENKUlvE_clEvENKUlvE_clEvENKUlvE_clEvENKUlvE_clEvENKUlvE_clEv
FN:422,main
FN:433,_ZZ4mainENKUliE_clEi
FN:516,_ZZ4mainENKUlPvE0_clES_
FNDA:10,_Z11scanSrcDestRNSt7__cxx1118basic_stringstreamIcSt11char_traitsIcESaIcEEERSt6atomicIiES8_
FNDA:12,_ZZ14handleCommandsiRSt6vectorISt10unique_ptrI12ActiveObjectSt14default_deleteIS1_EESaIS4_EERS0_I5GraphS2_IS8_EER10MSTFactoryRS0_I4TreeS2_ISE_EEENKUlvE2_clEv
FNDA:4,_ZZ14handleCommandsiRSt6vectorISt10unique_ptrI12ActiveObjectSt14default_deleteIS1_EESaIS4_EERS0_I5GraphS2_IS8_EER10MSTFactoryRS0_I4TreeS2_ISE_EEENKUlvE10_clEv
FNDA:6,_Z13signalHandleri
FNDA:34,_ZZ14handleCommandsiRSt6vectorISt10unique_ptrI12ActiveObjectSt14default_deleteIS1_EESaIS4_EERS0_I5GraphS2_IS8_EER10MSTFactoryRS0_I4TreeS2_ISE_EEENKUlvE0_clEv
FNDA:4,_ZZZZZ14handleCommandsiRSt6vectorISt10unique_ptrI12ActiveObjectSt14default_deleteIS1_EESaIS4_EERS0_I5GraphS2_IS8_EER10MSTFactoryRS0_I4TreeS2_ISE_EEENKUlvE3_clEvENKUlvE_clEvENKUlvE_clEvENKUlvE_clEv
FNDA:6,main
FNDA:16,_ZZ14handleCommandsiRSt6vectorISt10unique_ptrI12ActiveObjectSt14default_deleteIS1_EESaIS4_EERS0_I5GraphS2_IS8_EER10MSTFactoryRS0_I4TreeS2_ISE_EEENKUlvE_clEv
FNDA:4,_ZZZZ14handleCommandsiRSt6vectorISt10unique_ptrI12ActiveObjectSt14default_deleteIS1_EESaIS4_EERS0_I5GraphS2_IS8_EER10MSTFactoryRS0_I4TreeS2_ISE_EEENKUlvE3_clEvENKUlvE_clEvENKUlvE_clEv
FNDA:4,_ZZZ14handleCommandsiRSt6vectorISt10unique_ptrI12ActiveObjectSt14default_deleteIS1_EESaIS4_EERS0_I5GraphS2_IS8_EER10MSTFactoryRS0_I4TreeS2_ISE_EEENKUlvE3_clEvENKUlvE_clEv
FNDA:16,_ZZ14handleCommandsiRSt6vectorISt10unique_ptrI12ActiveObjectSt14default_deleteIS1_EESaIS4_EERS0_I5GraphS2_IS8_EER10MSTFactoryRS0_I4TreeS2_ISE_EEENKUlvE3_clEv
FNDA:10,_Z14handleCommandsiRSt6vectorISt10unique_ptrI12ActiveObjectSt14default_deleteIS1_EESaIS4_EERS0_I5GraphS2_IS8_EER10MSTFactoryRS0_I4TreeS2_ISE_EE
FNDA:10,_ZZ14handleCommandsiRSt6vectorISt10unique_ptrI12ActiveObjectSt14default_deleteIS1_EESaIS4_EERS0_I5GraphS2_IS8_EER10MSTFactoryRS0_I4TreeS2_ISE_EEENKUlvE6_clEv
FNDA:4,_ZZ14handleCommandsiRSt6vectorISt10unique_ptrI12ActiveObjectSt14default_deleteIS1_EESaIS4_EERS0_I5GraphS2_IS8_EER10MSTFactoryRS0_I4TreeS2_ISE_EEENKUlvE5_clEv
FNDA:10,_ZZ4mainENKUlPvE0_clES_
FNDA:12,_ZZ14handleCommandsiRSt6vectorISt10unique_ptrI12ActiveObjectSt14default_deleteIS1_EESaIS4_EERS0_I5GraphS2_IS8_EER10MSTFactoryRS0_I4TreeS2_ISE_EEENKUlvE1_clEv
FNDA:20,_ZZ14handleCommandsiRSt6vectorISt10unique_ptrI12ActiveObjectSt14default_deleteIS1_EESaIS4_EERS0_I5GraphS2_IS8_EER10MSTFactoryRS0_I4TreeS2_ISE_EEENKUlvE7_clEv
FNDA:16,_Z16acceptConnectioni
FNDA:4,_ZZZZZZ14handleCommandsiRSt6vectorISt10unique_ptrI12ActiveObjectSt14default_deleteIS1_EESaIS4_EERS0_I5GraphS2_IS8_EER10MSTFactoryRS0_I4TreeS2_ISE_EEENKUlvE3_clEvENKUlvE_clEvENKUlvE_clEvENKUlvE_clEvENKUlvE_clEv
FNDA:4,_ZZ14handleCommandsiRSt6vectorISt10unique_ptrI12ActiveObjectSt14default_deleteIS1_EESaIS4_EERS0_I5GraphS2_IS8_EER10MSTFactoryRS0_I4TreeS2_ISE_EEENKUlvE9_clEv
FNDA:118,_Z12sendResponseiRKNSt7__cxx1112basic_stringIcSt11char_traitsIcESaIcEEE
FNDA:4,_ZZ14handleCommandsiRSt6vectorISt10unique_ptrI12ActiveObjectSt14default_deleteIS1_EESaIS4_EERS0_I5GraphS2_IS8_EER10MSTFactoryRS0_I4TreeS2_ISE_EEENKUlvE4_clEv
FNDA:4,_ZZZZZZZ14handleCommandsiRSt6vectorISt10unique_ptrI12ActiveObjectSt14default_deleteIS1_EESaIS4_EERS0_I5GraphS2_IS8_EER10MSTFactoryRS0_I4TreeS2_ISE_EEENKUlvE3_clEvENKUlvE_clEvENKUlvE_clEvENKUlvE_clEvENKUlvE_clEvENKUlvE_clEv
FNDA:16,_Z9scanGraphRiS_RNSt7__cxx1118basic_stringstreamIcSt11char_traitsIcESaIcEEERSt10unique_ptrI5GraphSt14default_deleteIS8_EE
FNDA:6,_ZZ4mainENKUliE_clEi
FNDA:6,_ZZ14handleCommandsiRSt6vectorISt10unique_ptrI12ActiveObjectSt14default_deleteIS1_EESaIS4_EERS0_I5GraphS2_IS8_EER10MSTFactoryRS0_I4TreeS2_ISE_EEENKUlvE8_clEv
FNF:26
FNH:26
DA:34,2
DA:36,2
DA:37,2
DA:38,2
DA:40,2
DA:41,2
DA:42,2
DA:43,2
DA:44,2
DA:45,0
DA:47,64
DA:49,64
DA:51,4
DA:52,0
DA:53,4
DA:54,68
DA:55,4
DA:56,12
DA:57,4
DA:58,4
DA:59,12
DA:60,4
DA:61,2
DA:62,2
DA:63,2
DA:64,2
DA:66,6
DA:68,6
DA:69,54
DA:71,64
DA:73,0
DA:74,0
DA:75,10
DA:76,54
DA:78,4
DA:79,4
DA:83,6
DA:84,6
DA:86,6
DA:87,8
DA:89,14
DA:90,6
DA:91,10
DA:92,10
DA:93,10
DA:94,4
DA:95,62
DA:96,66
DA:97,66
DA:98,62
DA:99,4
DA:100,4
DA:101,4
DA:102,4
DA:103,4
DA:104,4
DA:105,0
DA:108,58
DA:109,58
DA:110,58
DA:112,62
DA:113,58
DA:114,4
DA:115,62
DA:116,62
DA:117,62
DA:119,106
DA:121,106
DA:122,48
DA:123,58
DA:125,2
DA:126,12
DA:127,2
DA:128,4
DA:129,2
DA:130,10
DA:131,6
DA:132,4
DA:134,8
DA:135,4
DA:136,4
DA:137,46
DA:138,46
DA:139,54
DA:140,8
DA:141,54
DA:142,54
DA:144,54
DA:145,54
DA:146,54
DA:147,8
DA:148,54
DA:149,8
DA:150,54
DA:152,10
DA:154,18
DA:155,16
DA:156,10
DA:157,2
DA:158,8
DA:159,16
DA:160,2
DA:161,4
DA:162,2
DA:164,40
DA:165,28
DA:166,2
DA:167,2
DA:168,28
DA:169,28
DA:170,36
DA:171,36
DA:172,36
DA:173,36
DA:175,36
DA:176,2
DA:177,10
DA:178,10
DA:179,10
DA:180,10
DA:181,10
DA:182,8
DA:183,0
DA:185,8
DA:186,16
DA:187,34
DA:188,26
DA:189,8
DA:190,8
DA:191,0
DA:192,4
DA:193,4
DA:194,28
DA:196,52
DA:197,6
DA:198,30
DA:199,6
DA:201,24
DA:202,44
DA:203,20
DA:204,44
DA:205,44
DA:206,24
DA:207,24
DA:209,30
DA:210,6
DA:211,8
DA:212,8
DA:213,6
DA:214,62
DA:215,8
DA:216,8
DA:217,4
DA:218,2
DA:220,0
DA:221,4
DA:222,2
DA:223,2
DA:225,22
DA:226,26
DA:227,4
DA:228,6
DA:229,6
DA:230,6
DA:233,28
DA:234,4
DA:235,24
DA:237,10
DA:238,10
DA:239,10
DA:240,4
DA:241,4
DA:242,18
DA:243,4
DA:244,62
DA:245,20
DA:246,20
DA:247,2
DA:248,2
DA:250,4
DA:251,8
DA:252,6
DA:253,6
DA:254,4
DA:255,14
DA:256,40
DA:257,4
DA:258,14
DA:259,14
DA:260,4
DA:261,2
DA:262,2
DA:263,4
DA:264,4
DA:265,12
DA:267,12
DA:268,12
DA:269,4
DA:270,6
DA:271,6
DA:272,6
DA:273,6
DA:274,44
DA:275,8
DA:276,12
DA:277,8
DA:278,8
DA:280,4
DA:282,4
DA:283,4
DA:284,6
DA:286,10
DA:287,10
DA:288,12
DA:289,4
DA:290,4
DA:291,30
DA:292,4
DA:293,46
DA:294,22
DA:295,12
DA:296,4
DA:297,4
DA:300,18
DA:301,10
DA:302,8
DA:303,18
DA:304,10
DA:305,12
DA:306,2
DA:307,12
DA:308,12
DA:309,12
DA:310,12
DA:311,16
DA:312,16
DA:313,6
DA:315,14
DA:316,30
DA:317,10
DA:319,12
DA:320,4
DA:321,10
DA:322,6
DA:323,8
DA:325,6
DA:326,12
DA:327,22
DA:329,18
DA:330,6
DA:331,30
DA:332,12
DA:333,6
DA:334,10
DA:335,10
DA:336,10
DA:337,10
DA:338,38
DA:339,10
DA:340,14
DA:341,2
DA:342,6
DA:343,4
DA:344,4
DA:345,4
DA:346,8
DA:347,8
DA:348,4
DA:349,4
DA:350,4
DA:351,6
DA:352,6
DA:353,4
DA:354,4
DA:355,8
DA:356,4
DA:357,6
DA:358,18
DA:359,6
DA:360,8
DA:361,2
DA:362,4
DA:365,4
DA:366,4
DA:367,4
DA:368,4
DA:369,4
DA:370,4
DA:371,4
DA:372,16
DA:373,2
DA:374,6
DA:375,2
DA:376,4
DA:377,8
DA:378,8
DA:379,4
DA:381,4
DA:382,36
DA:383,58
DA:384,26
DA:385,4
DA:386,36
DA:387,36
DA:388,36
DA:389,36
DA:390,136
DA:392,10
DA:393,4
DA:394,4
DA:395,4
DA:396,4
DA:397,6
DA:399,4
DA:400,12
DA:401,4
DA:402,4
DA:403,12
DA:404,8
DA:405,6
DA:406,4
DA:407,4
DA:408,0
DA:409,4
DA:410,10
DA:411,4
DA:412,6
DA:413,4
DA:414,10
DA:415,10
DA:416,16
DA:417,10
DA:418,10
DA:419,4
DA:420,4
DA:421,4
DA:422,6
DA:424,4
DA:425,2
DA:426,6
DA:427,14
DA:428,2
DA:429,6
DA:430,2
DA:431,4
DA:432,4
DA:433,4
DA:437,10
DA:438,2
DA:439,6
DA:440,6
DA:442,34
DA:443,62
DA:444,30
DA:445,2
DA:446,34
DA:447,34
DA:448,48
DA:449,32
DA:450,88
DA:451,14
DA:452,4
DA:453,6
DA:454,2
DA:455,4
DA:460,2
DA:461,8
DA:463,2
DA:464,8
DA:465,8
DA:466,4
DA:468,0
DA:469,0
DA:470,2
DA:471,4
DA:472,0
DA:473,4
DA:475,4
DA:476,4
DA:477,10
DA:478,6
DA:479,6
DA:480,2
DA:483,2
DA:485,0
DA:486,0
DA:490,2
DA:491,4
DA:492,0
DA:493,4
DA:494,4
DA:495,4
DA:496,4
DA:497,6
DA:498,6
DA:499,6
DA:500,4
DA:501,16
DA:502,4
DA:503,14
DA:504,8
DA:506,4
DA:507,4
DA:508,8
DA:509,10
DA:510,4
DA:511,4
DA:512,4
DA:513,4
DA:514,10
DA:515,32
DA:516,6
DA:517,28
DA:518,6
DA:519,10
DA:520,4
DA:521,14
DA:523,6
DA:524,6
DA:525,10
DA:527,4
DA:529,0
DA:530,0
DA:533,4
DA:535,0
DA:536,0
DA:539,4
DA:540,4
DA:541,4
DA:542,4
DA:544,4
DA:546,0
DA:547,0
DA:550,4
DA:552,0
DA:553,0
DA:557,4
DA:558,4
DA:559,4
DA:561,32
DA:563,28
DA:568,8
DA:569,4
DA:571,0
DA:574,4
DA:576,4
DA:578,4
DA:579,4
DA:580,4
DA:582,4
DA:583,4
DA:584,4
DA:588,0
LF:453
LH:428
end_of_record
TN:
SF:/home/eladubuntu/Git Projects/OS_2024-FINAL_PROJECT_MST/Reactor.cpp
FN:3,_ZN7Reactor9addHandleEiSt8functionIFvvEE
FN:10,_ZN7Reactor12handleEventsEv
FNDA:13,_ZN7Reactor12handleEventsEv
FNDA:5,_ZN7Reactor9addHandleEiSt8functionIFvvEE
FNF:2
FNH:2
DA:3,5
DA:5,5
DA:6,5
DA:7,5
DA:8,5
DA:10,13
DA:13,13
DA:15,13
DA:18,8
DA:20,0
DA:21,0
DA:25,40
DA:28,32
DA:30,8
DA:32,8
DA:37,8
LF:16
LH:14
end_of_record
TN:
SF:/home/eladubuntu/Git Projects/OS_2024-FINAL_PROJECT_MST/Reactor.hpp
FN:44,_ZN7ReactorC2Ev
FNDA:5,_ZN7ReactorC2Ev
FNF:1
FNH:1
DA:44,5
DA:46,85
DA:47,85
DA:48,5
LF:4
LH:4
end_of_record
TN:
SF:/home/eladubuntu/Git Projects/OS_2024-FINAL_PROJECT_MST/ThreadContext.cpp
FN:3,_ZN13ThreadContext12createThreadESt8functionIFvvEE
FN:8,_ZZN13ThreadContext12createThreadESt8functionIFvvEEENKUlPvE_clES3_
FN:25,_ZN13ThreadContext6wakeUpEv
FN:33,_ZN13ThreadContext5sleepEv
FN:39,_ZN13ThreadContext13conditionWaitERKSt6atomicIbE
FN:43,_ZZN13ThreadContext13conditionWaitERKSt6atomicIbEENKUlvE_clEv
FNDA:116,_ZZN13ThreadContext13conditionWaitERKSt6atomicIbEENKUlvE_clEv
FNDA:58,_ZN13ThreadContext13conditionWaitERKSt6atomicIbE
FNDA:50,_ZZN13ThreadContext12createThreadESt8functionIFvvEEENKUlPvE_clES3_
FNDA:13,_ZN13ThreadContext6wakeUpEv
FNDA:50,_ZN13ThreadContext12createThreadESt8functionIFvvEE
FNDA:8,_ZN13ThreadContext5sleepEv
FNF:6
FNH:6
DA:3,50
DA:6,50
DA:8,50
DA:10,50
DA:13,50
DA:15,45
DA:16,50
DA:18,50
DA:19,0
DA:22,50
DA:25,13
DA:27,13
DA:29,13
DA:30,13
DA:31,13
DA:33,8
DA:35,8
DA:36,8
DA:37,8
DA:39,58
DA:42,58
DA:43,174
DA:44,58
LF:23
LH:22
end_of_record
TN:
SF:/home/eladubuntu/Git Projects/OS_2024-FINAL_PROJECT_MST/ThreadContext.hpp
FN:39,_ZN13ThreadContextC2Ev
FN:44,_ZN13ThreadContextD2Ev
FN:58,_ZN13ThreadContext9addHandleEiSt8functionIFvvEE
FN:64,_ZN13ThreadContext12executeEventEv
FN:66,_ZNK13ThreadContext5getIdEv
FN:71,_ZN13ThreadContextneERKS_
FN:85,_ZN13ThreadContext7isAwakeEv
FN:100,_ZN13ThreadContext6notifyEv
FN:103,_ZN13ThreadContext4joinEv
FN:104,_ZN13ThreadContext6cancelEv
FNDA:50,_ZN13ThreadContext6notifyEv
FNDA:50,_ZN13ThreadContext4joinEv
FNDA:8,_ZN13ThreadContext9addHandleEiSt8functionIFvvEE
FNDA:179,_ZNK13ThreadContext5getIdEv
FNDA:17,_ZN13ThreadContextneERKS_
FNDA:50,_ZN13ThreadContext6cancelEv
FNDA:11,_ZN13ThreadContext7isAwakeEv
FNDA:50,_ZN13ThreadContextD2Ev
FNDA:50,_ZN13ThreadContextC2Ev
FNDA:8,_ZN13ThreadContext12executeEventEv
FNF:10
FNH:10
DA:39,50
DA:44,50
DA:58,8
DA:64,8
DA:66,179
DA:71,17
DA:85,11
DA:100,50
DA:103,50
DA:104,50
LF:10
LH:10
end_of_record
TN:
SF:/home/eladubuntu/Git Projects/OS_2024-FINAL_PROJECT_MST/Tree.cpp
FN:11,_ZN4Tree4initESt6vectorI4EdgeSaIS1_EE
FN:23,_ZN4Tree11totalWeightEv
FN:36,_ZN4Tree8dijkstraEiRSt6vectorIiSaIiEE
FN:72,_ZN4Tree3dfsEiiRSt6vectorIiSaIiEES3_
FN:85,_ZN4Tree12shortestPathB5cxx11Ev
FN:85,_ZN4Tree12shortestPathB5cxx11Eii
FN:120,_ZN4Tree15reconstructPathB5cxx11EiiRKSt6vectorIiSaIiEEi
FN:156,_ZN4Tree13floydWarshallEv
FN:184,_ZN4Tree20averageDistanceEdgesEv
FN:205,_ZN4Tree12farthestNodeEi
FN:227,_ZN4Tree8diameterEv
FN:238,_ZN4Tree7addEdgeEiii
FN:264,_ZN4Tree10removeEdgeEii
FN:269,_ZN4Tree8printMSTB5cxx11Ev
FN:275,_ZN4Tree8printMSTB5cxx11EiiiRSt6vectorIbSaIbEE
FNDA:16,_ZN4Tree20averageDistanceEdgesEv
FNDA:24,_ZN4Tree4initESt6vectorI4EdgeSaIS1_EE
FNDA:0,_ZN4Tree10removeEdgeEii
FNDA:32,_ZN4Tree12farthestNodeEi
FNDA:112,_ZN4Tree8printMSTB5cxx11EiiiRSt6vectorIbSaIbEE
FNDA:152,_ZN4Tree3dfsEiiRSt6vectorIiSaIiEES3_
FNDA:16,_ZN4Tree13floydWarshallEv
FNDA:16,_ZN4Tree15reconstructPathB5cxx11EiiRKSt6vectorIiSaIiEEi
FNDA:16,_ZN4Tree11totalWeightEv
FNDA:8,_ZN4Tree12shortestPathB5cxx11Ev
FNDA:14,_ZN4Tree12shortestPathB5cxx11Eii
FNDA:88,_ZN4Tree7addEdgeEiii
FNDA:16,_ZN4Tree8diameterEv
FNDA:16,_ZN4Tree8dijkstraEiRSt6vectorIiSaIiEE
FNDA:24,_ZN4Tree8printMSTB5cxx11Ev
FNF:15
FNH:14
DA:11,24
DA:13,24
DA:14,24
DA:15,24
DA:17,112
DA:19,88
DA:21,24
DA:23,16
DA:25,16
DA:26,92
DA:28,196
DA:30,120
DA:33,16
DA:36,16
DA:39,16
DA:41,16
DA:43,16
DA:44,16
DA:45,16
DA:48,92
DA:51,76
DA:52,76
DA:55,196
DA:57,120
DA:58,120
DA:60,120
DA:63,60
DA:64,60
DA:65,60
DA:69,32
DA:70,16
DA:72,152
DA:74,392
DA:76,240
DA:78,120
DA:79,120
DA:80,120
DA:83,152
DA:85,22
DA:87,14
DA:88,8
DA:89,8
DA:91,14
DA:92,48
DA:93,6
DA:94,104
DA:96,72
DA:97,8
DA:98,18
DA:99,26
DA:100,18
DA:101,0
DA:104,8
DA:105,8
DA:106,8
DA:107,8
DA:108,0
DA:109,8
DA:110,8
DA:112,8
DA:113,8
DA:115,8
DA:116,42
DA:117,8
DA:118,34
DA:119,34
DA:120,8
DA:122,16
DA:123,8
DA:124,0
DA:125,0
DA:127,8
DA:128,16
DA:129,16
DA:130,42
DA:131,16
DA:132,50
DA:133,34
DA:135,34
DA:137,0
DA:138,8
DA:139,8
DA:140,16
DA:141,8
DA:143,32
DA:145,24
DA:146,60
DA:148,44
DA:149,92
DA:151,64
DA:152,8
DA:153,8
DA:155,44
DA:156,8
DA:157,200
DA:158,8
DA:159,968
DA:161,1152
DA:162,460
DA:164,136
DA:168,48
DA:169,8
DA:170,240
DA:171,8
DA:172,1200
DA:173,8
DA:174,1630
DA:175,630
DA:176,44
DA:177,96
DA:178,100
DA:180,64
DA:182,72
DA:183,64
DA:184,8
DA:186,8
DA:187,8
DA:188,16
DA:189,48
DA:191,120
DA:192,16
DA:193,80
DA:194,16
DA:195,96
DA:196,96
DA:198,16
DA:200,16
DA:201,24
DA:202,88
DA:204,72
DA:205,16
DA:206,28
DA:207,44
DA:208,16
DA:209,16
DA:211,48
DA:212,16
DA:213,16
DA:214,24
DA:215,96
DA:217,88
DA:219,46
DA:220,54
DA:222,8
DA:224,32
DA:225,72
DA:227,64
DA:229,0
DA:230,8
DA:233,64
DA:235,8
DA:236,0
DA:238,32
DA:239,56
DA:240,32
DA:241,0
DA:242,0
DA:243,0
DA:245,56
DA:246,88
DA:247,56
DA:248,56
DA:249,0
DA:250,0
DA:252,32
DA:254,0
DA:255,16
DA:257,16
DA:258,80
DA:259,48
DA:260,32
DA:261,104
DA:263,72
DA:264,72
DA:265,16
DA:266,0
DA:268,72
DA:269,8
DA:270,184
DA:271,8
DA:272,136
DA:273,8
DA:275,96
DA:277,40
DA:278,96
DA:279,8
DA:281,56
DA:282,40
DA:284,160
DA:285,56
DA:286,64
DA:288,72
DA:289,48
DA:292,104
DA:293,0
DA:295,32
DA:298,32
DA:299,32
DA:302,40
DA:303,8
DA:306,40
DA:307,0
LF:202
LH:186
end_of_record
TN:
SF:/home/eladubuntu/Git Projects/OS_2024-FINAL_PROJECT_MST/Tree.hpp
FN:24,_ZN4TreeC2ESt6vectorI4EdgeSaIS1_EE
FNDA:24,_ZN4TreeC2ESt6vectorI4EdgeSaIS1_EE
FNF:1
FNH:1
DA:24,16
DA:96,8
LF:2
LH:2
end_of_record
TN:
SF:/usr/include/c++/11/atomic
FN:76,_ZNSt6atomicIbEC2Eb
FN:86,_ZNKSt6atomicIbEcvbEv
FN:103,_ZNSt6atomicIbE5storeEbSt12memory_order
FN:111,_ZNKSt6atomicIbE4loadESt12memory_order
FNDA:150,_ZNKSt6atomicIbEcvbEv
FNDA:918,_ZNKSt6atomicIbE4loadESt12memory_order
FNDA:218,_ZNSt6atomicIbE5storeEbSt12memory_order
FNDA:102,_ZNSt6atomicIbEC2Eb
FNF:4
FNH:4
DA:76,102
DA:86,150
DA:87,300
DA:103,218
DA:104,218
DA:111,918
DA:112,1836
LF:7
LH:7
end_of_record
TN:
SF:/usr/include/c++/11/bits/alloc_traits.h
FN:463,_ZNSt16allocator_traitsISaImEE8allocateERS0_m
FN:463,_ZNSt16allocator_traitsISaIiEE8allocateERS0_m
FN:463,_ZNSt16allocator_traitsISaISt6vectorI4EdgeSaIS1_EEEE8allocateERS4_m
FN:463,_ZNSt16allocator_traitsISaISt13_Rb_tree_nodeISt4pairIKiSt8functionIFvvEEEEEE8allocateERS8_m
FN:463,_ZNSt16allocator_traitsISaIPSt8functionIFvvEEEE8allocateERS4_m
FN:463,_ZNSt16allocator_traitsISaI4EdgeEE8allocateERS1_m
FN:463,_ZNSt16allocator_traitsISaISt10shared_ptrI13ThreadContextEEE8allocateERS3_m
FN:463,_ZNSt16allocator_traitsISaISt10unique_ptrI12ActiveObjectSt14default_deleteIS1_EEEE8allocateERS5_m
FN:463,_ZNSt16allocator_traitsISaISt4pairIiiEEE8allocateERS2_m
FN:463,_ZNSt16allocator_traitsISaISt6vectorIiSaIiEEEE8allocateERS3_m
FN:463,_ZNSt16allocator_traitsISaISt23_Sp_counted_ptr_inplaceI13ThreadContextSaIS1_ELN9__gnu_cxx12_Lock_policyE2EEEE8allocateERS6_m
FN:463,_ZNSt16allocator_traitsISaISt8functionIFvvEEEE8allocateERS3_m
FN:495,_ZNSt16allocator_traitsISaISt8functionIFvvEEEE10deallocateERS3_PS2_m
FN:495,_ZNSt16allocator_traitsISaISt4pairIiiEEE10deallocateERS2_PS1_m
FN:495,_ZNSt16allocator_traitsISaISt10shared_ptrI13ThreadContextEEE10deallocateERS3_PS2_m
FN:495,_ZNSt16allocator_traitsISaISt6threadEE10deallocateERS1_PS0_m
FN:495,_ZNSt16allocator_traitsISaI4EdgeEE10deallocateERS1_PS0_m
FN:495,_ZNSt16allocator_traitsISaISt10unique_ptrI12ActiveObjectSt14default_deleteIS1_EEEE10deallocateERS5_PS4_m
FN:495,_ZNSt16allocator_traitsISaIiEE10deallocateERS0_Pim
FN:495,_ZNSt16allocator_traitsISaImEE10deallocateERS0_Pmm
FN:495,_ZNSt16allocator_traitsISaIPSt8functionIFvvEEEE10deallocateERS4_PS3_m
FN:495,_ZNSt16allocator_traitsISaISt6vectorIiSaIiEEEE10deallocateERS3_PS2_m
FN:495,_ZNSt16allocator_traitsISaISt6vectorI4EdgeSaIS1_EEEE10deallocateERS4_PS3_m
FN:495,_ZNSt16allocator_traitsISaISt13_Rb_tree_nodeISt4pairIKiSt8functionIFvvEEEEEE10deallocateERS8_PS7_m
FN:495,_ZNSt16allocator_traitsISaISt23_Sp_counted_ptr_inplaceI13ThreadContextSaIS1_ELN9__gnu_cxx12_Lock_policyE2EEEE10deallocateERS6_PS5_m
FN:511,_ZNSt16allocator_traitsISaISt6vectorIiSaIiEEEE9constructIS2_JRKS2_EEEvRS3_PT_DpOT0_
FN:511,_ZNSt16allocator_traitsISaIiEE9constructIiJiEEEvRS0_PT_DpOT0_
FN:511,_ZNSt16allocator_traitsISaISt8functionIFvvEEEE9constructIS2_JRZ14handleCommandsiRSt6vectorISt10unique_ptrI12ActiveObjectSt14default_deleteIS8_EESaISB_EERS7_I5GraphS9_ISF_EER10MSTFactoryRS7_I4TreeS9_ISL_EEEUlvE_EEEvRS3_PT_DpOT0_
FN:511,_ZNSt16allocator_traitsISaISt8functionIFvvEEEE9constructIS2_JRZ14handleCommandsiRSt6vectorISt10unique_ptrI12ActiveObjectSt14default_deleteIS8_EESaISB_EERS7_I5GraphS9_ISF_EER10MSTFactoryRS7_I4TreeS9_ISL_EEEUlvE9_EEEvRS3_PT_DpOT0_
FN:511,_ZNSt16allocator_traitsISaISt8functionIFvvEEEE9constructIS2_JRZ14handleCommandsiRSt6vectorISt10unique_ptrI12ActiveObjectSt14default_deleteIS8_EESaISB_EERS7_I5GraphS9_ISF_EER10MSTFactoryRS7_I4TreeS9_ISL_EEEUlvE0_EEEvRS3_PT_DpOT0_
FN:511,_ZNSt16allocator_traitsISaISt8functionIFvvEEEE9constructIS2_JRZ14handleCommandsiRSt6vectorISt10unique_ptrI12ActiveObjectSt14default_deleteIS8_EESaISB_EERS7_I5GraphS9_ISF_EER10MSTFactoryRS7_I4TreeS9_ISL_EEEUlvE5_EEEvRS3_PT_DpOT0_
FN:511,_ZNSt16allocator_traitsISaISt8functionIFvvEEEE9constructIS2_JRZ14handleCommandsiRSt6vectorISt10unique_ptrI12ActiveObjectSt14default_deleteIS8_EESaISB_EERS7_I5GraphS9_ISF_EER10MSTFactoryRS7_I4TreeS9_ISL_EEEUlvE4_EEEvRS3_PT_DpOT0_
FN:511,_ZNSt16allocator_traitsISaISt8functionIFvvEEEE9constructIS2_JRZ14handleCommandsiRSt6vectorISt10unique_ptrI12ActiveObjectSt14default_deleteIS8_EESaISB_EERS7_I5GraphS9_ISF_EER10MSTFactoryRS7_I4TreeS9_ISL_EEEUlvE2_EEEvRS3_PT_DpOT0_
FN:511,_ZNSt16allocator_traitsISaISt8functionIFvvEEEE9constructIS2_JRZZZ14handleCommandsiRSt6vectorISt10unique_ptrI12ActiveObjectSt14default_deleteIS8_EESaISB_EERS7_I5GraphS9_ISF_EER10MSTFactoryRS7_I4TreeS9_ISL_EEENKUlvE3_clEvENKUlvE_clEvEUlvE_EEEvRS3_PT_DpOT0_
FN:511,_ZNSt16allocator_traitsISaI4EdgeEE9constructIS0_JS0_EEEvRS1_PT_DpOT0_
FN:511,_ZNSt16allocator_traitsISaISt8functionIFvvEEEE9constructIS2_JRZ14handleCommandsiRSt6vectorISt10unique_ptrI12ActiveObjectSt14default_deleteIS8_EESaISB_EERS7_I5GraphS9_ISF_EER10MSTFactoryRS7_I4TreeS9_ISL_EEEUlvE1_EEEvRS3_PT_DpOT0_
FN:511,_ZNSt16allocator_traitsISaISt8functionIFvvEEEE9constructIS2_JRZ14handleCommandsiRSt6vectorISt10unique_ptrI12ActiveObjectSt14default_deleteIS8_EESaISB_EERS7_I5GraphS9_ISF_EER10MSTFactoryRS7_I4TreeS9_ISL_EEEUlvE8_EEEvRS3_PT_DpOT0_
FN:511,_ZNSt16allocator_traitsISaISt8functionIFvvEEEE9constructIS2_JRZ14handleCommandsiRSt6vectorISt10unique_ptrI12ActiveObjectSt14default_deleteIS8_EESaISB_EERS7_I5GraphS9_ISF_EER10MSTFactoryRS7_I4TreeS9_ISL_EEEUlvE3_EEEvRS3_PT_DpOT0_
FN:511,_ZNSt16allocator_traitsISaISt10unique_ptrI12ActiveObjectSt14default_deleteIS1_EEEE9constructIS4_JS4_EEEvRS5_PT_DpOT0_
FN:511,_ZNSt16allocator_traitsISaISt8functionIFvvEEEE9constructIS2_JRZZZZ14handleCommandsiRSt6vectorISt10unique_ptrI12ActiveObjectSt14default_deleteIS8_EESaISB_EERS7_I5GraphS9_ISF_EER10MSTFactoryRS7_I4TreeS9_ISL_EEENKUlvE3_clEvENKUlvE_clEvENKUlvE_clEvEUlvE_EEEvRS3_PT_DpOT0_
FN:511,_ZNSt16allocator_traitsISaISt13_Rb_tree_nodeISt4pairIKiSt8functionIFvvEEEEEE9constructIS6_JRKSt21piecewise_construct_tSt5tupleIJRS2_EESE_IJEEEEEvRS8_PT_DpOT0_
FN:511,_ZNSt16allocator_traitsISaISt6vectorI4EdgeSaIS1_EEEE9constructIS3_JS3_EEEvRS4_PT_DpOT0_
FN:511,_ZNSt16allocator_traitsISaISt8functionIFvvEEEE9constructIS2_JRZZZZZ14handleCommandsiRSt6vectorISt10unique_ptrI12ActiveObjectSt14default_deleteIS8_EESaISB_EERS7_I5GraphS9_ISF_EER10MSTFactoryRS7_I4TreeS9_ISL_EEENKUlvE3_clEvENKUlvE_clEvENKUlvE_clEvENKUlvE_clEvEUlvE_EEEvRS3_PT_DpOT0_
FN:511,_ZNSt16allocator_traitsISaISt8functionIFvvEEEE9constructIS2_JRZZZZZZ14handleCommandsiRSt6vectorISt10unique_ptrI12ActiveObjectSt14default_deleteIS8_EESaISB_EERS7_I5GraphS9_ISF_EER10MSTFactoryRS7_I4TreeS9_ISL_EEENKUlvE3_clEvENKUlvE_clEvENKUlvE_clEvENKUlvE_clEvENKUlvE_clEvEUlvE_EEEvRS3_PT_DpOT0_
FN:511,_ZNSt16allocator_traitsISaISt8functionIFvvEEEE9constructIS2_JRZZ14handleCommandsiRSt6vectorISt10unique_ptrI12ActiveObjectSt14default_deleteIS8_EESaISB_EERS7_I5GraphS9_ISF_EER10MSTFactoryRS7_I4TreeS9_ISL_EEENKUlvE3_clEvEUlvE_EEEvRS3_PT_DpOT0_
FN:511,_ZNSt16allocator_traitsISaISt8functionIFvvEEEE9constructIS2_JRZ14handleCommandsiRSt6vectorISt10unique_ptrI12ActiveObjectSt14default_deleteIS8_EESaISB_EERS7_I5GraphS9_ISF_EER10MSTFactoryRS7_I4TreeS9_ISL_EEEUlvE10_EEEvRS3_PT_DpOT0_
FN:511,_ZNSt16allocator_traitsISaISt4pairIiiEEE9constructIS1_JS1_EEEvRS2_PT_DpOT0_
FN:511,_ZNSt16allocator_traitsISaI4EdgeEE9constructIS0_JRKS0_EEEvRS1_PT_DpOT0_
FN:511,_ZNSt16allocator_traitsISaISt8functionIFvvEEEE9constructIS2_JRZ14handleCommandsiRSt6vectorISt10unique_ptrI12ActiveObjectSt14default_deleteIS8_EESaISB_EERS7_I5GraphS9_ISF_EER10MSTFactoryRS7_I4TreeS9_ISL_EEEUlvE6_EEEvRS3_PT_DpOT0_
FN:511,_ZNSt16allocator_traitsISaImEE9constructImJRKmEEEvRS0_PT_DpOT0_
FN:511,_ZNSt16allocator_traitsISaI13ThreadContextEE9constructIS0_JEEEvRS1_PT_DpOT0_
FN:531,_ZNSt16allocator_traitsISaISt10unique_ptrI12ActiveObjectSt14default_deleteIS1_EEEE7destroyIS4_EEvRS5_PT_
FN:531,_ZNSt16allocator_traitsISaISt4pairIiiEEE7destroyIS1_EEvRS2_PT_
FN:531,_ZNSt16allocator_traitsISaISt6vectorI4EdgeSaIS1_EEEE7destroyIS3_EEvRS4_PT_
FN:531,_ZNSt16allocator_traitsISaISt13_Rb_tree_nodeISt4pairIKiSt8functionIFvvEEEEEE7destroyIS6_EEvRS8_PT_
FN:531,_ZNSt16allocator_traitsISaI13ThreadContextEE7destroyIS0_EEvRS1_PT_
FN:531,_ZNSt16allocator_traitsISaISt8functionIFvvEEEE7destroyIS2_EEvRS3_PT_
FN:531,_ZNSt16allocator_traitsISaISt6vectorIiSaIiEEEE7destroyIS2_EEvRS3_PT_
FN:547,_ZNSt16allocator_traitsISaISt6vectorIiSaIiEEEE8max_sizeERKS3_
FN:547,_ZNSt16allocator_traitsISaISt8functionIFvvEEEE8max_sizeERKS3_
FN:547,_ZNSt16allocator_traitsISaISt6vectorI4EdgeSaIS1_EEEE8max_sizeERKS4_
FN:547,_ZNSt16allocator_traitsISaISt10shared_ptrI13ThreadContextEEE8max_sizeERKS3_
FN:547,_ZNSt16allocator_traitsISaI4EdgeEE8max_sizeERKS1_
FN:547,_ZNSt16allocator_traitsISaImEE8max_sizeERKS0_
FN:547,_ZNSt16allocator_traitsISaISt4pairIiiEEE8max_sizeERKS2_
FN:547,_ZNSt16allocator_traitsISaIiEE8max_sizeERKS0_
FN:547,_ZNSt16allocator_traitsISaISt10unique_ptrI12ActiveObjectSt14default_deleteIS1_EEEE8max_sizeERKS5_
FN:562,_ZNSt16allocator_traitsISaImEE37select_on_container_copy_constructionERKS0_
FN:562,_ZNSt16allocator_traitsISaIiEE37select_on_container_copy_constructionERKS0_
FN:562,_ZNSt16allocator_traitsISaIcEE37select_on_container_copy_constructionERKS0_
FN:562,_ZNSt16allocator_traitsISaI4EdgeEE37select_on_container_copy_constructionERKS1_
FN:678,_ZSt15__alloc_on_copyISaIiEEvRT_RKS1_
FN:710,_ZSt15__alloc_on_moveISaIiEEvRT_S2_
FN:737,_ZSt15__alloc_on_swapISaISt10unique_ptrI12ActiveObjectSt14default_deleteIS1_EEEEvRT_S7_
FN:737,_ZSt15__alloc_on_swapISaImEEvRT_S2_
FN:845,_ZSt8_DestroyIPSt6vectorIiSaIiEES2_EvT_S4_RSaIT0_E
FN:845,_ZSt8_DestroyIPSt10shared_ptrI13ThreadContextES2_EvT_S4_RSaIT0_E
FN:845,_ZSt8_DestroyIPmmEvT_S1_RSaIT0_E
FN:845,_ZSt8_DestroyIPiiEvT_S1_RSaIT0_E
FN:845,_ZSt8_DestroyIPSt10unique_ptrI12ActiveObjectSt14default_deleteIS1_EES4_EvT_S6_RSaIT0_E
FN:845,_ZSt8_DestroyIPSt6threadS0_EvT_S2_RSaIT0_E
FN:845,_ZSt8_DestroyIP4EdgeS0_EvT_S2_RSaIT0_E
FN:845,_ZSt8_DestroyIN9__gnu_cxx17__normal_iteratorIPiSt6vectorIiSaIiEEEEiEvT_S7_RSaIT0_E
FN:845,_ZSt8_DestroyIPSt6vectorI4EdgeSaIS1_EES3_EvT_S5_RSaIT0_E
FN:845,_ZSt8_DestroyIPSt4pairIiiES1_EvT_S3_RSaIT0_E
FN:845,_ZSt8_DestroyIPSt8functionIFvvEES2_EvT_S4_RSaIT0_E
FNDA:142,_ZNSt16allocator_traitsISaISt8functionIFvvEEEE7destroyIS2_EEvRS3_PT_
FNDA:50,_ZNSt16allocator_traitsISaISt23_Sp_counted_ptr_inplaceI13ThreadContextSaIS1_ELN9__gnu_cxx12_Lock_policyE2EEEE10deallocateERS6_PS5_m
FNDA:26,_ZNSt16allocator_traitsISaISt4pairIiiEEE8allocateERS2_m
FNDA:16,_ZNSt16allocator_traitsISaISt6vectorIiSaIiEEEE8allocateERS3_m
FNDA:4,_ZNSt16allocator_traitsISaISt8functionIFvvEEEE9constructIS2_JRZZZZZZ14handleCommandsiRSt6vectorISt10unique_ptrI12ActiveObjectSt14default_deleteIS8_EESaISB_EERS7_I5GraphS9_ISF_EER10MSTFactoryRS7_I4TreeS9_ISL_EEENKUlvE3_clEvENKUlvE_clEvENKUlvE_clEvENKUlvE_clEvENKUlvE_clEvEUlvE_EEEvRS3_PT_DpOT0_
FNDA:4,_ZNSt16allocator_traitsISaISt8functionIFvvEEEE9constructIS2_JRZZ14handleCommandsiRSt6vectorISt10unique_ptrI12ActiveObjectSt14default_deleteIS8_EESaISB_EERS7_I5GraphS9_ISF_EER10MSTFactoryRS7_I4TreeS9_ISL_EEENKUlvE3_clEvEUlvE_EEEvRS3_PT_DpOT0_
FNDA:4,_ZNSt16allocator_traitsISaISt8functionIFvvEEEE9constructIS2_JRZ14handleCommandsiRSt6vectorISt10unique_ptrI12ActiveObjectSt14default_deleteIS8_EESaISB_EERS7_I5GraphS9_ISF_EER10MSTFactoryRS7_I4TreeS9_ISL_EEEUlvE10_EEEvRS3_PT_DpOT0_
FNDA:5,_ZNSt16allocator_traitsISaISt13_Rb_tree_nodeISt4pairIKiSt8functionIFvvEEEEEE10deallocateERS8_PS7_m
FNDA:42,_ZSt8_DestroyIPSt8functionIFvvEES2_EvT_S4_RSaIT0_E
FNDA:88,_ZNSt16allocator_traitsISaISt4pairIiiEEE9constructIS1_JS1_EEEvRS2_PT_DpOT0_
FNDA:100,_ZNSt16allocator_traitsISaI4EdgeEE9constructIS0_JRKS0_EEEvRS1_PT_DpOT0_
FNDA:0,_ZSt15__alloc_on_moveISaIiEEvRT_S2_
FNDA:10,_ZNSt16allocator_traitsISaImEE9constructImJRKmEEEvRS0_PT_DpOT0_
FNDA:50,_ZNSt16allocator_traitsISaISt23_Sp_counted_ptr_inplaceI13ThreadContextSaIS1_ELN9__gnu_cxx12_Lock_policyE2EEEE8allocateERS6_m
FNDA:10,_ZNSt16allocator_traitsISaISt8functionIFvvEEEE9constructIS2_JRZ14handleCommandsiRSt6vectorISt10unique_ptrI12ActiveObjectSt14default_deleteIS8_EESaISB_EERS7_I5GraphS9_ISF_EER10MSTFactoryRS7_I4TreeS9_ISL_EEEUlvE6_EEEvRS3_PT_DpOT0_
FNDA:54,_ZNSt16allocator_traitsISaISt10unique_ptrI12ActiveObjectSt14default_deleteIS1_EEEE8max_sizeERKS5_
FNDA:0,_ZSt15__alloc_on_copyISaIiEEvRT_RKS1_
FNDA:50,_ZNSt16allocator_traitsISaI13ThreadContextEE9constructIS0_JEEEvRS1_PT_DpOT0_
FNDA:0,_ZNSt16allocator_traitsISaISt6vectorIiSaIiEEEE7destroyIS2_EEvRS3_PT_
FNDA:44,_ZNSt16allocator_traitsISaISt8functionIFvvEEEE8allocateERS3_m
FNDA:4,_ZNSt16allocator_traitsISaISt8functionIFvvEEEE9constructIS2_JRZZZZ14handleCommandsiRSt6vectorISt10unique_ptrI12ActiveObjectSt14default_deleteIS8_EESaISB_EERS7_I5GraphS9_ISF_EER10MSTFactoryRS7_I4TreeS9_ISL_EEENKUlvE3_clEvENKUlvE_clEvENKUlvE_clEvEUlvE_EEEvRS3_PT_DpOT0_
FNDA:289,_ZSt8_DestroyIP4EdgeS0_EvT_S2_RSaIT0_E
FNDA:0,_ZSt8_DestroyIPSt6threadS0_EvT_S2_RSaIT0_E
FNDA:52,_ZNSt16allocator_traitsISaISt4pairIiiEEE8max_sizeERKS2_
FNDA:466,_ZNSt16allocator_traitsISaI4EdgeEE8allocateERS1_m
FNDA:5,_ZNSt16allocator_traitsISaISt13_Rb_tree_nodeISt4pairIKiSt8functionIFvvEEEEEE9constructIS6_JRKSt21piecewise_construct_tSt5tupleIJRS2_EESE_IJEEEEEvRS8_PT_DpOT0_
FNDA:16,_ZNSt16allocator_traitsISaISt6vectorIiSaIiEEEE10deallocateERS3_PS2_m
FNDA:5,_ZNSt16allocator_traitsISaISt10shared_ptrI13ThreadContextEEE8allocateERS3_m
FNDA:0,_ZNSt16allocator_traitsISaISt6vectorI4EdgeSaIS1_EEEE9constructIS3_JS3_EEEvRS4_PT_DpOT0_
FNDA:4,_ZNSt16allocator_traitsISaISt8functionIFvvEEEE9constructIS2_JRZZZZZ14handleCommandsiRSt6vectorISt10unique_ptrI12ActiveObjectSt14default_deleteIS8_EESaISB_EERS7_I5GraphS9_ISF_EER10MSTFactoryRS7_I4TreeS9_ISL_EEENKUlvE3_clEvENKUlvE_clEvENKUlvE_clEvENKUlvE_clEvEUlvE_EEEvRS3_PT_DpOT0_
FNDA:42,_ZSt8_DestroyIPSt6vectorI4EdgeSaIS1_EES3_EvT_S5_RSaIT0_E
FNDA:16,_ZSt8_DestroyIPSt4pairIiiES1_EvT_S3_RSaIT0_E
FNDA:42,_ZNSt16allocator_traitsISaISt6vectorI4EdgeSaIS1_EEEE10deallocateERS4_PS3_m
FNDA:244,_ZNSt16allocator_traitsISaIiEE8max_sizeERKS0_
FNDA:24,_ZNSt16allocator_traitsISaISt10unique_ptrI12ActiveObjectSt14default_deleteIS1_EEEE8allocateERS5_m
FNDA:0,_ZSt8_DestroyIN9__gnu_cxx17__normal_iteratorIPiSt6vectorIiSaIiEEEEiEvT_S7_RSaIT0_E
FNDA:48,_ZNSt16allocator_traitsISaI4EdgeEE37select_on_container_copy_constructionERKS1_
FNDA:168,_ZNSt16allocator_traitsISaISt6vectorI4EdgeSaIS1_EEEE8max_sizeERKS4_
FNDA:24,_ZNSt16allocator_traitsISaISt10unique_ptrI12ActiveObjectSt14default_deleteIS1_EEEE10deallocateERS5_PS4_m
FNDA:10,_ZSt8_DestroyIPSt10shared_ptrI13ThreadContextES2_EvT_S4_RSaIT0_E
FNDA:42,_ZNSt16allocator_traitsISaISt6vectorI4EdgeSaIS1_EEEE8allocateERS4_m
FNDA:6,_ZSt15__alloc_on_swapISaISt10unique_ptrI12ActiveObjectSt14default_deleteIS1_EEEEvRT_S7_
FNDA:5,_ZNSt16allocator_traitsISaISt10shared_ptrI13ThreadContextEEE8max_sizeERKS3_
FNDA:836,_ZNSt16allocator_traitsISaI4EdgeEE8max_sizeERKS1_
FNDA:6,_ZNSt16allocator_traitsISaISt8functionIFvvEEEE9constructIS2_JRZ14handleCommandsiRSt6vectorISt10unique_ptrI12ActiveObjectSt14default_deleteIS8_EESaISB_EERS7_I5GraphS9_ISF_EER10MSTFactoryRS7_I4TreeS9_ISL_EEEUlvE8_EEEvRS3_PT_DpOT0_
FNDA:322,_ZNSt16allocator_traitsISaIiEE10deallocateERS0_Pim
FNDA:8,_ZSt8_DestroyIPmmEvT_S1_RSaIT0_E
FNDA:5,_ZNSt16allocator_traitsISaISt13_Rb_tree_nodeISt4pairIKiSt8functionIFvvEEEEEE8allocateERS8_m
FNDA:296,_ZSt8_DestroyIPiiEvT_S1_RSaIT0_E
FNDA:12,_ZSt8_DestroyIPSt10unique_ptrI12ActiveObjectSt14default_deleteIS1_EES4_EvT_S6_RSaIT0_E
FNDA:90,_ZNSt16allocator_traitsISaImEE10deallocateERS0_Pmm
FNDA:4,_ZSt15__alloc_on_swapISaImEEvRT_S2_
FNDA:16,_ZNSt16allocator_traitsISaISt8functionIFvvEEEE9constructIS2_JRZ14handleCommandsiRSt6vectorISt10unique_ptrI12ActiveObjectSt14default_deleteIS8_EESaISB_EERS7_I5GraphS9_ISF_EER10MSTFactoryRS7_I4TreeS9_ISL_EEEUlvE3_EEEvRS3_PT_DpOT0_
FNDA:84,_ZNSt16allocator_traitsISaISt10unique_ptrI12ActiveObjectSt14default_deleteIS1_EEEE9constructIS4_JS4_EEEvRS5_PT_DpOT0_
FNDA:24,_ZNSt16allocator_traitsISaImEE8max_sizeERKS0_
FNDA:50,_ZNSt16allocator_traitsISaI13ThreadContextEE7destroyIS0_EEvRS1_PT_
FNDA:42,_ZNSt16allocator_traitsISaIPSt8functionIFvvEEEE8allocateERS4_m
FNDA:42,_ZNSt16allocator_traitsISaIPSt8functionIFvvEEEE10deallocateERS4_PS3_m
FNDA:44,_ZNSt16allocator_traitsISaImEE37select_on_container_copy_constructionERKS0_
FNDA:2,_ZNSt16allocator_traitsISaISt8functionIFvvEEEE8max_sizeERKS3_
FNDA:90,_ZNSt16allocator_traitsISaImEE8allocateERS0_m
FNDA:42,_ZNSt16allocator_traitsISaISt10unique_ptrI12ActiveObjectSt14default_deleteIS1_EEEE7destroyIS4_EEvRS5_PT_
FNDA:120,_ZNSt16allocator_traitsISaIiEE37select_on_container_copy_constructionERKS0_
FNDA:0,_ZNSt16allocator_traitsISaISt6vectorIiSaIiEEEE9constructIS2_JRKS2_EEEvRS3_PT_DpOT0_
FNDA:32,_ZNSt16allocator_traitsISaISt6vectorIiSaIiEEEE8max_sizeERKS3_
FNDA:44,_ZNSt16allocator_traitsISaISt8functionIFvvEEEE10deallocateERS3_PS2_m
FNDA:40,_ZSt8_DestroyIPSt6vectorIiSaIiEES2_EvT_S4_RSaIT0_E
FNDA:50,_ZNSt16allocator_traitsISaIiEE9constructIiJiEEEvRS0_PT_DpOT0_
FNDA:26,_ZNSt16allocator_traitsISaIcEE37select_on_container_copy_constructionERKS0_
FNDA:34,_ZNSt16allocator_traitsISaISt8functionIFvvEEEE9constructIS2_JRZ14handleCommandsiRSt6vectorISt10unique_ptrI12ActiveObjectSt14default_deleteIS8_EESaISB_EERS7_I5GraphS9_ISF_EER10MSTFactoryRS7_I4TreeS9_ISL_EEEUlvE0_EEEvRS3_PT_DpOT0_
FNDA:88,_ZNSt16allocator_traitsISaISt4pairIiiEEE7destroyIS1_EEvRS2_PT_
FNDA:0,_ZNSt16allocator_traitsISaISt6vectorI4EdgeSaIS1_EEEE7destroyIS3_EEvRS4_PT_
FNDA:4,_ZNSt16allocator_traitsISaISt8functionIFvvEEEE9constructIS2_JRZ14handleCommandsiRSt6vectorISt10unique_ptrI12ActiveObjectSt14default_deleteIS8_EESaISB_EERS7_I5GraphS9_ISF_EER10MSTFactoryRS7_I4TreeS9_ISL_EEEUlvE9_EEEvRS3_PT_DpOT0_
FNDA:16,_ZNSt16allocator_traitsISaISt8functionIFvvEEEE9constructIS2_JRZ14handleCommandsiRSt6vectorISt10unique_ptrI12ActiveObjectSt14default_deleteIS8_EESaISB_EERS7_I5GraphS9_ISF_EER10MSTFactoryRS7_I4TreeS9_ISL_EEEUlvE_EEEvRS3_PT_DpOT0_
FNDA:5,_ZNSt16allocator_traitsISaISt10shared_ptrI13ThreadContextEEE10deallocateERS3_PS2_m
FNDA:26,_ZNSt16allocator_traitsISaISt4pairIiiEEE10deallocateERS2_PS1_m
FNDA:12,_ZNSt16allocator_traitsISaISt8functionIFvvEEEE9constructIS2_JRZ14handleCommandsiRSt6vectorISt10unique_ptrI12ActiveObjectSt14default_deleteIS8_EESaISB_EERS7_I5GraphS9_ISF_EER10MSTFactoryRS7_I4TreeS9_ISL_EEEUlvE2_EEEvRS3_PT_DpOT0_
FNDA:4,_ZNSt16allocator_traitsISaISt8functionIFvvEEEE9constructIS2_JRZZZ14handleCommandsiRSt6vectorISt10unique_ptrI12ActiveObjectSt14default_deleteIS8_EESaISB_EERS7_I5GraphS9_ISF_EER10MSTFactoryRS7_I4TreeS9_ISL_EEENKUlvE3_clEvENKUlvE_clEvEUlvE_EEEvRS3_PT_DpOT0_
FNDA:346,_ZNSt16allocator_traitsISaI4EdgeEE9constructIS0_JS0_EEEvRS1_PT_DpOT0_
FNDA:12,_ZNSt16allocator_traitsISaISt8functionIFvvEEEE9constructIS2_JRZ14handleCommandsiRSt6vectorISt10unique_ptrI12ActiveObjectSt14default_deleteIS8_EESaISB_EERS7_I5GraphS9_ISF_EER10MSTFactoryRS7_I4TreeS9_ISL_EEEUlvE1_EEEvRS3_PT_DpOT0_
FNDA:322,_ZNSt16allocator_traitsISaIiEE8allocateERS0_m
FNDA:0,_ZNSt16allocator_traitsISaISt6threadEE10deallocateERS1_PS0_m
FNDA:466,_ZNSt16allocator_traitsISaI4EdgeEE10deallocateERS1_PS0_m
FNDA:4,_ZNSt16allocator_traitsISaISt8functionIFvvEEEE9constructIS2_JRZ14handleCommandsiRSt6vectorISt10unique_ptrI12ActiveObjectSt14default_deleteIS8_EESaISB_EERS7_I5GraphS9_ISF_EER10MSTFactoryRS7_I4TreeS9_ISL_EEEUlvE5_EEEvRS3_PT_DpOT0_
FNDA:4,_ZNSt16allocator_traitsISaISt8functionIFvvEEEE9constructIS2_JRZ14handleCommandsiRSt6vectorISt10unique_ptrI12ActiveObjectSt14default_deleteIS8_EESaISB_EERS7_I5GraphS9_ISF_EER10MSTFactoryRS7_I4TreeS9_ISL_EEEUlvE4_EEEvRS3_PT_DpOT0_
FNDA:5,_ZNSt16allocator_traitsISaISt13_Rb_tree_nodeISt4pairIKiSt8functionIFvvEEEEEE7destroyIS6_EEvRS8_PT_
FNF:86
FNH:77
DA:463,1132
DA:464,1132
DA:495,1132
DA:496,1132
DA:511,875
DA:516,875
DA:520,875
DA:531,327
DA:535,327
DA:539,327
DA:547,1417
DA:550,1417
DA:562,238
DA:563,238
DA:678,0
DA:688,0
DA:710,0
DA:716,0
DA:720,0
DA:737,10
DA:750,10
DA:845,755
DA:848,755
DA:849,755
LF:24
LH:19
end_of_record
TN:
SF:/usr/include/c++/11/bits/allocated_ptr.h
FN:53,_ZNSt15__allocated_ptrISaISt23_Sp_counted_ptr_inplaceI13ThreadContextSaIS1_ELN9__gnu_cxx12_Lock_policyE2EEEEC2ERS6_PS5_
FN:71,_ZNSt15__allocated_ptrISaISt23_Sp_counted_ptr_inplaceI13ThreadContextSaIS1_ELN9__gnu_cxx12_Lock_policyE2EEEED2Ev
FN:79,_ZNSt15__allocated_ptrISaISt23_Sp_counted_ptr_inplaceI13ThreadContextSaIS1_ELN9__gnu_cxx12_Lock_policyE2EEEEaSEDn
FN:86,_ZNSt15__allocated_ptrISaISt23_Sp_counted_ptr_inplaceI13ThreadContextSaIS1_ELN9__gnu_cxx12_Lock_policyE2EEEE3getEv
FN:96,_ZSt18__allocate_guardedISaISt23_Sp_counted_ptr_inplaceI13ThreadContextSaIS1_ELN9__gnu_cxx12_Lock_policyE2EEEESt15__allocated_ptrIT_ERS8_
FNDA:100,_ZNSt15__allocated_ptrISaISt23_Sp_counted_ptr_inplaceI13ThreadContextSaIS1_ELN9__gnu_cxx12_Lock_policyE2EEEEC2ERS6_PS5_
FNDA:100,_ZNSt15__allocated_ptrISaISt23_Sp_counted_ptr_inplaceI13ThreadContextSaIS1_ELN9__gnu_cxx12_Lock_policyE2EEEED2Ev
FNDA:50,_ZNSt15__allocated_ptrISaISt23_Sp_counted_ptr_inplaceI13ThreadContextSaIS1_ELN9__gnu_cxx12_Lock_policyE2EEEEaSEDn
FNDA:50,_ZNSt15__allocated_ptrISaISt23_Sp_counted_ptr_inplaceI13ThreadContextSaIS1_ELN9__gnu_cxx12_Lock_policyE2EEEE3getEv
FNDA:50,_ZSt18__allocate_guardedISaISt23_Sp_counted_ptr_inplaceI13ThreadContextSaIS1_ELN9__gnu_cxx12_Lock_policyE2EEEESt15__allocated_ptrIT_ERS8_
FNF:5
FNH:5
DA:53,100
DA:54,100
DA:55,100
DA:71,100
DA:73,100
DA:74,50
DA:75,100
DA:79,50
DA:81,50
DA:82,50
DA:86,50
DA:96,50
DA:98,50
LF:13
LH:13
end_of_record
TN:
SF:/usr/include/c++/11/bits/allocator.h
FN:156,_ZNSaI4EdgeEC2Ev
FN:156,_ZNSaISt6vectorIiSaIiEEEC2Ev
FN:156,_ZNSaISt10unique_ptrI12ActiveObjectSt14default_deleteIS0_EEEC2Ev
FN:156,_ZNSaISt8functionIFvvEEEC2Ev
FN:156,_ZNSaISt10shared_ptrI13ThreadContextEEC2Ev
FN:156,_ZNSaIiEC2Ev
FN:156,_ZNSaISt6vectorI4EdgeSaIS0_EEEC2Ev
FN:156,_ZNSaI13ThreadContextEC2Ev
FN:156,_ZNSaIbEC2Ev
FN:156,_ZNSaISt4pairIiiEEC2Ev
FN:156,_ZNSaISt13_Rb_tree_nodeISt4pairIKiSt8functionIFvvEEEEEC2Ev
FN:156,_ZNSaImEC2Ev
FN:156,_ZNSaISt6threadEC2Ev
FN:159,_ZNSaImEC2ERKS_
FN:159,_ZNSaISt10unique_ptrI12ActiveObjectSt14default_deleteIS0_EEEC2ERKS4_
FN:159,_ZNSaISt10shared_ptrI13ThreadContextEEC2ERKS2_
FN:159,_ZNSaIiEC2ERKS_
FN:159,_ZNSaI4EdgeEC2ERKS0_
FN:159,_ZNSaI13ThreadContextEC2ERKS0_
FN:169,_ZNSaISt23_Sp_counted_ptr_inplaceI13ThreadContextSaIS0_ELN9__gnu_cxx12_Lock_policyE2EEEC2IS0_EERKSaIT_E
FN:169,_ZNSaIPSt8functionIFvvEEEC2IS1_EERKSaIT_E
FN:169,_ZNSaImEC2IbEERKSaIT_E
FN:169,_ZNSaIbEC2ImEERKSaIT_E
FN:174,_ZNSaIbED2Ev
FN:174,_ZNSaISt6threadED2Ev
FN:174,_ZNSaISt10shared_ptrI13ThreadContextEED2Ev
FN:174,_ZNSaISt6vectorI4EdgeSaIS0_EEED2Ev
FN:174,_ZNSaI13ThreadContextED2Ev
FN:174,_ZNSaISt13_Rb_tree_nodeISt4pairIKiSt8functionIFvvEEEEED2Ev
FN:174,_ZNSaIPSt8functionIFvvEEED2Ev
FN:174,_ZNSaImED2Ev
FN:174,_ZNSaISt10unique_ptrI12ActiveObjectSt14default_deleteIS0_EEED2Ev
FN:174,_ZNSaISt6vectorIiSaIiEEED2Ev
FN:174,_ZNSaI4EdgeED2Ev
FN:174,_ZNSaISt8functionIFvvEEED2Ev
FN:174,_ZNSaISt23_Sp_counted_ptr_inplaceI13ThreadContextSaIS0_ELN9__gnu_cxx12_Lock_policyE2EEED2Ev
FN:174,_ZNSaISt4pairIiiEED2Ev
FN:174,_ZNSaIiED2Ev
FN:209,_ZStneRKSaIiES1_
FN:313,_ZNSt19__shrink_to_fit_auxISt6vectorISt10unique_ptrI12ActiveObjectSt14default_deleteIS2_EESaIS5_EELb1EE8_S_do_itERS7_
FN:313,_ZNSt19__shrink_to_fit_auxISt6vectorImSaImEELb1EE8_S_do_itERS2_
FNDA:235,_ZNSaI4EdgeEC2Ev
FNDA:0,_ZNSaISt6threadED2Ev
FNDA:136,_ZNSaImEC2ERKS_
FNDA:80,_ZNSaIbED2Ev
FNDA:0,_ZStneRKSaIiES1_
FNDA:15,_ZNSaISt10shared_ptrI13ThreadContextEED2Ev
FNDA:200,_ZNSaI13ThreadContextED2Ev
FNDA:42,_ZNSaISt6vectorI4EdgeSaIS0_EEED2Ev
FNDA:100,_ZNSaISt23_Sp_counted_ptr_inplaceI13ThreadContextSaIS0_ELN9__gnu_cxx12_Lock_policyE2EEEC2IS0_EERKSaIT_E
FNDA:24,_ZNSaISt6vectorIiSaIiEEEC2Ev
FNDA:6,_ZNSt19__shrink_to_fit_auxISt6vectorISt10unique_ptrI12ActiveObjectSt14default_deleteIS2_EESaIS5_EELb1EE8_S_do_itERS7_
FNDA:6,_ZNSaISt10unique_ptrI12ActiveObjectSt14default_deleteIS0_EEEC2Ev
FNDA:42,_ZNSaISt8functionIFvvEEEC2Ev
FNDA:5,_ZNSaISt13_Rb_tree_nodeISt4pairIKiSt8functionIFvvEEEEED2Ev
FNDA:84,_ZNSaIPSt8functionIFvvEEEC2IS1_EERKSaIT_E
FNDA:216,_ZNSaImED2Ev
FNDA:5,_ZNSaISt10shared_ptrI13ThreadContextEEC2Ev
FNDA:18,_ZNSaISt10unique_ptrI12ActiveObjectSt14default_deleteIS0_EEEC2ERKS4_
FNDA:4,_ZNSt19__shrink_to_fit_auxISt6vectorImSaImEELb1EE8_S_do_itERS2_
FNDA:84,_ZNSaIPSt8functionIFvvEEED2Ev
FNDA:42,_ZNSaISt6vectorI4EdgeSaIS0_EEEC2Ev
FNDA:176,_ZNSaIiEC2Ev
FNDA:10,_ZNSaISt10shared_ptrI13ThreadContextEEC2ERKS2_
FNDA:18,_ZNSaISt10unique_ptrI12ActiveObjectSt14default_deleteIS0_EEED2Ev
FNDA:80,_ZNSaImEC2IbEERKSaIT_E
FNDA:24,_ZNSaISt6vectorIiSaIiEEED2Ev
FNDA:50,_ZNSaI13ThreadContextEC2Ev
FNDA:331,_ZNSaI4EdgeED2Ev
FNDA:36,_ZNSaIbEC2Ev
FNDA:96,_ZNSaI4EdgeEC2ERKS0_
FNDA:42,_ZNSaISt8functionIFvvEEED2Ev
FNDA:100,_ZNSaISt23_Sp_counted_ptr_inplaceI13ThreadContextSaIS0_ELN9__gnu_cxx12_Lock_policyE2EEED2Ev
FNDA:560,_ZNSaIiEC2ERKS_
FNDA:6,_ZNSaImEC2Ev
FNDA:5,_ZNSaISt13_Rb_tree_nodeISt4pairIKiSt8functionIFvvEEEEEC2Ev
FNDA:16,_ZNSaISt4pairIiiEEC2Ev
FNDA:44,_ZNSaIbEC2ImEERKSaIT_E
FNDA:736,_ZNSaIiED2Ev
FNDA:16,_ZNSaISt4pairIiiEED2Ev
FNDA:6,_ZNSaISt6threadEC2Ev
FNDA:150,_ZNSaI13ThreadContextEC2ERKS0_
FNF:41
FNH:39
DA:156,649
DA:159,970
DA:160,970
DA:169,308
DA:174,1909
DA:209,0
DA:210,0
DA:313,10
DA:318,20
DA:320,10
DA:321,10
DA:323,0
DA:324,0
LF:13
LH:9
end_of_record
TN:
SF:/usr/include/c++/11/bits/atomic_base.h
FN:104,_ZStanSt12memory_orderSt23__memory_order_modifier
FN:345,_ZNSt13__atomic_baseIbEC1Eb
FN:347,_ZNKSt13__atomic_baseIiEcviEv
FNDA:102,_ZNSt13__atomic_baseIbEC1Eb
FNDA:1446,_ZStanSt12memory_orderSt23__memory_order_modifier
FNDA:8,_ZNKSt13__atomic_baseIiEcviEv
FNF:3
FNH:3
DA:104,1446
DA:106,1446
DA:345,102
DA:347,8
DA:348,8
DA:459,283
DA:464,283
DA:465,283
DA:484,1163
DA:488,1163
LF:10
LH:10
end_of_record
TN:
SF:/usr/include/c++/11/bits/basic_string.h
FN:251,_ZNSt7__cxx1112basic_stringIcSt11char_traitsIcESaIcEE16_M_construct_auxIPcEEvT_S7_St12__false_type
FN:271,_ZNSt7__cxx1112basic_stringIcSt11char_traitsIcESaIcEE12_M_constructIPcEEvT_S7_
FN:533,_ZNSt7__cxx1112basic_stringIcSt11char_traitsIcESaIcEEC2IS3_EEPKcRKS3_
FN:553,_ZNSt7__cxx1112basic_stringIcSt11char_traitsIcESaIcEEC2IS3_EEmcRKS3_
FN:638,_ZNSt7__cxx1112basic_stringIcSt11char_traitsIcESaIcEEC2IPcvEET_S7_RKS3_
FN:6132,_ZStplIcSt11char_traitsIcESaIcEENSt7__cxx1112basic_stringIT_T0_T1_EERKS8_PKS5_
FN:6172,_ZStplIcSt11char_traitsIcESaIcEENSt7__cxx1112basic_stringIT_T0_T1_EEOS8_S9_
FN:6194,_ZStplIcSt11char_traitsIcESaIcEENSt7__cxx1112basic_stringIT_T0_T1_EEPKS5_OS8_
FN:6206,_ZStplIcSt11char_traitsIcESaIcEENSt7__cxx1112basic_stringIT_T0_T1_EEOS8_PKS5_
FN:6212,_ZStplIcSt11char_traitsIcESaIcEENSt7__cxx1112basic_stringIT_T0_T1_EEOS8_S5_
FN:6248,_ZSteqIcSt11char_traitsIcESaIcEEbRKNSt7__cxx1112basic_stringIT_T0_T1_EEPKS5_
FN:6660,_ZNSt7__cxx119to_stringEi
FN:6721,_ZNSt7__cxx119to_stringEf
FNDA:454,_ZNSt7__cxx119to_stringEi
FNDA:8,_ZStplIcSt11char_traitsIcESaIcEENSt7__cxx1112basic_stringIT_T0_T1_EEOS8_S5_
FNDA:94,_ZStplIcSt11char_traitsIcESaIcEENSt7__cxx1112basic_stringIT_T0_T1_EERKS8_PKS5_
FNDA:470,_ZStplIcSt11char_traitsIcESaIcEENSt7__cxx1112basic_stringIT_T0_T1_EEOS8_PKS5_
FNDA:82,_ZStplIcSt11char_traitsIcESaIcEENSt7__cxx1112basic_stringIT_T0_T1_EEPKS5_OS8_
FNDA:542,_ZNSt7__cxx1112basic_stringIcSt11char_traitsIcESaIcEEC2IS3_EEmcRKS3_
FNDA:16,_ZNSt7__cxx1112basic_stringIcSt11char_traitsIcESaIcEEC2IPcvEET_S7_RKS3_
FNDA:789,_ZSteqIcSt11char_traitsIcESaIcEEbRKNSt7__cxx1112basic_stringIT_T0_T1_EEPKS5_
FNDA:16,_ZNSt7__cxx1112basic_stringIcSt11char_traitsIcESaIcEE16_M_construct_auxIPcEEvT_S7_St12__false_type
FNDA:370,_ZNSt7__cxx1112basic_stringIcSt11char_traitsIcESaIcEEC2IS3_EEPKcRKS3_
FNDA:16,_ZNSt7__cxx119to_stringEf
FNDA:16,_ZNSt7__cxx1112basic_stringIcSt11char_traitsIcESaIcEE12_M_constructIPcEEvT_S7_
FNDA:310,_ZStplIcSt11char_traitsIcESaIcEENSt7__cxx1112basic_stringIT_T0_T1_EEOS8_S9_
FNF:13
FNH:13
DA:251,16
DA:255,16
DA:256,16
DA:271,16
DA:274,16
DA:275,16
DA:533,370
DA:534,370
DA:536,370
DA:539,370
DA:540,370
DA:553,542
DA:554,542
DA:555,542
DA:638,16
DA:640,16
DA:641,16
DA:6132,94
DA:6135,94
DA:6136,94
DA:6137,94
DA:6138,0
DA:6172,310
DA:6177,310
DA:6179,310
DA:6182,310
DA:6185,310
DA:6186,310
DA:6187,0
DA:6189,310
DA:6194,82
DA:6196,82
DA:6206,470
DA:6208,470
DA:6212,8
DA:6214,8
DA:6248,789
DA:6250,789
DA:6660,454
DA:6662,454
DA:6663,454
DA:6664,454
DA:6665,454
DA:6666,454
DA:6667,454
DA:6668,0
DA:6721,16
DA:6723,16
DA:6726,16
LF:49
LH:46
end_of_record
TN:
SF:/usr/include/c++/11/bits/basic_string.tcc
FN:206,_ZNSt7__cxx1112basic_stringIcSt11char_traitsIcESaIcEE12_M_constructIPKcEEvT_S8_St20forward_iterator_tag
FN:206,_ZNSt7__cxx1112basic_stringIcSt11char_traitsIcESaIcEE12_M_constructIPcEEvT_S7_St20forward_iterator_tag
FN:1169,_ZStplIcSt11char_traitsIcESaIcEENSt7__cxx1112basic_stringIT_T0_T1_EEPKS5_RKS8_
FNDA:142,_ZNSt7__cxx1112basic_stringIcSt11char_traitsIcESaIcEE12_M_constructIPcEEvT_S7_St20forward_iterator_tag
FNDA:26,_ZStplIcSt11char_traitsIcESaIcEENSt7__cxx1112basic_stringIT_T0_T1_EEPKS5_RKS8_
FNDA:370,_ZNSt7__cxx1112basic_stringIcSt11char_traitsIcESaIcEE12_M_constructIPKcEEvT_S8_St20forward_iterator_tag
FNF:3
FNH:3
DA:206,512
DA:211,512
DA:212,0
DA:215,512
DA:217,512
DA:219,107
DA:220,107
DA:225,512
DA:226,0
DA:228,0
DA:229,0
DA:232,512
DA:233,512
DA:1169,26
DA:1178,26
DA:1179,52
DA:1181,26
DA:1182,26
DA:1183,26
DA:1184,26
DA:1185,0
LF:21
LH:16
end_of_record
TN:
SF:/usr/include/c++/11/bits/char_traits.h
FN:106,_ZN9__gnu_cxx11char_traitsIcE2eqERKcS3_
FN:167,_ZN9__gnu_cxx11char_traitsIcE6lengthEPKc
FN:393,_ZNSt11char_traitsIcE6lengthEPKc
FN:429,_ZNSt11char_traitsIcE4copyEPcPKcm
FNDA:0,_ZNSt11char_traitsIcE4copyEPcPKcm
FNDA:0,_ZN9__gnu_cxx11char_traitsIcE6lengthEPKc
FNDA:0,_ZN9__gnu_cxx11char_traitsIcE2eqERKcS3_
FNDA:396,_ZNSt11char_traitsIcE6lengthEPKc
FNF:4
FNH:1
DA:106,0
DA:107,0
DA:167,0
DA:170,0
DA:171,0
DA:172,0
DA:173,0
DA:290,396
DA:393,396
DA:396,396
DA:397,0
DA:399,396
DA:429,0
DA:431,0
DA:432,0
DA:437,0
LF:16
LH:4
end_of_record
TN:
SF:/usr/include/c++/11/bits/charconv.h
FN:47,_ZNSt8__detail14__to_chars_lenIjEEjT_i
FN:72,_ZNSt8__detail18__to_chars_10_implIjEEvPcjT_
FNDA:454,_ZNSt8__detail14__to_chars_lenIjEEjT_i
FNDA:454,_ZNSt8__detail18__to_chars_10_implIjEEvPcjT_
FNF:2
FNH:2
DA:47,454
DA:52,454
DA:53,454
DA:54,454
DA:55,454
DA:58,454
DA:59,71
DA:60,0
DA:61,0
DA:62,0
DA:63,0
DA:72,454
DA:83,454
DA:84,454
DA:86,0
DA:87,0
DA:88,0
DA:89,0
DA:90,0
DA:92,454
DA:94,71
DA:95,71
DA:96,71
DA:99,383
DA:100,454
LF:25
LH:16
end_of_record
TN:
SF:/usr/include/c++/11/bits/cpp_type_traits.h
FN:560,_ZSt12__miter_baseIN9__gnu_cxx17__normal_iteratorIPmSt6vectorImSaImEEEEET_S7_
FN:560,_ZSt12__miter_baseIPPSt8functionIFvvEEET_S5_
FN:560,_ZSt12__miter_baseIPmET_S1_
FN:560,_ZSt12__miter_baseIPiET_S1_
FN:560,_ZSt12__miter_baseIN9__gnu_cxx17__normal_iteratorIPKiSt6vectorIiSaIiEEEEET_S8_
FN:560,_ZSt12__miter_baseIPSt6vectorIiSaIiEEET_S4_
FN:560,_ZSt12__miter_baseIN9__gnu_cxx17__normal_iteratorIPK4EdgeSt6vectorIS2_SaIS2_EEEEET_S9_
FN:560,_ZSt12__miter_baseIN9__gnu_cxx17__normal_iteratorIP4EdgeSt6vectorIS2_SaIS2_EEEEET_S8_
FN:560,_ZSt12__miter_baseISt19_Bit_const_iteratorET_S1_
FNDA:0,_ZSt12__miter_baseIPSt6vectorIiSaIiEEET_S4_
FNDA:96,_ZSt12__miter_baseIN9__gnu_cxx17__normal_iteratorIPK4EdgeSt6vectorIS2_SaIS2_EEEEET_S9_
FNDA:40,_ZSt12__miter_baseIN9__gnu_cxx17__normal_iteratorIP4EdgeSt6vectorIS2_SaIS2_EEEEET_S8_
FNDA:88,_ZSt12__miter_baseISt19_Bit_const_iteratorET_S1_
FNDA:240,_ZSt12__miter_baseIN9__gnu_cxx17__normal_iteratorIPKiSt6vectorIiSaIiEEEEET_S8_
FNDA:88,_ZSt12__miter_baseIPmET_S1_
FNDA:0,_ZSt12__miter_baseIPiET_S1_
FNDA:8,_ZSt12__miter_baseIN9__gnu_cxx17__normal_iteratorIPmSt6vectorImSaImEEEEET_S7_
FNDA:0,_ZSt12__miter_baseIPPSt8functionIFvvEEET_S5_
FNF:9
FNH:6
DA:560,560
DA:561,560
LF:2
LH:2
end_of_record
TN:
SF:/usr/include/c++/11/bits/deque.tcc
FN:164,_ZNSt5dequeISt8functionIFvvEESaIS2_EE12emplace_backIJRZ14handleCommandsiRSt6vectorISt10unique_ptrI12ActiveObjectSt14default_deleteIS8_EESaISB_EERS7_I5GraphS9_ISF_EER10MSTFactoryRS7_I4TreeS9_ISL_EEEUlvE9_EEERS2_DpOT_
FN:164,_ZNSt5dequeISt8functionIFvvEESaIS2_EE12emplace_backIJRZ14handleCommandsiRSt6vectorISt10unique_ptrI12ActiveObjectSt14default_deleteIS8_EESaISB_EERS7_I5GraphS9_ISF_EER10MSTFactoryRS7_I4TreeS9_ISL_EEEUlvE_EEERS2_DpOT_
FN:164,_ZNSt5dequeISt8functionIFvvEESaIS2_EE12emplace_backIJRZZZZZ14handleCommandsiRSt6vectorISt10unique_ptrI12ActiveObjectSt14default_deleteIS8_EESaISB_EERS7_I5GraphS9_ISF_EER10MSTFactoryRS7_I4TreeS9_ISL_EEENKUlvE3_clEvENKUlvE_clEvENKUlvE_clEvENKUlvE_clEvEUlvE_EEERS2_DpOT_
FN:164,_ZNSt5dequeISt8functionIFvvEESaIS2_EE12emplace_backIJRZ14handleCommandsiRSt6vectorISt10unique_ptrI12ActiveObjectSt14default_deleteIS8_EESaISB_EERS7_I5GraphS9_ISF_EER10MSTFactoryRS7_I4TreeS9_ISL_EEEUlvE5_EEERS2_DpOT_
FN:164,_ZNSt5dequeISt8functionIFvvEESaIS2_EE12emplace_backIJRZ14handleCommandsiRSt6vectorISt10unique_ptrI12ActiveObjectSt14default_deleteIS8_EESaISB_EERS7_I5GraphS9_ISF_EER10MSTFactoryRS7_I4TreeS9_ISL_EEEUlvE4_EEERS2_DpOT_
FN:164,_ZNSt5dequeISt8functionIFvvEESaIS2_EE12emplace_backIJRZ14handleCommandsiRSt6vectorISt10unique_ptrI12ActiveObjectSt14default_deleteIS8_EESaISB_EERS7_I5GraphS9_ISF_EER10MSTFactoryRS7_I4TreeS9_ISL_EEEUlvE1_EEERS2_DpOT_
FN:164,_ZNSt5dequeISt8functionIFvvEESaIS2_EE12emplace_backIJRZZZZ14handleCommandsiRSt6vectorISt10unique_ptrI12ActiveObjectSt14default_deleteIS8_EESaISB_EERS7_I5GraphS9_ISF_EER10MSTFactoryRS7_I4TreeS9_ISL_EEENKUlvE3_clEvENKUlvE_clEvENKUlvE_clEvEUlvE_EEERS2_DpOT_
FN:164,_ZNSt5dequeISt8functionIFvvEESaIS2_EE12emplace_backIJRZ14handleCommandsiRSt6vectorISt10unique_ptrI12ActiveObjectSt14default_deleteIS8_EESaISB_EERS7_I5GraphS9_ISF_EER10MSTFactoryRS7_I4TreeS9_ISL_EEEUlvE0_EEERS2_DpOT_
FN:164,_ZNSt5dequeISt8functionIFvvEESaIS2_EE12emplace_backIJRZ14handleCommandsiRSt6vectorISt10unique_ptrI12ActiveObjectSt14default_deleteIS8_EESaISB_EERS7_I5GraphS9_ISF_EER10MSTFactoryRS7_I4TreeS9_ISL_EEEUlvE6_EEERS2_DpOT_
FN:164,_ZNSt5dequeISt8functionIFvvEESaIS2_EE12emplace_backIJRZZZZZZ14handleCommandsiRSt6vectorISt10unique_ptrI12ActiveObjectSt14default_deleteIS8_EESaISB_EERS7_I5GraphS9_ISF_EER10MSTFactoryRS7_I4TreeS9_ISL_EEENKUlvE3_clEvENKUlvE_clEvENKUlvE_clEvENKUlvE_clEvENKUlvE_clEvEUlvE_EEERS2_DpOT_
FN:164,_ZNSt5dequeISt8functionIFvvEESaIS2_EE12emplace_backIJRZZ14handleCommandsiRSt6vectorISt10unique_ptrI12ActiveObjectSt14default_deleteIS8_EESaISB_EERS7_I5GraphS9_ISF_EER10MSTFactoryRS7_I4TreeS9_ISL_EEENKUlvE3_clEvEUlvE_EEERS2_DpOT_
FN:164,_ZNSt5dequeISt8functionIFvvEESaIS2_EE12emplace_backIJRZ14handleCommandsiRSt6vectorISt10unique_ptrI12ActiveObjectSt14default_deleteIS8_EESaISB_EERS7_I5GraphS9_ISF_EER10MSTFactoryRS7_I4TreeS9_ISL_EEEUlvE8_EEERS2_DpOT_
FN:164,_ZNSt5dequeISt8functionIFvvEESaIS2_EE12emplace_backIJRZ14handleCommandsiRSt6vectorISt10unique_ptrI12ActiveObjectSt14default_deleteIS8_EESaISB_EERS7_I5GraphS9_ISF_EER10MSTFactoryRS7_I4TreeS9_ISL_EEEUlvE10_EEERS2_DpOT_
FN:164,_ZNSt5dequeISt8functionIFvvEESaIS2_EE12emplace_backIJRZZZ14handleCommandsiRSt6vectorISt10unique_ptrI12ActiveObjectSt14default_deleteIS8_EESaISB_EERS7_I5GraphS9_ISF_EER10MSTFactoryRS7_I4TreeS9_ISL_EEENKUlvE3_clEvENKUlvE_clEvEUlvE_EEERS2_DpOT_
FN:164,_ZNSt5dequeISt8functionIFvvEESaIS2_EE12emplace_backIJRZ14handleCommandsiRSt6vectorISt10unique_ptrI12ActiveObjectSt14default_deleteIS8_EESaISB_EERS7_I5GraphS9_ISF_EER10MSTFactoryRS7_I4TreeS9_ISL_EEEUlvE2_EEERS2_DpOT_
FN:164,_ZNSt5dequeISt8functionIFvvEESaIS2_EE12emplace_backIJRZ14handleCommandsiRSt6vectorISt10unique_ptrI12ActiveObjectSt14default_deleteIS8_EESaISB_EERS7_I5GraphS9_ISF_EER10MSTFactoryRS7_I4TreeS9_ISL_EEEUlvE3_EEERS2_DpOT_
FN:484,_ZNSt5dequeISt8functionIFvvEESaIS2_EE16_M_push_back_auxIJRZ14handleCommandsiRSt6vectorISt10unique_ptrI12ActiveObjectSt14default_deleteIS8_EESaISB_EERS7_I5GraphS9_ISF_EER10MSTFactoryRS7_I4TreeS9_ISL_EEEUlvE2_EEEvDpOT_
FN:484,_ZNSt5dequeISt8functionIFvvEESaIS2_EE16_M_push_back_auxIJRZ14handleCommandsiRSt6vectorISt10unique_ptrI12ActiveObjectSt14default_deleteIS8_EESaISB_EERS7_I5GraphS9_ISF_EER10MSTFactoryRS7_I4TreeS9_ISL_EEEUlvE4_EEEvDpOT_
FN:484,_ZNSt5dequeISt8functionIFvvEESaIS2_EE16_M_push_back_auxIJRZZZ14handleCommandsiRSt6vectorISt10unique_ptrI12ActiveObjectSt14default_deleteIS8_EESaISB_EERS7_I5GraphS9_ISF_EER10MSTFactoryRS7_I4TreeS9_ISL_EEENKUlvE3_clEvENKUlvE_clEvEUlvE_EEEvDpOT_
FN:484,_ZNSt5dequeISt8functionIFvvEESaIS2_EE16_M_push_back_auxIJRZ14handleCommandsiRSt6vectorISt10unique_ptrI12ActiveObjectSt14default_deleteIS8_EESaISB_EERS7_I5GraphS9_ISF_EER10MSTFactoryRS7_I4TreeS9_ISL_EEEUlvE6_EEEvDpOT_
FN:484,_ZNSt5dequeISt8functionIFvvEESaIS2_EE16_M_push_back_auxIJRZ14handleCommandsiRSt6vectorISt10unique_ptrI12ActiveObjectSt14default_deleteIS8_EESaISB_EERS7_I5GraphS9_ISF_EER10MSTFactoryRS7_I4TreeS9_ISL_EEEUlvE0_EEEvDpOT_
FN:484,_ZNSt5dequeISt8functionIFvvEESaIS2_EE16_M_push_back_auxIJRZ14handleCommandsiRSt6vectorISt10unique_ptrI12ActiveObjectSt14default_deleteIS8_EESaISB_EERS7_I5GraphS9_ISF_EER10MSTFactoryRS7_I4TreeS9_ISL_EEEUlvE9_EEEvDpOT_
FN:484,_ZNSt5dequeISt8functionIFvvEESaIS2_EE16_M_push_back_auxIJRZZ14handleCommandsiRSt6vectorISt10unique_ptrI12ActiveObjectSt14default_deleteIS8_EESaISB_EERS7_I5GraphS9_ISF_EER10MSTFactoryRS7_I4TreeS9_ISL_EEENKUlvE3_clEvEUlvE_EEEvDpOT_
FN:484,_ZNSt5dequeISt8functionIFvvEESaIS2_EE16_M_push_back_auxIJRZ14handleCommandsiRSt6vectorISt10unique_ptrI12ActiveObjectSt14default_deleteIS8_EESaISB_EERS7_I5GraphS9_ISF_EER10MSTFactoryRS7_I4TreeS9_ISL_EEEUlvE3_EEEvDpOT_
FN:484,_ZNSt5dequeISt8functionIFvvEESaIS2_EE16_M_push_back_auxIJRZZZZZ14handleCommandsiRSt6vectorISt10unique_ptrI12ActiveObjectSt14default_deleteIS8_EESaISB_EERS7_I5GraphS9_ISF_EER10MSTFactoryRS7_I4TreeS9_ISL_EEENKUlvE3_clEvENKUlvE_clEvENKUlvE_clEvENKUlvE_clEvEUlvE_EEEvDpOT_
FN:484,_ZNSt5dequeISt8functionIFvvEESaIS2_EE16_M_push_back_auxIJRZ14handleCommandsiRSt6vectorISt10unique_ptrI12ActiveObjectSt14default_deleteIS8_EESaISB_EERS7_I5GraphS9_ISF_EER10MSTFactoryRS7_I4TreeS9_ISL_EEEUlvE_EEEvDpOT_
FN:484,_ZNSt5dequeISt8functionIFvvEESaIS2_EE16_M_push_back_auxIJRZ14handleCommandsiRSt6vectorISt10unique_ptrI12ActiveObjectSt14default_deleteIS8_EESaISB_EERS7_I5GraphS9_ISF_EER10MSTFactoryRS7_I4TreeS9_ISL_EEEUlvE5_EEEvDpOT_
FN:484,_ZNSt5dequeISt8functionIFvvEESaIS2_EE16_M_push_back_auxIJRZ14handleCommandsiRSt6vectorISt10unique_ptrI12ActiveObjectSt14default_deleteIS8_EESaISB_EERS7_I5GraphS9_ISF_EER10MSTFactoryRS7_I4TreeS9_ISL_EEEUlvE8_EEEvDpOT_
FN:484,_ZNSt5dequeISt8functionIFvvEESaIS2_EE16_M_push_back_auxIJRZ14handleCommandsiRSt6vectorISt10unique_ptrI12ActiveObjectSt14default_deleteIS8_EESaISB_EERS7_I5GraphS9_ISF_EER10MSTFactoryRS7_I4TreeS9_ISL_EEEUlvE1_EEEvDpOT_
FN:484,_ZNSt5dequeISt8functionIFvvEESaIS2_EE16_M_push_back_auxIJRZZZZZZ14handleCommandsiRSt6vectorISt10unique_ptrI12ActiveObjectSt14default_deleteIS8_EESaISB_EERS7_I5GraphS9_ISF_EER10MSTFactoryRS7_I4TreeS9_ISL_EEENKUlvE3_clEvENKUlvE_clEvENKUlvE_clEvENKUlvE_clEvENKUlvE_clEvEUlvE_EEEvDpOT_
FN:484,_ZNSt5dequeISt8functionIFvvEESaIS2_EE16_M_push_back_auxIJRZZZZ14handleCommandsiRSt6vectorISt10unique_ptrI12ActiveObjectSt14default_deleteIS8_EESaISB_EERS7_I5GraphS9_ISF_EER10MSTFactoryRS7_I4TreeS9_ISL_EEENKUlvE3_clEvENKUlvE_clEvENKUlvE_clEvEUlvE_EEEvDpOT_
FN:484,_ZNSt5dequeISt8functionIFvvEESaIS2_EE16_M_push_back_auxIJRZ14handleCommandsiRSt6vectorISt10unique_ptrI12ActiveObjectSt14default_deleteIS8_EESaISB_EERS7_I5GraphS9_ISF_EER10MSTFactoryRS7_I4TreeS9_ISL_EEEUlvE10_EEEvDpOT_
FN:576,_ZNSt5dequeISt8functionIFvvEESaIS2_EE16_M_pop_front_auxEv
FN:859,_ZNSt5dequeISt8functionIFvvEESaIS2_EE19_M_destroy_data_auxESt15_Deque_iteratorIS2_RS2_PS2_ES8_
FN:931,_ZNSt5dequeISt8functionIFvvEESaIS2_EE17_M_reallocate_mapEmb
FNDA:0,_ZNSt5dequeISt8functionIFvvEESaIS2_EE16_M_push_back_auxIJRZ14handleCommandsiRSt6vectorISt10unique_ptrI12ActiveObjectSt14default_deleteIS8_EESaISB_EERS7_I5GraphS9_ISF_EER10MSTFactoryRS7_I4TreeS9_ISL_EEEUlvE4_EEEvDpOT_
FNDA:0,_ZNSt5dequeISt8functionIFvvEESaIS2_EE16_M_push_back_auxIJRZ14handleCommandsiRSt6vectorISt10unique_ptrI12ActiveObjectSt14default_deleteIS8_EESaISB_EERS7_I5GraphS9_ISF_EER10MSTFactoryRS7_I4TreeS9_ISL_EEEUlvE0_EEEvDpOT_
FNDA:0,_ZNSt5dequeISt8functionIFvvEESaIS2_EE16_M_push_back_auxIJRZ14handleCommandsiRSt6vectorISt10unique_ptrI12ActiveObjectSt14default_deleteIS8_EESaISB_EERS7_I5GraphS9_ISF_EER10MSTFactoryRS7_I4TreeS9_ISL_EEEUlvE9_EEEvDpOT_
FNDA:0,_ZNSt5dequeISt8functionIFvvEESaIS2_EE16_M_push_back_auxIJRZZZ14handleCommandsiRSt6vectorISt10unique_ptrI12ActiveObjectSt14default_deleteIS8_EESaISB_EERS7_I5GraphS9_ISF_EER10MSTFactoryRS7_I4TreeS9_ISL_EEENKUlvE3_clEvENKUlvE_clEvEUlvE_EEEvDpOT_
FNDA:0,_ZNSt5dequeISt8functionIFvvEESaIS2_EE16_M_push_back_auxIJRZ14handleCommandsiRSt6vectorISt10unique_ptrI12ActiveObjectSt14default_deleteIS8_EESaISB_EERS7_I5GraphS9_ISF_EER10MSTFactoryRS7_I4TreeS9_ISL_EEEUlvE6_EEEvDpOT_
FNDA:4,_ZNSt5dequeISt8functionIFvvEESaIS2_EE12emplace_backIJRZ14handleCommandsiRSt6vectorISt10unique_ptrI12ActiveObjectSt14default_deleteIS8_EESaISB_EERS7_I5GraphS9_ISF_EER10MSTFactoryRS7_I4TreeS9_ISL_EEEUlvE5_EEERS2_DpOT_
FNDA:4,_ZNSt5dequeISt8functionIFvvEESaIS2_EE12emplace_backIJRZ14handleCommandsiRSt6vectorISt10unique_ptrI12ActiveObjectSt14default_deleteIS8_EESaISB_EERS7_I5GraphS9_ISF_EER10MSTFactoryRS7_I4TreeS9_ISL_EEEUlvE4_EEERS2_DpOT_
FNDA:16,_ZNSt5dequeISt8functionIFvvEESaIS2_EE12emplace_backIJRZ14handleCommandsiRSt6vectorISt10unique_ptrI12ActiveObjectSt14default_deleteIS8_EESaISB_EERS7_I5GraphS9_ISF_EER10MSTFactoryRS7_I4TreeS9_ISL_EEEUlvE_EEERS2_DpOT_
FNDA:4,_ZNSt5dequeISt8functionIFvvEESaIS2_EE12emplace_backIJRZZZZZ14handleCommandsiRSt6vectorISt10unique_ptrI12ActiveObjectSt14default_deleteIS8_EESaISB_EERS7_I5GraphS9_ISF_EER10MSTFactoryRS7_I4TreeS9_ISL_EEENKUlvE3_clEvENKUlvE_clEvENKUlvE_clEvENKUlvE_clEvEUlvE_EEERS2_DpOT_
FNDA:2,_ZNSt5dequeISt8functionIFvvEESaIS2_EE16_M_push_back_auxIJRZ14handleCommandsiRSt6vectorISt10unique_ptrI12ActiveObjectSt14default_deleteIS8_EESaISB_EERS7_I5GraphS9_ISF_EER10MSTFactoryRS7_I4TreeS9_ISL_EEEUlvE2_EEEvDpOT_
FNDA:4,_ZNSt5dequeISt8functionIFvvEESaIS2_EE12emplace_backIJRZ14handleCommandsiRSt6vectorISt10unique_ptrI12ActiveObjectSt14default_deleteIS8_EESaISB_EERS7_I5GraphS9_ISF_EER10MSTFactoryRS7_I4TreeS9_ISL_EEEUlvE9_EEERS2_DpOT_
FNDA:4,_ZNSt5dequeISt8functionIFvvEESaIS2_EE12emplace_backIJRZ14handleCommandsiRSt6vectorISt10unique_ptrI12ActiveObjectSt14default_deleteIS8_EESaISB_EERS7_I5GraphS9_ISF_EER10MSTFactoryRS7_I4TreeS9_ISL_EEEUlvE10_EEERS2_DpOT_
FNDA:4,_ZNSt5dequeISt8functionIFvvEESaIS2_EE12emplace_backIJRZZ14handleCommandsiRSt6vectorISt10unique_ptrI12ActiveObjectSt14default_deleteIS8_EESaISB_EERS7_I5GraphS9_ISF_EER10MSTFactoryRS7_I4TreeS9_ISL_EEENKUlvE3_clEvEUlvE_EEERS2_DpOT_
FNDA:0,_ZNSt5dequeISt8functionIFvvEESaIS2_EE16_M_push_back_auxIJRZ14handleCommandsiRSt6vectorISt10unique_ptrI12ActiveObjectSt14default_deleteIS8_EESaISB_EERS7_I5GraphS9_ISF_EER10MSTFactoryRS7_I4TreeS9_ISL_EEEUlvE5_EEEvDpOT_
FNDA:0,_ZNSt5dequeISt8functionIFvvEESaIS2_EE16_M_push_back_auxIJRZ14handleCommandsiRSt6vectorISt10unique_ptrI12ActiveObjectSt14default_deleteIS8_EESaISB_EERS7_I5GraphS9_ISF_EER10MSTFactoryRS7_I4TreeS9_ISL_EEEUlvE8_EEEvDpOT_
FNDA:6,_ZNSt5dequeISt8functionIFvvEESaIS2_EE12emplace_backIJRZ14handleCommandsiRSt6vectorISt10unique_ptrI12ActiveObjectSt14default_deleteIS8_EESaISB_EERS7_I5GraphS9_ISF_EER10MSTFactoryRS7_I4TreeS9_ISL_EEEUlvE8_EEERS2_DpOT_
FNDA:0,_ZNSt5dequeISt8functionIFvvEESaIS2_EE16_M_push_back_auxIJRZ14handleCommandsiRSt6vectorISt10unique_ptrI12ActiveObjectSt14default_deleteIS8_EESaISB_EERS7_I5GraphS9_ISF_EER10MSTFactoryRS7_I4TreeS9_ISL_EEEUlvE10_EEEvDpOT_
FNDA:0,_ZNSt5dequeISt8functionIFvvEESaIS2_EE17_M_reallocate_mapEmb
FNDA:4,_ZNSt5dequeISt8functionIFvvEESaIS2_EE12emplace_backIJRZZZ14handleCommandsiRSt6vectorISt10unique_ptrI12ActiveObjectSt14default_deleteIS8_EESaISB_EERS7_I5GraphS9_ISF_EER10MSTFactoryRS7_I4TreeS9_ISL_EEENKUlvE3_clEvENKUlvE_clEvEUlvE_EEERS2_DpOT_
FNDA:12,_ZNSt5dequeISt8functionIFvvEESaIS2_EE12emplace_backIJRZ14handleCommandsiRSt6vectorISt10unique_ptrI12ActiveObjectSt14default_deleteIS8_EESaISB_EERS7_I5GraphS9_ISF_EER10MSTFactoryRS7_I4TreeS9_ISL_EEEUlvE2_EEERS2_DpOT_
FNDA:16,_ZNSt5dequeISt8functionIFvvEESaIS2_EE12emplace_backIJRZ14handleCommandsiRSt6vectorISt10unique_ptrI12ActiveObjectSt14default_deleteIS8_EESaISB_EERS7_I5GraphS9_ISF_EER10MSTFactoryRS7_I4TreeS9_ISL_EEEUlvE3_EEERS2_DpOT_
FNDA:2,_ZNSt5dequeISt8functionIFvvEESaIS2_EE16_M_pop_front_auxEv
FNDA:0,_ZNSt5dequeISt8functionIFvvEESaIS2_EE16_M_push_back_auxIJRZZZZZZ14handleCommandsiRSt6vectorISt10unique_ptrI12ActiveObjectSt14default_deleteIS8_EESaISB_EERS7_I5GraphS9_ISF_EER10MSTFactoryRS7_I4TreeS9_ISL_EEENKUlvE3_clEvENKUlvE_clEvENKUlvE_clEvENKUlvE_clEvENKUlvE_clEvEUlvE_EEEvDpOT_
FNDA:0,_ZNSt5dequeISt8functionIFvvEESaIS2_EE16_M_push_back_auxIJRZ14handleCommandsiRSt6vectorISt10unique_ptrI12ActiveObjectSt14default_deleteIS8_EESaISB_EERS7_I5GraphS9_ISF_EER10MSTFactoryRS7_I4TreeS9_ISL_EEEUlvE1_EEEvDpOT_
FNDA:0,_ZNSt5dequeISt8functionIFvvEESaIS2_EE16_M_push_back_auxIJRZZZZ14handleCommandsiRSt6vectorISt10unique_ptrI12ActiveObjectSt14default_deleteIS8_EESaISB_EERS7_I5GraphS9_ISF_EER10MSTFactoryRS7_I4TreeS9_ISL_EEENKUlvE3_clEvENKUlvE_clEvENKUlvE_clEvEUlvE_EEEvDpOT_
FNDA:42,_ZNSt5dequeISt8functionIFvvEESaIS2_EE19_M_destroy_data_auxESt15_Deque_iteratorIS2_RS2_PS2_ES8_
FNDA:0,_ZNSt5dequeISt8functionIFvvEESaIS2_EE16_M_push_back_auxIJRZZ14handleCommandsiRSt6vectorISt10unique_ptrI12ActiveObjectSt14default_deleteIS8_EESaISB_EERS7_I5GraphS9_ISF_EER10MSTFactoryRS7_I4TreeS9_ISL_EEENKUlvE3_clEvEUlvE_EEEvDpOT_
FNDA:12,_ZNSt5dequeISt8functionIFvvEESaIS2_EE12emplace_backIJRZ14handleCommandsiRSt6vectorISt10unique_ptrI12ActiveObjectSt14default_deleteIS8_EESaISB_EERS7_I5GraphS9_ISF_EER10MSTFactoryRS7_I4TreeS9_ISL_EEEUlvE1_EEERS2_DpOT_
FNDA:0,_ZNSt5dequeISt8functionIFvvEESaIS2_EE16_M_push_back_auxIJRZZZZZ14handleCommandsiRSt6vectorISt10unique_ptrI12ActiveObjectSt14default_deleteIS8_EESaISB_EERS7_I5GraphS9_ISF_EER10MSTFactoryRS7_I4TreeS9_ISL_EEENKUlvE3_clEvENKUlvE_clEvENKUlvE_clEvENKUlvE_clEvEUlvE_EEEvDpOT_
FNDA:10,_ZNSt5dequeISt8functionIFvvEESaIS2_EE12emplace_backIJRZ14handleCommandsiRSt6vectorISt10unique_ptrI12ActiveObjectSt14default_deleteIS8_EESaISB_EERS7_I5GraphS9_ISF_EER10MSTFactoryRS7_I4TreeS9_ISL_EEEUlvE6_EEERS2_DpOT_
FNDA:0,_ZNSt5dequeISt8functionIFvvEESaIS2_EE16_M_push_back_auxIJRZ14handleCommandsiRSt6vectorISt10unique_ptrI12ActiveObjectSt14default_deleteIS8_EESaISB_EERS7_I5GraphS9_ISF_EER10MSTFactoryRS7_I4TreeS9_ISL_EEEUlvE_EEEvDpOT_
FNDA:4,_ZNSt5dequeISt8functionIFvvEESaIS2_EE12emplace_backIJRZZZZZZ14handleCommandsiRSt6vectorISt10unique_ptrI12ActiveObjectSt14default_deleteIS8_EESaISB_EERS7_I5GraphS9_ISF_EER10MSTFactoryRS7_I4TreeS9_ISL_EEENKUlvE3_clEvENKUlvE_clEvENKUlvE_clEvENKUlvE_clEvENKUlvE_clEvEUlvE_EEERS2_DpOT_
FNDA:4,_ZNSt5dequeISt8functionIFvvEESaIS2_EE12emplace_backIJRZZZZ14handleCommandsiRSt6vectorISt10unique_ptrI12ActiveObjectSt14default_deleteIS8_EESaISB_EERS7_I5GraphS9_ISF_EER10MSTFactoryRS7_I4TreeS9_ISL_EEENKUlvE3_clEvENKUlvE_clEvENKUlvE_clEvEUlvE_EEERS2_DpOT_
FNDA:0,_ZNSt5dequeISt8functionIFvvEESaIS2_EE16_M_push_back_auxIJRZ14handleCommandsiRSt6vectorISt10unique_ptrI12ActiveObjectSt14default_deleteIS8_EESaISB_EERS7_I5GraphS9_ISF_EER10MSTFactoryRS7_I4TreeS9_ISL_EEEUlvE3_EEEvDpOT_
FNDA:34,_ZNSt5dequeISt8functionIFvvEESaIS2_EE12emplace_backIJRZ14handleCommandsiRSt6vectorISt10unique_ptrI12ActiveObjectSt14default_deleteIS8_EESaISB_EERS7_I5GraphS9_ISF_EER10MSTFactoryRS7_I4TreeS9_ISL_EEEUlvE0_EEERS2_DpOT_
FNF:35
FNH:19
DA:164,142
DA:167,142
DA:168,142
DA:170,140
DA:173,140
DA:176,2
DA:178,142
DA:484,2
DA:492,2
DA:493,0
DA:496,2
DA:497,2
DA:501,2
DA:507,2
DA:509,2
DA:511,0
DA:513,0
DA:514,0
DA:516,2
DA:576,2
DA:579,2
DA:581,2
DA:582,2
DA:583,2
DA:584,2
DA:859,42
DA:862,42
DA:863,42
DA:864,0
DA:865,0
DA:867,42
DA:869,0
DA:870,0
DA:871,0
DA:872,0
DA:875,42
DA:876,42
DA:877,42
DA:931,0
DA:934,0
DA:935,0
DA:936,0
DA:939,0
DA:941,0
DA:942,0
DA:943,0
DA:944,0
DA:945,0
DA:946,0
DA:949,0
DA:950,0
DA:951,0
DA:955,0
DA:956,0
DA:959,0
DA:960,0
DA:961,0
DA:962,0
DA:963,0
DA:965,0
DA:967,0
DA:968,0
DA:971,0
DA:972,0
DA:973,0
LF:65
LH:28
end_of_record
TN:
SF:/usr/include/c++/11/bits/invoke.h
FN:60,_ZSt13__invoke_implIvRZ14handleCommandsiRSt6vectorISt10unique_ptrI12ActiveObjectSt14default_deleteIS2_EESaIS5_EERS1_I5GraphS3_IS9_EER10MSTFactoryRS1_I4TreeS3_ISF_EEEUlvE6_JEET_St14__invoke_otherOT0_DpOT1_
FN:60,_ZSt13__invoke_implIvRZ14handleCommandsiRSt6vectorISt10unique_ptrI12ActiveObjectSt14default_deleteIS2_EESaIS5_EERS1_I5GraphS3_IS9_EER10MSTFactoryRS1_I4TreeS3_ISF_EEEUlvE_JEET_St14__invoke_otherOT0_DpOT1_
FN:60,_ZSt13__invoke_implIvRZ14handleCommandsiRSt6vectorISt10unique_ptrI12ActiveObjectSt14default_deleteIS2_EESaIS5_EERS1_I5GraphS3_IS9_EER10MSTFactoryRS1_I4TreeS3_ISF_EEEUlvE0_JEET_St14__invoke_otherOT0_DpOT1_
FN:60,_ZSt13__invoke_implIvRZ14handleCommandsiRSt6vectorISt10unique_ptrI12ActiveObjectSt14default_deleteIS2_EESaIS5_EERS1_I5GraphS3_IS9_EER10MSTFactoryRS1_I4TreeS3_ISF_EEEUlvE10_JEET_St14__invoke_otherOT0_DpOT1_
FN:60,_ZSt13__invoke_implIvRZ4mainEUlvE0_JEET_St14__invoke_otherOT0_DpOT1_
FN:60,_ZSt13__invoke_implIvRZ14handleCommandsiRSt6vectorISt10unique_ptrI12ActiveObjectSt14default_deleteIS2_EESaIS5_EERS1_I5GraphS3_IS9_EER10MSTFactoryRS1_I4TreeS3_ISF_EEEUlvE4_JEET_St14__invoke_otherOT0_DpOT1_
FN:60,_ZSt13__invoke_implIvRZ16acceptConnectioniRSt10unique_ptrI5GraphSt14default_deleteIS1_EER10MSTFactoryRS0_I4TreeS2_IS8_EERS0_I12LFThreadPoolS2_ISC_EEEUlvE_JEET_St14__invoke_otherOT0_DpOT1_
FN:60,_ZSt13__invoke_implIvRZ14handleCommandsiRSt6vectorISt10unique_ptrI12ActiveObjectSt14default_deleteIS2_EESaIS5_EERS1_I5GraphS3_IS9_EER10MSTFactoryRS1_I4TreeS3_ISF_EEEUlvE8_JEET_St14__invoke_otherOT0_DpOT1_
FN:60,_ZSt13__invoke_implIvRZZZZZ14handleCommandsiRSt6vectorISt10unique_ptrI12ActiveObjectSt14default_deleteIS2_EESaIS5_EERS1_I5GraphS3_IS9_EER10MSTFactoryRS1_I4TreeS3_ISF_EEENKUlvE3_clEvENKUlvE_clEvENKUlvE_clEvENKUlvE_clEvEUlvE_JEET_St14__invoke_otherOT0_DpOT1_
FN:60,_ZSt13__invoke_implIvRZZZ14handleCommandsiRSt6vectorISt10unique_ptrI12ActiveObjectSt14default_deleteIS2_EESaIS5_EERS1_I5GraphS3_IS9_EER10MSTFactoryRS1_I4TreeS3_ISF_EEENKUlvE3_clEvENKUlvE_clEvEUlvE_JEET_St14__invoke_otherOT0_DpOT1_
FN:60,_ZSt13__invoke_implIvRZ14handleCommandsiRSt6vectorISt10unique_ptrI12ActiveObjectSt14default_deleteIS2_EESaIS5_EERS1_I5GraphS3_IS9_EER10MSTFactoryRS1_I4TreeS3_ISF_EEEUlvE9_JEET_St14__invoke_otherOT0_DpOT1_
FN:60,_ZSt13__invoke_implIvRZ14handleCommandsiRSt6vectorISt10unique_ptrI12ActiveObjectSt14default_deleteIS2_EESaIS5_EERS1_I5GraphS3_IS9_EER10MSTFactoryRS1_I4TreeS3_ISF_EEEUlvE2_JEET_St14__invoke_otherOT0_DpOT1_
FN:60,_ZSt13__invoke_implIvRZ4mainEUliE_JiEET_St14__invoke_otherOT0_DpOT1_
FN:60,_ZSt13__invoke_implIvRZ14handleCommandsiRSt6vectorISt10unique_ptrI12ActiveObjectSt14default_deleteIS2_EESaIS5_EERS1_I5GraphS3_IS9_EER10MSTFactoryRS1_I4TreeS3_ISF_EEEUlvE5_JEET_St14__invoke_otherOT0_DpOT1_
FN:60,_ZSt13__invoke_implIvRZ14handleCommandsiRSt6vectorISt10unique_ptrI12ActiveObjectSt14default_deleteIS2_EESaIS5_EERS1_I5GraphS3_IS9_EER10MSTFactoryRS1_I4TreeS3_ISF_EEEUlvE1_JEET_St14__invoke_otherOT0_DpOT1_
FN:60,_ZSt13__invoke_implIvRZZZZ14handleCommandsiRSt6vectorISt10unique_ptrI12ActiveObjectSt14default_deleteIS2_EESaIS5_EERS1_I5GraphS3_IS9_EER10MSTFactoryRS1_I4TreeS3_ISF_EEENKUlvE3_clEvENKUlvE_clEvENKUlvE_clEvEUlvE_JEET_St14__invoke_otherOT0_DpOT1_
FN:60,_ZSt13__invoke_implIvRZZZZZZ14handleCommandsiRSt6vectorISt10unique_ptrI12ActiveObjectSt14default_deleteIS2_EESaIS5_EERS1_I5GraphS3_IS9_EER10MSTFactoryRS1_I4TreeS3_ISF_EEENKUlvE3_clEvENKUlvE_clEvENKUlvE_clEvENKUlvE_clEvENKUlvE_clEvEUlvE_JEET_St14__invoke_otherOT0_DpOT1_
FN:60,_ZSt13__invoke_implIvRSt5_BindIFM12LFThreadPoolFviEPS1_mEEJEET_St14__invoke_otherOT0_DpOT1_
FN:60,_ZSt13__invoke_implIvRZZ14handleCommandsiRSt6vectorISt10unique_ptrI12ActiveObjectSt14default_deleteIS2_EESaIS5_EERS1_I5GraphS3_IS9_EER10MSTFactoryRS1_I4TreeS3_ISF_EEENKUlvE3_clEvEUlvE_JEET_St14__invoke_otherOT0_DpOT1_
FN:60,_ZSt13__invoke_implIvRZ14handleCommandsiRSt6vectorISt10unique_ptrI12ActiveObjectSt14default_deleteIS2_EESaIS5_EERS1_I5GraphS3_IS9_EER10MSTFactoryRS1_I4TreeS3_ISF_EEEUlvE3_JEET_St14__invoke_otherOT0_DpOT1_
FN:71,_ZSt13__invoke_implIvM12ActiveObjectFvvEPS0_JEET_St21__invoke_memfun_derefOT0_OT1_DpOT2_
FN:71,_ZSt13__invoke_implIvRM12LFThreadPoolFviERPS0_JRmEET_St21__invoke_memfun_derefOT0_OT1_DpOT2_
FN:90,_ZSt8__invokeIRM12LFThreadPoolFviEJRPS0_RmEENSt15__invoke_resultIT_JDpT0_EE4typeEOS8_DpOS9_
FN:90,_ZSt8__invokeIM12ActiveObjectFvvEJPS0_EENSt15__invoke_resultIT_JDpT0_EE4typeEOS5_DpOS6_
FN:104,_ZSt10__invoke_rIvRZ14handleCommandsiRSt6vectorISt10unique_ptrI12ActiveObjectSt14default_deleteIS2_EESaIS5_EERS1_I5GraphS3_IS9_EER10MSTFactoryRS1_I4TreeS3_ISF_EEEUlvE5_JEENSt9enable_ifIX16is_invocable_r_vIT_T0_DpT1_EESM_E4typeEOSN_DpOSO_
FN:104,_ZSt10__invoke_rIvRZ14handleCommandsiRSt6vectorISt10unique_ptrI12ActiveObjectSt14default_deleteIS2_EESaIS5_EERS1_I5GraphS3_IS9_EER10MSTFactoryRS1_I4TreeS3_ISF_EEEUlvE2_JEENSt9enable_ifIX16is_invocable_r_vIT_T0_DpT1_EESM_E4typeEOSN_DpOSO_
FN:104,_ZSt10__invoke_rIvRZ14handleCommandsiRSt6vectorISt10unique_ptrI12ActiveObjectSt14default_deleteIS2_EESaIS5_EERS1_I5GraphS3_IS9_EER10MSTFactoryRS1_I4TreeS3_ISF_EEEUlvE0_JEENSt9enable_ifIX16is_invocable_r_vIT_T0_DpT1_EESM_E4typeEOSN_DpOSO_
FN:104,_ZSt10__invoke_rIvRZ16acceptConnectioniRSt10unique_ptrI5GraphSt14default_deleteIS1_EER10MSTFactoryRS0_I4TreeS2_IS8_EERS0_I12LFThreadPoolS2_ISC_EEEUlvE_JEENSt9enable_ifIX16is_invocable_r_vIT_T0_DpT1_EESJ_E4typeEOSK_DpOSL_
FN:104,_ZSt10__invoke_rIvRZ14handleCommandsiRSt6vectorISt10unique_ptrI12ActiveObjectSt14default_deleteIS2_EESaIS5_EERS1_I5GraphS3_IS9_EER10MSTFactoryRS1_I4TreeS3_ISF_EEEUlvE10_JEENSt9enable_ifIX16is_invocable_r_vIT_T0_DpT1_EESM_E4typeEOSN_DpOSO_
FN:104,_ZSt10__invoke_rIvRZ4mainEUlvE0_JEENSt9enable_ifIX16is_invocable_r_vIT_T0_DpT1_EES3_E4typeEOS4_DpOS5_
FN:104,_ZSt10__invoke_rIvRZ14handleCommandsiRSt6vectorISt10unique_ptrI12ActiveObjectSt14default_deleteIS2_EESaIS5_EERS1_I5GraphS3_IS9_EER10MSTFactoryRS1_I4TreeS3_ISF_EEEUlvE9_JEENSt9enable_ifIX16is_invocable_r_vIT_T0_DpT1_EESM_E4typeEOSN_DpOSO_
FN:104,_ZSt10__invoke_rIvRZZZZZZ14handleCommandsiRSt6vectorISt10unique_ptrI12ActiveObjectSt14default_deleteIS2_EESaIS5_EERS1_I5GraphS3_IS9_EER10MSTFactoryRS1_I4TreeS3_ISF_EEENKUlvE3_clEvENKUlvE_clEvENKUlvE_clEvENKUlvE_clEvENKUlvE_clEvEUlvE_JEENSt9enable_ifIX16is_invocable_r_vIT_T0_DpT1_EESR_E4typeEOSS_DpOST_
FN:104,_ZSt10__invoke_rIvRZZ14handleCommandsiRSt6vectorISt10unique_ptrI12ActiveObjectSt14default_deleteIS2_EESaIS5_EERS1_I5GraphS3_IS9_EER10MSTFactoryRS1_I4TreeS3_ISF_EEENKUlvE3_clEvEUlvE_JEENSt9enable_ifIX16is_invocable_r_vIT_T0_DpT1_EESN_E4typeEOSO_DpOSP_
FN:104,_ZSt10__invoke_rIvRZ14handleCommandsiRSt6vectorISt10unique_ptrI12ActiveObjectSt14default_deleteIS2_EESaIS5_EERS1_I5GraphS3_IS9_EER10MSTFactoryRS1_I4TreeS3_ISF_EEEUlvE_JEENSt9enable_ifIX16is_invocable_r_vIT_T0_DpT1_EESM_E4typeEOSN_DpOSO_
FN:104,_ZSt10__invoke_rIvRZZZZZ14handleCommandsiRSt6vectorISt10unique_ptrI12ActiveObjectSt14default_deleteIS2_EESaIS5_EERS1_I5GraphS3_IS9_EER10MSTFactoryRS1_I4TreeS3_ISF_EEENKUlvE3_clEvENKUlvE_clEvENKUlvE_clEvENKUlvE_clEvEUlvE_JEENSt9enable_ifIX16is_invocable_r_vIT_T0_DpT1_EESQ_E4typeEOSR_DpOSS_
FN:104,_ZSt10__invoke_rIvRZ14handleCommandsiRSt6vectorISt10unique_ptrI12ActiveObjectSt14default_deleteIS2_EESaIS5_EERS1_I5GraphS3_IS9_EER10MSTFactoryRS1_I4TreeS3_ISF_EEEUlvE6_JEENSt9enable_ifIX16is_invocable_r_vIT_T0_DpT1_EESM_E4typeEOSN_DpOSO_
FN:104,_ZSt10__invoke_rIvRZ14handleCommandsiRSt6vectorISt10unique_ptrI12ActiveObjectSt14default_deleteIS2_EESaIS5_EERS1_I5GraphS3_IS9_EER10MSTFactoryRS1_I4TreeS3_ISF_EEEUlvE3_JEENSt9enable_ifIX16is_invocable_r_vIT_T0_DpT1_EESM_E4typeEOSN_DpOSO_
FN:104,_ZSt10__invoke_rIvRZ14handleCommandsiRSt6vectorISt10unique_ptrI12ActiveObjectSt14default_deleteIS2_EESaIS5_EERS1_I5GraphS3_IS9_EER10MSTFactoryRS1_I4TreeS3_ISF_EEEUlvE8_JEENSt9enable_ifIX16is_invocable_r_vIT_T0_DpT1_EESM_E4typeEOSN_DpOSO_
FN:104,_ZSt10__invoke_rIvRZ14handleCommandsiRSt6vectorISt10unique_ptrI12ActiveObjectSt14default_deleteIS2_EESaIS5_EERS1_I5GraphS3_IS9_EER10MSTFactoryRS1_I4TreeS3_ISF_EEEUlvE4_JEENSt9enable_ifIX16is_invocable_r_vIT_T0_DpT1_EESM_E4typeEOSN_DpOSO_
FN:104,_ZSt10__invoke_rIvRSt5_BindIFM12LFThreadPoolFviEPS1_mEEJEENSt9enable_ifIX16is_invocable_r_vIT_T0_DpT1_EES9_E4typeEOSA_DpOSB_
FN:104,_ZSt10__invoke_rIvRZZZZ14handleCommandsiRSt6vectorISt10unique_ptrI12ActiveObjectSt14default_deleteIS2_EESaIS5_EERS1_I5GraphS3_IS9_EER10MSTFactoryRS1_I4TreeS3_ISF_EEENKUlvE3_clEvENKUlvE_clEvENKUlvE_clEvEUlvE_JEENSt9enable_ifIX16is_invocable_r_vIT_T0_DpT1_EESP_E4typeEOSQ_DpOSR_
FN:104,_ZSt10__invoke_rIvRZ4mainEUliE_JiEENSt9enable_ifIX16is_invocable_r_vIT_T0_DpT1_EES3_E4typeEOS4_DpOS5_
FN:104,_ZSt10__invoke_rIvRZZZ14handleCommandsiRSt6vectorISt10unique_ptrI12ActiveObjectSt14default_deleteIS2_EESaIS5_EERS1_I5GraphS3_IS9_EER10MSTFactoryRS1_I4TreeS3_ISF_EEENKUlvE3_clEvENKUlvE_clEvEUlvE_JEENSt9enable_ifIX16is_invocable_r_vIT_T0_DpT1_EESO_E4typeEOSP_DpOSQ_
FN:104,_ZSt10__invoke_rIvRZ14handleCommandsiRSt6vectorISt10unique_ptrI12ActiveObjectSt14default_deleteIS2_EESaIS5_EERS1_I5GraphS3_IS9_EER10MSTFactoryRS1_I4TreeS3_ISF_EEEUlvE1_JEENSt9enable_ifIX16is_invocable_r_vIT_T0_DpT1_EESM_E4typeEOSN_DpOSO_
FNDA:12,_ZSt10__invoke_rIvRZ14handleCommandsiRSt6vectorISt10unique_ptrI12ActiveObjectSt14default_deleteIS2_EESaIS5_EERS1_I5GraphS3_IS9_EER10MSTFactoryRS1_I4TreeS3_ISF_EEEUlvE2_JEENSt9enable_ifIX16is_invocable_r_vIT_T0_DpT1_EESM_E4typeEOSN_DpOSO_
FNDA:34,_ZSt10__invoke_rIvRZ14handleCommandsiRSt6vectorISt10unique_ptrI12ActiveObjectSt14default_deleteIS2_EESaIS5_EERS1_I5GraphS3_IS9_EER10MSTFactoryRS1_I4TreeS3_ISF_EEEUlvE0_JEENSt9enable_ifIX16is_invocable_r_vIT_T0_DpT1_EESM_E4typeEOSN_DpOSO_
FNDA:4,_ZSt13__invoke_implIvRZ14handleCommandsiRSt6vectorISt10unique_ptrI12ActiveObjectSt14default_deleteIS2_EESaIS5_EERS1_I5GraphS3_IS9_EER10MSTFactoryRS1_I4TreeS3_ISF_EEEUlvE10_JEET_St14__invoke_otherOT0_DpOT1_
FNDA:50,_ZSt8__invokeIRM12LFThreadPoolFviEJRPS0_RmEENSt15__invoke_resultIT_JDpT0_EE4typeEOS8_DpOS9_
FNDA:4,_ZSt10__invoke_rIvRZ14handleCommandsiRSt6vectorISt10unique_ptrI12ActiveObjectSt14default_deleteIS2_EESaIS5_EERS1_I5GraphS3_IS9_EER10MSTFactoryRS1_I4TreeS3_ISF_EEEUlvE5_JEENSt9enable_ifIX16is_invocable_r_vIT_T0_DpT1_EESM_E4typeEOSN_DpOSO_
FNDA:34,_ZSt13__invoke_implIvRZ14handleCommandsiRSt6vectorISt10unique_ptrI12ActiveObjectSt14default_deleteIS2_EESaIS5_EERS1_I5GraphS3_IS9_EER10MSTFactoryRS1_I4TreeS3_ISF_EEEUlvE0_JEET_St14__invoke_otherOT0_DpOT1_
FNDA:10,_ZSt13__invoke_implIvRZ14handleCommandsiRSt6vectorISt10unique_ptrI12ActiveObjectSt14default_deleteIS2_EESaIS5_EERS1_I5GraphS3_IS9_EER10MSTFactoryRS1_I4TreeS3_ISF_EEEUlvE6_JEET_St14__invoke_otherOT0_DpOT1_
FNDA:16,_ZSt13__invoke_implIvRZ14handleCommandsiRSt6vectorISt10unique_ptrI12ActiveObjectSt14default_deleteIS2_EESaIS5_EERS1_I5GraphS3_IS9_EER10MSTFactoryRS1_I4TreeS3_ISF_EEEUlvE_JEET_St14__invoke_otherOT0_DpOT1_
FNDA:4,_ZSt13__invoke_implIvRZZZZZ14handleCommandsiRSt6vectorISt10unique_ptrI12ActiveObjectSt14default_deleteIS2_EESaIS5_EERS1_I5GraphS3_IS9_EER10MSTFactoryRS1_I4TreeS3_ISF_EEENKUlvE3_clEvENKUlvE_clEvENKUlvE_clEvENKUlvE_clEvEUlvE_JEET_St14__invoke_otherOT0_DpOT1_
FNDA:4,_ZSt13__invoke_implIvRZZZ14handleCommandsiRSt6vectorISt10unique_ptrI12ActiveObjectSt14default_deleteIS2_EESaIS5_EERS1_I5GraphS3_IS9_EER10MSTFactoryRS1_I4TreeS3_ISF_EEENKUlvE3_clEvENKUlvE_clEvEUlvE_JEET_St14__invoke_otherOT0_DpOT1_
FNDA:4,_ZSt10__invoke_rIvRZ14handleCommandsiRSt6vectorISt10unique_ptrI12ActiveObjectSt14default_deleteIS2_EESaIS5_EERS1_I5GraphS3_IS9_EER10MSTFactoryRS1_I4TreeS3_ISF_EEEUlvE9_JEENSt9enable_ifIX16is_invocable_r_vIT_T0_DpT1_EESM_E4typeEOSN_DpOSO_
FNDA:8,_ZSt13__invoke_implIvRZ16acceptConnectioniRSt10unique_ptrI5GraphSt14default_deleteIS1_EER10MSTFactoryRS0_I4TreeS2_IS8_EERS0_I12LFThreadPoolS2_ISC_EEEUlvE_JEET_St14__invoke_otherOT0_DpOT1_
FNDA:8,_ZSt10__invoke_rIvRZ4mainEUlvE0_JEENSt9enable_ifIX16is_invocable_r_vIT_T0_DpT1_EES3_E4typeEOS4_DpOS5_
FNDA:6,_ZSt13__invoke_implIvRZ14handleCommandsiRSt6vectorISt10unique_ptrI12ActiveObjectSt14default_deleteIS2_EESaIS5_EERS1_I5GraphS3_IS9_EER10MSTFactoryRS1_I4TreeS3_ISF_EEEUlvE8_JEET_St14__invoke_otherOT0_DpOT1_
FNDA:8,_ZSt10__invoke_rIvRZ16acceptConnectioniRSt10unique_ptrI5GraphSt14default_deleteIS1_EER10MSTFactoryRS0_I4TreeS2_IS8_EERS0_I12LFThreadPoolS2_ISC_EEEUlvE_JEENSt9enable_ifIX16is_invocable_r_vIT_T0_DpT1_EESJ_E4typeEOSK_DpOSL_
FNDA:8,_ZSt13__invoke_implIvRZ4mainEUlvE0_JEET_St14__invoke_otherOT0_DpOT1_
FNDA:4,_ZSt13__invoke_implIvRZ14handleCommandsiRSt6vectorISt10unique_ptrI12ActiveObjectSt14default_deleteIS2_EESaIS5_EERS1_I5GraphS3_IS9_EER10MSTFactoryRS1_I4TreeS3_ISF_EEEUlvE4_JEET_St14__invoke_otherOT0_DpOT1_
FNDA:4,_ZSt10__invoke_rIvRZ14handleCommandsiRSt6vectorISt10unique_ptrI12ActiveObjectSt14default_deleteIS2_EESaIS5_EERS1_I5GraphS3_IS9_EER10MSTFactoryRS1_I4TreeS3_ISF_EEEUlvE10_JEENSt9enable_ifIX16is_invocable_r_vIT_T0_DpT1_EESM_E4typeEOSN_DpOSO_
FNDA:42,_ZSt8__invokeIM12ActiveObjectFvvEJPS0_EENSt15__invoke_resultIT_JDpT0_EE4typeEOS5_DpOS6_
FNDA:4,_ZSt13__invoke_implIvRZZZZZZ14handleCommandsiRSt6vectorISt10unique_ptrI12ActiveObjectSt14default_deleteIS2_EESaIS5_EERS1_I5GraphS3_IS9_EER10MSTFactoryRS1_I4TreeS3_ISF_EEENKUlvE3_clEvENKUlvE_clEvENKUlvE_clEvENKUlvE_clEvENKUlvE_clEvEUlvE_JEET_St14__invoke_otherOT0_DpOT1_
FNDA:12,_ZSt13__invoke_implIvRZ14handleCommandsiRSt6vectorISt10unique_ptrI12ActiveObjectSt14default_deleteIS2_EESaIS5_EERS1_I5GraphS3_IS9_EER10MSTFactoryRS1_I4TreeS3_ISF_EEEUlvE1_JEET_St14__invoke_otherOT0_DpOT1_
FNDA:4,_ZSt10__invoke_rIvRZZZZZ14handleCommandsiRSt6vectorISt10unique_ptrI12ActiveObjectSt14default_deleteIS2_EESaIS5_EERS1_I5GraphS3_IS9_EER10MSTFactoryRS1_I4TreeS3_ISF_EEENKUlvE3_clEvENKUlvE_clEvENKUlvE_clEvENKUlvE_clEvEUlvE_JEENSt9enable_ifIX16is_invocable_r_vIT_T0_DpT1_EESQ_E4typeEOSR_DpOSS_
FNDA:16,_ZSt10__invoke_rIvRZ14handleCommandsiRSt6vectorISt10unique_ptrI12ActiveObjectSt14default_deleteIS2_EESaIS5_EERS1_I5GraphS3_IS9_EER10MSTFactoryRS1_I4TreeS3_ISF_EEEUlvE_JEENSt9enable_ifIX16is_invocable_r_vIT_T0_DpT1_EESM_E4typeEOSN_DpOSO_
FNDA:50,_ZSt13__invoke_implIvRM12LFThreadPoolFviERPS0_JRmEET_St21__invoke_memfun_derefOT0_OT1_DpOT2_
FNDA:10,_ZSt10__invoke_rIvRZ14handleCommandsiRSt6vectorISt10unique_ptrI12ActiveObjectSt14default_deleteIS2_EESaIS5_EERS1_I5GraphS3_IS9_EER10MSTFactoryRS1_I4TreeS3_ISF_EEEUlvE6_JEENSt9enable_ifIX16is_invocable_r_vIT_T0_DpT1_EESM_E4typeEOSN_DpOSO_
FNDA:4,_ZSt13__invoke_implIvRZZZZ14handleCommandsiRSt6vectorISt10unique_ptrI12ActiveObjectSt14default_deleteIS2_EESaIS5_EERS1_I5GraphS3_IS9_EER10MSTFactoryRS1_I4TreeS3_ISF_EEENKUlvE3_clEvENKUlvE_clEvENKUlvE_clEvEUlvE_JEET_St14__invoke_otherOT0_DpOT1_
FNDA:4,_ZSt10__invoke_rIvRZZZZZZ14handleCommandsiRSt6vectorISt10unique_ptrI12ActiveObjectSt14default_deleteIS2_EESaIS5_EERS1_I5GraphS3_IS9_EER10MSTFactoryRS1_I4TreeS3_ISF_EEENKUlvE3_clEvENKUlvE_clEvENKUlvE_clEvENKUlvE_clEvENKUlvE_clEvEUlvE_JEENSt9enable_ifIX16is_invocable_r_vIT_T0_DpT1_EESR_E4typeEOSS_DpOST_
FNDA:4,_ZSt10__invoke_rIvRZZ14handleCommandsiRSt6vectorISt10unique_ptrI12ActiveObjectSt14default_deleteIS2_EESaIS5_EERS1_I5GraphS3_IS9_EER10MSTFactoryRS1_I4TreeS3_ISF_EEENKUlvE3_clEvEUlvE_JEENSt9enable_ifIX16is_invocable_r_vIT_T0_DpT1_EESN_E4typeEOSO_DpOSP_
FNDA:42,_ZSt13__invoke_implIvM12ActiveObjectFvvEPS0_JEET_St21__invoke_memfun_derefOT0_OT1_DpOT2_
FNDA:4,_ZSt13__invoke_implIvRZ14handleCommandsiRSt6vectorISt10unique_ptrI12ActiveObjectSt14default_deleteIS2_EESaIS5_EERS1_I5GraphS3_IS9_EER10MSTFactoryRS1_I4TreeS3_ISF_EEEUlvE5_JEET_St14__invoke_otherOT0_DpOT1_
FNDA:4,_ZSt13__invoke_implIvRZ14handleCommandsiRSt6vectorISt10unique_ptrI12ActiveObjectSt14default_deleteIS2_EESaIS5_EERS1_I5GraphS3_IS9_EER10MSTFactoryRS1_I4TreeS3_ISF_EEEUlvE9_JEET_St14__invoke_otherOT0_DpOT1_
FNDA:12,_ZSt13__invoke_implIvRZ14handleCommandsiRSt6vectorISt10unique_ptrI12ActiveObjectSt14default_deleteIS2_EESaIS5_EERS1_I5GraphS3_IS9_EER10MSTFactoryRS1_I4TreeS3_ISF_EEEUlvE2_JEET_St14__invoke_otherOT0_DpOT1_
FNDA:11,_ZSt13__invoke_implIvRZ4mainEUliE_JiEET_St14__invoke_otherOT0_DpOT1_
FNDA:12,_ZSt10__invoke_rIvRZ14handleCommandsiRSt6vectorISt10unique_ptrI12ActiveObjectSt14default_deleteIS2_EESaIS5_EERS1_I5GraphS3_IS9_EER10MSTFactoryRS1_I4TreeS3_ISF_EEEUlvE1_JEENSt9enable_ifIX16is_invocable_r_vIT_T0_DpT1_EESM_E4typeEOSN_DpOSO_
FNDA:16,_ZSt13__invoke_implIvRZ14handleCommandsiRSt6vectorISt10unique_ptrI12ActiveObjectSt14default_deleteIS2_EESaIS5_EERS1_I5GraphS3_IS9_EER10MSTFactoryRS1_I4TreeS3_ISF_EEEUlvE3_JEET_St14__invoke_otherOT0_DpOT1_
FNDA:11,_ZSt10__invoke_rIvRZ4mainEUliE_JiEENSt9enable_ifIX16is_invocable_r_vIT_T0_DpT1_EES3_E4typeEOS4_DpOS5_
FNDA:4,_ZSt10__invoke_rIvRZZZ14handleCommandsiRSt6vectorISt10unique_ptrI12ActiveObjectSt14default_deleteIS2_EESaIS5_EERS1_I5GraphS3_IS9_EER10MSTFactoryRS1_I4TreeS3_ISF_EEENKUlvE3_clEvENKUlvE_clEvEUlvE_JEENSt9enable_ifIX16is_invocable_r_vIT_T0_DpT1_EESO_E4typeEOSP_DpOSQ_
FNDA:50,_ZSt10__invoke_rIvRSt5_BindIFM12LFThreadPoolFviEPS1_mEEJEENSt9enable_ifIX16is_invocable_r_vIT_T0_DpT1_EES9_E4typeEOSA_DpOSB_
FNDA:4,_ZSt13__invoke_implIvRZZ14handleCommandsiRSt6vectorISt10unique_ptrI12ActiveObjectSt14default_deleteIS2_EESaIS5_EERS1_I5GraphS3_IS9_EER10MSTFactoryRS1_I4TreeS3_ISF_EEENKUlvE3_clEvEUlvE_JEET_St14__invoke_otherOT0_DpOT1_
FNDA:4,_ZSt10__invoke_rIvRZZZZ14handleCommandsiRSt6vectorISt10unique_ptrI12ActiveObjectSt14default_deleteIS2_EESaIS5_EERS1_I5GraphS3_IS9_EER10MSTFactoryRS1_I4TreeS3_ISF_EEENKUlvE3_clEvENKUlvE_clEvENKUlvE_clEvEUlvE_JEENSt9enable_ifIX16is_invocable_r_vIT_T0_DpT1_EESP_E4typeEOSQ_DpOSR_
FNDA:16,_ZSt10__invoke_rIvRZ14handleCommandsiRSt6vectorISt10unique_ptrI12ActiveObjectSt14default_deleteIS2_EESaIS5_EERS1_I5GraphS3_IS9_EER10MSTFactoryRS1_I4TreeS3_ISF_EEEUlvE3_JEENSt9enable_ifIX16is_invocable_r_vIT_T0_DpT1_EESM_E4typeEOSN_DpOSO_
FNDA:6,_ZSt10__invoke_rIvRZ14handleCommandsiRSt6vectorISt10unique_ptrI12ActiveObjectSt14default_deleteIS2_EESaIS5_EERS1_I5GraphS3_IS9_EER10MSTFactoryRS1_I4TreeS3_ISF_EEEUlvE8_JEENSt9enable_ifIX16is_invocable_r_vIT_T0_DpT1_EESM_E4typeEOSN_DpOSO_
FNDA:50,_ZSt13__invoke_implIvRSt5_BindIFM12LFThreadPoolFviEPS1_mEEJEET_St14__invoke_otherOT0_DpOT1_
FNDA:4,_ZSt10__invoke_rIvRZ14handleCommandsiRSt6vectorISt10unique_ptrI12ActiveObjectSt14default_deleteIS2_EESaIS5_EERS1_I5GraphS3_IS9_EER10MSTFactoryRS1_I4TreeS3_ISF_EEEUlvE4_JEENSt9enable_ifIX16is_invocable_r_vIT_T0_DpT1_EESM_E4typeEOSN_DpOSO_
FNF:44
FNH:44
DA:60,219
DA:61,219
DA:71,92
DA:74,92
DA:90,92
DA:96,92
DA:97,87
DA:104,219
DA:111,219
DA:117,214
LF:10
LH:10
end_of_record
TN:
SF:/usr/include/c++/11/bits/ios_base.h
FN:129,_ZStorSt13_Ios_OpenmodeS_
FNDA:200,_ZStorSt13_Ios_OpenmodeS_
FNF:1
FNH:1
DA:129,200
DA:130,200
LF:2
LH:2
end_of_record
TN:
SF:/usr/include/c++/11/bits/move.h
FN:49,_ZSt11__addressofI10MSTFactoryEPT_RS1_
FN:49,_ZSt11__addressofISt6vectorIiSaIiEEEPT_RS3_
FN:49,_ZSt11__addressofISt10unique_ptrI4TreeSt14default_deleteIS1_EEEPT_RS5_
FN:49,_ZSt11__addressofISt10unique_ptrI12ActiveObjectSt14default_deleteIS1_EEEPT_RS5_
FN:49,_ZSt11__addressofISt6threadEPT_RS1_
FN:49,_ZSt11__addressofImEPT_RS0_
FN:49,_ZSt11__addressofISt4pairIiiEEPT_RS2_
FN:49,_ZSt11__addressofISt5mutexEPT_RS1_
FN:49,_ZSt11__addressofISaISt23_Sp_counted_ptr_inplaceI13ThreadContextSaIS1_ELN9__gnu_cxx12_Lock_policyE2EEEEPT_RS7_
FN:49,_ZSt11__addressofISt10unique_ptrI5GraphSt14default_deleteIS1_EEEPT_RS5_
FN:49,_ZSt11__addressofISt6vectorISt10unique_ptrI12ActiveObjectSt14default_deleteIS2_EESaIS5_EEEPT_RS8_
FN:49,_ZSt11__addressofISt10shared_ptrI13ThreadContextEEPT_RS3_
FN:49,_ZSt11__addressofISt8functionIFvvEEEPT_RS3_
FN:49,_ZSt11__addressofISt6vectorI4EdgeSaIS1_EEEPT_RS4_
FN:77,_ZSt7forwardIRKZZZZZ14handleCommandsiRSt6vectorISt10unique_ptrI12ActiveObjectSt14default_deleteIS2_EESaIS5_EERS1_I5GraphS3_IS9_EER10MSTFactoryRS1_I4TreeS3_ISF_EEENKUlvE3_clEvENKUlvE_clEvENKUlvE_clEvENKUlvE_clEvEUlvE_EOT_RNSt16remove_referenceISQ_E4typeE
FN:77,_ZSt7forwardIRZ14handleCommandsiRSt6vectorISt10unique_ptrI12ActiveObjectSt14default_deleteIS2_EESaIS5_EERS1_I5GraphS3_IS9_EER10MSTFactoryRS1_I4TreeS3_ISF_EEEUlvE_EOT_RNSt16remove_referenceISL_E4typeE
FN:77,_ZSt7forwardIRZZZZ14handleCommandsiRSt6vectorISt10unique_ptrI12ActiveObjectSt14default_deleteIS2_EESaIS5_EERS1_I5GraphS3_IS9_EER10MSTFactoryRS1_I4TreeS3_ISF_EEENKUlvE3_clEvENKUlvE_clEvENKUlvE_clEvEUlvE_EOT_RNSt16remove_referenceISO_E4typeE
FN:77,_ZSt7forwardIRSt6vectorISt10unique_ptrI12ActiveObjectSt14default_deleteIS2_EESaIS5_EEEOT_RNSt16remove_referenceIS9_E4typeE
FN:77,_ZSt7forwardISt5tupleIJEEEOT_RNSt16remove_referenceIS2_E4typeE
FN:77,_ZSt7forwardISt5_BindIFM12LFThreadPoolFviEPS1_mEEEOT_RNSt16remove_referenceIS7_E4typeE
FN:77,_ZSt7forwardISt4pairIiiEEOT_RNSt16remove_referenceIS2_E4typeE
FN:77,_ZSt7forwardIRZ14handleCommandsiRSt6vectorISt10unique_ptrI12ActiveObjectSt14default_deleteIS2_EESaIS5_EERS1_I5GraphS3_IS9_EER10MSTFactoryRS1_I4TreeS3_ISF_EEEUlvE0_EOT_RNSt16remove_referenceISL_E4typeE
FN:77,_ZSt7forwardIRKZ14handleCommandsiRSt6vectorISt10unique_ptrI12ActiveObjectSt14default_deleteIS2_EESaIS5_EERS1_I5GraphS3_IS9_EER10MSTFactoryRS1_I4TreeS3_ISF_EEEUlvE5_EOT_RNSt16remove_referenceISM_E4typeE
FN:77,_ZSt7forwardIRZ16acceptConnectioniRSt10unique_ptrI5GraphSt14default_deleteIS1_EER10MSTFactoryRS0_I4TreeS2_IS8_EERS0_I12LFThreadPoolS2_ISC_EEEUlvE_EOT_RNSt16remove_referenceISI_E4typeE
FN:77,_ZSt7forwardIRP12LFThreadPoolEOT_RNSt16remove_referenceIS3_E4typeE
FN:77,_ZSt7forwardIZ4mainEUlvE0_EOT_RNSt16remove_referenceIS1_E4typeE
FN:77,_ZSt7forwardIRSt10unique_ptrI4TreeSt14default_deleteIS1_EEEOT_RNSt16remove_referenceIS6_E4typeE
FN:77,_ZSt7forwardIRKSt21piecewise_construct_tEOT_RNSt16remove_referenceIS3_E4typeE
FN:77,_ZSt7forwardIRSt8functionIFvvEEEOT_RNSt16remove_referenceIS4_E4typeE
FN:77,_ZSt7forwardIRZZZZZ14handleCommandsiRSt6vectorISt10unique_ptrI12ActiveObjectSt14default_deleteIS2_EESaIS5_EERS1_I5GraphS3_IS9_EER10MSTFactoryRS1_I4TreeS3_ISF_EEENKUlvE3_clEvENKUlvE_clEvENKUlvE_clEvENKUlvE_clEvEUlvE_EOT_RNSt16remove_referenceISP_E4typeE
FN:77,_ZSt7forwardIRSt10unique_ptrI5GraphSt14default_deleteIS1_EEEOT_RNSt16remove_referenceIS6_E4typeE
FN:77,_ZSt7forwardIR10MSTFactoryEOT_RNSt16remove_referenceIS2_E4typeE
FN:77,_ZSt7forwardIRKZ14handleCommandsiRSt6vectorISt10unique_ptrI12ActiveObjectSt14default_deleteIS2_EESaIS5_EERS1_I5GraphS3_IS9_EER10MSTFactoryRS1_I4TreeS3_ISF_EEEUlvE_EOT_RNSt16remove_referenceISM_E4typeE
FN:77,_ZSt7forwardIRmEOT_RNSt16remove_referenceIS1_E4typeE
FN:77,_ZSt7forwardIRKZ14handleCommandsiRSt6vectorISt10unique_ptrI12ActiveObjectSt14default_deleteIS2_EESaIS5_EERS1_I5GraphS3_IS9_EER10MSTFactoryRS1_I4TreeS3_ISF_EEEUlvE9_EOT_RNSt16remove_referenceISM_E4typeE
FN:77,_ZSt7forwardIZ16acceptConnectioniRSt10unique_ptrI5GraphSt14default_deleteIS1_EER10MSTFactoryRS0_I4TreeS2_IS8_EERS0_I12LFThreadPoolS2_ISC_EEEUlvE_EOT_RNSt16remove_referenceISH_E4typeE
FN:77,_ZSt7forwardIRKZ16acceptConnectioniRSt10unique_ptrI5GraphSt14default_deleteIS1_EER10MSTFactoryRS0_I4TreeS2_IS8_EERS0_I12LFThreadPoolS2_ISC_EEEUlvE_EOT_RNSt16remove_referenceISJ_E4typeE
FN:77,_ZSt7forwardISt14default_deleteI4TreeEEOT_RNSt16remove_referenceIS3_E4typeE
FN:77,_ZSt7forwardIRKZ14handleCommandsiRSt6vectorISt10unique_ptrI12ActiveObjectSt14default_deleteIS2_EESaIS5_EERS1_I5GraphS3_IS9_EER10MSTFactoryRS1_I4TreeS3_ISF_EEEUlvE4_EOT_RNSt16remove_referenceISM_E4typeE
FN:77,_ZSt7forwardISt5tupleIJRKiEEEOT_RNSt16remove_referenceIS4_E4typeE
FN:77,_ZSt7forwardIRKZZ14handleCommandsiRSt6vectorISt10unique_ptrI12ActiveObjectSt14default_deleteIS2_EESaIS5_EERS1_I5GraphS3_IS9_EER10MSTFactoryRS1_I4TreeS3_ISF_EEENKUlvE3_clEvEUlvE_EOT_RNSt16remove_referenceISN_E4typeE
FN:77,_ZSt7forwardIRPSt18_Rb_tree_node_baseEOT_RNSt16remove_referenceIS3_E4typeE
FN:77,_ZSt7forwardISt14default_deleteI9functArgsEEOT_RNSt16remove_referenceIS3_E4typeE
FN:77,_ZSt7forwardIRK4EdgeEOT_RNSt16remove_referenceIS3_E4typeE
FN:77,_ZSt7forwardISt6vectorIiSaIiEEEOT_RNSt16remove_referenceIS3_E4typeE
FN:77,_ZSt7forwardIRZ14handleCommandsiRSt6vectorISt10unique_ptrI12ActiveObjectSt14default_deleteIS2_EESaIS5_EERS1_I5GraphS3_IS9_EER10MSTFactoryRS1_I4TreeS3_ISF_EEEUlvE4_EOT_RNSt16remove_referenceISL_E4typeE
FN:77,_ZSt7forwardIRKZ4mainEUlvE0_EOT_RNSt16remove_referenceIS3_E4typeE
FN:77,_ZSt7forwardIRZZ14handleCommandsiRSt6vectorISt10unique_ptrI12ActiveObjectSt14default_deleteIS2_EESaIS5_EERS1_I5GraphS3_IS9_EER10MSTFactoryRS1_I4TreeS3_ISF_EEENKUlvE3_clEvEUlvE_EOT_RNSt16remove_referenceISM_E4typeE
FN:77,_ZSt7forwardIRZ14handleCommandsiRSt6vectorISt10unique_ptrI12ActiveObjectSt14default_deleteIS2_EESaIS5_EERS1_I5GraphS3_IS9_EER10MSTFactoryRS1_I4TreeS3_ISF_EEEUlvE6_EOT_RNSt16remove_referenceISL_E4typeE
FN:77,_ZSt7forwardIRZ14handleCommandsiRSt6vectorISt10unique_ptrI12ActiveObjectSt14default_deleteIS2_EESaIS5_EERS1_I5GraphS3_IS9_EER10MSTFactoryRS1_I4TreeS3_ISF_EEEUlvE2_EOT_RNSt16remove_referenceISL_E4typeE
FN:77,_ZSt7forwardIRKZ4mainEUliE_EOT_RNSt16remove_referenceIS3_E4typeE
FN:77,_ZSt7forwardIP12ActiveObjectEOT_RNSt16remove_referenceIS2_E4typeE
FN:77,_ZSt7forwardIRKZ14handleCommandsiRSt6vectorISt10unique_ptrI12ActiveObjectSt14default_deleteIS2_EESaIS5_EERS1_I5GraphS3_IS9_EER10MSTFactoryRS1_I4TreeS3_ISF_EEEUlvE8_EOT_RNSt16remove_referenceISM_E4typeE
FN:77,_ZSt7forwardIRKZ14handleCommandsiRSt6vectorISt10unique_ptrI12ActiveObjectSt14default_deleteIS2_EESaIS5_EERS1_I5GraphS3_IS9_EER10MSTFactoryRS1_I4TreeS3_ISF_EEEUlvE0_EOT_RNSt16remove_referenceISM_E4typeE
FN:77,_ZSt7forwardISt14default_deleteISt8functionIFvvEEEEOT_RNSt16remove_referenceIS5_E4typeE
FN:77,_ZSt7forwardIM12LFThreadPoolFviEEOT_RNSt16remove_referenceIS3_E4typeE
FN:77,_ZSt7forwardISt14default_deleteI12LFThreadPoolEEOT_RNSt16remove_referenceIS3_E4typeE
FN:77,_ZSt7forwardIM12ActiveObjectFvvEEOT_RNSt16remove_referenceIS3_E4typeE
FN:77,_ZSt7forwardISt14default_deleteI11MSTStrategyEEOT_RNSt16remove_referenceIS3_E4typeE
FN:77,_ZSt7forwardISt10unique_ptrI12ActiveObjectSt14default_deleteIS1_EEEOT_RNSt16remove_referenceIS5_E4typeE
FN:77,_ZSt7forwardIRKZ14handleCommandsiRSt6vectorISt10unique_ptrI12ActiveObjectSt14default_deleteIS2_EESaIS5_EERS1_I5GraphS3_IS9_EER10MSTFactoryRS1_I4TreeS3_ISF_EEEUlvE6_EOT_RNSt16remove_referenceISM_E4typeE
FN:77,_ZSt7forwardIRSt6vectorI4EdgeSaIS1_EEEOT_RNSt16remove_referenceIS5_E4typeE
FN:77,_ZSt7forwardIRZ4mainEUliE_EOT_RNSt16remove_referenceIS2_E4typeE
FN:77,_ZSt7forwardIRiEOT_RNSt16remove_referenceIS1_E4typeE
FN:77,_ZSt7forwardI4EdgeEOT_RNSt16remove_referenceIS1_E4typeE
FN:77,_ZSt7forwardIRKZZZZ14handleCommandsiRSt6vectorISt10unique_ptrI12ActiveObjectSt14default_deleteIS2_EESaIS5_EERS1_I5GraphS3_IS9_EER10MSTFactoryRS1_I4TreeS3_ISF_EEENKUlvE3_clEvENKUlvE_clEvENKUlvE_clEvEUlvE_EOT_RNSt16remove_referenceISP_E4typeE
FN:77,_ZSt7forwardIP12LFThreadPoolEOT_RNSt16remove_referenceIS2_E4typeE
FN:77,_ZSt7forwardISt14default_deleteI5GraphEEOT_RNSt16remove_referenceIS3_E4typeE
FN:77,_ZSt7forwardIRKZZZ14handleCommandsiRSt6vectorISt10unique_ptrI12ActiveObjectSt14default_deleteIS2_EESaIS5_EERS1_I5GraphS3_IS9_EER10MSTFactoryRS1_I4TreeS3_ISF_EEENKUlvE3_clEvENKUlvE_clEvEUlvE_EOT_RNSt16remove_referenceISO_E4typeE
FN:77,_ZSt7forwardIRKZ14handleCommandsiRSt6vectorISt10unique_ptrI12ActiveObjectSt14default_deleteIS2_EESaIS5_EERS1_I5GraphS3_IS9_EER10MSTFactoryRS1_I4TreeS3_ISF_EEEUlvE10_EOT_RNSt16remove_referenceISM_E4typeE
FN:77,_ZSt7forwardIRKSt6vectorIiSaIiEEEOT_RNSt16remove_referenceIS5_E4typeE
FN:77,_ZSt7forwardIRZZZ14handleCommandsiRSt6vectorISt10unique_ptrI12ActiveObjectSt14default_deleteIS2_EESaIS5_EERS1_I5GraphS3_IS9_EER10MSTFactoryRS1_I4TreeS3_ISF_EEENKUlvE3_clEvENKUlvE_clEvEUlvE_EOT_RNSt16remove_referenceISN_E4typeE
FN:77,_ZSt7forwardIRZ14handleCommandsiRSt6vectorISt10unique_ptrI12ActiveObjectSt14default_deleteIS2_EESaIS5_EERS1_I5GraphS3_IS9_EER10MSTFactoryRS1_I4TreeS3_ISF_EEEUlvE1_EOT_RNSt16remove_referenceISL_E4typeE
FN:77,_ZSt7forwardIRKiEOT_RNSt16remove_referenceIS2_E4typeE
FN:77,_ZSt7forwardIR7ReactorEOT_RNSt16remove_referenceIS2_E4typeE
FN:77,_ZSt7forwardIRZ14handleCommandsiRSt6vectorISt10unique_ptrI12ActiveObjectSt14default_deleteIS2_EESaIS5_EERS1_I5GraphS3_IS9_EER10MSTFactoryRS1_I4TreeS3_ISF_EEEUlvE3_EOT_RNSt16remove_referenceISL_E4typeE
FN:77,_ZSt7forwardIRZ14handleCommandsiRSt6vectorISt10unique_ptrI12ActiveObjectSt14default_deleteIS2_EESaIS5_EERS1_I5GraphS3_IS9_EER10MSTFactoryRS1_I4TreeS3_ISF_EEEUlvE10_EOT_RNSt16remove_referenceISL_E4typeE
FN:77,_ZSt7forwardIRKZ14handleCommandsiRSt6vectorISt10unique_ptrI12ActiveObjectSt14default_deleteIS2_EESaIS5_EERS1_I5GraphS3_IS9_EER10MSTFactoryRS1_I4TreeS3_ISF_EEEUlvE1_EOT_RNSt16remove_referenceISM_E4typeE
FN:77,_ZSt7forwardIRKZ14handleCommandsiRSt6vectorISt10unique_ptrI12ActiveObjectSt14default_deleteIS2_EESaIS5_EERS1_I5GraphS3_IS9_EER10MSTFactoryRS1_I4TreeS3_ISF_EEEUlvE2_EOT_RNSt16remove_referenceISM_E4typeE
FN:77,_ZSt7forwardIRKZ14handleCommandsiRSt6vectorISt10unique_ptrI12ActiveObjectSt14default_deleteIS2_EESaIS5_EERS1_I5GraphS3_IS9_EER10MSTFactoryRS1_I4TreeS3_ISF_EEEUlvE3_EOT_RNSt16remove_referenceISM_E4typeE
FN:77,_ZSt7forwardIRM12LFThreadPoolFviEEOT_RNSt16remove_referenceIS4_E4typeE
FN:77,_ZSt7forwardIRZ14handleCommandsiRSt6vectorISt10unique_ptrI12ActiveObjectSt14default_deleteIS2_EESaIS5_EERS1_I5GraphS3_IS9_EER10MSTFactoryRS1_I4TreeS3_ISF_EEEUlvE8_EOT_RNSt16remove_referenceISL_E4typeE
FN:77,_ZSt7forwardIRPSt13_Rb_tree_nodeISt4pairIKiSt8functionIFvvEEEEEOT_RNSt16remove_referenceISA_E4typeE
FN:77,_ZSt7forwardIRZ14handleCommandsiRSt6vectorISt10unique_ptrI12ActiveObjectSt14default_deleteIS2_EESaIS5_EERS1_I5GraphS3_IS9_EER10MSTFactoryRS1_I4TreeS3_ISF_EEEUlvE9_EOT_RNSt16remove_referenceISL_E4typeE
FN:77,_ZSt7forwardIZ4mainEUliE_EOT_RNSt16remove_referenceIS1_E4typeE
FN:77,_ZSt7forwardIRZ4mainEUlvE0_EOT_RNSt16remove_referenceIS2_E4typeE
FN:77,_ZSt7forwardIRKSt5_BindIFM12LFThreadPoolFviEPS1_mEEEOT_RNSt16remove_referenceIS9_E4typeE
FN:77,_ZSt7forwardIRKZZZZZZ14handleCommandsiRSt6vectorISt10unique_ptrI12ActiveObjectSt14default_deleteIS2_EESaIS5_EERS1_I5GraphS3_IS9_EER10MSTFactoryRS1_I4TreeS3_ISF_EEENKUlvE3_clEvENKUlvE_clEvENKUlvE_clEvENKUlvE_clEvENKUlvE_clEvEUlvE_EOT_RNSt16remove_referenceISR_E4typeE
FN:77,_ZSt7forwardIRSt5_BindIFM12LFThreadPoolFviEPS1_mEEEOT_RNSt16remove_referenceIS8_E4typeE
FN:77,_ZSt7forwardIRZ14handleCommandsiRSt6vectorISt10unique_ptrI12ActiveObjectSt14default_deleteIS2_EESaIS5_EERS1_I5GraphS3_IS9_EER10MSTFactoryRS1_I4TreeS3_ISF_EEEUlvE5_EOT_RNSt16remove_referenceISL_E4typeE
FN:77,_ZSt7forwardIRKmEOT_RNSt16remove_referenceIS2_E4typeE
FN:77,_ZSt7forwardIRZZZZZZ14handleCommandsiRSt6vectorISt10unique_ptrI12ActiveObjectSt14default_deleteIS2_EESaIS5_EERS1_I5GraphS3_IS9_EER10MSTFactoryRS1_I4TreeS3_ISF_EEENKUlvE3_clEvENKUlvE_clEvENKUlvE_clEvENKUlvE_clEvENKUlvE_clEvEUlvE_EOT_RNSt16remove_referenceISQ_E4typeE
FN:77,_ZSt7forwardISt6vectorI4EdgeSaIS1_EEEOT_RNSt16remove_referenceIS4_E4typeE
FN:77,_ZSt7forwardIiEOT_RNSt16remove_referenceIS0_E4typeE
FN:104,_ZSt4moveIRP9functArgsEONSt16remove_referenceIT_E4typeEOS4_
FN:104,_ZSt4moveIRP12LFThreadPoolEONSt16remove_referenceIT_E4typeEOS4_
FN:104,_ZSt4moveIRPSt8functionIFvvEEEONSt16remove_referenceIT_E4typeEOS6_
FN:104,_ZSt4moveIRN9__gnu_cxx5__ops15_Iter_comp_iterISt7greaterISt4pairIiiEEEEEONSt16remove_referenceIT_E4typeEOSA_
FN:104,_ZSt4moveIRP5GraphEONSt16remove_referenceIT_E4typeEOS4_
FN:104,_ZSt4moveIRSt12__shared_ptrI13ThreadContextLN9__gnu_cxx12_Lock_policyE2EEEONSt16remove_referenceIT_E4typeEOS7_
FN:104,_ZSt4moveIRZN15KruskalStrategy7findMSTERK5GraphEUl4EdgeS4_E_EONSt16remove_referenceIT_E4typeEOS8_
FN:104,_ZSt4moveIRPNSt6thread6_StateEEONSt16remove_referenceIT_E4typeEOS5_
FN:104,_ZSt4moveIRM12LFThreadPoolFviEEONSt16remove_referenceIT_E4typeEOS5_
FN:104,_ZSt4moveIRPFbRSt9_Any_dataRKS0_St18_Manager_operationEEONSt16remove_referenceIT_E4typeEOS9_
FN:104,_ZSt4moveIRP7ReactorEONSt16remove_referenceIT_E4typeEOS4_
FN:104,_ZSt4moveIRP11MSTStrategyEONSt16remove_referenceIT_E4typeEOS4_
FN:104,_ZSt4moveIRPFvRKSt9_Any_dataOiEEONSt16remove_referenceIT_E4typeEOS8_
FN:104,_ZSt4moveIRPSt6vectorIiSaIiEEEONSt16remove_referenceIT_E4typeEOS6_
FN:104,_ZSt4moveIRSt6vectorI4EdgeSaIS1_EEEONSt16remove_referenceIT_E4typeEOS6_
FN:104,_ZSt4moveIRSt9_Any_dataEONSt16remove_referenceIT_E4typeEOS3_
FN:104,_ZSt4moveIRSaIiEEONSt16remove_referenceIT_E4typeEOS3_
FN:104,_ZSt4moveIRN9__gnu_cxx17__normal_iteratorIPSt10unique_ptrI12ActiveObjectSt14default_deleteIS3_EESt6vectorIS6_SaIS6_EEEEEONSt16remove_referenceIT_E4typeEOSE_
FN:104,_ZSt4moveIRZN5Graph10removeEdgeEiiEUlRK4EdgeE_EONSt16remove_referenceIT_E4typeEOS7_
FN:104,_ZSt4moveIRNSt7__cxx1112basic_stringIcSt11char_traitsIcESaIcEEEEONSt16remove_referenceIT_E4typeEOS8_
FN:104,_ZSt4moveIRSt6vectorIiSaIiEEEONSt16remove_referenceIT_E4typeEOS5_
FN:104,_ZSt4moveIRNSt12_Vector_baseI4EdgeSaIS1_EE12_Vector_implEEONSt16remove_referenceIT_E4typeEOS7_
FN:104,_ZSt4moveIRSaIcEEONSt16remove_referenceIT_E4typeEOS3_
FN:104,_ZSt4moveIRSt8functionIFvvEEEONSt16remove_referenceIT_E4typeEOS5_
FN:104,_ZSt4moveIRN9__gnu_cxx5__ops15_Iter_comp_iterIZN15KruskalStrategy7findMSTERK5GraphEUl4EdgeS7_E_EEEONSt16remove_referenceIT_E4typeEOSC_
FN:104,_ZSt4moveIR4EdgeEONSt16remove_referenceIT_E4typeEOS3_
FN:104,_ZSt4moveIRSt10shared_ptrI13ThreadContextEEONSt16remove_referenceIT_E4typeEOS5_
FN:104,_ZSt4moveIRPFvRKSt9_Any_dataEEONSt16remove_referenceIT_E4typeEOS7_
FN:104,_ZSt4moveIRP13ThreadContextEONSt16remove_referenceIT_E4typeEOS4_
FN:104,_ZSt4moveIRSt7greaterISt4pairIiiEEEONSt16remove_referenceIT_E4typeEOS6_
FN:104,_ZSt4moveIRiEONSt16remove_referenceIT_E4typeEOS2_
FN:104,_ZSt4moveIRN9__gnu_cxx17__normal_iteratorIPmSt6vectorImSaImEEEEEONSt16remove_referenceIT_E4typeEOS9_
FN:104,_ZSt4moveIRNSt12_Vector_baseIiSaIiEE12_Vector_implEEONSt16remove_referenceIT_E4typeEOS6_
FN:104,_ZSt4moveIRSt5tupleIJP12ActiveObjectSt14default_deleteIS1_EEEEONSt16remove_referenceIT_E4typeEOS8_
FN:104,_ZSt4moveIRP4TreeEONSt16remove_referenceIT_E4typeEOS4_
FN:104,_ZSt4moveIRZN5Graph10removeEdgeEiiEUlRK4EdgeE0_EONSt16remove_referenceIT_E4typeEOS7_
FN:104,_ZSt4moveIRSt5tupleIJM12ActiveObjectFvvEPS1_EEEONSt16remove_referenceIT_E4typeEOS8_
FN:104,_ZSt4moveIRP12ActiveObjectEONSt16remove_referenceIT_E4typeEOS4_
FN:104,_ZSt4moveIRSt4pairIiiEEONSt16remove_referenceIT_E4typeEOS4_
FN:104,_ZSt4moveIRSt10unique_ptrI12ActiveObjectSt14default_deleteIS1_EEEONSt16remove_referenceIT_E4typeEOS7_
FN:196,_ZSt4swapIPFbRSt9_Any_dataRKS0_St18_Manager_operationEENSt9enable_ifIXsrSt6__and_IJSt6__not_ISt15__is_tuple_likeIT_EESt21is_move_constructibleISB_ESt18is_move_assignableISB_EEE5valueEvE4typeERSB_SL_
FN:196,_ZSt4swapI4EdgeENSt9enable_ifIXsrSt6__and_IJSt6__not_ISt15__is_tuple_likeIT_EESt21is_move_constructibleIS5_ESt18is_move_assignableIS5_EEE5valueEvE4typeERS5_SF_
FN:196,_ZSt4swapIiENSt9enable_ifIXsrSt6__and_IJSt6__not_ISt15__is_tuple_likeIT_EESt21is_move_constructibleIS4_ESt18is_move_assignableIS4_EEE5valueEvE4typeERS4_SE_
FN:196,_ZSt4swapIPFvRKSt9_Any_dataEENSt9enable_ifIXsrSt6__and_IJSt6__not_ISt15__is_tuple_likeIT_EESt21is_move_constructibleIS9_ESt18is_move_assignableIS9_EEE5valueEvE4typeERS9_SJ_
FN:196,_ZSt4swapISt9_Any_dataENSt9enable_ifIXsrSt6__and_IJSt6__not_ISt15__is_tuple_likeIT_EESt21is_move_constructibleIS5_ESt18is_move_assignableIS5_EEE5valueEvE4typeERS5_SF_
FN:196,_ZSt4swapIPFvRKSt9_Any_dataOiEENSt9enable_ifIXsrSt6__and_IJSt6__not_ISt15__is_tuple_likeIT_EESt21is_move_constructibleISA_ESt18is_move_assignableISA_EEE5valueEvE4typeERSA_SK_
FN:196,_ZSt4swapIP13ThreadContextENSt9enable_ifIXsrSt6__and_IJSt6__not_ISt15__is_tuple_likeIT_EESt21is_move_constructibleIS6_ESt18is_move_assignableIS6_EEE5valueEvE4typeERS6_SG_
FNDA:0,_ZSt7forwardISt6vectorI4EdgeSaIS1_EEEOT_RNSt16remove_referenceIS4_E4typeE
FNDA:586,_ZSt4moveIRSt4pairIiiEEONSt16remove_referenceIT_E4typeEOS4_
FNDA:105,_ZSt4swapIP13ThreadContextENSt9enable_ifIXsrSt6__and_IJSt6__not_ISt15__is_tuple_likeIT_EESt21is_move_constructibleIS6_ESt18is_move_assignableIS6_EEE5valueEvE4typeERS6_SG_
FNDA:36,_ZSt7forwardIRZZZZZZ14handleCommandsiRSt6vectorISt10unique_ptrI12ActiveObjectSt14default_deleteIS2_EESaIS5_EERS1_I5GraphS3_IS9_EER10MSTFactoryRS1_I4TreeS3_ISF_EEENKUlvE3_clEvENKUlvE_clEvENKUlvE_clEvENKUlvE_clEvENKUlvE_clEvEUlvE_EOT_RNSt16remove_referenceISQ_E4typeE
FNDA:30,_ZSt7forwardIRKmEOT_RNSt16remove_referenceIS2_E4typeE
FNDA:36,_ZSt7forwardIRZ14handleCommandsiRSt6vectorISt10unique_ptrI12ActiveObjectSt14default_deleteIS2_EESaIS5_EERS1_I5GraphS3_IS9_EER10MSTFactoryRS1_I4TreeS3_ISF_EEEUlvE5_EOT_RNSt16remove_referenceISL_E4typeE
FNDA:42,_ZSt4moveIRP12ActiveObjectEONSt16remove_referenceIT_E4typeEOS4_
FNDA:649,_ZSt7forwardIiEOT_RNSt16remove_referenceIS0_E4typeE
FNDA:84,_ZSt4moveIRSt10unique_ptrI12ActiveObjectSt14default_deleteIS1_EEEONSt16remove_referenceIT_E4typeEOS7_
FNDA:44,_ZSt7forwardIZ4mainEUliE_EOT_RNSt16remove_referenceIS1_E4typeE
FNDA:6,_ZSt4moveIRZN5Graph10removeEdgeEiiEUlRK4EdgeE0_EONSt16remove_referenceIT_E4typeEOS7_
FNDA:16,_ZSt7forwardIRZ4mainEUlvE0_EOT_RNSt16remove_referenceIS2_E4typeE
FNDA:100,_ZSt7forwardIRSt5_BindIFM12LFThreadPoolFviEPS1_mEEEOT_RNSt16remove_referenceIS8_E4typeE
FNDA:0,_ZSt7forwardIRKZZZZZZ14handleCommandsiRSt6vectorISt10unique_ptrI12ActiveObjectSt14default_deleteIS2_EESaIS5_EERS1_I5GraphS3_IS9_EER10MSTFactoryRS1_I4TreeS3_ISF_EEENKUlvE3_clEvENKUlvE_clEvENKUlvE_clEvENKUlvE_clEvENKUlvE_clEvEUlvE_EOT_RNSt16remove_referenceISR_E4typeE
FNDA:11,_ZSt4swapIPFvRKSt9_Any_dataOiEENSt9enable_ifIXsrSt6__and_IJSt6__not_ISt15__is_tuple_likeIT_EESt21is_move_constructibleISA_ESt18is_move_assignableISA_EEE5valueEvE4typeERSA_SK_
FNDA:84,_ZSt4moveIRSt5tupleIJM12ActiveObjectFvvEPS1_EEEONSt16remove_referenceIT_E4typeEOS8_
FNDA:100,_ZSt7forwardIRKSt5_BindIFM12LFThreadPoolFviEPS1_mEEEOT_RNSt16remove_referenceIS9_E4typeE
FNDA:398,_ZSt11__addressofISt6vectorI4EdgeSaIS1_EEEPT_RS4_
FNDA:0,_ZSt7forwardIRKZ14handleCommandsiRSt6vectorISt10unique_ptrI12ActiveObjectSt14default_deleteIS2_EESaIS5_EERS1_I5GraphS3_IS9_EER10MSTFactoryRS1_I4TreeS3_ISF_EEEUlvE1_EOT_RNSt16remove_referenceISM_E4typeE
FNDA:0,_ZSt11__addressofISt8functionIFvvEEEPT_RS3_
FNDA:100,_ZSt11__addressofISt10shared_ptrI13ThreadContextEEPT_RS3_
FNDA:59,_ZSt4moveIRP4TreeEONSt16remove_referenceIT_E4typeEOS4_
FNDA:166,_ZSt4swapISt9_Any_dataENSt9enable_ifIXsrSt6__and_IJSt6__not_ISt15__is_tuple_likeIT_EESt21is_move_constructibleIS5_ESt18is_move_assignableIS5_EEE5valueEvE4typeERS5_SF_
FNDA:36,_ZSt7forwardIRZ14handleCommandsiRSt6vectorISt10unique_ptrI12ActiveObjectSt14default_deleteIS2_EESaIS5_EERS1_I5GraphS3_IS9_EER10MSTFactoryRS1_I4TreeS3_ISF_EEEUlvE9_EOT_RNSt16remove_referenceISL_E4typeE
FNDA:5,_ZSt7forwardIRPSt13_Rb_tree_nodeISt4pairIKiSt8functionIFvvEEEEEOT_RNSt16remove_referenceISA_E4typeE
FNDA:50,_ZSt7forwardIRM12LFThreadPoolFviEEOT_RNSt16remove_referenceIS4_E4typeE
FNDA:54,_ZSt7forwardIRZ14handleCommandsiRSt6vectorISt10unique_ptrI12ActiveObjectSt14default_deleteIS2_EESaIS5_EERS1_I5GraphS3_IS9_EER10MSTFactoryRS1_I4TreeS3_ISF_EEEUlvE8_EOT_RNSt16remove_referenceISL_E4typeE
FNDA:0,_ZSt7forwardIRKZ14handleCommandsiRSt6vectorISt10unique_ptrI12ActiveObjectSt14default_deleteIS2_EESaIS5_EERS1_I5GraphS3_IS9_EER10MSTFactoryRS1_I4TreeS3_ISF_EEEUlvE3_EOT_RNSt16remove_referenceISM_E4typeE
FNDA:0,_ZSt7forwardIRKZ14handleCommandsiRSt6vectorISt10unique_ptrI12ActiveObjectSt14default_deleteIS2_EESaIS5_EERS1_I5GraphS3_IS9_EER10MSTFactoryRS1_I4TreeS3_ISF_EEEUlvE2_EOT_RNSt16remove_referenceISM_E4typeE
FNDA:5,_ZSt7forwardIR7ReactorEOT_RNSt16remove_referenceIS2_E4typeE
FNDA:36,_ZSt7forwardIRZ14handleCommandsiRSt6vectorISt10unique_ptrI12ActiveObjectSt14default_deleteIS2_EESaIS5_EERS1_I5GraphS3_IS9_EER10MSTFactoryRS1_I4TreeS3_ISF_EEEUlvE10_EOT_RNSt16remove_referenceISL_E4typeE
FNDA:144,_ZSt7forwardIRZ14handleCommandsiRSt6vectorISt10unique_ptrI12ActiveObjectSt14default_deleteIS2_EESaIS5_EERS1_I5GraphS3_IS9_EER10MSTFactoryRS1_I4TreeS3_ISF_EEEUlvE3_EOT_RNSt16remove_referenceISL_E4typeE
FNDA:122,_ZSt4moveIRiEONSt16remove_referenceIT_E4typeEOS2_
FNDA:5,_ZSt7forwardIRKiEOT_RNSt16remove_referenceIS2_E4typeE
FNDA:176,_ZSt4moveIRSt7greaterISt4pairIiiEEEONSt16remove_referenceIT_E4typeEOS6_
FNDA:155,_ZSt4swapIPFvRKSt9_Any_dataEENSt9enable_ifIXsrSt6__and_IJSt6__not_ISt15__is_tuple_likeIT_EESt21is_move_constructibleIS9_ESt18is_move_assignableIS9_EEE5valueEvE4typeERS9_SJ_
FNDA:84,_ZSt4moveIRSt5tupleIJP12ActiveObjectSt14default_deleteIS1_EEEEONSt16remove_referenceIT_E4typeEOS8_
FNDA:8,_ZSt4moveIRN9__gnu_cxx17__normal_iteratorIPmSt6vectorImSaImEEEEEONSt16remove_referenceIT_E4typeEOS9_
FNDA:0,_ZSt4moveIRNSt12_Vector_baseIiSaIiEE12_Vector_implEEONSt16remove_referenceIT_E4typeEOS6_
FNDA:0,_ZSt7forwardIRKZ14handleCommandsiRSt6vectorISt10unique_ptrI12ActiveObjectSt14default_deleteIS2_EESaIS5_EERS1_I5GraphS3_IS9_EER10MSTFactoryRS1_I4TreeS3_ISF_EEEUlvE10_EOT_RNSt16remove_referenceISM_E4typeE
FNDA:18,_ZSt7forwardISt14default_deleteI5GraphEEOT_RNSt16remove_referenceIS3_E4typeE
FNDA:0,_ZSt7forwardIRKZZZ14handleCommandsiRSt6vectorISt10unique_ptrI12ActiveObjectSt14default_deleteIS2_EESaIS5_EERS1_I5GraphS3_IS9_EER10MSTFactoryRS1_I4TreeS3_ISF_EEENKUlvE3_clEvENKUlvE_clEvEUlvE_EOT_RNSt16remove_referenceISO_E4typeE
FNDA:315,_ZSt4moveIRP13ThreadContextEONSt16remove_referenceIT_E4typeEOS4_
FNDA:108,_ZSt7forwardIRZ14handleCommandsiRSt6vectorISt10unique_ptrI12ActiveObjectSt14default_deleteIS2_EESaIS5_EERS1_I5GraphS3_IS9_EER10MSTFactoryRS1_I4TreeS3_ISF_EEEUlvE1_EOT_RNSt16remove_referenceISL_E4typeE
FNDA:24,_ZSt4swapIiENSt9enable_ifIXsrSt6__and_IJSt6__not_ISt15__is_tuple_likeIT_EESt21is_move_constructibleIS4_ESt18is_move_assignableIS4_EEE5valueEvE4typeERS4_SE_
FNDA:76,_ZSt7forwardIRKSt6vectorIiSaIiEEEOT_RNSt16remove_referenceIS5_E4typeE
FNDA:36,_ZSt7forwardIRZZZ14handleCommandsiRSt6vectorISt10unique_ptrI12ActiveObjectSt14default_deleteIS2_EESaIS5_EERS1_I5GraphS3_IS9_EER10MSTFactoryRS1_I4TreeS3_ISF_EEENKUlvE3_clEvENKUlvE_clEvEUlvE_EOT_RNSt16remove_referenceISN_E4typeE
FNDA:465,_ZSt4moveIRPFvRKSt9_Any_dataEEONSt16remove_referenceIT_E4typeEOS7_
FNDA:176,_ZSt7forwardIRiEOT_RNSt16remove_referenceIS1_E4typeE
FNDA:24,_ZSt7forwardIRSt6vectorI4EdgeSaIS1_EEEOT_RNSt16remove_referenceIS5_E4typeE
FNDA:10,_ZSt11__addressofISt6vectorISt10unique_ptrI12ActiveObjectSt14default_deleteIS2_EESaIS5_EEEPT_RS8_
FNDA:22,_ZSt7forwardIRZ4mainEUliE_EOT_RNSt16remove_referenceIS2_E4typeE
FNDA:0,_ZSt7forwardIRKZZZZ14handleCommandsiRSt6vectorISt10unique_ptrI12ActiveObjectSt14default_deleteIS2_EESaIS5_EERS1_I5GraphS3_IS9_EER10MSTFactoryRS1_I4TreeS3_ISF_EEENKUlvE3_clEvENKUlvE_clEvENKUlvE_clEvEUlvE_EOT_RNSt16remove_referenceISP_E4typeE
FNDA:250,_ZSt7forwardIP12LFThreadPoolEOT_RNSt16remove_referenceIS2_E4typeE
FNDA:1376,_ZSt7forwardI4EdgeEOT_RNSt16remove_referenceIS1_E4typeE
FNDA:24,_ZSt4moveIRN9__gnu_cxx5__ops15_Iter_comp_iterIZN15KruskalStrategy7findMSTERK5GraphEUl4EdgeS7_E_EEEONSt16remove_referenceIT_E4typeEOSC_
FNDA:24,_ZSt7forwardISt14default_deleteI11MSTStrategyEEOT_RNSt16remove_referenceIS3_E4typeE
FNDA:284,_ZSt4moveIRSt8functionIFvvEEEONSt16remove_referenceIT_E4typeEOS5_
FNDA:0,_ZSt4moveIRSaIcEEONSt16remove_referenceIT_E4typeEOS3_
FNDA:50,_ZSt4moveIRSt10shared_ptrI13ThreadContextEEONSt16remove_referenceIT_E4typeEOS5_
FNDA:234,_ZSt7forwardISt10unique_ptrI12ActiveObjectSt14default_deleteIS1_EEEOT_RNSt16remove_referenceIS5_E4typeE
FNDA:0,_ZSt7forwardIRKZ14handleCommandsiRSt6vectorISt10unique_ptrI12ActiveObjectSt14default_deleteIS2_EESaIS5_EERS1_I5GraphS3_IS9_EER10MSTFactoryRS1_I4TreeS3_ISF_EEEUlvE6_EOT_RNSt16remove_referenceISM_E4typeE
FNDA:468,_ZSt4moveIR4EdgeEONSt16remove_referenceIT_E4typeEOS3_
FNDA:336,_ZSt7forwardIM12ActiveObjectFvvEEOT_RNSt16remove_referenceIS3_E4typeE
FNDA:10,_ZSt11__addressofISt10unique_ptrI5GraphSt14default_deleteIS1_EEEPT_RS5_
FNDA:50,_ZSt7forwardIM12LFThreadPoolFviEEOT_RNSt16remove_referenceIS3_E4typeE
FNDA:0,_ZSt4moveIRNSt12_Vector_baseI4EdgeSaIS1_EE12_Vector_implEEONSt16remove_referenceIT_E4typeEOS7_
FNDA:5,_ZSt7forwardISt14default_deleteI12LFThreadPoolEEOT_RNSt16remove_referenceIS3_E4typeE
FNDA:0,_ZSt7forwardIRKZ14handleCommandsiRSt6vectorISt10unique_ptrI12ActiveObjectSt14default_deleteIS2_EESaIS5_EERS1_I5GraphS3_IS9_EER10MSTFactoryRS1_I4TreeS3_ISF_EEEUlvE0_EOT_RNSt16remove_referenceISM_E4typeE
FNDA:0,_ZSt7forwardIRKZ14handleCommandsiRSt6vectorISt10unique_ptrI12ActiveObjectSt14default_deleteIS2_EESaIS5_EERS1_I5GraphS3_IS9_EER10MSTFactoryRS1_I4TreeS3_ISF_EEEUlvE8_EOT_RNSt16remove_referenceISM_E4typeE
FNDA:50,_ZSt7forwardISt14default_deleteISt8functionIFvvEEEEOT_RNSt16remove_referenceIS5_E4typeE
FNDA:870,_ZSt4moveIRNSt7__cxx1112basic_stringIcSt11char_traitsIcESaIcEEEEONSt16remove_referenceIT_E4typeEOS8_
FNDA:0,_ZSt7forwardIRKZ4mainEUliE_EOT_RNSt16remove_referenceIS3_E4typeE
FNDA:90,_ZSt7forwardIRZ14handleCommandsiRSt6vectorISt10unique_ptrI12ActiveObjectSt14default_deleteIS2_EESaIS5_EERS1_I5GraphS3_IS9_EER10MSTFactoryRS1_I4TreeS3_ISF_EEEUlvE6_EOT_RNSt16remove_referenceISL_E4typeE
FNDA:110,_ZSt7forwardIRZ14handleCommandsiRSt6vectorISt10unique_ptrI12ActiveObjectSt14default_deleteIS2_EESaIS5_EERS1_I5GraphS3_IS9_EER10MSTFactoryRS1_I4TreeS3_ISF_EEEUlvE2_EOT_RNSt16remove_referenceISL_E4typeE
FNDA:0,_ZSt4moveIRSt6vectorIiSaIiEEEONSt16remove_referenceIT_E4typeEOS5_
FNDA:420,_ZSt7forwardIP12ActiveObjectEOT_RNSt16remove_referenceIS2_E4typeE
FNDA:280,_ZSt7forwardIRK4EdgeEOT_RNSt16remove_referenceIS3_E4typeE
FNDA:0,_ZSt7forwardISt6vectorIiSaIiEEEOT_RNSt16remove_referenceIS3_E4typeE
FNDA:1391,_ZSt11__addressofISt5mutexEPT_RS1_
FNDA:12,_ZSt4moveIRN9__gnu_cxx17__normal_iteratorIPSt10unique_ptrI12ActiveObjectSt14default_deleteIS3_EESt6vectorIS6_SaIS6_EEEEEONSt16remove_referenceIT_E4typeEOSE_
FNDA:10,_ZSt7forwardISt14default_deleteI9functArgsEEOT_RNSt16remove_referenceIS3_E4typeE
FNDA:5,_ZSt7forwardIRPSt18_Rb_tree_node_baseEOT_RNSt16remove_referenceIS3_E4typeE
FNDA:0,_ZSt4swapI4EdgeENSt9enable_ifIXsrSt6__and_IJSt6__not_ISt15__is_tuple_likeIT_EESt21is_move_constructibleIS5_ESt18is_move_assignableIS5_EEE5valueEvE4typeERS5_SF_
FNDA:25,_ZSt7forwardISt5tupleIJRKiEEEOT_RNSt16remove_referenceIS4_E4typeE
FNDA:0,_ZSt7forwardIRKZZ14handleCommandsiRSt6vectorISt10unique_ptrI12ActiveObjectSt14default_deleteIS2_EESaIS5_EERS1_I5GraphS3_IS9_EER10MSTFactoryRS1_I4TreeS3_ISF_EEENKUlvE3_clEvEUlvE_EOT_RNSt16remove_referenceISN_E4typeE
FNDA:100,_ZSt11__addressofISaISt23_Sp_counted_ptr_inplaceI13ThreadContextSaIS1_ELN9__gnu_cxx12_Lock_policyE2EEEEPT_RS7_
FNDA:6,_ZSt4moveIRZN5Graph10removeEdgeEiiEUlRK4EdgeE_EONSt16remove_referenceIT_E4typeEOS7_
FNDA:10,_ZSt7forwardIRKZ4mainEUlvE0_EOT_RNSt16remove_referenceIS3_E4typeE
FNDA:36,_ZSt7forwardIRZZ14handleCommandsiRSt6vectorISt10unique_ptrI12ActiveObjectSt14default_deleteIS2_EESaIS5_EERS1_I5GraphS3_IS9_EER10MSTFactoryRS1_I4TreeS3_ISF_EEENKUlvE3_clEvEUlvE_EOT_RNSt16remove_referenceISM_E4typeE
FNDA:36,_ZSt7forwardIRZ14handleCommandsiRSt6vectorISt10unique_ptrI12ActiveObjectSt14default_deleteIS2_EESaIS5_EERS1_I5GraphS3_IS9_EER10MSTFactoryRS1_I4TreeS3_ISF_EEEUlvE4_EOT_RNSt16remove_referenceISL_E4typeE
FNDA:196,_ZSt11__addressofImEPT_RS0_
FNDA:0,_ZSt11__addressofISt6threadEPT_RS1_
FNDA:498,_ZSt4moveIRSt9_Any_dataEONSt16remove_referenceIT_E4typeEOS3_
FNDA:24,_ZSt7forwardIZ16acceptConnectioniRSt10unique_ptrI5GraphSt14default_deleteIS1_EER10MSTFactoryRS0_I4TreeS2_IS8_EERS0_I12LFThreadPoolS2_ISC_EEEUlvE_EOT_RNSt16remove_referenceISH_E4typeE
FNDA:0,_ZSt7forwardIRKZ14handleCommandsiRSt6vectorISt10unique_ptrI12ActiveObjectSt14default_deleteIS2_EESaIS5_EERS1_I5GraphS3_IS9_EER10MSTFactoryRS1_I4TreeS3_ISF_EEEUlvE4_EOT_RNSt16remove_referenceISM_E4typeE
FNDA:0,_ZSt4moveIRSaIiEEONSt16remove_referenceIT_E4typeEOS3_
FNDA:36,_ZSt11__addressofISt4pairIiiEEPT_RS2_
FNDA:48,_ZSt7forwardIRKZ16acceptConnectioniRSt10unique_ptrI5GraphSt14default_deleteIS1_EER10MSTFactoryRS0_I4TreeS2_IS8_EERS0_I12LFThreadPoolS2_ISC_EEEUlvE_EOT_RNSt16remove_referenceISJ_E4typeE
FNDA:24,_ZSt7forwardISt14default_deleteI4TreeEEOT_RNSt16remove_referenceIS3_E4typeE
FNDA:33,_ZSt4moveIRPFvRKSt9_Any_dataOiEEONSt16remove_referenceIT_E4typeEOS8_
FNDA:10,_ZSt7forwardIR10MSTFactoryEOT_RNSt16remove_referenceIS2_E4typeE
FNDA:64,_ZSt4moveIRPSt6vectorIiSaIiEEEONSt16remove_referenceIT_E4typeEOS6_
FNDA:166,_ZSt4swapIPFbRSt9_Any_dataRKS0_St18_Manager_operationEENSt9enable_ifIXsrSt6__and_IJSt6__not_ISt15__is_tuple_likeIT_EESt21is_move_constructibleISB_ESt18is_move_assignableISB_EEE5valueEvE4typeERSB_SL_
FNDA:28,_ZSt4moveIRP11MSTStrategyEONSt16remove_referenceIT_E4typeEOS4_
FNDA:0,_ZSt7forwardIRKZ14handleCommandsiRSt6vectorISt10unique_ptrI12ActiveObjectSt14default_deleteIS2_EESaIS5_EERS1_I5GraphS3_IS9_EER10MSTFactoryRS1_I4TreeS3_ISF_EEEUlvE9_EOT_RNSt16remove_referenceISM_E4typeE
FNDA:0,_ZSt7forwardIRKZ14handleCommandsiRSt6vectorISt10unique_ptrI12ActiveObjectSt14default_deleteIS2_EESaIS5_EERS1_I5GraphS3_IS9_EER10MSTFactoryRS1_I4TreeS3_ISF_EEEUlvE_EOT_RNSt16remove_referenceISM_E4typeE
FNDA:0,_ZSt4moveIRSt6vectorI4EdgeSaIS1_EEEONSt16remove_referenceIT_E4typeEOS6_
FNDA:450,_ZSt7forwardIRmEOT_RNSt16remove_referenceIS1_E4typeE
FNDA:10,_ZSt7forwardIRSt10unique_ptrI4TreeSt14default_deleteIS1_EEEOT_RNSt16remove_referenceIS6_E4typeE
FNDA:48,_ZSt4moveIRZN15KruskalStrategy7findMSTERK5GraphEUl4EdgeS4_E_EONSt16remove_referenceIT_E4typeEOS8_
FNDA:168,_ZSt11__addressofISt10unique_ptrI12ActiveObjectSt14default_deleteIS1_EEEPT_RS5_
FNDA:5,_ZSt4moveIRP7ReactorEONSt16remove_referenceIT_E4typeEOS4_
FNDA:50,_ZSt4moveIRM12LFThreadPoolFviEEONSt16remove_referenceIT_E4typeEOS5_
FNDA:498,_ZSt4moveIRPFbRSt9_Any_dataRKS0_St18_Manager_operationEEONSt16remove_referenceIT_E4typeEOS9_
FNDA:36,_ZSt7forwardIRZZZZZ14handleCommandsiRSt6vectorISt10unique_ptrI12ActiveObjectSt14default_deleteIS2_EESaIS5_EERS1_I5GraphS3_IS9_EER10MSTFactoryRS1_I4TreeS3_ISF_EEENKUlvE3_clEvENKUlvE_clEvENKUlvE_clEvENKUlvE_clEvEUlvE_EOT_RNSt16remove_referenceISP_E4typeE
FNDA:10,_ZSt7forwardIRSt10unique_ptrI5GraphSt14default_deleteIS1_EEEOT_RNSt16remove_referenceIS6_E4typeE
FNDA:50,_ZSt7forwardIRSt8functionIFvvEEEOT_RNSt16remove_referenceIS4_E4typeE
FNDA:25,_ZSt7forwardIRKSt21piecewise_construct_tEOT_RNSt16remove_referenceIS3_E4typeE
FNDA:0,_ZSt4moveIRPNSt6thread6_StateEEONSt16remove_referenceIT_E4typeEOS5_
FNDA:33,_ZSt4moveIRP5GraphEONSt16remove_referenceIT_E4typeEOS4_
FNDA:16,_ZSt7forwardIRZ16acceptConnectioniRSt10unique_ptrI5GraphSt14default_deleteIS1_EER10MSTFactoryRS0_I4TreeS2_IS8_EERS0_I12LFThreadPoolS2_ISC_EEEUlvE_EOT_RNSt16remove_referenceISI_E4typeE
FNDA:0,_ZSt7forwardIRKZ14handleCommandsiRSt6vectorISt10unique_ptrI12ActiveObjectSt14default_deleteIS2_EESaIS5_EERS1_I5GraphS3_IS9_EER10MSTFactoryRS1_I4TreeS3_ISF_EEEUlvE5_EOT_RNSt16remove_referenceISM_E4typeE
FNDA:306,_ZSt7forwardIRZ14handleCommandsiRSt6vectorISt10unique_ptrI12ActiveObjectSt14default_deleteIS2_EESaIS5_EERS1_I5GraphS3_IS9_EER10MSTFactoryRS1_I4TreeS3_ISF_EEEUlvE0_EOT_RNSt16remove_referenceISL_E4typeE
FNDA:152,_ZSt11__addressofISt6vectorIiSaIiEEEPT_RS3_
FNDA:24,_ZSt4moveIRN9__gnu_cxx5__ops15_Iter_comp_iterISt7greaterISt4pairIiiEEEEEONSt16remove_referenceIT_E4typeEOSA_
FNDA:10,_ZSt11__addressofISt10unique_ptrI4TreeSt14default_deleteIS1_EEEPT_RS5_
FNDA:50,_ZSt4moveIRSt12__shared_ptrI13ThreadContextLN9__gnu_cxx12_Lock_policyE2EEEONSt16remove_referenceIT_E4typeEOS7_
FNDA:150,_ZSt7forwardIRP12LFThreadPoolEOT_RNSt16remove_referenceIS3_E4typeE
FNDA:15,_ZSt7forwardIZ4mainEUlvE0_EOT_RNSt16remove_referenceIS1_E4typeE
FNDA:10,_ZSt7forwardIRSt6vectorISt10unique_ptrI12ActiveObjectSt14default_deleteIS2_EESaIS5_EEEOT_RNSt16remove_referenceIS9_E4typeE
FNDA:5,_ZSt4moveIRP12LFThreadPoolEONSt16remove_referenceIT_E4typeEOS4_
FNDA:25,_ZSt7forwardISt5tupleIJEEEOT_RNSt16remove_referenceIS2_E4typeE
FNDA:36,_ZSt7forwardIRZZZZ14handleCommandsiRSt6vectorISt10unique_ptrI12ActiveObjectSt14default_deleteIS2_EESaIS5_EERS1_I5GraphS3_IS9_EER10MSTFactoryRS1_I4TreeS3_ISF_EEENKUlvE3_clEvENKUlvE_clEvENKUlvE_clEvEUlvE_EOT_RNSt16remove_referenceISO_E4typeE
FNDA:6,_ZSt4moveIRP9functArgsEONSt16remove_referenceIT_E4typeEOS4_
FNDA:144,_ZSt7forwardIRZ14handleCommandsiRSt6vectorISt10unique_ptrI12ActiveObjectSt14default_deleteIS2_EESaIS5_EERS1_I5GraphS3_IS9_EER10MSTFactoryRS1_I4TreeS3_ISF_EEEUlvE_EOT_RNSt16remove_referenceISL_E4typeE
FNDA:10,_ZSt11__addressofI10MSTFactoryEPT_RS1_
FNDA:0,_ZSt7forwardIRKZZZZZ14handleCommandsiRSt6vectorISt10unique_ptrI12ActiveObjectSt14default_deleteIS2_EESaIS5_EERS1_I5GraphS3_IS9_EER10MSTFactoryRS1_I4TreeS3_ISF_EEENKUlvE3_clEvENKUlvE_clEvENKUlvE_clEvENKUlvE_clEvEUlvE_EOT_RNSt16remove_referenceISQ_E4typeE
FNDA:278,_ZSt7forwardISt4pairIiiEEOT_RNSt16remove_referenceIS2_E4typeE
FNDA:150,_ZSt7forwardISt5_BindIFM12LFThreadPoolFviEPS1_mEEEOT_RNSt16remove_referenceIS7_E4typeE
FNDA:50,_ZSt4moveIRPSt8functionIFvvEEEONSt16remove_referenceIT_E4typeEOS6_
FNF:141
FNH:112
DA:49,2581
DA:50,2581
DA:77,6970
DA:78,6970
DA:104,5137
DA:105,5137
DA:196,627
DA:204,627
DA:205,627
DA:206,627
DA:207,627
LF:11
LH:11
end_of_record
TN:
SF:/usr/include/c++/11/bits/predefined_ops.h
FN:150,_ZN9__gnu_cxx5__ops15_Iter_comp_iterIZN15KruskalStrategy7findMSTERK5GraphEUl4EdgeS6_E_EC2ES7_
FN:157,_ZN9__gnu_cxx5__ops15_Iter_comp_iterIZN15KruskalStrategy7findMSTERK5GraphEUl4EdgeS6_E_EclINS_17__normal_iteratorIPS6_St6vectorIS6_SaIS6_EEEESF_EEbT_T0_
FN:157,_ZN9__gnu_cxx5__ops15_Iter_comp_iterISt7greaterISt4pairIiiEEEclINS_17__normal_iteratorIPS4_St6vectorIS4_SaIS4_EEEESD_EEbT_T0_
FN:164,_ZN9__gnu_cxx5__ops16__iter_comp_iterIZN15KruskalStrategy7findMSTERK5GraphEUl4EdgeS6_E_EENS0_15_Iter_comp_iterIT_EES9_
FN:174,_ZN9__gnu_cxx5__ops14_Iter_comp_valISt7greaterISt4pairIiiEEEC2ES5_
FN:187,_ZN9__gnu_cxx5__ops14_Iter_comp_valIZN15KruskalStrategy7findMSTERK5GraphEUl4EdgeS6_E_EC2EONS0_15_Iter_comp_iterIS7_EE
FN:187,_ZN9__gnu_cxx5__ops14_Iter_comp_valISt7greaterISt4pairIiiEEEC2EONS0_15_Iter_comp_iterIS5_EE
FN:195,_ZN9__gnu_cxx5__ops14_Iter_comp_valIZN15KruskalStrategy7findMSTERK5GraphEUl4EdgeS6_E_EclINS_17__normal_iteratorIPS6_St6vectorIS6_SaIS6_EEEES6_EEbT_RT0_
FN:195,_ZN9__gnu_cxx5__ops14_Iter_comp_valISt7greaterISt4pairIiiEEEclINS_17__normal_iteratorIPS4_St6vectorIS4_SaIS4_EEEES4_EEbT_RT0_
FN:231,_ZN9__gnu_cxx5__ops14_Val_comp_iterIZN15KruskalStrategy7findMSTERK5GraphEUl4EdgeS6_E_EC2EONS0_15_Iter_comp_iterIS7_EE
FN:239,_ZN9__gnu_cxx5__ops14_Val_comp_iterIZN15KruskalStrategy7findMSTERK5GraphEUl4EdgeS6_E_EclIS6_NS_17__normal_iteratorIPS6_St6vectorIS6_SaIS6_EEEEEEbRT_T0_
FN:252,_ZN9__gnu_cxx5__ops15__val_comp_iterIZN15KruskalStrategy7findMSTERK5GraphEUl4EdgeS6_E_EENS0_14_Val_comp_iterIT_EENS0_15_Iter_comp_iterIS9_EE
FN:310,_ZN9__gnu_cxx5__ops10_Iter_predIZN5Graph10removeEdgeEiiEUlRK4EdgeE_EC2ES6_
FN:310,_ZN9__gnu_cxx5__ops10_Iter_predIZN5Graph10removeEdgeEiiEUlRK4EdgeE0_EC2ES6_
FN:317,_ZN9__gnu_cxx5__ops10_Iter_predIZN5Graph10removeEdgeEiiEUlRK4EdgeE_EclINS_17__normal_iteratorIPS3_St6vectorIS3_SaIS3_EEEEEEbT_
FN:317,_ZN9__gnu_cxx5__ops10_Iter_predIZN5Graph10removeEdgeEiiEUlRK4EdgeE0_EclINS_17__normal_iteratorIPS3_St6vectorIS3_SaIS3_EEEEEEbT_
FN:324,_ZN9__gnu_cxx5__ops11__pred_iterIZN5Graph10removeEdgeEiiEUlRK4EdgeE_EENS0_10_Iter_predIT_EES8_
FN:324,_ZN9__gnu_cxx5__ops11__pred_iterIZN5Graph10removeEdgeEiiEUlRK4EdgeE0_EENS0_10_Iter_predIT_EES8_
FNDA:28,_ZN9__gnu_cxx5__ops14_Iter_comp_valISt7greaterISt4pairIiiEEEclINS_17__normal_iteratorIPS4_St6vectorIS4_SaIS4_EEEES4_EEbT_RT0_
FNDA:76,_ZN9__gnu_cxx5__ops14_Iter_comp_valISt7greaterISt4pairIiiEEEC2ES5_
FNDA:24,_ZN9__gnu_cxx5__ops14_Val_comp_iterIZN15KruskalStrategy7findMSTERK5GraphEUl4EdgeS6_E_EC2EONS0_15_Iter_comp_iterIS7_EE
FNDA:24,_ZN9__gnu_cxx5__ops14_Iter_comp_valISt7greaterISt4pairIiiEEEC2EONS0_15_Iter_comp_iterIS5_EE
FNDA:24,_ZN9__gnu_cxx5__ops15__val_comp_iterIZN15KruskalStrategy7findMSTERK5GraphEUl4EdgeS6_E_EENS0_14_Val_comp_iterIT_EENS0_15_Iter_comp_iterIS9_EE
FNDA:3,_ZN9__gnu_cxx5__ops11__pred_iterIZN5Graph10removeEdgeEiiEUlRK4EdgeE0_EENS0_10_Iter_predIT_EES8_
FNDA:0,_ZN9__gnu_cxx5__ops14_Iter_comp_valIZN15KruskalStrategy7findMSTERK5GraphEUl4EdgeS6_E_EclINS_17__normal_iteratorIPS6_St6vectorIS6_SaIS6_EEEES6_EEbT_RT0_
FNDA:7,_ZN9__gnu_cxx5__ops10_Iter_predIZN5Graph10removeEdgeEiiEUlRK4EdgeE0_EclINS_17__normal_iteratorIPS3_St6vectorIS3_SaIS3_EEEEEEbT_
FNDA:50,_ZN9__gnu_cxx5__ops14_Val_comp_iterIZN15KruskalStrategy7findMSTERK5GraphEUl4EdgeS6_E_EclIS6_NS_17__normal_iteratorIPS6_St6vectorIS6_SaIS6_EEEEEEbRT_T0_
FNDA:12,_ZN9__gnu_cxx5__ops16__iter_comp_iterIZN15KruskalStrategy7findMSTERK5GraphEUl4EdgeS6_E_EENS0_15_Iter_comp_iterIT_EES9_
FNDA:3,_ZN9__gnu_cxx5__ops10_Iter_predIZN5Graph10removeEdgeEiiEUlRK4EdgeE_EC2ES6_
FNDA:3,_ZN9__gnu_cxx5__ops10_Iter_predIZN5Graph10removeEdgeEiiEUlRK4EdgeE0_EC2ES6_
FNDA:9,_ZN9__gnu_cxx5__ops10_Iter_predIZN5Graph10removeEdgeEiiEUlRK4EdgeE_EclINS_17__normal_iteratorIPS3_St6vectorIS3_SaIS3_EEEEEEbT_
FNDA:0,_ZN9__gnu_cxx5__ops15_Iter_comp_iterISt7greaterISt4pairIiiEEEclINS_17__normal_iteratorIPS4_St6vectorIS4_SaIS4_EEEESD_EEbT_T0_
FNDA:0,_ZN9__gnu_cxx5__ops14_Iter_comp_valIZN15KruskalStrategy7findMSTERK5GraphEUl4EdgeS6_E_EC2EONS0_15_Iter_comp_iterIS7_EE
FNDA:12,_ZN9__gnu_cxx5__ops15_Iter_comp_iterIZN15KruskalStrategy7findMSTERK5GraphEUl4EdgeS6_E_EC2ES7_
FNDA:3,_ZN9__gnu_cxx5__ops11__pred_iterIZN5Graph10removeEdgeEiiEUlRK4EdgeE_EENS0_10_Iter_predIT_EES8_
FNDA:44,_ZN9__gnu_cxx5__ops15_Iter_comp_iterIZN15KruskalStrategy7findMSTERK5GraphEUl4EdgeS6_E_EclINS_17__normal_iteratorIPS6_St6vectorIS6_SaIS6_EEEESF_EEbT_T0_
FNF:18
FNH:15
DA:150,12
DA:151,12
DA:152,12
DA:157,44
DA:158,44
DA:164,12
DA:165,12
DA:174,76
DA:175,76
DA:176,76
DA:187,24
DA:188,24
DA:189,24
DA:195,28
DA:196,28
DA:231,24
DA:232,24
DA:233,24
DA:239,50
DA:240,50
DA:252,24
DA:253,24
DA:310,6
DA:311,6
DA:312,6
DA:317,16
DA:318,16
DA:324,6
DA:325,6
LF:29
LH:29
end_of_record
TN:
SF:/usr/include/c++/11/bits/ptr_traits.h
FN:159,_ZSt12__to_addressISt23_Sp_counted_ptr_inplaceI13ThreadContextSaIS1_ELN9__gnu_cxx12_Lock_policyE2EEEPT_S7_
FNDA:50,_ZSt12__to_addressISt23_Sp_counted_ptr_inplaceI13ThreadContextSaIS1_ELN9__gnu_cxx12_Lock_policyE2EEEPT_S7_
FNF:1
FNH:1
DA:159,50
DA:162,50
LF:2
LH:2
end_of_record
TN:
SF:/usr/include/c++/11/bits/refwrap.h
FN:304,_ZNSt17reference_wrapperISt6vectorISt10unique_ptrI12ActiveObjectSt14default_deleteIS2_EESaIS5_EEE6_S_funERS7_
FN:304,_ZNSt17reference_wrapperISt10unique_ptrI5GraphSt14default_deleteIS1_EEE6_S_funERS4_
FN:304,_ZNSt17reference_wrapperISt10unique_ptrI4TreeSt14default_deleteIS1_EEE6_S_funERS4_
FN:304,_ZNSt17reference_wrapperI10MSTFactoryE6_S_funERS0_
FN:321,_ZNSt17reference_wrapperISt10unique_ptrI4TreeSt14default_deleteIS1_EEEC2IRS4_vPS4_EEOT_
FN:321,_ZNSt17reference_wrapperISt6vectorISt10unique_ptrI12ActiveObjectSt14default_deleteIS2_EESaIS5_EEEC2IRS7_vPS7_EEOT_
FN:321,_ZNSt17reference_wrapperI10MSTFactoryEC2IRS0_vPS0_EEOT_
FN:321,_ZNSt17reference_wrapperISt10unique_ptrI5GraphSt14default_deleteIS1_EEEC2IRS4_vPS4_EEOT_
FN:332,_ZNKSt17reference_wrapperI10MSTFactoryEcvRS0_Ev
FN:332,_ZNKSt17reference_wrapperISt10unique_ptrI5GraphSt14default_deleteIS1_EEEcvRS4_Ev
FN:332,_ZNKSt17reference_wrapperISt10unique_ptrI4TreeSt14default_deleteIS1_EEEcvRS4_Ev
FN:332,_ZNKSt17reference_wrapperISt6vectorISt10unique_ptrI12ActiveObjectSt14default_deleteIS2_EESaIS5_EEEcvRS7_Ev
FN:337,_ZNKSt17reference_wrapperISt6vectorISt10unique_ptrI12ActiveObjectSt14default_deleteIS2_EESaIS5_EEE3getEv
FN:337,_ZNKSt17reference_wrapperISt10unique_ptrI4TreeSt14default_deleteIS1_EEE3getEv
FN:337,_ZNKSt17reference_wrapperI10MSTFactoryE3getEv
FN:337,_ZNKSt17reference_wrapperISt10unique_ptrI5GraphSt14default_deleteIS1_EEE3getEv
FN:364,_ZSt3refISt10unique_ptrI4TreeSt14default_deleteIS1_EEESt17reference_wrapperIT_ERS6_
FN:364,_ZSt3refISt6vectorISt10unique_ptrI12ActiveObjectSt14default_deleteIS2_EESaIS5_EEESt17reference_wrapperIT_ERS9_
FN:364,_ZSt3refISt10unique_ptrI5GraphSt14default_deleteIS1_EEESt17reference_wrapperIT_ERS6_
FN:364,_ZSt3refI10MSTFactoryESt17reference_wrapperIT_ERS2_
FNDA:10,_ZSt3refISt10unique_ptrI4TreeSt14default_deleteIS1_EEESt17reference_wrapperIT_ERS6_
FNDA:10,_ZNKSt17reference_wrapperISt10unique_ptrI5GraphSt14default_deleteIS1_EEEcvRS4_Ev
FNDA:10,_ZNSt17reference_wrapperISt6vectorISt10unique_ptrI12ActiveObjectSt14default_deleteIS2_EESaIS5_EEEC2IRS7_vPS7_EEOT_
FNDA:10,_ZSt3refISt10unique_ptrI5GraphSt14default_deleteIS1_EEESt17reference_wrapperIT_ERS6_
FNDA:10,_ZSt3refISt6vectorISt10unique_ptrI12ActiveObjectSt14default_deleteIS2_EESaIS5_EEESt17reference_wrapperIT_ERS9_
FNDA:10,_ZNSt17reference_wrapperISt10unique_ptrI5GraphSt14default_deleteIS1_EEE6_S_funERS4_
FNDA:10,_ZNKSt17reference_wrapperISt10unique_ptrI4TreeSt14default_deleteIS1_EEE3getEv
FNDA:10,_ZNKSt17reference_wrapperISt6vectorISt10unique_ptrI12ActiveObjectSt14default_deleteIS2_EESaIS5_EEE3getEv
FNDA:10,_ZNSt17reference_wrapperISt6vectorISt10unique_ptrI12ActiveObjectSt14default_deleteIS2_EESaIS5_EEE6_S_funERS7_
FNDA:10,_ZNKSt17reference_wrapperI10MSTFactoryEcvRS0_Ev
FNDA:10,_ZNSt17reference_wrapperISt10unique_ptrI4TreeSt14default_deleteIS1_EEEC2IRS4_vPS4_EEOT_
FNDA:10,_ZNSt17reference_wrapperISt10unique_ptrI4TreeSt14default_deleteIS1_EEE6_S_funERS4_
FNDA:10,_ZNSt17reference_wrapperI10MSTFactoryEC2IRS0_vPS0_EEOT_
FNDA:10,_ZNKSt17reference_wrapperISt6vectorISt10unique_ptrI12ActiveObjectSt14default_deleteIS2_EESaIS5_EEEcvRS7_Ev
FNDA:10,_ZNSt17reference_wrapperI10MSTFactoryE6_S_funERS0_
FNDA:10,_ZNSt17reference_wrapperISt10unique_ptrI5GraphSt14default_deleteIS1_EEEC2IRS4_vPS4_EEOT_
FNDA:10,_ZNKSt17reference_wrapperISt10unique_ptrI4TreeSt14default_deleteIS1_EEEcvRS4_Ev
FNDA:10,_ZSt3refI10MSTFactoryESt17reference_wrapperIT_ERS2_
FNDA:10,_ZNKSt17reference_wrapperI10MSTFactoryE3getEv
FNDA:10,_ZNKSt17reference_wrapperISt10unique_ptrI5GraphSt14default_deleteIS1_EEE3getEv
FNF:20
FNH:20
DA:304,40
DA:321,40
DA:323,40
DA:324,40
DA:332,40
DA:333,40
DA:337,40
DA:338,40
DA:364,40
DA:365,40
LF:10
LH:10
end_of_record
TN:
SF:/usr/include/c++/11/bits/shared_ptr.h
FN:148,_ZNSt10shared_ptrI13ThreadContextEC2Ev
FN:150,_ZNSt10shared_ptrI13ThreadContextEC2ERKS1_
FN:359,_ZNSt10shared_ptrI13ThreadContextEaSERKS1_
FN:383,_ZNSt10shared_ptrI13ThreadContextEaSEOS1_
FN:408,_ZNSt10shared_ptrI13ThreadContextEC2ISaIS0_EJEEESt20_Sp_alloc_shared_tagIT_EDpOT0_
FN:443,_ZSteqI13ThreadContextEbRKSt10shared_ptrIT_EDn
FN:858,_ZSt15allocate_sharedI13ThreadContextSaIS0_EJEESt10shared_ptrIT_ERKT0_DpOT1_
FN:875,_ZSt11make_sharedI13ThreadContextJEESt10shared_ptrIT_EDpOT0_
FNDA:50,_ZNSt10shared_ptrI13ThreadContextEaSEOS1_
FNDA:50,_ZNSt10shared_ptrI13ThreadContextEC2ISaIS0_EJEEESt20_Sp_alloc_shared_tagIT_EDpOT0_
FNDA:50,_ZSt15allocate_sharedI13ThreadContextSaIS0_EJEESt10shared_ptrIT_ERKT0_DpOT1_
FNDA:13,_ZNSt10shared_ptrI13ThreadContextEaSERKS1_
FNDA:13,_ZSteqI13ThreadContextEbRKSt10shared_ptrIT_EDn
FNDA:50,_ZSt11make_sharedI13ThreadContextJEESt10shared_ptrIT_EDpOT0_
FNDA:8,_ZNSt10shared_ptrI13ThreadContextEC2ERKS1_
FNDA:55,_ZNSt10shared_ptrI13ThreadContextEC2Ev
FNF:8
FNH:8
DA:148,55
DA:150,8
DA:359,13
DA:383,50
DA:385,50
DA:386,50
DA:408,50
DA:409,50
DA:410,50
DA:443,13
DA:444,13
DA:858,50
DA:863,50
DA:875,50
DA:878,100
DA:879,100
LF:16
LH:16
end_of_record
TN:
SF:/usr/include/c++/11/bits/shared_ptr_base.h
FN:126,_ZNSt16_Sp_counted_baseILN9__gnu_cxx12_Lock_policyE2EEC2Ev
FN:130,_ZNSt16_Sp_counted_baseILN9__gnu_cxx12_Lock_policyE2EED0Ev
FN:130,_ZNSt16_Sp_counted_baseILN9__gnu_cxx12_Lock_policyE2EED2Ev
FN:140,_ZNSt16_Sp_counted_baseILN9__gnu_cxx12_Lock_policyE2EE10_M_destroyEv
FN:147,_ZNSt16_Sp_counted_baseILN9__gnu_cxx12_Lock_policyE2EE15_M_add_ref_copyEv
FN:161,_ZNSt16_Sp_counted_baseILN9__gnu_cxx12_Lock_policyE2EE10_M_releaseEv
FN:385,_ZNSt14_Sp_ebo_helperILi0ESaI13ThreadContextELb1EEC2ERKS1_
FN:389,_ZNSt14_Sp_ebo_helperILi0ESaI13ThreadContextELb1EE6_S_getERS2_
FN:479,_ZNSt19_Sp_make_shared_tag5_S_tiEv
FN:502,_ZNSt23_Sp_counted_ptr_inplaceI13ThreadContextSaIS0_ELN9__gnu_cxx12_Lock_policyE2EE5_ImplC2ES1_
FN:504,_ZNSt23_Sp_counted_ptr_inplaceI13ThreadContextSaIS0_ELN9__gnu_cxx12_Lock_policyE2EE5_Impl8_M_allocEv
FN:514,_ZNSt23_Sp_counted_ptr_inplaceI13ThreadContextSaIS0_ELN9__gnu_cxx12_Lock_policyE2EEC2IJEEES1_DpOT_
FN:523,_ZNSt23_Sp_counted_ptr_inplaceI13ThreadContextSaIS0_ELN9__gnu_cxx12_Lock_policyE2EED2Ev
FN:523,_ZNSt23_Sp_counted_ptr_inplaceI13ThreadContextSaIS0_ELN9__gnu_cxx12_Lock_policyE2EED0Ev
FN:526,_ZNSt23_Sp_counted_ptr_inplaceI13ThreadContextSaIS0_ELN9__gnu_cxx12_Lock_policyE2EE10_M_disposeEv
FN:533,_ZNSt23_Sp_counted_ptr_inplaceI13ThreadContextSaIS0_ELN9__gnu_cxx12_Lock_policyE2EE10_M_destroyEv
FN:546,_ZNSt23_Sp_counted_ptr_inplaceI13ThreadContextSaIS0_ELN9__gnu_cxx12_Lock_policyE2EE14_M_get_deleterERKSt9type_info
FN:565,_ZNSt23_Sp_counted_ptr_inplaceI13ThreadContextSaIS0_ELN9__gnu_cxx12_Lock_policyE2EE6_M_ptrEv
FN:587,_ZNSt14__shared_countILN9__gnu_cxx12_Lock_policyE2EEC2Ev
FN:643,_ZNSt14__shared_countILN9__gnu_cxx12_Lock_policyE2EEC2I13ThreadContextSaIS4_EJEEERPT_St20_Sp_alloc_shared_tagIT0_EDpOT1_
FN:702,_ZNSt14__shared_countILN9__gnu_cxx12_Lock_policyE2EED2Ev
FN:708,_ZNSt14__shared_countILN9__gnu_cxx12_Lock_policyE2EEC2ERKS2_
FN:716,_ZNSt14__shared_countILN9__gnu_cxx12_Lock_policyE2EEaSERKS2_
FN:731,_ZNSt14__shared_countILN9__gnu_cxx12_Lock_policyE2EE7_M_swapERS2_
FN:977,_ZNKSt19__shared_ptr_accessI13ThreadContextLN9__gnu_cxx12_Lock_policyE2ELb0ELb0EEdeEv
FN:984,_ZNKSt19__shared_ptr_accessI13ThreadContextLN9__gnu_cxx12_Lock_policyE2ELb0ELb0EEptEv
FN:992,_ZNKSt19__shared_ptr_accessI13ThreadContextLN9__gnu_cxx12_Lock_policyE2ELb0ELb0EE6_M_getEv
FN:1092,_ZNSt12__shared_ptrI13ThreadContextLN9__gnu_cxx12_Lock_policyE2EEC2Ev
FN:1152,_ZNSt12__shared_ptrI13ThreadContextLN9__gnu_cxx12_Lock_policyE2EEC2ERKS3_
FN:1153,_ZNSt12__shared_ptrI13ThreadContextLN9__gnu_cxx12_Lock_policyE2EEaSERKS3_
FN:1154,_ZNSt12__shared_ptrI13ThreadContextLN9__gnu_cxx12_Lock_policyE2EED2Ev
FN:1161,_ZNSt12__shared_ptrI13ThreadContextLN9__gnu_cxx12_Lock_policyE2EEC2EOS3_
FN:1248,_ZNSt12__shared_ptrI13ThreadContextLN9__gnu_cxx12_Lock_policyE2EEaSEOS3_
FN:1271,_ZNSt12__shared_ptrI13ThreadContextLN9__gnu_cxx12_Lock_policyE2EE5resetEv
FN:1295,_ZNKSt12__shared_ptrI13ThreadContextLN9__gnu_cxx12_Lock_policyE2EE3getEv
FN:1299,_ZNKSt12__shared_ptrI13ThreadContextLN9__gnu_cxx12_Lock_policyE2EEcvbEv
FN:1314,_ZNSt12__shared_ptrI13ThreadContextLN9__gnu_cxx12_Lock_policyE2EE4swapERS3_
FN:1341,_ZNSt12__shared_ptrI13ThreadContextLN9__gnu_cxx12_Lock_policyE2EEC2ISaIS0_EJEEESt20_Sp_alloc_shared_tagIT_EDpOT0_
FN:1386,_ZNSt12__shared_ptrI13ThreadContextLN9__gnu_cxx12_Lock_policyE2EE31_M_enable_shared_from_this_withIS0_S0_EENSt9enable_ifIXntsrNS3_15__has_esft_baseIT0_vEE5valueEvE4typeEPT_
FNDA:105,_ZNSt12__shared_ptrI13ThreadContextLN9__gnu_cxx12_Lock_policyE2EE4swapERS3_
FNDA:8,_ZNSt14__shared_countILN9__gnu_cxx12_Lock_policyE2EEC2ERKS2_
FNDA:50,_ZNSt23_Sp_counted_ptr_inplaceI13ThreadContextSaIS0_ELN9__gnu_cxx12_Lock_policyE2EED2Ev
FNDA:50,_ZNSt12__shared_ptrI13ThreadContextLN9__gnu_cxx12_Lock_policyE2EEC2EOS3_
FNDA:100,_ZNSt14_Sp_ebo_helperILi0ESaI13ThreadContextELb1EE6_S_getERS2_
FNDA:50,_ZNSt14__shared_countILN9__gnu_cxx12_Lock_policyE2EEC2I13ThreadContextSaIS4_EJEEERPT_St20_Sp_alloc_shared_tagIT0_EDpOT1_
FNDA:50,_ZNSt23_Sp_counted_ptr_inplaceI13ThreadContextSaIS0_ELN9__gnu_cxx12_Lock_policyE2EEC2IJEEES1_DpOT_
FNDA:480,_ZNKSt19__shared_ptr_accessI13ThreadContextLN9__gnu_cxx12_Lock_policyE2ELb0ELb0EEptEv
FNDA:21,_ZNSt16_Sp_counted_baseILN9__gnu_cxx12_Lock_policyE2EE15_M_add_ref_copyEv
FNDA:8,_ZNSt12__shared_ptrI13ThreadContextLN9__gnu_cxx12_Lock_policyE2EEC2ERKS3_
FNDA:50,_ZNSt12__shared_ptrI13ThreadContextLN9__gnu_cxx12_Lock_policyE2EEaSEOS3_
FNDA:13,_ZNSt12__shared_ptrI13ThreadContextLN9__gnu_cxx12_Lock_policyE2EEaSERKS3_
FNDA:0,_ZNSt23_Sp_counted_ptr_inplaceI13ThreadContextSaIS0_ELN9__gnu_cxx12_Lock_policyE2EED0Ev
FNDA:50,_ZNSt14_Sp_ebo_helperILi0ESaI13ThreadContextELb1EEC2ERKS1_
FNDA:0,_ZNSt16_Sp_counted_baseILN9__gnu_cxx12_Lock_policyE2EED0Ev
FNDA:218,_ZNSt12__shared_ptrI13ThreadContextLN9__gnu_cxx12_Lock_policyE2EED2Ev
FNDA:0,_ZNSt23_Sp_counted_ptr_inplaceI13ThreadContextSaIS0_ELN9__gnu_cxx12_Lock_policyE2EE14_M_get_deleterERKSt9type_info
FNDA:519,_ZNKSt12__shared_ptrI13ThreadContextLN9__gnu_cxx12_Lock_policyE2EE3getEv
FNDA:50,_ZNSt23_Sp_counted_ptr_inplaceI13ThreadContextSaIS0_ELN9__gnu_cxx12_Lock_policyE2EE10_M_disposeEv
FNDA:50,_ZNSt12__shared_ptrI13ThreadContextLN9__gnu_cxx12_Lock_policyE2EEC2ISaIS0_EJEEESt20_Sp_alloc_shared_tagIT_EDpOT0_
FNDA:50,_ZNSt12__shared_ptrI13ThreadContextLN9__gnu_cxx12_Lock_policyE2EE31_M_enable_shared_from_this_withIS0_S0_EENSt9enable_ifIXntsrNS3_15__has_esft_baseIT0_vEE5valueEvE4typeEPT_
FNDA:100,_ZNSt23_Sp_counted_ptr_inplaceI13ThreadContextSaIS0_ELN9__gnu_cxx12_Lock_policyE2EE5_Impl8_M_allocEv
FNDA:13,_ZNKSt12__shared_ptrI13ThreadContextLN9__gnu_cxx12_Lock_policyE2EEcvbEv
FNDA:155,_ZNSt14__shared_countILN9__gnu_cxx12_Lock_policyE2EE7_M_swapERS2_
FNDA:55,_ZNSt12__shared_ptrI13ThreadContextLN9__gnu_cxx12_Lock_policyE2EE5resetEv
FNDA:13,_ZNSt14__shared_countILN9__gnu_cxx12_Lock_policyE2EEaSERKS2_
FNDA:50,_ZNSt16_Sp_counted_baseILN9__gnu_cxx12_Lock_policyE2EEC2Ev
FNDA:0,_ZNSt16_Sp_counted_baseILN9__gnu_cxx12_Lock_policyE2EE10_M_destroyEv
FNDA:514,_ZNKSt19__shared_ptr_accessI13ThreadContextLN9__gnu_cxx12_Lock_policyE2ELb0ELb0EE6_M_getEv
FNDA:50,_ZNSt23_Sp_counted_ptr_inplaceI13ThreadContextSaIS0_ELN9__gnu_cxx12_Lock_policyE2EE10_M_destroyEv
FNDA:50,_ZNSt16_Sp_counted_baseILN9__gnu_cxx12_Lock_policyE2EED2Ev
FNDA:50,_ZNSt23_Sp_counted_ptr_inplaceI13ThreadContextSaIS0_ELN9__gnu_cxx12_Lock_policyE2EE5_ImplC2ES1_
FNDA:160,_ZNSt14__shared_countILN9__gnu_cxx12_Lock_policyE2EEC2Ev
FNDA:0,_ZNSt19_Sp_make_shared_tag5_S_tiEv
FNDA:71,_ZNSt16_Sp_counted_baseILN9__gnu_cxx12_Lock_policyE2EE10_M_releaseEv
FNDA:218,_ZNSt14__shared_countILN9__gnu_cxx12_Lock_policyE2EED2Ev
FNDA:110,_ZNSt12__shared_ptrI13ThreadContextLN9__gnu_cxx12_Lock_policyE2EEC2Ev
FNDA:150,_ZNSt23_Sp_counted_ptr_inplaceI13ThreadContextSaIS0_ELN9__gnu_cxx12_Lock_policyE2EE6_M_ptrEv
FNDA:34,_ZNKSt19__shared_ptr_accessI13ThreadContextLN9__gnu_cxx12_Lock_policyE2ELb0ELb0EEdeEv
FNF:39
FNH:34
DA:126,50
DA:127,50
DA:130,50
DA:131,50
DA:140,0
DA:141,0
DA:147,21
DA:148,21
DA:161,71
DA:165,142
DA:168,50
DA:180,50
DA:181,50
DA:184,50
DA:187,71
DA:385,50
DA:389,100
DA:479,0
DA:482,0
DA:502,50
DA:504,100
DA:514,50
DA:515,50
DA:519,50
DA:521,50
DA:523,50
DA:526,50
DA:528,50
DA:529,50
DA:533,50
DA:535,50
DA:536,50
DA:537,50
DA:538,50
DA:546,0
DA:548,0
DA:553,0
DA:554,0
DA:556,0
DA:561,0
DA:562,0
DA:565,150
DA:587,160
DA:588,160
DA:643,50
DA:647,50
DA:648,50
DA:649,50
DA:650,50
DA:652,50
DA:653,50
DA:654,50
DA:655,50
DA:702,218
DA:704,218
DA:705,63
DA:706,218
DA:708,8
DA:709,8
DA:711,8
DA:712,8
DA:713,8
DA:716,13
DA:718,13
DA:719,13
DA:721,13
DA:722,13
DA:723,13
DA:724,8
DA:725,13
DA:727,13
DA:731,155
DA:733,155
DA:734,155
DA:735,155
DA:736,155
DA:977,34
DA:979,34
DA:980,34
DA:984,480
DA:987,480
DA:992,514
DA:993,514
DA:1092,110
DA:1093,110
DA:1094,110
DA:1152,8
DA:1153,13
DA:1154,218
DA:1161,50
DA:1162,50
DA:1164,50
DA:1165,50
DA:1166,50
DA:1248,50
DA:1250,50
DA:1251,50
DA:1271,55
DA:1272,55
DA:1295,519
DA:1296,519
DA:1299,13
DA:1300,13
DA:1314,105
DA:1316,105
DA:1317,105
DA:1318,105
DA:1341,50
DA:1342,50
DA:1343,50
DA:1386,50
DA:1387,50
LF:112
LH:101
end_of_record
TN:
SF:/usr/include/c++/11/bits/std_function.h
FN:85,_ZNSt9_Any_data9_M_accessEv
FN:86,_ZNKSt9_Any_data9_M_accessEv
FN:90,_ZNSt9_Any_data9_M_accessIPSt5_BindIFM12LFThreadPoolFviEPS2_mEEEERT_v
FN:90,_ZNSt9_Any_data9_M_accessIPZZZZ14handleCommandsiRSt6vectorISt10unique_ptrI12ActiveObjectSt14default_deleteIS3_EESaIS6_EERS2_I5GraphS4_ISA_EER10MSTFactoryRS2_I4TreeS4_ISG_EEENKUlvE3_clEvENKUlvE_clEvENKUlvE_clEvEUlvE_EERT_v
FN:90,_ZNSt9_Any_data9_M_accessIPZ16acceptConnectioniRSt10unique_ptrI5GraphSt14default_deleteIS2_EER10MSTFactoryRS1_I4TreeS3_IS9_EERS1_I12LFThreadPoolS3_ISD_EEEUlvE_EERT_v
FN:90,_ZNSt9_Any_data9_M_accessIPKSt9type_infoEERT_v
FN:90,_ZNSt9_Any_data9_M_accessIPZ4mainEUliE_EERT_v
FN:90,_ZNSt9_Any_data9_M_accessIPZ14handleCommandsiRSt6vectorISt10unique_ptrI12ActiveObjectSt14default_deleteIS3_EESaIS6_EERS2_I5GraphS4_ISA_EER10MSTFactoryRS2_I4TreeS4_ISG_EEEUlvE0_EERT_v
FN:90,_ZNSt9_Any_data9_M_accessIPZ14handleCommandsiRSt6vectorISt10unique_ptrI12ActiveObjectSt14default_deleteIS3_EESaIS6_EERS2_I5GraphS4_ISA_EER10MSTFactoryRS2_I4TreeS4_ISG_EEEUlvE9_EERT_v
FN:90,_ZNSt9_Any_data9_M_accessIPZ14handleCommandsiRSt6vectorISt10unique_ptrI12ActiveObjectSt14default_deleteIS3_EESaIS6_EERS2_I5GraphS4_ISA_EER10MSTFactoryRS2_I4TreeS4_ISG_EEEUlvE10_EERT_v
FN:90,_ZNSt9_Any_data9_M_accessIPZZZZZZ14handleCommandsiRSt6vectorISt10unique_ptrI12ActiveObjectSt14default_deleteIS3_EESaIS6_EERS2_I5GraphS4_ISA_EER10MSTFactoryRS2_I4TreeS4_ISG_EEENKUlvE3_clEvENKUlvE_clEvENKUlvE_clEvENKUlvE_clEvENKUlvE_clEvEUlvE_EERT_v
FN:90,_ZNSt9_Any_data9_M_accessIPZZZ14handleCommandsiRSt6vectorISt10unique_ptrI12ActiveObjectSt14default_deleteIS3_EESaIS6_EERS2_I5GraphS4_ISA_EER10MSTFactoryRS2_I4TreeS4_ISG_EEENKUlvE3_clEvENKUlvE_clEvEUlvE_EERT_v
FN:90,_ZNSt9_Any_data9_M_accessIPZ14handleCommandsiRSt6vectorISt10unique_ptrI12ActiveObjectSt14default_deleteIS3_EESaIS6_EERS2_I5GraphS4_ISA_EER10MSTFactoryRS2_I4TreeS4_ISG_EEEUlvE_EERT_v
FN:90,_ZNSt9_Any_data9_M_accessIPZ14handleCommandsiRSt6vectorISt10unique_ptrI12ActiveObjectSt14default_deleteIS3_EESaIS6_EERS2_I5GraphS4_ISA_EER10MSTFactoryRS2_I4TreeS4_ISG_EEEUlvE4_EERT_v
FN:90,_ZNSt9_Any_data9_M_accessIPZZZZZ14handleCommandsiRSt6vectorISt10unique_ptrI12ActiveObjectSt14default_deleteIS3_EESaIS6_EERS2_I5GraphS4_ISA_EER10MSTFactoryRS2_I4TreeS4_ISG_EEENKUlvE3_clEvENKUlvE_clEvENKUlvE_clEvENKUlvE_clEvEUlvE_EERT_v
FN:90,_ZNSt9_Any_data9_M_accessIPZ14handleCommandsiRSt6vectorISt10unique_ptrI12ActiveObjectSt14default_deleteIS3_EESaIS6_EERS2_I5GraphS4_ISA_EER10MSTFactoryRS2_I4TreeS4_ISG_EEEUlvE8_EERT_v
FN:90,_ZNSt9_Any_data9_M_accessIPZ14handleCommandsiRSt6vectorISt10unique_ptrI12ActiveObjectSt14default_deleteIS3_EESaIS6_EERS2_I5GraphS4_ISA_EER10MSTFactoryRS2_I4TreeS4_ISG_EEEUlvE2_EERT_v
FN:90,_ZNSt9_Any_data9_M_accessIPZ14handleCommandsiRSt6vectorISt10unique_ptrI12ActiveObjectSt14default_deleteIS3_EESaIS6_EERS2_I5GraphS4_ISA_EER10MSTFactoryRS2_I4TreeS4_ISG_EEEUlvE5_EERT_v
FN:90,_ZNSt9_Any_data9_M_accessIPZ4mainEUlvE0_EERT_v
FN:90,_ZNSt9_Any_data9_M_accessIPZZ14handleCommandsiRSt6vectorISt10unique_ptrI12ActiveObjectSt14default_deleteIS3_EESaIS6_EERS2_I5GraphS4_ISA_EER10MSTFactoryRS2_I4TreeS4_ISG_EEENKUlvE3_clEvEUlvE_EERT_v
FN:90,_ZNSt9_Any_data9_M_accessIPZ14handleCommandsiRSt6vectorISt10unique_ptrI12ActiveObjectSt14default_deleteIS3_EESaIS6_EERS2_I5GraphS4_ISA_EER10MSTFactoryRS2_I4TreeS4_ISG_EEEUlvE3_EERT_v
FN:90,_ZNSt9_Any_data9_M_accessIPZ14handleCommandsiRSt6vectorISt10unique_ptrI12ActiveObjectSt14default_deleteIS3_EESaIS6_EERS2_I5GraphS4_ISA_EER10MSTFactoryRS2_I4TreeS4_ISG_EEEUlvE6_EERT_v
FN:90,_ZNSt9_Any_data9_M_accessIPZ14handleCommandsiRSt6vectorISt10unique_ptrI12ActiveObjectSt14default_deleteIS3_EESaIS6_EERS2_I5GraphS4_ISA_EER10MSTFactoryRS2_I4TreeS4_ISG_EEEUlvE1_EERT_v
FN:95,_ZNKSt9_Any_data9_M_accessIPZZZZZZ14handleCommandsiRSt6vectorISt10unique_ptrI12ActiveObjectSt14default_deleteIS3_EESaIS6_EERS2_I5GraphS4_ISA_EER10MSTFactoryRS2_I4TreeS4_ISG_EEENKUlvE3_clEvENKUlvE_clEvENKUlvE_clEvENKUlvE_clEvENKUlvE_clEvEUlvE_EERKT_v
FN:95,_ZNKSt9_Any_data9_M_accessIPZ14handleCommandsiRSt6vectorISt10unique_ptrI12ActiveObjectSt14default_deleteIS3_EESaIS6_EERS2_I5GraphS4_ISA_EER10MSTFactoryRS2_I4TreeS4_ISG_EEEUlvE3_EERKT_v
FN:95,_ZNKSt9_Any_data9_M_accessIPZ16acceptConnectioniRSt10unique_ptrI5GraphSt14default_deleteIS2_EER10MSTFactoryRS1_I4TreeS3_IS9_EERS1_I12LFThreadPoolS3_ISD_EEEUlvE_EERKT_v
FN:95,_ZNKSt9_Any_data9_M_accessIPZZZ14handleCommandsiRSt6vectorISt10unique_ptrI12ActiveObjectSt14default_deleteIS3_EESaIS6_EERS2_I5GraphS4_ISA_EER10MSTFactoryRS2_I4TreeS4_ISG_EEENKUlvE3_clEvENKUlvE_clEvEUlvE_EERKT_v
FN:95,_ZNKSt9_Any_data9_M_accessIPZ14handleCommandsiRSt6vectorISt10unique_ptrI12ActiveObjectSt14default_deleteIS3_EESaIS6_EERS2_I5GraphS4_ISA_EER10MSTFactoryRS2_I4TreeS4_ISG_EEEUlvE8_EERKT_v
FN:95,_ZNKSt9_Any_data9_M_accessIPZ14handleCommandsiRSt6vectorISt10unique_ptrI12ActiveObjectSt14default_deleteIS3_EESaIS6_EERS2_I5GraphS4_ISA_EER10MSTFactoryRS2_I4TreeS4_ISG_EEEUlvE5_EERKT_v
FN:95,_ZNKSt9_Any_data9_M_accessIPZ14handleCommandsiRSt6vectorISt10unique_ptrI12ActiveObjectSt14default_deleteIS3_EESaIS6_EERS2_I5GraphS4_ISA_EER10MSTFactoryRS2_I4TreeS4_ISG_EEEUlvE1_EERKT_v
FN:95,_ZNKSt9_Any_data9_M_accessIPZ14handleCommandsiRSt6vectorISt10unique_ptrI12ActiveObjectSt14default_deleteIS3_EESaIS6_EERS2_I5GraphS4_ISA_EER10MSTFactoryRS2_I4TreeS4_ISG_EEEUlvE_EERKT_v
FN:95,_ZNKSt9_Any_data9_M_accessIPSt5_BindIFM12LFThreadPoolFviEPS2_mEEEERKT_v
FN:95,_ZNKSt9_Any_data9_M_accessIPZ4mainEUliE_EERKT_v
FN:95,_ZNKSt9_Any_data9_M_accessIPZZZZ14handleCommandsiRSt6vectorISt10unique_ptrI12ActiveObjectSt14default_deleteIS3_EESaIS6_EERS2_I5GraphS4_ISA_EER10MSTFactoryRS2_I4TreeS4_ISG_EEENKUlvE3_clEvENKUlvE_clEvENKUlvE_clEvEUlvE_EERKT_v
FN:95,_ZNKSt9_Any_data9_M_accessIPZZZZZ14handleCommandsiRSt6vectorISt10unique_ptrI12ActiveObjectSt14default_deleteIS3_EESaIS6_EERS2_I5GraphS4_ISA_EER10MSTFactoryRS2_I4TreeS4_ISG_EEENKUlvE3_clEvENKUlvE_clEvENKUlvE_clEvENKUlvE_clEvEUlvE_EERKT_v
FN:95,_ZNKSt9_Any_data9_M_accessIPZ14handleCommandsiRSt6vectorISt10unique_ptrI12ActiveObjectSt14default_deleteIS3_EESaIS6_EERS2_I5GraphS4_ISA_EER10MSTFactoryRS2_I4TreeS4_ISG_EEEUlvE6_EERKT_v
FN:95,_ZNKSt9_Any_data9_M_accessIPZZ14handleCommandsiRSt6vectorISt10unique_ptrI12ActiveObjectSt14default_deleteIS3_EESaIS6_EERS2_I5GraphS4_ISA_EER10MSTFactoryRS2_I4TreeS4_ISG_EEENKUlvE3_clEvEUlvE_EERKT_v
FN:95,_ZNKSt9_Any_data9_M_accessIPZ14handleCommandsiRSt6vectorISt10unique_ptrI12ActiveObjectSt14default_deleteIS3_EESaIS6_EERS2_I5GraphS4_ISA_EER10MSTFactoryRS2_I4TreeS4_ISG_EEEUlvE0_EERKT_v
FN:95,_ZNKSt9_Any_data9_M_accessIPZ14handleCommandsiRSt6vectorISt10unique_ptrI12ActiveObjectSt14default_deleteIS3_EESaIS6_EERS2_I5GraphS4_ISA_EER10MSTFactoryRS2_I4TreeS4_ISG_EEEUlvE4_EERKT_v
FN:95,_ZNKSt9_Any_data9_M_accessIPZ14handleCommandsiRSt6vectorISt10unique_ptrI12ActiveObjectSt14default_deleteIS3_EESaIS6_EERS2_I5GraphS4_ISA_EER10MSTFactoryRS2_I4TreeS4_ISG_EEEUlvE10_EERKT_v
FN:95,_ZNKSt9_Any_data9_M_accessIPZ4mainEUlvE0_EERKT_v
FN:95,_ZNKSt9_Any_data9_M_accessIPZ14handleCommandsiRSt6vectorISt10unique_ptrI12ActiveObjectSt14default_deleteIS3_EESaIS6_EERS2_I5GraphS4_ISA_EER10MSTFactoryRS2_I4TreeS4_ISG_EEEUlvE2_EERKT_v
FN:95,_ZNKSt9_Any_data9_M_accessIPZ14handleCommandsiRSt6vectorISt10unique_ptrI12ActiveObjectSt14default_deleteIS3_EESaIS6_EERS2_I5GraphS4_ISA_EER10MSTFactoryRS2_I4TreeS4_ISG_EEEUlvE9_EERKT_v
FN:134,_ZNSt14_Function_base13_Base_managerIZ14handleCommandsiRSt6vectorISt10unique_ptrI12ActiveObjectSt14default_deleteIS3_EESaIS6_EERS2_I5GraphS4_ISA_EER10MSTFactoryRS2_I4TreeS4_ISG_EEEUlvE_E14_M_get_pointerERKSt9_Any_data
FN:134,_ZNSt14_Function_base13_Base_managerISt5_BindIFM12LFThreadPoolFviEPS2_mEEE14_M_get_pointerERKSt9_Any_data
FN:134,_ZNSt14_Function_base13_Base_managerIZZZZZZ14handleCommandsiRSt6vectorISt10unique_ptrI12ActiveObjectSt14default_deleteIS3_EESaIS6_EERS2_I5GraphS4_ISA_EER10MSTFactoryRS2_I4TreeS4_ISG_EEENKUlvE3_clEvENKUlvE_clEvENKUlvE_clEvENKUlvE_clEvENKUlvE_clEvEUlvE_E14_M_get_pointerERKSt9_Any_data
FN:134,_ZNSt14_Function_base13_Base_managerIZ14handleCommandsiRSt6vectorISt10unique_ptrI12ActiveObjectSt14default_deleteIS3_EESaIS6_EERS2_I5GraphS4_ISA_EER10MSTFactoryRS2_I4TreeS4_ISG_EEEUlvE6_E14_M_get_pointerERKSt9_Any_data
FN:134,_ZNSt14_Function_base13_Base_managerIZ14handleCommandsiRSt6vectorISt10unique_ptrI12ActiveObjectSt14default_deleteIS3_EESaIS6_EERS2_I5GraphS4_ISA_EER10MSTFactoryRS2_I4TreeS4_ISG_EEEUlvE10_E14_M_get_pointerERKSt9_Any_data
FN:134,_ZNSt14_Function_base13_Base_managerIZ14handleCommandsiRSt6vectorISt10unique_ptrI12ActiveObjectSt14default_deleteIS3_EESaIS6_EERS2_I5GraphS4_ISA_EER10MSTFactoryRS2_I4TreeS4_ISG_EEEUlvE0_E14_M_get_pointerERKSt9_Any_data
FN:134,_ZNSt14_Function_base13_Base_managerIZ14handleCommandsiRSt6vectorISt10unique_ptrI12ActiveObjectSt14default_deleteIS3_EESaIS6_EERS2_I5GraphS4_ISA_EER10MSTFactoryRS2_I4TreeS4_ISG_EEEUlvE2_E14_M_get_pointerERKSt9_Any_data
FN:134,_ZNSt14_Function_base13_Base_managerIZZZZ14handleCommandsiRSt6vectorISt10unique_ptrI12ActiveObjectSt14default_deleteIS3_EESaIS6_EERS2_I5GraphS4_ISA_EER10MSTFactoryRS2_I4TreeS4_ISG_EEENKUlvE3_clEvENKUlvE_clEvENKUlvE_clEvEUlvE_E14_M_get_pointerERKSt9_Any_data
FN:134,_ZNSt14_Function_base13_Base_managerIZ16acceptConnectioniRSt10unique_ptrI5GraphSt14default_deleteIS2_EER10MSTFactoryRS1_I4TreeS3_IS9_EERS1_I12LFThreadPoolS3_ISD_EEEUlvE_E14_M_get_pointerERKSt9_Any_data
FN:134,_ZNSt14_Function_base13_Base_managerIZZ14handleCommandsiRSt6vectorISt10unique_ptrI12ActiveObjectSt14default_deleteIS3_EESaIS6_EERS2_I5GraphS4_ISA_EER10MSTFactoryRS2_I4TreeS4_ISG_EEENKUlvE3_clEvEUlvE_E14_M_get_pointerERKSt9_Any_data
FN:134,_ZNSt14_Function_base13_Base_managerIZZZZZ14handleCommandsiRSt6vectorISt10unique_ptrI12ActiveObjectSt14default_deleteIS3_EESaIS6_EERS2_I5GraphS4_ISA_EER10MSTFactoryRS2_I4TreeS4_ISG_EEENKUlvE3_clEvENKUlvE_clEvENKUlvE_clEvENKUlvE_clEvEUlvE_E14_M_get_pointerERKSt9_Any_data
FN:134,_ZNSt14_Function_base13_Base_managerIZ14handleCommandsiRSt6vectorISt10unique_ptrI12ActiveObjectSt14default_deleteIS3_EESaIS6_EERS2_I5GraphS4_ISA_EER10MSTFactoryRS2_I4TreeS4_ISG_EEEUlvE9_E14_M_get_pointerERKSt9_Any_data
FN:134,_ZNSt14_Function_base13_Base_managerIZ14handleCommandsiRSt6vectorISt10unique_ptrI12ActiveObjectSt14default_deleteIS3_EESaIS6_EERS2_I5GraphS4_ISA_EER10MSTFactoryRS2_I4TreeS4_ISG_EEEUlvE1_E14_M_get_pointerERKSt9_Any_data
FN:134,_ZNSt14_Function_base13_Base_managerIZ4mainEUlvE0_E14_M_get_pointerERKSt9_Any_data
FN:134,_ZNSt14_Function_base13_Base_managerIZ14handleCommandsiRSt6vectorISt10unique_ptrI12ActiveObjectSt14default_deleteIS3_EESaIS6_EERS2_I5GraphS4_ISA_EER10MSTFactoryRS2_I4TreeS4_ISG_EEEUlvE4_E14_M_get_pointerERKSt9_Any_data
FN:134,_ZNSt14_Function_base13_Base_managerIZ14handleCommandsiRSt6vectorISt10unique_ptrI12ActiveObjectSt14default_deleteIS3_EESaIS6_EERS2_I5GraphS4_ISA_EER10MSTFactoryRS2_I4TreeS4_ISG_EEEUlvE8_E14_M_get_pointerERKSt9_Any_data
FN:134,_ZNSt14_Function_base13_Base_managerIZ14handleCommandsiRSt6vectorISt10unique_ptrI12ActiveObjectSt14default_deleteIS3_EESaIS6_EERS2_I5GraphS4_ISA_EER10MSTFactoryRS2_I4TreeS4_ISG_EEEUlvE5_E14_M_get_pointerERKSt9_Any_data
FN:134,_ZNSt14_Function_base13_Base_managerIZ4mainEUliE_E14_M_get_pointerERKSt9_Any_data
FN:134,_ZNSt14_Function_base13_Base_managerIZZZ14handleCommandsiRSt6vectorISt10unique_ptrI12ActiveObjectSt14default_deleteIS3_EESaIS6_EERS2_I5GraphS4_ISA_EER10MSTFactoryRS2_I4TreeS4_ISG_EEENKUlvE3_clEvENKUlvE_clEvEUlvE_E14_M_get_pointerERKSt9_Any_data
FN:134,_ZNSt14_Function_base13_Base_managerIZ14handleCommandsiRSt6vectorISt10unique_ptrI12ActiveObjectSt14default_deleteIS3_EESaIS6_EERS2_I5GraphS4_ISA_EER10MSTFactoryRS2_I4TreeS4_ISG_EEEUlvE3_E14_M_get_pointerERKSt9_Any_data
FN:158,_ZNSt14_Function_base13_Base_managerIZ4mainEUlvE0_E9_M_createIRKS1_EEvRSt9_Any_dataOT_St17integral_constantIbLb0EE
FN:158,_ZNSt14_Function_base13_Base_managerIZ16acceptConnectioniRSt10unique_ptrI5GraphSt14default_deleteIS2_EER10MSTFactoryRS1_I4TreeS3_IS9_EERS1_I12LFThreadPoolS3_ISD_EEEUlvE_E9_M_createIRKSH_EEvRSt9_Any_dataOT_St17integral_constantIbLb0EE
FN:158,_ZNSt14_Function_base13_Base_managerISt5_BindIFM12LFThreadPoolFviEPS2_mEEE9_M_createIS7_EEvRSt9_Any_dataOT_St17integral_constantIbLb0EE
FN:158,_ZNSt14_Function_base13_Base_managerIZ14handleCommandsiRSt6vectorISt10unique_ptrI12ActiveObjectSt14default_deleteIS3_EESaIS6_EERS2_I5GraphS4_ISA_EER10MSTFactoryRS2_I4TreeS4_ISG_EEEUlvE8_E9_M_createIRSK_EEvRSt9_Any_dataOT_St17integral_constantIbLb0EE
FN:158,_ZNSt14_Function_base13_Base_managerIZ4mainEUlvE0_E9_M_createIS1_EEvRSt9_Any_dataOT_St17integral_constantIbLb0EE
FN:158,_ZNSt14_Function_base13_Base_managerIZZZZZZ14handleCommandsiRSt6vectorISt10unique_ptrI12ActiveObjectSt14default_deleteIS3_EESaIS6_EERS2_I5GraphS4_ISA_EER10MSTFactoryRS2_I4TreeS4_ISG_EEENKUlvE3_clEvENKUlvE_clEvENKUlvE_clEvENKUlvE_clEvENKUlvE_clEvEUlvE_E9_M_createIRKSP_EEvRSt9_Any_dataOT_St17integral_constantIbLb0EE
FN:158,_ZNSt14_Function_base13_Base_managerIZ14handleCommandsiRSt6vectorISt10unique_ptrI12ActiveObjectSt14default_deleteIS3_EESaIS6_EERS2_I5GraphS4_ISA_EER10MSTFactoryRS2_I4TreeS4_ISG_EEEUlvE4_E9_M_createIRSK_EEvRSt9_Any_dataOT_St17integral_constantIbLb0EE
FN:158,_ZNSt14_Function_base13_Base_managerISt5_BindIFM12LFThreadPoolFviEPS2_mEEE9_M_createIRKS7_EEvRSt9_Any_dataOT_St17integral_constantIbLb0EE
FN:158,_ZNSt14_Function_base13_Base_managerIZ14handleCommandsiRSt6vectorISt10unique_ptrI12ActiveObjectSt14default_deleteIS3_EESaIS6_EERS2_I5GraphS4_ISA_EER10MSTFactoryRS2_I4TreeS4_ISG_EEEUlvE3_E9_M_createIRKSK_EEvRSt9_Any_dataOT_St17integral_constantIbLb0EE
FN:158,_ZNSt14_Function_base13_Base_managerIZ14handleCommandsiRSt6vectorISt10unique_ptrI12ActiveObjectSt14default_deleteIS3_EESaIS6_EERS2_I5GraphS4_ISA_EER10MSTFactoryRS2_I4TreeS4_ISG_EEEUlvE6_E9_M_createIRSK_EEvRSt9_Any_dataOT_St17integral_constantIbLb0EE
FN:158,_ZNSt14_Function_base13_Base_managerIZ14handleCommandsiRSt6vectorISt10unique_ptrI12ActiveObjectSt14default_deleteIS3_EESaIS6_EERS2_I5GraphS4_ISA_EER10MSTFactoryRS2_I4TreeS4_ISG_EEEUlvE4_E9_M_createIRKSK_EEvRSt9_Any_dataOT_St17integral_constantIbLb0EE
FN:158,_ZNSt14_Function_base13_Base_managerIZ14handleCommandsiRSt6vectorISt10unique_ptrI12ActiveObjectSt14default_deleteIS3_EESaIS6_EERS2_I5GraphS4_ISA_EER10MSTFactoryRS2_I4TreeS4_ISG_EEEUlvE_E9_M_createIRKSK_EEvRSt9_Any_dataOT_St17integral_constantIbLb0EE
FN:158,_ZNSt14_Function_base13_Base_managerIZZ14handleCommandsiRSt6vectorISt10unique_ptrI12ActiveObjectSt14default_deleteIS3_EESaIS6_EERS2_I5GraphS4_ISA_EER10MSTFactoryRS2_I4TreeS4_ISG_EEENKUlvE3_clEvEUlvE_E9_M_createIRKSL_EEvRSt9_Any_dataOT_St17integral_constantIbLb0EE
FN:158,_ZNSt14_Function_base13_Base_managerIZ14handleCommandsiRSt6vectorISt10unique_ptrI12ActiveObjectSt14default_deleteIS3_EESaIS6_EERS2_I5GraphS4_ISA_EER10MSTFactoryRS2_I4TreeS4_ISG_EEEUlvE2_E9_M_createIRSK_EEvRSt9_Any_dataOT_St17integral_constantIbLb0EE
FN:158,_ZNSt14_Function_base13_Base_managerIZZZ14handleCommandsiRSt6vectorISt10unique_ptrI12ActiveObjectSt14default_deleteIS3_EESaIS6_EERS2_I5GraphS4_ISA_EER10MSTFactoryRS2_I4TreeS4_ISG_EEENKUlvE3_clEvENKUlvE_clEvEUlvE_E9_M_createIRSM_EEvRSt9_Any_dataOT_St17integral_constantIbLb0EE
FN:158,_ZNSt14_Function_base13_Base_managerIZZZ14handleCommandsiRSt6vectorISt10unique_ptrI12ActiveObjectSt14default_deleteIS3_EESaIS6_EERS2_I5GraphS4_ISA_EER10MSTFactoryRS2_I4TreeS4_ISG_EEENKUlvE3_clEvENKUlvE_clEvEUlvE_E9_M_createIRKSM_EEvRSt9_Any_dataOT_St17integral_constantIbLb0EE
FN:158,_ZNSt14_Function_base13_Base_managerIZZZZZZ14handleCommandsiRSt6vectorISt10unique_ptrI12ActiveObjectSt14default_deleteIS3_EESaIS6_EERS2_I5GraphS4_ISA_EER10MSTFactoryRS2_I4TreeS4_ISG_EEENKUlvE3_clEvENKUlvE_clEvENKUlvE_clEvENKUlvE_clEvENKUlvE_clEvEUlvE_E9_M_createIRSP_EEvRSt9_Any_dataOT_St17integral_constantIbLb0EE
FN:158,_ZNSt14_Function_base13_Base_managerIZZZZZ14handleCommandsiRSt6vectorISt10unique_ptrI12ActiveObjectSt14default_deleteIS3_EESaIS6_EERS2_I5GraphS4_ISA_EER10MSTFactoryRS2_I4TreeS4_ISG_EEENKUlvE3_clEvENKUlvE_clEvENKUlvE_clEvENKUlvE_clEvEUlvE_E9_M_createIRSO_EEvRSt9_Any_dataOT_St17integral_constantIbLb0EE
FN:158,_ZNSt14_Function_base13_Base_managerIZ14handleCommandsiRSt6vectorISt10unique_ptrI12ActiveObjectSt14default_deleteIS3_EESaIS6_EERS2_I5GraphS4_ISA_EER10MSTFactoryRS2_I4TreeS4_ISG_EEEUlvE5_E9_M_createIRKSK_EEvRSt9_Any_dataOT_St17integral_constantIbLb0EE
FN:158,_ZNSt14_Function_base13_Base_managerIZ14handleCommandsiRSt6vectorISt10unique_ptrI12ActiveObjectSt14default_deleteIS3_EESaIS6_EERS2_I5GraphS4_ISA_EER10MSTFactoryRS2_I4TreeS4_ISG_EEEUlvE0_E9_M_createIRKSK_EEvRSt9_Any_dataOT_St17integral_constantIbLb0EE
FN:158,_ZNSt14_Function_base13_Base_managerIZ14handleCommandsiRSt6vectorISt10unique_ptrI12ActiveObjectSt14default_deleteIS3_EESaIS6_EERS2_I5GraphS4_ISA_EER10MSTFactoryRS2_I4TreeS4_ISG_EEEUlvE10_E9_M_createIRSK_EEvRSt9_Any_dataOT_St17integral_constantIbLb0EE
FN:158,_ZNSt14_Function_base13_Base_managerIZZZZ14handleCommandsiRSt6vectorISt10unique_ptrI12ActiveObjectSt14default_deleteIS3_EESaIS6_EERS2_I5GraphS4_ISA_EER10MSTFactoryRS2_I4TreeS4_ISG_EEENKUlvE3_clEvENKUlvE_clEvENKUlvE_clEvEUlvE_E9_M_createIRSN_EEvRSt9_Any_dataOT_St17integral_constantIbLb0EE
FN:158,_ZNSt14_Function_base13_Base_managerIZ14handleCommandsiRSt6vectorISt10unique_ptrI12ActiveObjectSt14default_deleteIS3_EESaIS6_EERS2_I5GraphS4_ISA_EER10MSTFactoryRS2_I4TreeS4_ISG_EEEUlvE0_E9_M_createIRSK_EEvRSt9_Any_dataOT_St17integral_constantIbLb0EE
FN:158,_ZNSt14_Function_base13_Base_managerIZ14handleCommandsiRSt6vectorISt10unique_ptrI12ActiveObjectSt14default_deleteIS3_EESaIS6_EERS2_I5GraphS4_ISA_EER10MSTFactoryRS2_I4TreeS4_ISG_EEEUlvE1_E9_M_createIRKSK_EEvRSt9_Any_dataOT_St17integral_constantIbLb0EE
FN:158,_ZNSt14_Function_base13_Base_managerIZ4mainEUliE_E9_M_createIS1_EEvRSt9_Any_dataOT_St17integral_constantIbLb0EE
FN:158,_ZNSt14_Function_base13_Base_managerIZ14handleCommandsiRSt6vectorISt10unique_ptrI12ActiveObjectSt14default_deleteIS3_EESaIS6_EERS2_I5GraphS4_ISA_EER10MSTFactoryRS2_I4TreeS4_ISG_EEEUlvE_E9_M_createIRSK_EEvRSt9_Any_dataOT_St17integral_constantIbLb0EE
FN:158,_ZNSt14_Function_base13_Base_managerIZ14handleCommandsiRSt6vectorISt10unique_ptrI12ActiveObjectSt14default_deleteIS3_EESaIS6_EERS2_I5GraphS4_ISA_EER10MSTFactoryRS2_I4TreeS4_ISG_EEEUlvE8_E9_M_createIRKSK_EEvRSt9_Any_dataOT_St17integral_constantIbLb0EE
FN:158,_ZNSt14_Function_base13_Base_managerIZ14handleCommandsiRSt6vectorISt10unique_ptrI12ActiveObjectSt14default_deleteIS3_EESaIS6_EERS2_I5GraphS4_ISA_EER10MSTFactoryRS2_I4TreeS4_ISG_EEEUlvE2_E9_M_createIRKSK_EEvRSt9_Any_dataOT_St17integral_constantIbLb0EE
FN:158,_ZNSt14_Function_base13_Base_managerIZZZZ14handleCommandsiRSt6vectorISt10unique_ptrI12ActiveObjectSt14default_deleteIS3_EESaIS6_EERS2_I5GraphS4_ISA_EER10MSTFactoryRS2_I4TreeS4_ISG_EEENKUlvE3_clEvENKUlvE_clEvENKUlvE_clEvEUlvE_E9_M_createIRKSN_EEvRSt9_Any_dataOT_St17integral_constantIbLb0EE
FN:158,_ZNSt14_Function_base13_Base_managerIZ14handleCommandsiRSt6vectorISt10unique_ptrI12ActiveObjectSt14default_deleteIS3_EESaIS6_EERS2_I5GraphS4_ISA_EER10MSTFactoryRS2_I4TreeS4_ISG_EEEUlvE3_E9_M_createIRSK_EEvRSt9_Any_dataOT_St17integral_constantIbLb0EE
FN:158,_ZNSt14_Function_base13_Base_managerIZ14handleCommandsiRSt6vectorISt10unique_ptrI12ActiveObjectSt14default_deleteIS3_EESaIS6_EERS2_I5GraphS4_ISA_EER10MSTFactoryRS2_I4TreeS4_ISG_EEEUlvE10_E9_M_createIRKSK_EEvRSt9_Any_dataOT_St17integral_constantIbLb0EE
FN:158,_ZNSt14_Function_base13_Base_managerIZ14handleCommandsiRSt6vectorISt10unique_ptrI12ActiveObjectSt14default_deleteIS3_EESaIS6_EERS2_I5GraphS4_ISA_EER10MSTFactoryRS2_I4TreeS4_ISG_EEEUlvE9_E9_M_createIRSK_EEvRSt9_Any_dataOT_St17integral_constantIbLb0EE
FN:158,_ZNSt14_Function_base13_Base_managerIZ4mainEUliE_E9_M_createIRKS1_EEvRSt9_Any_dataOT_St17integral_constantIbLb0EE
FN:158,_ZNSt14_Function_base13_Base_managerIZ14handleCommandsiRSt6vectorISt10unique_ptrI12ActiveObjectSt14default_deleteIS3_EESaIS6_EERS2_I5GraphS4_ISA_EER10MSTFactoryRS2_I4TreeS4_ISG_EEEUlvE6_E9_M_createIRKSK_EEvRSt9_Any_dataOT_St17integral_constantIbLb0EE
FN:158,_ZNSt14_Function_base13_Base_managerIZ16acceptConnectioniRSt10unique_ptrI5GraphSt14default_deleteIS2_EER10MSTFactoryRS1_I4TreeS3_IS9_EERS1_I12LFThreadPoolS3_ISD_EEEUlvE_E9_M_createISH_EEvRSt9_Any_dataOT_St17integral_constantIbLb0EE
FN:158,_ZNSt14_Function_base13_Base_managerIZ14handleCommandsiRSt6vectorISt10unique_ptrI12ActiveObjectSt14default_deleteIS3_EESaIS6_EERS2_I5GraphS4_ISA_EER10MSTFactoryRS2_I4TreeS4_ISG_EEEUlvE1_E9_M_createIRSK_EEvRSt9_Any_dataOT_St17integral_constantIbLb0EE
FN:158,_ZNSt14_Function_base13_Base_managerIZZ14handleCommandsiRSt6vectorISt10unique_ptrI12ActiveObjectSt14default_deleteIS3_EESaIS6_EERS2_I5GraphS4_ISA_EER10MSTFactoryRS2_I4TreeS4_ISG_EEENKUlvE3_clEvEUlvE_E9_M_createIRSL_EEvRSt9_Any_dataOT_St17integral_constantIbLb0EE
FN:158,_ZNSt14_Function_base13_Base_managerIZ14handleCommandsiRSt6vectorISt10unique_ptrI12ActiveObjectSt14default_deleteIS3_EESaIS6_EERS2_I5GraphS4_ISA_EER10MSTFactoryRS2_I4TreeS4_ISG_EEEUlvE5_E9_M_createIRSK_EEvRSt9_Any_dataOT_St17integral_constantIbLb0EE
FN:158,_ZNSt14_Function_base13_Base_managerIZZZZZ14handleCommandsiRSt6vectorISt10unique_ptrI12ActiveObjectSt14default_deleteIS3_EESaIS6_EERS2_I5GraphS4_ISA_EER10MSTFactoryRS2_I4TreeS4_ISG_EEENKUlvE3_clEvENKUlvE_clEvENKUlvE_clEvENKUlvE_clEvEUlvE_E9_M_createIRKSO_EEvRSt9_Any_dataOT_St17integral_constantIbLb0EE
FN:158,_ZNSt14_Function_base13_Base_managerIZ14handleCommandsiRSt6vectorISt10unique_ptrI12ActiveObjectSt14default_deleteIS3_EESaIS6_EERS2_I5GraphS4_ISA_EER10MSTFactoryRS2_I4TreeS4_ISG_EEEUlvE9_E9_M_createIRKSK_EEvRSt9_Any_dataOT_St17integral_constantIbLb0EE
FN:173,_ZNSt14_Function_base13_Base_managerIZ4mainEUliE_E10_M_destroyERSt9_Any_dataSt17integral_constantIbLb0EE
FN:173,_ZNSt14_Function_base13_Base_managerIZ14handleCommandsiRSt6vectorISt10unique_ptrI12ActiveObjectSt14default_deleteIS3_EESaIS6_EERS2_I5GraphS4_ISA_EER10MSTFactoryRS2_I4TreeS4_ISG_EEEUlvE10_E10_M_destroyERSt9_Any_dataSt17integral_constantIbLb0EE
FN:173,_ZNSt14_Function_base13_Base_managerIZ14handleCommandsiRSt6vectorISt10unique_ptrI12ActiveObjectSt14default_deleteIS3_EESaIS6_EERS2_I5GraphS4_ISA_EER10MSTFactoryRS2_I4TreeS4_ISG_EEEUlvE0_E10_M_destroyERSt9_Any_dataSt17integral_constantIbLb0EE
FN:173,_ZNSt14_Function_base13_Base_managerIZZZZ14handleCommandsiRSt6vectorISt10unique_ptrI12ActiveObjectSt14default_deleteIS3_EESaIS6_EERS2_I5GraphS4_ISA_EER10MSTFactoryRS2_I4TreeS4_ISG_EEENKUlvE3_clEvENKUlvE_clEvENKUlvE_clEvEUlvE_E10_M_destroyERSt9_Any_dataSt17integral_constantIbLb0EE
FN:173,_ZNSt14_Function_base13_Base_managerIZ14handleCommandsiRSt6vectorISt10unique_ptrI12ActiveObjectSt14default_deleteIS3_EESaIS6_EERS2_I5GraphS4_ISA_EER10MSTFactoryRS2_I4TreeS4_ISG_EEEUlvE_E10_M_destroyERSt9_Any_dataSt17integral_constantIbLb0EE
FN:173,_ZNSt14_Function_base13_Base_managerIZ14handleCommandsiRSt6vectorISt10unique_ptrI12ActiveObjectSt14default_deleteIS3_EESaIS6_EERS2_I5GraphS4_ISA_EER10MSTFactoryRS2_I4TreeS4_ISG_EEEUlvE3_E10_M_destroyERSt9_Any_dataSt17integral_constantIbLb0EE
FN:173,_ZNSt14_Function_base13_Base_managerISt5_BindIFM12LFThreadPoolFviEPS2_mEEE10_M_destroyERSt9_Any_dataSt17integral_constantIbLb0EE
FN:173,_ZNSt14_Function_base13_Base_managerIZ14handleCommandsiRSt6vectorISt10unique_ptrI12ActiveObjectSt14default_deleteIS3_EESaIS6_EERS2_I5GraphS4_ISA_EER10MSTFactoryRS2_I4TreeS4_ISG_EEEUlvE4_E10_M_destroyERSt9_Any_dataSt17integral_constantIbLb0EE
FN:173,_ZNSt14_Function_base13_Base_managerIZZZ14handleCommandsiRSt6vectorISt10unique_ptrI12ActiveObjectSt14default_deleteIS3_EESaIS6_EERS2_I5GraphS4_ISA_EER10MSTFactoryRS2_I4TreeS4_ISG_EEENKUlvE3_clEvENKUlvE_clEvEUlvE_E10_M_destroyERSt9_Any_dataSt17integral_constantIbLb0EE
FN:173,_ZNSt14_Function_base13_Base_managerIZZZZZZ14handleCommandsiRSt6vectorISt10unique_ptrI12ActiveObjectSt14default_deleteIS3_EESaIS6_EERS2_I5GraphS4_ISA_EER10MSTFactoryRS2_I4TreeS4_ISG_EEENKUlvE3_clEvENKUlvE_clEvENKUlvE_clEvENKUlvE_clEvENKUlvE_clEvEUlvE_E10_M_destroyERSt9_Any_dataSt17integral_constantIbLb0EE
FN:173,_ZNSt14_Function_base13_Base_managerIZZZZZ14handleCommandsiRSt6vectorISt10unique_ptrI12ActiveObjectSt14default_deleteIS3_EESaIS6_EERS2_I5GraphS4_ISA_EER10MSTFactoryRS2_I4TreeS4_ISG_EEENKUlvE3_clEvENKUlvE_clEvENKUlvE_clEvENKUlvE_clEvEUlvE_E10_M_destroyERSt9_Any_dataSt17integral_constantIbLb0EE
FN:173,_ZNSt14_Function_base13_Base_managerIZ14handleCommandsiRSt6vectorISt10unique_ptrI12ActiveObjectSt14default_deleteIS3_EESaIS6_EERS2_I5GraphS4_ISA_EER10MSTFactoryRS2_I4TreeS4_ISG_EEEUlvE9_E10_M_destroyERSt9_Any_dataSt17integral_constantIbLb0EE
FN:173,_ZNSt14_Function_base13_Base_managerIZ14handleCommandsiRSt6vectorISt10unique_ptrI12ActiveObjectSt14default_deleteIS3_EESaIS6_EERS2_I5GraphS4_ISA_EER10MSTFactoryRS2_I4TreeS4_ISG_EEEUlvE2_E10_M_destroyERSt9_Any_dataSt17integral_constantIbLb0EE
FN:173,_ZNSt14_Function_base13_Base_managerIZ14handleCommandsiRSt6vectorISt10unique_ptrI12ActiveObjectSt14default_deleteIS3_EESaIS6_EERS2_I5GraphS4_ISA_EER10MSTFactoryRS2_I4TreeS4_ISG_EEEUlvE1_E10_M_destroyERSt9_Any_dataSt17integral_constantIbLb0EE
FN:173,_ZNSt14_Function_base13_Base_managerIZ14handleCommandsiRSt6vectorISt10unique_ptrI12ActiveObjectSt14default_deleteIS3_EESaIS6_EERS2_I5GraphS4_ISA_EER10MSTFactoryRS2_I4TreeS4_ISG_EEEUlvE8_E10_M_destroyERSt9_Any_dataSt17integral_constantIbLb0EE
FN:173,_ZNSt14_Function_base13_Base_managerIZ14handleCommandsiRSt6vectorISt10unique_ptrI12ActiveObjectSt14default_deleteIS3_EESaIS6_EERS2_I5GraphS4_ISA_EER10MSTFactoryRS2_I4TreeS4_ISG_EEEUlvE5_E10_M_destroyERSt9_Any_dataSt17integral_constantIbLb0EE
FN:173,_ZNSt14_Function_base13_Base_managerIZ4mainEUlvE0_E10_M_destroyERSt9_Any_dataSt17integral_constantIbLb0EE
FN:173,_ZNSt14_Function_base13_Base_managerIZ14handleCommandsiRSt6vectorISt10unique_ptrI12ActiveObjectSt14default_deleteIS3_EESaIS6_EERS2_I5GraphS4_ISA_EER10MSTFactoryRS2_I4TreeS4_ISG_EEEUlvE6_E10_M_destroyERSt9_Any_dataSt17integral_constantIbLb0EE
FN:173,_ZNSt14_Function_base13_Base_managerIZ16acceptConnectioniRSt10unique_ptrI5GraphSt14default_deleteIS2_EER10MSTFactoryRS1_I4TreeS3_IS9_EERS1_I12LFThreadPoolS3_ISD_EEEUlvE_E10_M_destroyERSt9_Any_dataSt17integral_constantIbLb0EE
FN:173,_ZNSt14_Function_base13_Base_managerIZZ14handleCommandsiRSt6vectorISt10unique_ptrI12ActiveObjectSt14default_deleteIS3_EESaIS6_EERS2_I5GraphS4_ISA_EER10MSTFactoryRS2_I4TreeS4_ISG_EEENKUlvE3_clEvEUlvE_E10_M_destroyERSt9_Any_dataSt17integral_constantIbLb0EE
FN:180,_ZNSt14_Function_base13_Base_managerIZZZZZ14handleCommandsiRSt6vectorISt10unique_ptrI12ActiveObjectSt14default_deleteIS3_EESaIS6_EERS2_I5GraphS4_ISA_EER10MSTFactoryRS2_I4TreeS4_ISG_EEENKUlvE3_clEvENKUlvE_clEvENKUlvE_clEvENKUlvE_clEvEUlvE_E10_M_managerERSt9_Any_dataRKSQ_St18_Manager_operation
FN:180,_ZNSt14_Function_base13_Base_managerIZ14handleCommandsiRSt6vectorISt10unique_ptrI12ActiveObjectSt14default_deleteIS3_EESaIS6_EERS2_I5GraphS4_ISA_EER10MSTFactoryRS2_I4TreeS4_ISG_EEEUlvE_E10_M_managerERSt9_Any_dataRKSM_St18_Manager_operation
FN:180,_ZNSt14_Function_base13_Base_managerIZZ14handleCommandsiRSt6vectorISt10unique_ptrI12ActiveObjectSt14default_deleteIS3_EESaIS6_EERS2_I5GraphS4_ISA_EER10MSTFactoryRS2_I4TreeS4_ISG_EEENKUlvE3_clEvEUlvE_E10_M_managerERSt9_Any_dataRKSN_St18_Manager_operation
FN:180,_ZNSt14_Function_base13_Base_managerIZ14handleCommandsiRSt6vectorISt10unique_ptrI12ActiveObjectSt14default_deleteIS3_EESaIS6_EERS2_I5GraphS4_ISA_EER10MSTFactoryRS2_I4TreeS4_ISG_EEEUlvE3_E10_M_managerERSt9_Any_dataRKSM_St18_Manager_operation
FN:180,_ZNSt14_Function_base13_Base_managerIZZZZZZ14handleCommandsiRSt6vectorISt10unique_ptrI12ActiveObjectSt14default_deleteIS3_EESaIS6_EERS2_I5GraphS4_ISA_EER10MSTFactoryRS2_I4TreeS4_ISG_EEENKUlvE3_clEvENKUlvE_clEvENKUlvE_clEvENKUlvE_clEvENKUlvE_clEvEUlvE_E10_M_managerERSt9_Any_dataRKSR_St18_Manager_operation
FN:180,_ZNSt14_Function_base13_Base_managerIZ14handleCommandsiRSt6vectorISt10unique_ptrI12ActiveObjectSt14default_deleteIS3_EESaIS6_EERS2_I5GraphS4_ISA_EER10MSTFactoryRS2_I4TreeS4_ISG_EEEUlvE9_E10_M_managerERSt9_Any_dataRKSM_St18_Manager_operation
FN:180,_ZNSt14_Function_base13_Base_managerIZ14handleCommandsiRSt6vectorISt10unique_ptrI12ActiveObjectSt14default_deleteIS3_EESaIS6_EERS2_I5GraphS4_ISA_EER10MSTFactoryRS2_I4TreeS4_ISG_EEEUlvE6_E10_M_managerERSt9_Any_dataRKSM_St18_Manager_operation
FN:180,_ZNSt14_Function_base13_Base_managerIZ14handleCommandsiRSt6vectorISt10unique_ptrI12ActiveObjectSt14default_deleteIS3_EESaIS6_EERS2_I5GraphS4_ISA_EER10MSTFactoryRS2_I4TreeS4_ISG_EEEUlvE10_E10_M_managerERSt9_Any_dataRKSM_St18_Manager_operation
FN:180,_ZNSt14_Function_base13_Base_managerIZ14handleCommandsiRSt6vectorISt10unique_ptrI12ActiveObjectSt14default_deleteIS3_EESaIS6_EERS2_I5GraphS4_ISA_EER10MSTFactoryRS2_I4TreeS4_ISG_EEEUlvE4_E10_M_managerERSt9_Any_dataRKSM_St18_Manager_operation
FN:180,_ZNSt14_Function_base13_Base_managerIZ14handleCommandsiRSt6vectorISt10unique_ptrI12ActiveObjectSt14default_deleteIS3_EESaIS6_EERS2_I5GraphS4_ISA_EER10MSTFactoryRS2_I4TreeS4_ISG_EEEUlvE8_E10_M_managerERSt9_Any_dataRKSM_St18_Manager_operation
FN:180,_ZNSt14_Function_base13_Base_managerIZZZZ14handleCommandsiRSt6vectorISt10unique_ptrI12ActiveObjectSt14default_deleteIS3_EESaIS6_EERS2_I5GraphS4_ISA_EER10MSTFactoryRS2_I4TreeS4_ISG_EEENKUlvE3_clEvENKUlvE_clEvENKUlvE_clEvEUlvE_E10_M_managerERSt9_Any_dataRKSP_St18_Manager_operation
FN:180,_ZNSt14_Function_base13_Base_managerIZ16acceptConnectioniRSt10unique_ptrI5GraphSt14default_deleteIS2_EER10MSTFactoryRS1_I4TreeS3_IS9_EERS1_I12LFThreadPoolS3_ISD_EEEUlvE_E10_M_managerERSt9_Any_dataRKSJ_St18_Manager_operation
FN:180,_ZNSt14_Function_base13_Base_managerIZ14handleCommandsiRSt6vectorISt10unique_ptrI12ActiveObjectSt14default_deleteIS3_EESaIS6_EERS2_I5GraphS4_ISA_EER10MSTFactoryRS2_I4TreeS4_ISG_EEEUlvE1_E10_M_managerERSt9_Any_dataRKSM_St18_Manager_operation
FN:180,_ZNSt14_Function_base13_Base_managerISt5_BindIFM12LFThreadPoolFviEPS2_mEEE10_M_managerERSt9_Any_dataRKS9_St18_Manager_operation
FN:180,_ZNSt14_Function_base13_Base_managerIZ4mainEUlvE0_E10_M_managerERSt9_Any_dataRKS3_St18_Manager_operation
FN:180,_ZNSt14_Function_base13_Base_managerIZ4mainEUliE_E10_M_managerERSt9_Any_dataRKS3_St18_Manager_operation
FN:180,_ZNSt14_Function_base13_Base_managerIZ14handleCommandsiRSt6vectorISt10unique_ptrI12ActiveObjectSt14default_deleteIS3_EESaIS6_EERS2_I5GraphS4_ISA_EER10MSTFactoryRS2_I4TreeS4_ISG_EEEUlvE2_E10_M_managerERSt9_Any_dataRKSM_St18_Manager_operation
FN:180,_ZNSt14_Function_base13_Base_managerIZZZ14handleCommandsiRSt6vectorISt10unique_ptrI12ActiveObjectSt14default_deleteIS3_EESaIS6_EERS2_I5GraphS4_ISA_EER10MSTFactoryRS2_I4TreeS4_ISG_EEENKUlvE3_clEvENKUlvE_clEvEUlvE_E10_M_managerERSt9_Any_dataRKSO_St18_Manager_operation
FN:180,_ZNSt14_Function_base13_Base_managerIZ14handleCommandsiRSt6vectorISt10unique_ptrI12ActiveObjectSt14default_deleteIS3_EESaIS6_EERS2_I5GraphS4_ISA_EER10MSTFactoryRS2_I4TreeS4_ISG_EEEUlvE5_E10_M_managerERSt9_Any_dataRKSM_St18_Manager_operation
FN:180,_ZNSt14_Function_base13_Base_managerIZ14handleCommandsiRSt6vectorISt10unique_ptrI12ActiveObjectSt14default_deleteIS3_EESaIS6_EERS2_I5GraphS4_ISA_EER10MSTFactoryRS2_I4TreeS4_ISG_EEEUlvE0_E10_M_managerERSt9_Any_dataRKSM_St18_Manager_operation
FN:211,_ZNSt14_Function_base13_Base_managerIZ14handleCommandsiRSt6vectorISt10unique_ptrI12ActiveObjectSt14default_deleteIS3_EESaIS6_EERS2_I5GraphS4_ISA_EER10MSTFactoryRS2_I4TreeS4_ISG_EEEUlvE5_E15_M_init_functorIRKSK_EEvRSt9_Any_dataOT_
FN:211,_ZNSt14_Function_base13_Base_managerIZ16acceptConnectioniRSt10unique_ptrI5GraphSt14default_deleteIS2_EER10MSTFactoryRS1_I4TreeS3_IS9_EERS1_I12LFThreadPoolS3_ISD_EEEUlvE_E15_M_init_functorIRKSH_EEvRSt9_Any_dataOT_
FN:211,_ZNSt14_Function_base13_Base_managerISt5_BindIFM12LFThreadPoolFviEPS2_mEEE15_M_init_functorIRKS7_EEvRSt9_Any_dataOT_
FN:211,_ZNSt14_Function_base13_Base_managerIZZZZZ14handleCommandsiRSt6vectorISt10unique_ptrI12ActiveObjectSt14default_deleteIS3_EESaIS6_EERS2_I5GraphS4_ISA_EER10MSTFactoryRS2_I4TreeS4_ISG_EEENKUlvE3_clEvENKUlvE_clEvENKUlvE_clEvENKUlvE_clEvEUlvE_E15_M_init_functorIRKSO_EEvRSt9_Any_dataOT_
FN:211,_ZNSt14_Function_base13_Base_managerIZ4mainEUliE_E15_M_init_functorIRKS1_EEvRSt9_Any_dataOT_
FN:211,_ZNSt14_Function_base13_Base_managerIZ4mainEUlvE0_E15_M_init_functorIS1_EEvRSt9_Any_dataOT_
FN:211,_ZNSt14_Function_base13_Base_managerIZZZZZZ14handleCommandsiRSt6vectorISt10unique_ptrI12ActiveObjectSt14default_deleteIS3_EESaIS6_EERS2_I5GraphS4_ISA_EER10MSTFactoryRS2_I4TreeS4_ISG_EEENKUlvE3_clEvENKUlvE_clEvENKUlvE_clEvENKUlvE_clEvENKUlvE_clEvEUlvE_E15_M_init_functorIRSP_EEvRSt9_Any_dataOT_
FN:211,_ZNSt14_Function_base13_Base_managerIZ14handleCommandsiRSt6vectorISt10unique_ptrI12ActiveObjectSt14default_deleteIS3_EESaIS6_EERS2_I5GraphS4_ISA_EER10MSTFactoryRS2_I4TreeS4_ISG_EEEUlvE9_E15_M_init_functorIRSK_EEvRSt9_Any_dataOT_
FN:211,_ZNSt14_Function_base13_Base_managerIZZZZ14handleCommandsiRSt6vectorISt10unique_ptrI12ActiveObjectSt14default_deleteIS3_EESaIS6_EERS2_I5GraphS4_ISA_EER10MSTFactoryRS2_I4TreeS4_ISG_EEENKUlvE3_clEvENKUlvE_clEvENKUlvE_clEvEUlvE_E15_M_init_functorIRSN_EEvRSt9_Any_dataOT_
FN:211,_ZNSt14_Function_base13_Base_managerIZZ14handleCommandsiRSt6vectorISt10unique_ptrI12ActiveObjectSt14default_deleteIS3_EESaIS6_EERS2_I5GraphS4_ISA_EER10MSTFactoryRS2_I4TreeS4_ISG_EEENKUlvE3_clEvEUlvE_E15_M_init_functorIRSL_EEvRSt9_Any_dataOT_
FN:211,_ZNSt14_Function_base13_Base_managerIZ14handleCommandsiRSt6vectorISt10unique_ptrI12ActiveObjectSt14default_deleteIS3_EESaIS6_EERS2_I5GraphS4_ISA_EER10MSTFactoryRS2_I4TreeS4_ISG_EEEUlvE8_E15_M_init_functorIRKSK_EEvRSt9_Any_dataOT_
FN:211,_ZNSt14_Function_base13_Base_managerIZ14handleCommandsiRSt6vectorISt10unique_ptrI12ActiveObjectSt14default_deleteIS3_EESaIS6_EERS2_I5GraphS4_ISA_EER10MSTFactoryRS2_I4TreeS4_ISG_EEEUlvE2_E15_M_init_functorIRKSK_EEvRSt9_Any_dataOT_
FN:211,_ZNSt14_Function_base13_Base_managerIZZZ14handleCommandsiRSt6vectorISt10unique_ptrI12ActiveObjectSt14default_deleteIS3_EESaIS6_EERS2_I5GraphS4_ISA_EER10MSTFactoryRS2_I4TreeS4_ISG_EEENKUlvE3_clEvENKUlvE_clEvEUlvE_E15_M_init_functorIRKSM_EEvRSt9_Any_dataOT_
FN:211,_ZNSt14_Function_base13_Base_managerIZ4mainEUlvE0_E15_M_init_functorIRKS1_EEvRSt9_Any_dataOT_
FN:211,_ZNSt14_Function_base13_Base_managerIZZZZZZ14handleCommandsiRSt6vectorISt10unique_ptrI12ActiveObjectSt14default_deleteIS3_EESaIS6_EERS2_I5GraphS4_ISA_EER10MSTFactoryRS2_I4TreeS4_ISG_EEENKUlvE3_clEvENKUlvE_clEvENKUlvE_clEvENKUlvE_clEvENKUlvE_clEvEUlvE_E15_M_init_functorIRKSP_EEvRSt9_Any_dataOT_
FN:211,_ZNSt14_Function_base13_Base_managerIZZZ14handleCommandsiRSt6vectorISt10unique_ptrI12ActiveObjectSt14default_deleteIS3_EESaIS6_EERS2_I5GraphS4_ISA_EER10MSTFactoryRS2_I4TreeS4_ISG_EEENKUlvE3_clEvENKUlvE_clEvEUlvE_E15_M_init_functorIRSM_EEvRSt9_Any_dataOT_
FN:211,_ZNSt14_Function_base13_Base_managerIZ14handleCommandsiRSt6vectorISt10unique_ptrI12ActiveObjectSt14default_deleteIS3_EESaIS6_EERS2_I5GraphS4_ISA_EER10MSTFactoryRS2_I4TreeS4_ISG_EEEUlvE9_E15_M_init_functorIRKSK_EEvRSt9_Any_dataOT_
FN:211,_ZNSt14_Function_base13_Base_managerIZ14handleCommandsiRSt6vectorISt10unique_ptrI12ActiveObjectSt14default_deleteIS3_EESaIS6_EERS2_I5GraphS4_ISA_EER10MSTFactoryRS2_I4TreeS4_ISG_EEEUlvE6_E15_M_init_functorIRKSK_EEvRSt9_Any_dataOT_
FN:211,_ZNSt14_Function_base13_Base_managerIZ14handleCommandsiRSt6vectorISt10unique_ptrI12ActiveObjectSt14default_deleteIS3_EESaIS6_EERS2_I5GraphS4_ISA_EER10MSTFactoryRS2_I4TreeS4_ISG_EEEUlvE4_E15_M_init_functorIRKSK_EEvRSt9_Any_dataOT_
FN:211,_ZNSt14_Function_base13_Base_managerIZ14handleCommandsiRSt6vectorISt10unique_ptrI12ActiveObjectSt14default_deleteIS3_EESaIS6_EERS2_I5GraphS4_ISA_EER10MSTFactoryRS2_I4TreeS4_ISG_EEEUlvE8_E15_M_init_functorIRSK_EEvRSt9_Any_dataOT_
FN:211,_ZNSt14_Function_base13_Base_managerIZ14handleCommandsiRSt6vectorISt10unique_ptrI12ActiveObjectSt14default_deleteIS3_EESaIS6_EERS2_I5GraphS4_ISA_EER10MSTFactoryRS2_I4TreeS4_ISG_EEEUlvE3_E15_M_init_functorIRKSK_EEvRSt9_Any_dataOT_
FN:211,_ZNSt14_Function_base13_Base_managerIZ14handleCommandsiRSt6vectorISt10unique_ptrI12ActiveObjectSt14default_deleteIS3_EESaIS6_EERS2_I5GraphS4_ISA_EER10MSTFactoryRS2_I4TreeS4_ISG_EEEUlvE6_E15_M_init_functorIRSK_EEvRSt9_Any_dataOT_
FN:211,_ZNSt14_Function_base13_Base_managerIZ14handleCommandsiRSt6vectorISt10unique_ptrI12ActiveObjectSt14default_deleteIS3_EESaIS6_EERS2_I5GraphS4_ISA_EER10MSTFactoryRS2_I4TreeS4_ISG_EEEUlvE4_E15_M_init_functorIRSK_EEvRSt9_Any_dataOT_
FN:211,_ZNSt14_Function_base13_Base_managerIZ14handleCommandsiRSt6vectorISt10unique_ptrI12ActiveObjectSt14default_deleteIS3_EESaIS6_EERS2_I5GraphS4_ISA_EER10MSTFactoryRS2_I4TreeS4_ISG_EEEUlvE_E15_M_init_functorIRKSK_EEvRSt9_Any_dataOT_
FN:211,_ZNSt14_Function_base13_Base_managerIZ14handleCommandsiRSt6vectorISt10unique_ptrI12ActiveObjectSt14default_deleteIS3_EESaIS6_EERS2_I5GraphS4_ISA_EER10MSTFactoryRS2_I4TreeS4_ISG_EEEUlvE1_E15_M_init_functorIRSK_EEvRSt9_Any_dataOT_
FN:211,_ZNSt14_Function_base13_Base_managerISt5_BindIFM12LFThreadPoolFviEPS2_mEEE15_M_init_functorIS7_EEvRSt9_Any_dataOT_
FN:211,_ZNSt14_Function_base13_Base_managerIZ14handleCommandsiRSt6vectorISt10unique_ptrI12ActiveObjectSt14default_deleteIS3_EESaIS6_EERS2_I5GraphS4_ISA_EER10MSTFactoryRS2_I4TreeS4_ISG_EEEUlvE3_E15_M_init_functorIRSK_EEvRSt9_Any_dataOT_
FN:211,_ZNSt14_Function_base13_Base_managerIZ14handleCommandsiRSt6vectorISt10unique_ptrI12ActiveObjectSt14default_deleteIS3_EESaIS6_EERS2_I5GraphS4_ISA_EER10MSTFactoryRS2_I4TreeS4_ISG_EEEUlvE10_E15_M_init_functorIRKSK_EEvRSt9_Any_dataOT_
FN:211,_ZNSt14_Function_base13_Base_managerIZ14handleCommandsiRSt6vectorISt10unique_ptrI12ActiveObjectSt14default_deleteIS3_EESaIS6_EERS2_I5GraphS4_ISA_EER10MSTFactoryRS2_I4TreeS4_ISG_EEEUlvE0_E15_M_init_functorIRKSK_EEvRSt9_Any_dataOT_
FN:211,_ZNSt14_Function_base13_Base_managerIZZ14handleCommandsiRSt6vectorISt10unique_ptrI12ActiveObjectSt14default_deleteIS3_EESaIS6_EERS2_I5GraphS4_ISA_EER10MSTFactoryRS2_I4TreeS4_ISG_EEENKUlvE3_clEvEUlvE_E15_M_init_functorIRKSL_EEvRSt9_Any_dataOT_
FN:211,_ZNSt14_Function_base13_Base_managerIZ14handleCommandsiRSt6vectorISt10unique_ptrI12ActiveObjectSt14default_deleteIS3_EESaIS6_EERS2_I5GraphS4_ISA_EER10MSTFactoryRS2_I4TreeS4_ISG_EEEUlvE2_E15_M_init_functorIRSK_EEvRSt9_Any_dataOT_
FN:211,_ZNSt14_Function_base13_Base_managerIZZZZZ14handleCommandsiRSt6vectorISt10unique_ptrI12ActiveObjectSt14default_deleteIS3_EESaIS6_EERS2_I5GraphS4_ISA_EER10MSTFactoryRS2_I4TreeS4_ISG_EEENKUlvE3_clEvENKUlvE_clEvENKUlvE_clEvENKUlvE_clEvEUlvE_E15_M_init_functorIRSO_EEvRSt9_Any_dataOT_
FN:211,_ZNSt14_Function_base13_Base_managerIZ14handleCommandsiRSt6vectorISt10unique_ptrI12ActiveObjectSt14default_deleteIS3_EESaIS6_EERS2_I5GraphS4_ISA_EER10MSTFactoryRS2_I4TreeS4_ISG_EEEUlvE_E15_M_init_functorIRSK_EEvRSt9_Any_dataOT_
FN:211,_ZNSt14_Function_base13_Base_managerIZ14handleCommandsiRSt6vectorISt10unique_ptrI12ActiveObjectSt14default_deleteIS3_EESaIS6_EERS2_I5GraphS4_ISA_EER10MSTFactoryRS2_I4TreeS4_ISG_EEEUlvE0_E15_M_init_functorIRSK_EEvRSt9_Any_dataOT_
FN:211,_ZNSt14_Function_base13_Base_managerIZ14handleCommandsiRSt6vectorISt10unique_ptrI12ActiveObjectSt14default_deleteIS3_EESaIS6_EERS2_I5GraphS4_ISA_EER10MSTFactoryRS2_I4TreeS4_ISG_EEEUlvE10_E15_M_init_functorIRSK_EEvRSt9_Any_dataOT_
FN:211,_ZNSt14_Function_base13_Base_managerIZ4mainEUliE_E15_M_init_functorIS1_EEvRSt9_Any_dataOT_
FN:211,_ZNSt14_Function_base13_Base_managerIZ16acceptConnectioniRSt10unique_ptrI5GraphSt14default_deleteIS2_EER10MSTFactoryRS1_I4TreeS3_IS9_EERS1_I12LFThreadPoolS3_ISD_EEEUlvE_E15_M_init_functorISH_EEvRSt9_Any_dataOT_
FN:211,_ZNSt14_Function_base13_Base_managerIZ14handleCommandsiRSt6vectorISt10unique_ptrI12ActiveObjectSt14default_deleteIS3_EESaIS6_EERS2_I5GraphS4_ISA_EER10MSTFactoryRS2_I4TreeS4_ISG_EEEUlvE1_E15_M_init_functorIRKSK_EEvRSt9_Any_dataOT_
FN:211,_ZNSt14_Function_base13_Base_managerIZ14handleCommandsiRSt6vectorISt10unique_ptrI12ActiveObjectSt14default_deleteIS3_EESaIS6_EERS2_I5GraphS4_ISA_EER10MSTFactoryRS2_I4TreeS4_ISG_EEEUlvE5_E15_M_init_functorIRSK_EEvRSt9_Any_dataOT_
FN:211,_ZNSt14_Function_base13_Base_managerIZZZZ14handleCommandsiRSt6vectorISt10unique_ptrI12ActiveObjectSt14default_deleteIS3_EESaIS6_EERS2_I5GraphS4_ISA_EER10MSTFactoryRS2_I4TreeS4_ISG_EEENKUlvE3_clEvENKUlvE_clEvENKUlvE_clEvEUlvE_E15_M_init_functorIRKSN_EEvRSt9_Any_dataOT_
FN:235,_ZNSt14_Function_base13_Base_managerIZ14handleCommandsiRSt6vectorISt10unique_ptrI12ActiveObjectSt14default_deleteIS3_EESaIS6_EERS2_I5GraphS4_ISA_EER10MSTFactoryRS2_I4TreeS4_ISG_EEEUlvE_E21_M_not_empty_functionISK_EEbRKT_
FN:235,_ZNSt14_Function_base13_Base_managerIZ16acceptConnectioniRSt10unique_ptrI5GraphSt14default_deleteIS2_EER10MSTFactoryRS1_I4TreeS3_IS9_EERS1_I12LFThreadPoolS3_ISD_EEEUlvE_E21_M_not_empty_functionISH_EEbRKT_
FN:235,_ZNSt14_Function_base13_Base_managerIZ14handleCommandsiRSt6vectorISt10unique_ptrI12ActiveObjectSt14default_deleteIS3_EESaIS6_EERS2_I5GraphS4_ISA_EER10MSTFactoryRS2_I4TreeS4_ISG_EEEUlvE4_E21_M_not_empty_functionISK_EEbRKT_
FN:235,_ZNSt14_Function_base13_Base_managerIZ4mainEUlvE0_E21_M_not_empty_functionIS1_EEbRKT_
FN:235,_ZNSt14_Function_base13_Base_managerIZ4mainEUliE_E21_M_not_empty_functionIS1_EEbRKT_
FN:235,_ZNSt14_Function_base13_Base_managerISt5_BindIFM12LFThreadPoolFviEPS2_mEEE21_M_not_empty_functionIS7_EEbRKT_
FN:235,_ZNSt14_Function_base13_Base_managerIZZZ14handleCommandsiRSt6vectorISt10unique_ptrI12ActiveObjectSt14default_deleteIS3_EESaIS6_EERS2_I5GraphS4_ISA_EER10MSTFactoryRS2_I4TreeS4_ISG_EEENKUlvE3_clEvENKUlvE_clEvEUlvE_E21_M_not_empty_functionISM_EEbRKT_
FN:235,_ZNSt14_Function_base13_Base_managerIZ14handleCommandsiRSt6vectorISt10unique_ptrI12ActiveObjectSt14default_deleteIS3_EESaIS6_EERS2_I5GraphS4_ISA_EER10MSTFactoryRS2_I4TreeS4_ISG_EEEUlvE6_E21_M_not_empty_functionISK_EEbRKT_
FN:235,_ZNSt14_Function_base13_Base_managerIZ14handleCommandsiRSt6vectorISt10unique_ptrI12ActiveObjectSt14default_deleteIS3_EESaIS6_EERS2_I5GraphS4_ISA_EER10MSTFactoryRS2_I4TreeS4_ISG_EEEUlvE3_E21_M_not_empty_functionISK_EEbRKT_
FN:235,_ZNSt14_Function_base13_Base_managerIZ14handleCommandsiRSt6vectorISt10unique_ptrI12ActiveObjectSt14default_deleteIS3_EESaIS6_EERS2_I5GraphS4_ISA_EER10MSTFactoryRS2_I4TreeS4_ISG_EEEUlvE2_E21_M_not_empty_functionISK_EEbRKT_
FN:235,_ZNSt14_Function_base13_Base_managerIZ14handleCommandsiRSt6vectorISt10unique_ptrI12ActiveObjectSt14default_deleteIS3_EESaIS6_EERS2_I5GraphS4_ISA_EER10MSTFactoryRS2_I4TreeS4_ISG_EEEUlvE8_E21_M_not_empty_functionISK_EEbRKT_
FN:235,_ZNSt14_Function_base13_Base_managerIZ14handleCommandsiRSt6vectorISt10unique_ptrI12ActiveObjectSt14default_deleteIS3_EESaIS6_EERS2_I5GraphS4_ISA_EER10MSTFactoryRS2_I4TreeS4_ISG_EEEUlvE5_E21_M_not_empty_functionISK_EEbRKT_
FN:235,_ZNSt14_Function_base13_Base_managerIZ14handleCommandsiRSt6vectorISt10unique_ptrI12ActiveObjectSt14default_deleteIS3_EESaIS6_EERS2_I5GraphS4_ISA_EER10MSTFactoryRS2_I4TreeS4_ISG_EEEUlvE10_E21_M_not_empty_functionISK_EEbRKT_
FN:235,_ZNSt14_Function_base13_Base_managerIZZ14handleCommandsiRSt6vectorISt10unique_ptrI12ActiveObjectSt14default_deleteIS3_EESaIS6_EERS2_I5GraphS4_ISA_EER10MSTFactoryRS2_I4TreeS4_ISG_EEENKUlvE3_clEvEUlvE_E21_M_not_empty_functionISL_EEbRKT_
FN:235,_ZNSt14_Function_base13_Base_managerIZZZZZZ14handleCommandsiRSt6vectorISt10unique_ptrI12ActiveObjectSt14default_deleteIS3_EESaIS6_EERS2_I5GraphS4_ISA_EER10MSTFactoryRS2_I4TreeS4_ISG_EEENKUlvE3_clEvENKUlvE_clEvENKUlvE_clEvENKUlvE_clEvENKUlvE_clEvEUlvE_E21_M_not_empty_functionISP_EEbRKT_
FN:235,_ZNSt14_Function_base13_Base_managerIZ14handleCommandsiRSt6vectorISt10unique_ptrI12ActiveObjectSt14default_deleteIS3_EESaIS6_EERS2_I5GraphS4_ISA_EER10MSTFactoryRS2_I4TreeS4_ISG_EEEUlvE9_E21_M_not_empty_functionISK_EEbRKT_
FN:235,_ZNSt14_Function_base13_Base_managerIZZZZZ14handleCommandsiRSt6vectorISt10unique_ptrI12ActiveObjectSt14default_deleteIS3_EESaIS6_EERS2_I5GraphS4_ISA_EER10MSTFactoryRS2_I4TreeS4_ISG_EEENKUlvE3_clEvENKUlvE_clEvENKUlvE_clEvENKUlvE_clEvEUlvE_E21_M_not_empty_functionISO_EEbRKT_
FN:235,_ZNSt14_Function_base13_Base_managerIZ14handleCommandsiRSt6vectorISt10unique_ptrI12ActiveObjectSt14default_deleteIS3_EESaIS6_EERS2_I5GraphS4_ISA_EER10MSTFactoryRS2_I4TreeS4_ISG_EEEUlvE1_E21_M_not_empty_functionISK_EEbRKT_
FN:235,_ZNSt14_Function_base13_Base_managerIZZZZ14handleCommandsiRSt6vectorISt10unique_ptrI12ActiveObjectSt14default_deleteIS3_EESaIS6_EERS2_I5GraphS4_ISA_EER10MSTFactoryRS2_I4TreeS4_ISG_EEENKUlvE3_clEvENKUlvE_clEvENKUlvE_clEvEUlvE_E21_M_not_empty_functionISN_EEbRKT_
FN:235,_ZNSt14_Function_base13_Base_managerIZ14handleCommandsiRSt6vectorISt10unique_ptrI12ActiveObjectSt14default_deleteIS3_EESaIS6_EERS2_I5GraphS4_ISA_EER10MSTFactoryRS2_I4TreeS4_ISG_EEEUlvE0_E21_M_not_empty_functionISK_EEbRKT_
FN:239,_ZNSt14_Function_baseC2Ev
FN:241,_ZNSt14_Function_baseD2Ev
FN:247,_ZNKSt14_Function_base8_M_emptyEv
FN:267,_ZNSt17_Function_handlerIFvvEZ14handleCommandsiRSt6vectorISt10unique_ptrI12ActiveObjectSt14default_deleteIS3_EESaIS6_EERS2_I5GraphS4_ISA_EER10MSTFactoryRS2_I4TreeS4_ISG_EEEUlvE9_E10_M_managerERSt9_Any_dataRKSM_St18_Manager_operation
FN:267,_ZNSt17_Function_handlerIFvvEZ14handleCommandsiRSt6vectorISt10unique_ptrI12ActiveObjectSt14default_deleteIS3_EESaIS6_EERS2_I5GraphS4_ISA_EER10MSTFactoryRS2_I4TreeS4_ISG_EEEUlvE0_E10_M_managerERSt9_Any_dataRKSM_St18_Manager_operation
FN:267,_ZNSt17_Function_handlerIFvvEZ14handleCommandsiRSt6vectorISt10unique_ptrI12ActiveObjectSt14default_deleteIS3_EESaIS6_EERS2_I5GraphS4_ISA_EER10MSTFactoryRS2_I4TreeS4_ISG_EEEUlvE_E10_M_managerERSt9_Any_dataRKSM_St18_Manager_operation
FN:267,_ZNSt17_Function_handlerIFvvEZZ14handleCommandsiRSt6vectorISt10unique_ptrI12ActiveObjectSt14default_deleteIS3_EESaIS6_EERS2_I5GraphS4_ISA_EER10MSTFactoryRS2_I4TreeS4_ISG_EEENKUlvE3_clEvEUlvE_E10_M_managerERSt9_Any_dataRKSN_St18_Manager_operation
FN:267,_ZNSt17_Function_handlerIFvvEZ14handleCommandsiRSt6vectorISt10unique_ptrI12ActiveObjectSt14default_deleteIS3_EESaIS6_EERS2_I5GraphS4_ISA_EER10MSTFactoryRS2_I4TreeS4_ISG_EEEUlvE5_E10_M_managerERSt9_Any_dataRKSM_St18_Manager_operation
FN:267,_ZNSt17_Function_handlerIFvvEZ14handleCommandsiRSt6vectorISt10unique_ptrI12ActiveObjectSt14default_deleteIS3_EESaIS6_EERS2_I5GraphS4_ISA_EER10MSTFactoryRS2_I4TreeS4_ISG_EEEUlvE4_E10_M_managerERSt9_Any_dataRKSM_St18_Manager_operation
FN:267,_ZNSt17_Function_handlerIFvvEZZZZZ14handleCommandsiRSt6vectorISt10unique_ptrI12ActiveObjectSt14default_deleteIS3_EESaIS6_EERS2_I5GraphS4_ISA_EER10MSTFactoryRS2_I4TreeS4_ISG_EEENKUlvE3_clEvENKUlvE_clEvENKUlvE_clEvENKUlvE_clEvEUlvE_E10_M_managerERSt9_Any_dataRKSQ_St18_Manager_operation
FN:267,_ZNSt17_Function_handlerIFvvESt5_BindIFM12LFThreadPoolFviEPS2_mEEE10_M_managerERSt9_Any_dataRKS9_St18_Manager_operation
FN:267,_ZNSt17_Function_handlerIFvvEZ16acceptConnectioniRSt10unique_ptrI5GraphSt14default_deleteIS2_EER10MSTFactoryRS1_I4TreeS3_IS9_EERS1_I12LFThreadPoolS3_ISD_EEEUlvE_E10_M_managerERSt9_Any_dataRKSJ_St18_Manager_operation
FN:267,_ZNSt17_Function_handlerIFvvEZ14handleCommandsiRSt6vectorISt10unique_ptrI12ActiveObjectSt14default_deleteIS3_EESaIS6_EERS2_I5GraphS4_ISA_EER10MSTFactoryRS2_I4TreeS4_ISG_EEEUlvE10_E10_M_managerERSt9_Any_dataRKSM_St18_Manager_operation
FN:267,_ZNSt17_Function_handlerIFvvEZ14handleCommandsiRSt6vectorISt10unique_ptrI12ActiveObjectSt14default_deleteIS3_EESaIS6_EERS2_I5GraphS4_ISA_EER10MSTFactoryRS2_I4TreeS4_ISG_EEEUlvE6_E10_M_managerERSt9_Any_dataRKSM_St18_Manager_operation
FN:267,_ZNSt17_Function_handlerIFvvEZ14handleCommandsiRSt6vectorISt10unique_ptrI12ActiveObjectSt14default_deleteIS3_EESaIS6_EERS2_I5GraphS4_ISA_EER10MSTFactoryRS2_I4TreeS4_ISG_EEEUlvE8_E10_M_managerERSt9_Any_dataRKSM_St18_Manager_operation
FN:267,_ZNSt17_Function_handlerIFvvEZ4mainEUlvE0_E10_M_managerERSt9_Any_dataRKS3_St18_Manager_operation
FN:267,_ZNSt17_Function_handlerIFvvEZZZZZZ14handleCommandsiRSt6vectorISt10unique_ptrI12ActiveObjectSt14default_deleteIS3_EESaIS6_EERS2_I5GraphS4_ISA_EER10MSTFactoryRS2_I4TreeS4_ISG_EEENKUlvE3_clEvENKUlvE_clEvENKUlvE_clEvENKUlvE_clEvENKUlvE_clEvEUlvE_E10_M_managerERSt9_Any_dataRKSR_St18_Manager_operation
FN:267,_ZNSt17_Function_handlerIFvvEZZZ14handleCommandsiRSt6vectorISt10unique_ptrI12ActiveObjectSt14default_deleteIS3_EESaIS6_EERS2_I5GraphS4_ISA_EER10MSTFactoryRS2_I4TreeS4_ISG_EEENKUlvE3_clEvENKUlvE_clEvEUlvE_E10_M_managerERSt9_Any_dataRKSO_St18_Manager_operation
FN:267,_ZNSt17_Function_handlerIFviEZ4mainEUliE_E10_M_managerERSt9_Any_dataRKS3_St18_Manager_operation
FN:267,_ZNSt17_Function_handlerIFvvEZZZZ14handleCommandsiRSt6vectorISt10unique_ptrI12ActiveObjectSt14default_deleteIS3_EESaIS6_EERS2_I5GraphS4_ISA_EER10MSTFactoryRS2_I4TreeS4_ISG_EEENKUlvE3_clEvENKUlvE_clEvENKUlvE_clEvEUlvE_E10_M_managerERSt9_Any_dataRKSP_St18_Manager_operation
FN:267,_ZNSt17_Function_handlerIFvvEZ14handleCommandsiRSt6vectorISt10unique_ptrI12ActiveObjectSt14default_deleteIS3_EESaIS6_EERS2_I5GraphS4_ISA_EER10MSTFactoryRS2_I4TreeS4_ISG_EEEUlvE3_E10_M_managerERSt9_Any_dataRKSM_St18_Manager_operation
FN:267,_ZNSt17_Function_handlerIFvvEZ14handleCommandsiRSt6vectorISt10unique_ptrI12ActiveObjectSt14default_deleteIS3_EESaIS6_EERS2_I5GraphS4_ISA_EER10MSTFactoryRS2_I4TreeS4_ISG_EEEUlvE1_E10_M_managerERSt9_Any_dataRKSM_St18_Manager_operation
FN:267,_ZNSt17_Function_handlerIFvvEZ14handleCommandsiRSt6vectorISt10unique_ptrI12ActiveObjectSt14default_deleteIS3_EESaIS6_EERS2_I5GraphS4_ISA_EER10MSTFactoryRS2_I4TreeS4_ISG_EEEUlvE2_E10_M_managerERSt9_Any_dataRKSM_St18_Manager_operation
FN:288,_ZNSt17_Function_handlerIFvvEZ14handleCommandsiRSt6vectorISt10unique_ptrI12ActiveObjectSt14default_deleteIS3_EESaIS6_EERS2_I5GraphS4_ISA_EER10MSTFactoryRS2_I4TreeS4_ISG_EEEUlvE5_E9_M_invokeERKSt9_Any_data
FN:288,_ZNSt17_Function_handlerIFvvEZZZ14handleCommandsiRSt6vectorISt10unique_ptrI12ActiveObjectSt14default_deleteIS3_EESaIS6_EERS2_I5GraphS4_ISA_EER10MSTFactoryRS2_I4TreeS4_ISG_EEENKUlvE3_clEvENKUlvE_clEvEUlvE_E9_M_invokeERKSt9_Any_data
FN:288,_ZNSt17_Function_handlerIFvvEZ14handleCommandsiRSt6vectorISt10unique_ptrI12ActiveObjectSt14default_deleteIS3_EESaIS6_EERS2_I5GraphS4_ISA_EER10MSTFactoryRS2_I4TreeS4_ISG_EEEUlvE4_E9_M_invokeERKSt9_Any_data
FN:288,_ZNSt17_Function_handlerIFvvEZ14handleCommandsiRSt6vectorISt10unique_ptrI12ActiveObjectSt14default_deleteIS3_EESaIS6_EERS2_I5GraphS4_ISA_EER10MSTFactoryRS2_I4TreeS4_ISG_EEEUlvE6_E9_M_invokeERKSt9_Any_data
FN:288,_ZNSt17_Function_handlerIFvvEZ14handleCommandsiRSt6vectorISt10unique_ptrI12ActiveObjectSt14default_deleteIS3_EESaIS6_EERS2_I5GraphS4_ISA_EER10MSTFactoryRS2_I4TreeS4_ISG_EEEUlvE_E9_M_invokeERKSt9_Any_data
FN:288,_ZNSt17_Function_handlerIFvvEZ14handleCommandsiRSt6vectorISt10unique_ptrI12ActiveObjectSt14default_deleteIS3_EESaIS6_EERS2_I5GraphS4_ISA_EER10MSTFactoryRS2_I4TreeS4_ISG_EEEUlvE9_E9_M_invokeERKSt9_Any_data
FN:288,_ZNSt17_Function_handlerIFvvEZZ14handleCommandsiRSt6vectorISt10unique_ptrI12ActiveObjectSt14default_deleteIS3_EESaIS6_EERS2_I5GraphS4_ISA_EER10MSTFactoryRS2_I4TreeS4_ISG_EEENKUlvE3_clEvEUlvE_E9_M_invokeERKSt9_Any_data
FN:288,_ZNSt17_Function_handlerIFvvEZZZZZ14handleCommandsiRSt6vectorISt10unique_ptrI12ActiveObjectSt14default_deleteIS3_EESaIS6_EERS2_I5GraphS4_ISA_EER10MSTFactoryRS2_I4TreeS4_ISG_EEENKUlvE3_clEvENKUlvE_clEvENKUlvE_clEvENKUlvE_clEvEUlvE_E9_M_invokeERKSt9_Any_data
FN:288,_ZNSt17_Function_handlerIFvvEZ4mainEUlvE0_E9_M_invokeERKSt9_Any_data
FN:288,_ZNSt17_Function_handlerIFvvEZ16acceptConnectioniRSt10unique_ptrI5GraphSt14default_deleteIS2_EER10MSTFactoryRS1_I4TreeS3_IS9_EERS1_I12LFThreadPoolS3_ISD_EEEUlvE_E9_M_invokeERKSt9_Any_data
FN:288,_ZNSt17_Function_handlerIFvvESt5_BindIFM12LFThreadPoolFviEPS2_mEEE9_M_invokeERKSt9_Any_data
FN:288,_ZNSt17_Function_handlerIFvvEZ14handleCommandsiRSt6vectorISt10unique_ptrI12ActiveObjectSt14default_deleteIS3_EESaIS6_EERS2_I5GraphS4_ISA_EER10MSTFactoryRS2_I4TreeS4_ISG_EEEUlvE10_E9_M_invokeERKSt9_Any_data
FN:288,_ZNSt17_Function_handlerIFvvEZ14handleCommandsiRSt6vectorISt10unique_ptrI12ActiveObjectSt14default_deleteIS3_EESaIS6_EERS2_I5GraphS4_ISA_EER10MSTFactoryRS2_I4TreeS4_ISG_EEEUlvE3_E9_M_invokeERKSt9_Any_data
FN:288,_ZNSt17_Function_handlerIFviEZ4mainEUliE_E9_M_invokeERKSt9_Any_dataOi
FN:288,_ZNSt17_Function_handlerIFvvEZZZZZZ14handleCommandsiRSt6vectorISt10unique_ptrI12ActiveObjectSt14default_deleteIS3_EESaIS6_EERS2_I5GraphS4_ISA_EER10MSTFactoryRS2_I4TreeS4_ISG_EEENKUlvE3_clEvENKUlvE_clEvENKUlvE_clEvENKUlvE_clEvENKUlvE_clEvEUlvE_E9_M_invokeERKSt9_Any_data
FN:288,_ZNSt17_Function_handlerIFvvEZ14handleCommandsiRSt6vectorISt10unique_ptrI12ActiveObjectSt14default_deleteIS3_EESaIS6_EERS2_I5GraphS4_ISA_EER10MSTFactoryRS2_I4TreeS4_ISG_EEEUlvE0_E9_M_invokeERKSt9_Any_data
FN:288,_ZNSt17_Function_handlerIFvvEZZZZ14handleCommandsiRSt6vectorISt10unique_ptrI12ActiveObjectSt14default_deleteIS3_EESaIS6_EERS2_I5GraphS4_ISA_EER10MSTFactoryRS2_I4TreeS4_ISG_EEENKUlvE3_clEvENKUlvE_clEvENKUlvE_clEvEUlvE_E9_M_invokeERKSt9_Any_data
FN:288,_ZNSt17_Function_handlerIFvvEZ14handleCommandsiRSt6vectorISt10unique_ptrI12ActiveObjectSt14default_deleteIS3_EESaIS6_EERS2_I5GraphS4_ISA_EER10MSTFactoryRS2_I4TreeS4_ISG_EEEUlvE1_E9_M_invokeERKSt9_Any_data
FN:288,_ZNSt17_Function_handlerIFvvEZ14handleCommandsiRSt6vectorISt10unique_ptrI12ActiveObjectSt14default_deleteIS3_EESaIS6_EERS2_I5GraphS4_ISA_EER10MSTFactoryRS2_I4TreeS4_ISG_EEEUlvE2_E9_M_invokeERKSt9_Any_data
FN:288,_ZNSt17_Function_handlerIFvvEZ14handleCommandsiRSt6vectorISt10unique_ptrI12ActiveObjectSt14default_deleteIS3_EESaIS6_EERS2_I5GraphS4_ISA_EER10MSTFactoryRS2_I4TreeS4_ISG_EEEUlvE8_E9_M_invokeERKSt9_Any_data
FN:368,_ZNSt8functionIFvvEEC2Ev
FN:368,_ZNSt8functionIFviEEC2Ev
FN:386,_ZNSt8functionIFvvEEC2ERKS1_
FN:404,_ZNSt8functionIFvvEEC2EOS1_
FN:435,_ZNSt8functionIFvvEEC2IRZ14handleCommandsiRSt6vectorISt10unique_ptrI12ActiveObjectSt14default_deleteIS5_EESaIS8_EERS4_I5GraphS6_ISC_EER10MSTFactoryRS4_I4TreeS6_ISI_EEEUlvE5_vEEOT_
FN:435,_ZNSt8functionIFvvEEC2IRZZZZZZ14handleCommandsiRSt6vectorISt10unique_ptrI12ActiveObjectSt14default_deleteIS5_EESaIS8_EERS4_I5GraphS6_ISC_EER10MSTFactoryRS4_I4TreeS6_ISI_EEENKUlvE3_clEvENKUlvE_clEvENKUlvE_clEvENKUlvE_clEvENKUlvE_clEvEUlvE_vEEOT_
FN:435,_ZNSt8functionIFvvEEC2IRZ14handleCommandsiRSt6vectorISt10unique_ptrI12ActiveObjectSt14default_deleteIS5_EESaIS8_EERS4_I5GraphS6_ISC_EER10MSTFactoryRS4_I4TreeS6_ISI_EEEUlvE2_vEEOT_
FN:435,_ZNSt8functionIFvvEEC2IRZZZZ14handleCommandsiRSt6vectorISt10unique_ptrI12ActiveObjectSt14default_deleteIS5_EESaIS8_EERS4_I5GraphS6_ISC_EER10MSTFactoryRS4_I4TreeS6_ISI_EEENKUlvE3_clEvENKUlvE_clEvENKUlvE_clEvEUlvE_vEEOT_
FN:435,_ZNSt8functionIFvvEEC2IRZ14handleCommandsiRSt6vectorISt10unique_ptrI12ActiveObjectSt14default_deleteIS5_EESaIS8_EERS4_I5GraphS6_ISC_EER10MSTFactoryRS4_I4TreeS6_ISI_EEEUlvE_vEEOT_
FN:435,_ZNSt8functionIFvvEEC2IZ16acceptConnectioniRSt10unique_ptrI5GraphSt14default_deleteIS4_EER10MSTFactoryRS3_I4TreeS5_ISB_EERS3_I12LFThreadPoolS5_ISF_EEEUlvE_vEEOT_
FN:435,_ZNSt8functionIFvvEEC2IRZ14handleCommandsiRSt6vectorISt10unique_ptrI12ActiveObjectSt14default_deleteIS5_EESaIS8_EERS4_I5GraphS6_ISC_EER10MSTFactoryRS4_I4TreeS6_ISI_EEEUlvE4_vEEOT_
FN:435,_ZNSt8functionIFvvEEC2IRZ14handleCommandsiRSt6vectorISt10unique_ptrI12ActiveObjectSt14default_deleteIS5_EESaIS8_EERS4_I5GraphS6_ISC_EER10MSTFactoryRS4_I4TreeS6_ISI_EEEUlvE6_vEEOT_
FN:435,_ZNSt8functionIFvvEEC2IRZ14handleCommandsiRSt6vectorISt10unique_ptrI12ActiveObjectSt14default_deleteIS5_EESaIS8_EERS4_I5GraphS6_ISC_EER10MSTFactoryRS4_I4TreeS6_ISI_EEEUlvE9_vEEOT_
FN:435,_ZNSt8functionIFvvEEC2IRZ14handleCommandsiRSt6vectorISt10unique_ptrI12ActiveObjectSt14default_deleteIS5_EESaIS8_EERS4_I5GraphS6_ISC_EER10MSTFactoryRS4_I4TreeS6_ISI_EEEUlvE3_vEEOT_
FN:435,_ZNSt8functionIFvvEEC2IRZ14handleCommandsiRSt6vectorISt10unique_ptrI12ActiveObjectSt14default_deleteIS5_EESaIS8_EERS4_I5GraphS6_ISC_EER10MSTFactoryRS4_I4TreeS6_ISI_EEEUlvE1_vEEOT_
FN:435,_ZNSt8functionIFvvEEC2IZ4mainEUlvE0_vEEOT_
FN:435,_ZNSt8functionIFvvEEC2IRZZZ14handleCommandsiRSt6vectorISt10unique_ptrI12ActiveObjectSt14default_deleteIS5_EESaIS8_EERS4_I5GraphS6_ISC_EER10MSTFactoryRS4_I4TreeS6_ISI_EEENKUlvE3_clEvENKUlvE_clEvEUlvE_vEEOT_
FN:435,_ZNSt8functionIFvvEEC2ISt5_BindIFM12LFThreadPoolFviEPS4_mEEvEEOT_
FN:435,_ZNSt8functionIFviEEC2IZ4mainEUliE_vEEOT_
FN:435,_ZNSt8functionIFvvEEC2IRZ14handleCommandsiRSt6vectorISt10unique_ptrI12ActiveObjectSt14default_deleteIS5_EESaIS8_EERS4_I5GraphS6_ISC_EER10MSTFactoryRS4_I4TreeS6_ISI_EEEUlvE10_vEEOT_
FN:435,_ZNSt8functionIFvvEEC2IRZ14handleCommandsiRSt6vectorISt10unique_ptrI12ActiveObjectSt14default_deleteIS5_EESaIS8_EERS4_I5GraphS6_ISC_EER10MSTFactoryRS4_I4TreeS6_ISI_EEEUlvE0_vEEOT_
FN:435,_ZNSt8functionIFvvEEC2IRZ14handleCommandsiRSt6vectorISt10unique_ptrI12ActiveObjectSt14default_deleteIS5_EESaIS8_EERS4_I5GraphS6_ISC_EER10MSTFactoryRS4_I4TreeS6_ISI_EEEUlvE8_vEEOT_
FN:435,_ZNSt8functionIFvvEEC2IRZZZZZ14handleCommandsiRSt6vectorISt10unique_ptrI12ActiveObjectSt14default_deleteIS5_EESaIS8_EERS4_I5GraphS6_ISC_EER10MSTFactoryRS4_I4TreeS6_ISI_EEENKUlvE3_clEvENKUlvE_clEvENKUlvE_clEvENKUlvE_clEvEUlvE_vEEOT_
FN:435,_ZNSt8functionIFvvEEC2IRZZ14handleCommandsiRSt6vectorISt10unique_ptrI12ActiveObjectSt14default_deleteIS5_EESaIS8_EERS4_I5GraphS6_ISC_EER10MSTFactoryRS4_I4TreeS6_ISI_EEENKUlvE3_clEvEUlvE_vEEOT_
FN:469,_ZNSt8functionIFvvEEaSERKS1_
FN:487,_ZNSt8functionIFvvEEaSEOS1_
FN:530,_ZNSt8functionIFviEEaSIZ4mainEUliE_EENSt9enable_ifIXsrNS1_9_CallableIT_NS4_IXntsrSt7is_sameINSt9remove_cvINSt16remove_referenceIS6_E4typeEE4typeES1_E5valueESt5decayIS6_EE4type4typeESt15__invoke_resultIRSJ_JiEEEE5valueERS1_E4typeEOS6_
FN:555,_ZNSt8functionIFvvEE4swapERS1_
FN:555,_ZNSt8functionIFviEE4swapERS1_
FN:572,_ZNKSt8functionIFvvEEcvbEv
FN:586,_ZNKSt8functionIFvvEEclEv
FN:586,_ZNKSt8functionIFviEEclEi
FNDA:12,_ZNSt14_Function_base13_Base_managerIZ14handleCommandsiRSt6vectorISt10unique_ptrI12ActiveObjectSt14default_deleteIS3_EESaIS6_EERS2_I5GraphS4_ISA_EER10MSTFactoryRS2_I4TreeS4_ISG_EEEUlvE1_E9_M_createIRSK_EEvRSt9_Any_dataOT_St17integral_constantIbLb0EE
FNDA:16,_ZNSt17_Function_handlerIFvvEZ14handleCommandsiRSt6vectorISt10unique_ptrI12ActiveObjectSt14default_deleteIS3_EESaIS6_EERS2_I5GraphS4_ISA_EER10MSTFactoryRS2_I4TreeS4_ISG_EEEUlvE3_E10_M_managerERSt9_Any_dataRKSM_St18_Manager_operation
FNDA:12,_ZNSt17_Function_handlerIFvvEZ14handleCommandsiRSt6vectorISt10unique_ptrI12ActiveObjectSt14default_deleteIS3_EESaIS6_EERS2_I5GraphS4_ISA_EER10MSTFactoryRS2_I4TreeS4_ISG_EEEUlvE1_E9_M_invokeERKSt9_Any_data
FNDA:8,_ZNSt9_Any_data9_M_accessIPZZ14handleCommandsiRSt6vectorISt10unique_ptrI12ActiveObjectSt14default_deleteIS3_EESaIS6_EERS2_I5GraphS4_ISA_EER10MSTFactoryRS2_I4TreeS4_ISG_EEENKUlvE3_clEvEUlvE_EERT_v
FNDA:4,_ZNSt8functionIFvvEEC2IRZZ14handleCommandsiRSt6vectorISt10unique_ptrI12ActiveObjectSt14default_deleteIS5_EESaIS8_EERS4_I5GraphS6_ISC_EER10MSTFactoryRS4_I4TreeS6_ISI_EEENKUlvE3_clEvEUlvE_vEEOT_
FNDA:4,_ZNKSt9_Any_data9_M_accessIPZ14handleCommandsiRSt6vectorISt10unique_ptrI12ActiveObjectSt14default_deleteIS3_EESaIS6_EERS2_I5GraphS4_ISA_EER10MSTFactoryRS2_I4TreeS4_ISG_EEEUlvE10_EERKT_v
FNDA:4,_ZNSt14_Function_base13_Base_managerIZ14handleCommandsiRSt6vectorISt10unique_ptrI12ActiveObjectSt14default_deleteIS3_EESaIS6_EERS2_I5GraphS4_ISA_EER10MSTFactoryRS2_I4TreeS4_ISG_EEEUlvE9_E21_M_not_empty_functionISK_EEbRKT_
FNDA:6,_ZNSt17_Function_handlerIFvvEZ14handleCommandsiRSt6vectorISt10unique_ptrI12ActiveObjectSt14default_deleteIS3_EESaIS6_EERS2_I5GraphS4_ISA_EER10MSTFactoryRS2_I4TreeS4_ISG_EEEUlvE8_E9_M_invokeERKSt9_Any_data
FNDA:12,_ZNSt17_Function_handlerIFvvEZ14handleCommandsiRSt6vectorISt10unique_ptrI12ActiveObjectSt14default_deleteIS3_EESaIS6_EERS2_I5GraphS4_ISA_EER10MSTFactoryRS2_I4TreeS4_ISG_EEEUlvE2_E9_M_invokeERKSt9_Any_data
FNDA:4,_ZNSt14_Function_base13_Base_managerIZ14handleCommandsiRSt6vectorISt10unique_ptrI12ActiveObjectSt14default_deleteIS3_EESaIS6_EERS2_I5GraphS4_ISA_EER10MSTFactoryRS2_I4TreeS4_ISG_EEEUlvE5_E15_M_init_functorIRSK_EEvRSt9_Any_dataOT_
FNDA:4,_ZNSt14_Function_base13_Base_managerIZZZZZ14handleCommandsiRSt6vectorISt10unique_ptrI12ActiveObjectSt14default_deleteIS3_EESaIS6_EERS2_I5GraphS4_ISA_EER10MSTFactoryRS2_I4TreeS4_ISG_EEENKUlvE3_clEvENKUlvE_clEvENKUlvE_clEvENKUlvE_clEvEUlvE_E21_M_not_empty_functionISO_EEbRKT_
FNDA:4,_ZNSt14_Function_base13_Base_managerIZZZ14handleCommandsiRSt6vectorISt10unique_ptrI12ActiveObjectSt14default_deleteIS3_EESaIS6_EERS2_I5GraphS4_ISA_EER10MSTFactoryRS2_I4TreeS4_ISG_EEENKUlvE3_clEvENKUlvE_clEvEUlvE_E10_M_managerERSt9_Any_dataRKSO_St18_Manager_operation
FNDA:12,_ZNSt17_Function_handlerIFvvEZ14handleCommandsiRSt6vectorISt10unique_ptrI12ActiveObjectSt14default_deleteIS3_EESaIS6_EERS2_I5GraphS4_ISA_EER10MSTFactoryRS2_I4TreeS4_ISG_EEEUlvE1_E10_M_managerERSt9_Any_dataRKSM_St18_Manager_operation
FNDA:12,_ZNSt14_Function_base13_Base_managerIZ14handleCommandsiRSt6vectorISt10unique_ptrI12ActiveObjectSt14default_deleteIS3_EESaIS6_EERS2_I5GraphS4_ISA_EER10MSTFactoryRS2_I4TreeS4_ISG_EEEUlvE1_E21_M_not_empty_functionISK_EEbRKT_
FNDA:4,_ZNSt14_Function_base13_Base_managerIZZ14handleCommandsiRSt6vectorISt10unique_ptrI12ActiveObjectSt14default_deleteIS3_EESaIS6_EERS2_I5GraphS4_ISA_EER10MSTFactoryRS2_I4TreeS4_ISG_EEENKUlvE3_clEvEUlvE_E9_M_createIRSL_EEvRSt9_Any_dataOT_St17integral_constantIbLb0EE
FNDA:4,_ZNSt14_Function_base13_Base_managerIZ14handleCommandsiRSt6vectorISt10unique_ptrI12ActiveObjectSt14default_deleteIS3_EESaIS6_EERS2_I5GraphS4_ISA_EER10MSTFactoryRS2_I4TreeS4_ISG_EEEUlvE5_E10_M_managerERSt9_Any_dataRKSM_St18_Manager_operation
FNDA:4,_ZNSt14_Function_base13_Base_managerIZ14handleCommandsiRSt6vectorISt10unique_ptrI12ActiveObjectSt14default_deleteIS3_EESaIS6_EERS2_I5GraphS4_ISA_EER10MSTFactoryRS2_I4TreeS4_ISG_EEEUlvE5_E9_M_createIRSK_EEvRSt9_Any_dataOT_St17integral_constantIbLb0EE
FNDA:32,_ZNSt9_Any_data9_M_accessIPZ14handleCommandsiRSt6vectorISt10unique_ptrI12ActiveObjectSt14default_deleteIS3_EESaIS6_EERS2_I5GraphS4_ISA_EER10MSTFactoryRS2_I4TreeS4_ISG_EEEUlvE3_EERT_v
FNDA:11,_ZNKSt8functionIFviEEclEi
FNDA:0,_ZNSt14_Function_base13_Base_managerIZZZZZ14handleCommandsiRSt6vectorISt10unique_ptrI12ActiveObjectSt14default_deleteIS3_EESaIS6_EERS2_I5GraphS4_ISA_EER10MSTFactoryRS2_I4TreeS4_ISG_EEENKUlvE3_clEvENKUlvE_clEvENKUlvE_clEvENKUlvE_clEvEUlvE_E9_M_createIRKSO_EEvRSt9_Any_dataOT_St17integral_constantIbLb0EE
FNDA:13,_ZNKSt9_Any_data9_M_accessIPZ4mainEUlvE0_EERKT_v
FNDA:24,_ZNSt9_Any_data9_M_accessIPZ14handleCommandsiRSt6vectorISt10unique_ptrI12ActiveObjectSt14default_deleteIS3_EESaIS6_EERS2_I5GraphS4_ISA_EER10MSTFactoryRS2_I4TreeS4_ISG_EEEUlvE1_EERT_v
FNDA:0,_ZNSt14_Function_base13_Base_managerIZ14handleCommandsiRSt6vectorISt10unique_ptrI12ActiveObjectSt14default_deleteIS3_EESaIS6_EERS2_I5GraphS4_ISA_EER10MSTFactoryRS2_I4TreeS4_ISG_EEEUlvE9_E9_M_createIRKSK_EEvRSt9_Any_dataOT_St17integral_constantIbLb0EE
FNDA:20,_ZNSt9_Any_data9_M_accessIPZ14handleCommandsiRSt6vectorISt10unique_ptrI12ActiveObjectSt14default_deleteIS3_EESaIS6_EERS2_I5GraphS4_ISA_EER10MSTFactoryRS2_I4TreeS4_ISG_EEEUlvE6_EERT_v
FNDA:4,_ZNSt14_Function_base13_Base_managerIZZZZ14handleCommandsiRSt6vectorISt10unique_ptrI12ActiveObjectSt14default_deleteIS3_EESaIS6_EERS2_I5GraphS4_ISA_EER10MSTFactoryRS2_I4TreeS4_ISG_EEENKUlvE3_clEvENKUlvE_clEvENKUlvE_clEvEUlvE_E21_M_not_empty_functionISN_EEbRKT_
FNDA:12,_ZNSt17_Function_handlerIFvvEZ14handleCommandsiRSt6vectorISt10unique_ptrI12ActiveObjectSt14default_deleteIS3_EESaIS6_EERS2_I5GraphS4_ISA_EER10MSTFactoryRS2_I4TreeS4_ISG_EEEUlvE2_E10_M_managerERSt9_Any_dataRKSM_St18_Manager_operation
FNDA:34,_ZNSt14_Function_base13_Base_managerIZ14handleCommandsiRSt6vectorISt10unique_ptrI12ActiveObjectSt14default_deleteIS3_EESaIS6_EERS2_I5GraphS4_ISA_EER10MSTFactoryRS2_I4TreeS4_ISG_EEEUlvE0_E10_M_managerERSt9_Any_dataRKSM_St18_Manager_operation
FNDA:12,_ZNKSt9_Any_data9_M_accessIPZ14handleCommandsiRSt6vectorISt10unique_ptrI12ActiveObjectSt14default_deleteIS3_EESaIS6_EERS2_I5GraphS4_ISA_EER10MSTFactoryRS2_I4TreeS4_ISG_EEEUlvE2_EERKT_v
FNDA:34,_ZNSt14_Function_base13_Base_managerIZ14handleCommandsiRSt6vectorISt10unique_ptrI12ActiveObjectSt14default_deleteIS3_EESaIS6_EERS2_I5GraphS4_ISA_EER10MSTFactoryRS2_I4TreeS4_ISG_EEEUlvE0_E21_M_not_empty_functionISK_EEbRKT_
FNDA:11,_ZNSt8functionIFviEEC2Ev
FNDA:4,_ZNKSt9_Any_data9_M_accessIPZ14handleCommandsiRSt6vectorISt10unique_ptrI12ActiveObjectSt14default_deleteIS3_EESaIS6_EERS2_I5GraphS4_ISA_EER10MSTFactoryRS2_I4TreeS4_ISG_EEEUlvE9_EERKT_v
FNDA:0,_ZNSt14_Function_base13_Base_managerIZZZZ14handleCommandsiRSt6vectorISt10unique_ptrI12ActiveObjectSt14default_deleteIS3_EESaIS6_EERS2_I5GraphS4_ISA_EER10MSTFactoryRS2_I4TreeS4_ISG_EEENKUlvE3_clEvENKUlvE_clEvENKUlvE_clEvEUlvE_E15_M_init_functorIRKSN_EEvRSt9_Any_dataOT_
FNDA:10,_ZNSt14_Function_base13_Base_managerIZ4mainEUlvE0_E10_M_destroyERSt9_Any_dataSt17integral_constantIbLb0EE
FNDA:6,_ZNSt14_Function_base13_Base_managerIZ14handleCommandsiRSt6vectorISt10unique_ptrI12ActiveObjectSt14default_deleteIS3_EESaIS6_EERS2_I5GraphS4_ISA_EER10MSTFactoryRS2_I4TreeS4_ISG_EEEUlvE8_E14_M_get_pointerERKSt9_Any_data
FNDA:16,_ZNSt14_Function_base13_Base_managerIZ14handleCommandsiRSt6vectorISt10unique_ptrI12ActiveObjectSt14default_deleteIS3_EESaIS6_EERS2_I5GraphS4_ISA_EER10MSTFactoryRS2_I4TreeS4_ISG_EEEUlvE_E15_M_init_functorIRSK_EEvRSt9_Any_dataOT_
FNDA:12,_ZNSt9_Any_data9_M_accessIPZ14handleCommandsiRSt6vectorISt10unique_ptrI12ActiveObjectSt14default_deleteIS3_EESaIS6_EERS2_I5GraphS4_ISA_EER10MSTFactoryRS2_I4TreeS4_ISG_EEEUlvE8_EERT_v
FNDA:4,_ZNSt14_Function_base13_Base_managerIZ14handleCommandsiRSt6vectorISt10unique_ptrI12ActiveObjectSt14default_deleteIS3_EESaIS6_EERS2_I5GraphS4_ISA_EER10MSTFactoryRS2_I4TreeS4_ISG_EEEUlvE10_E21_M_not_empty_functionISK_EEbRKT_
FNDA:4,_ZNKSt9_Any_data9_M_accessIPZZ14handleCommandsiRSt6vectorISt10unique_ptrI12ActiveObjectSt14default_deleteIS3_EESaIS6_EERS2_I5GraphS4_ISA_EER10MSTFactoryRS2_I4TreeS4_ISG_EEENKUlvE3_clEvEUlvE_EERKT_v
FNDA:10,_ZNSt14_Function_base13_Base_managerIZ14handleCommandsiRSt6vectorISt10unique_ptrI12ActiveObjectSt14default_deleteIS3_EESaIS6_EERS2_I5GraphS4_ISA_EER10MSTFactoryRS2_I4TreeS4_ISG_EEEUlvE6_E10_M_destroyERSt9_Any_dataSt17integral_constantIbLb0EE
FNDA:0,_ZNSt14_Function_base13_Base_managerIZ14handleCommandsiRSt6vectorISt10unique_ptrI12ActiveObjectSt14default_deleteIS3_EESaIS6_EERS2_I5GraphS4_ISA_EER10MSTFactoryRS2_I4TreeS4_ISG_EEEUlvE8_E9_M_createIRKSK_EEvRSt9_Any_dataOT_St17integral_constantIbLb0EE
FNDA:4,_ZNSt14_Function_base13_Base_managerIZ14handleCommandsiRSt6vectorISt10unique_ptrI12ActiveObjectSt14default_deleteIS3_EESaIS6_EERS2_I5GraphS4_ISA_EER10MSTFactoryRS2_I4TreeS4_ISG_EEEUlvE5_E14_M_get_pointerERKSt9_Any_data
FNDA:0,_ZNSt14_Function_base13_Base_managerIZ14handleCommandsiRSt6vectorISt10unique_ptrI12ActiveObjectSt14default_deleteIS3_EESaIS6_EERS2_I5GraphS4_ISA_EER10MSTFactoryRS2_I4TreeS4_ISG_EEEUlvE2_E9_M_createIRKSK_EEvRSt9_Any_dataOT_St17integral_constantIbLb0EE
FNDA:32,_ZNSt14_Function_base13_Base_managerIZ16acceptConnectioniRSt10unique_ptrI5GraphSt14default_deleteIS2_EER10MSTFactoryRS1_I4TreeS3_IS9_EERS1_I12LFThreadPoolS3_ISD_EEEUlvE_E10_M_destroyERSt9_Any_dataSt17integral_constantIbLb0EE
FNDA:11,_ZNSt8functionIFviEEC2IZ4mainEUliE_vEEOT_
FNDA:34,_ZNKSt9_Any_data9_M_accessIPZ14handleCommandsiRSt6vectorISt10unique_ptrI12ActiveObjectSt14default_deleteIS3_EESaIS6_EERS2_I5GraphS4_ISA_EER10MSTFactoryRS2_I4TreeS4_ISG_EEEUlvE0_EERKT_v
FNDA:11,_ZNSt17_Function_handlerIFviEZ4mainEUliE_E10_M_managerERSt9_Any_dataRKS3_St18_Manager_operation
FNDA:687,_ZNSt14_Function_baseC2Ev
FNDA:34,_ZNSt14_Function_base13_Base_managerIZ14handleCommandsiRSt6vectorISt10unique_ptrI12ActiveObjectSt14default_deleteIS3_EESaIS6_EERS2_I5GraphS4_ISA_EER10MSTFactoryRS2_I4TreeS4_ISG_EEEUlvE0_E15_M_init_functorIRSK_EEvRSt9_Any_dataOT_
FNDA:4,_ZNSt14_Function_base13_Base_managerIZZZ14handleCommandsiRSt6vectorISt10unique_ptrI12ActiveObjectSt14default_deleteIS3_EESaIS6_EERS2_I5GraphS4_ISA_EER10MSTFactoryRS2_I4TreeS4_ISG_EEENKUlvE3_clEvENKUlvE_clEvEUlvE_E14_M_get_pointerERKSt9_Any_data
FNDA:11,_ZNSt14_Function_base13_Base_managerIZ4mainEUliE_E14_M_get_pointerERKSt9_Any_data
FNDA:24,_ZNSt9_Any_data9_M_accessIPZ14handleCommandsiRSt6vectorISt10unique_ptrI12ActiveObjectSt14default_deleteIS3_EESaIS6_EERS2_I5GraphS4_ISA_EER10MSTFactoryRS2_I4TreeS4_ISG_EEEUlvE2_EERT_v
FNDA:4,_ZNSt14_Function_base13_Base_managerIZ14handleCommandsiRSt6vectorISt10unique_ptrI12ActiveObjectSt14default_deleteIS3_EESaIS6_EERS2_I5GraphS4_ISA_EER10MSTFactoryRS2_I4TreeS4_ISG_EEEUlvE10_E15_M_init_functorIRSK_EEvRSt9_Any_dataOT_
FNDA:15,_ZNSt14_Function_base13_Base_managerIZ4mainEUlvE0_E10_M_managerERSt9_Any_dataRKS3_St18_Manager_operation
FNDA:0,_ZNSt14_Function_base13_Base_managerIZ14handleCommandsiRSt6vectorISt10unique_ptrI12ActiveObjectSt14default_deleteIS3_EESaIS6_EERS2_I5GraphS4_ISA_EER10MSTFactoryRS2_I4TreeS4_ISG_EEEUlvE10_E9_M_createIRKSK_EEvRSt9_Any_dataOT_St17integral_constantIbLb0EE
FNDA:4,_ZNSt14_Function_base13_Base_managerIZZ14handleCommandsiRSt6vectorISt10unique_ptrI12ActiveObjectSt14default_deleteIS3_EESaIS6_EERS2_I5GraphS4_ISA_EER10MSTFactoryRS2_I4TreeS4_ISG_EEENKUlvE3_clEvEUlvE_E10_M_destroyERSt9_Any_dataSt17integral_constantIbLb0EE
FNDA:4,_ZNSt8functionIFvvEEC2IRZ14handleCommandsiRSt6vectorISt10unique_ptrI12ActiveObjectSt14default_deleteIS5_EESaIS8_EERS4_I5GraphS6_ISC_EER10MSTFactoryRS4_I4TreeS6_ISI_EEEUlvE10_vEEOT_
FNDA:0,_ZNSt14_Function_base13_Base_managerIZZZZ14handleCommandsiRSt6vectorISt10unique_ptrI12ActiveObjectSt14default_deleteIS3_EESaIS6_EERS2_I5GraphS4_ISA_EER10MSTFactoryRS2_I4TreeS4_ISG_EEENKUlvE3_clEvENKUlvE_clEvENKUlvE_clEvEUlvE_E9_M_createIRKSN_EEvRSt9_Any_dataOT_St17integral_constantIbLb0EE
FNDA:16,_ZNSt14_Function_base13_Base_managerIZ14handleCommandsiRSt6vectorISt10unique_ptrI12ActiveObjectSt14default_deleteIS3_EESaIS6_EERS2_I5GraphS4_ISA_EER10MSTFactoryRS2_I4TreeS4_ISG_EEEUlvE3_E9_M_createIRSK_EEvRSt9_Any_dataOT_St17integral_constantIbLb0EE
FNDA:11,_ZNSt14_Function_base13_Base_managerIZ4mainEUliE_E15_M_init_functorIS1_EEvRSt9_Any_dataOT_
FNDA:11,_ZNSt14_Function_base13_Base_managerIZ4mainEUliE_E10_M_managerERSt9_Any_dataRKS3_St18_Manager_operation
FNDA:34,_ZNSt8functionIFvvEEC2IRZ14handleCommandsiRSt6vectorISt10unique_ptrI12ActiveObjectSt14default_deleteIS5_EESaIS8_EERS4_I5GraphS6_ISC_EER10MSTFactoryRS4_I4TreeS6_ISI_EEEUlvE0_vEEOT_
FNDA:4,_ZNSt14_Function_base13_Base_managerIZZ14handleCommandsiRSt6vectorISt10unique_ptrI12ActiveObjectSt14default_deleteIS3_EESaIS6_EERS2_I5GraphS4_ISA_EER10MSTFactoryRS2_I4TreeS4_ISG_EEENKUlvE3_clEvEUlvE_E21_M_not_empty_functionISL_EEbRKT_
FNDA:6,_ZNSt8functionIFvvEEC2IRZ14handleCommandsiRSt6vectorISt10unique_ptrI12ActiveObjectSt14default_deleteIS5_EESaIS8_EERS4_I5GraphS6_ISC_EER10MSTFactoryRS4_I4TreeS6_ISI_EEEUlvE8_vEEOT_
FNDA:12,_ZNSt14_Function_base13_Base_managerIZ14handleCommandsiRSt6vectorISt10unique_ptrI12ActiveObjectSt14default_deleteIS3_EESaIS6_EERS2_I5GraphS4_ISA_EER10MSTFactoryRS2_I4TreeS4_ISG_EEEUlvE2_E10_M_managerERSt9_Any_dataRKSM_St18_Manager_operation
FNDA:8,_ZNSt14_Function_base13_Base_managerIZ16acceptConnectioniRSt10unique_ptrI5GraphSt14default_deleteIS2_EER10MSTFactoryRS1_I4TreeS3_IS9_EERS1_I12LFThreadPoolS3_ISD_EEEUlvE_E15_M_init_functorISH_EEvRSt9_Any_dataOT_
FNDA:0,_ZNSt14_Function_base13_Base_managerIZ4mainEUliE_E9_M_createIRKS1_EEvRSt9_Any_dataOT_St17integral_constantIbLb0EE
FNDA:4,_ZNSt8functionIFvvEEC2IRZZZZZ14handleCommandsiRSt6vectorISt10unique_ptrI12ActiveObjectSt14default_deleteIS5_EESaIS8_EERS4_I5GraphS6_ISC_EER10MSTFactoryRS4_I4TreeS6_ISI_EEENKUlvE3_clEvENKUlvE_clEvENKUlvE_clEvENKUlvE_clEvEUlvE_vEEOT_
FNDA:4,_ZNKSt9_Any_data9_M_accessIPZ14handleCommandsiRSt6vectorISt10unique_ptrI12ActiveObjectSt14default_deleteIS3_EESaIS6_EERS2_I5GraphS4_ISA_EER10MSTFactoryRS2_I4TreeS4_ISG_EEEUlvE4_EERKT_v
FNDA:4,_ZNSt14_Function_base13_Base_managerIZ14handleCommandsiRSt6vectorISt10unique_ptrI12ActiveObjectSt14default_deleteIS3_EESaIS6_EERS2_I5GraphS4_ISA_EER10MSTFactoryRS2_I4TreeS4_ISG_EEEUlvE9_E9_M_createIRSK_EEvRSt9_Any_dataOT_St17integral_constantIbLb0EE
FNDA:4,_ZNSt14_Function_base13_Base_managerIZZZZZZ14handleCommandsiRSt6vectorISt10unique_ptrI12ActiveObjectSt14default_deleteIS3_EESaIS6_EERS2_I5GraphS4_ISA_EER10MSTFactoryRS2_I4TreeS4_ISG_EEENKUlvE3_clEvENKUlvE_clEvENKUlvE_clEvENKUlvE_clEvENKUlvE_clEvEUlvE_E21_M_not_empty_functionISP_EEbRKT_
FNDA:16,_ZNSt14_Function_base13_Base_managerIZ14handleCommandsiRSt6vectorISt10unique_ptrI12ActiveObjectSt14default_deleteIS3_EESaIS6_EERS2_I5GraphS4_ISA_EER10MSTFactoryRS2_I4TreeS4_ISG_EEEUlvE3_E14_M_get_pointerERKSt9_Any_data
FNDA:0,_ZNSt14_Function_base13_Base_managerIZ14handleCommandsiRSt6vectorISt10unique_ptrI12ActiveObjectSt14default_deleteIS3_EESaIS6_EERS2_I5GraphS4_ISA_EER10MSTFactoryRS2_I4TreeS4_ISG_EEEUlvE6_E9_M_createIRKSK_EEvRSt9_Any_dataOT_St17integral_constantIbLb0EE
FNDA:8,_ZNSt9_Any_data9_M_accessIPZ14handleCommandsiRSt6vectorISt10unique_ptrI12ActiveObjectSt14default_deleteIS3_EESaIS6_EERS2_I5GraphS4_ISA_EER10MSTFactoryRS2_I4TreeS4_ISG_EEEUlvE5_EERT_v
FNDA:4,_ZNSt17_Function_handlerIFvvEZZZZ14handleCommandsiRSt6vectorISt10unique_ptrI12ActiveObjectSt14default_deleteIS3_EESaIS6_EERS2_I5GraphS4_ISA_EER10MSTFactoryRS2_I4TreeS4_ISG_EEENKUlvE3_clEvENKUlvE_clEvENKUlvE_clEvEUlvE_E10_M_managerERSt9_Any_dataRKSP_St18_Manager_operation
FNDA:0,_ZNSt14_Function_base13_Base_managerIZ14handleCommandsiRSt6vectorISt10unique_ptrI12ActiveObjectSt14default_deleteIS3_EESaIS6_EERS2_I5GraphS4_ISA_EER10MSTFactoryRS2_I4TreeS4_ISG_EEEUlvE1_E15_M_init_functorIRKSK_EEvRSt9_Any_dataOT_
FNDA:8,_ZNSt14_Function_base13_Base_managerIZ16acceptConnectioniRSt10unique_ptrI5GraphSt14default_deleteIS2_EER10MSTFactoryRS1_I4TreeS3_IS9_EERS1_I12LFThreadPoolS3_ISD_EEEUlvE_E9_M_createISH_EEvRSt9_Any_dataOT_St17integral_constantIbLb0EE
FNDA:20,_ZNSt9_Any_data9_M_accessIPZ4mainEUlvE0_EERT_v
FNDA:142,_ZNSt8functionIFvvEEC2EOS1_
FNDA:4,_ZNKSt9_Any_data9_M_accessIPZZZZZ14handleCommandsiRSt6vectorISt10unique_ptrI12ActiveObjectSt14default_deleteIS3_EESaIS6_EERS2_I5GraphS4_ISA_EER10MSTFactoryRS2_I4TreeS4_ISG_EEENKUlvE3_clEvENKUlvE_clEvENKUlvE_clEvENKUlvE_clEvEUlvE_EERKT_v
FNDA:32,_ZNSt9_Any_data9_M_accessIPZ14handleCommandsiRSt6vectorISt10unique_ptrI12ActiveObjectSt14default_deleteIS3_EESaIS6_EERS2_I5GraphS4_ISA_EER10MSTFactoryRS2_I4TreeS4_ISG_EEEUlvE_EERT_v
FNDA:4,_ZNSt14_Function_base13_Base_managerIZ14handleCommandsiRSt6vectorISt10unique_ptrI12ActiveObjectSt14default_deleteIS3_EESaIS6_EERS2_I5GraphS4_ISA_EER10MSTFactoryRS2_I4TreeS4_ISG_EEEUlvE10_E9_M_createIRSK_EEvRSt9_Any_dataOT_St17integral_constantIbLb0EE
FNDA:5,_ZNSt8functionIFvvEEC2IZ4mainEUlvE0_vEEOT_
FNDA:0,_ZNSt14_Function_base13_Base_managerIZ14handleCommandsiRSt6vectorISt10unique_ptrI12ActiveObjectSt14default_deleteIS3_EESaIS6_EERS2_I5GraphS4_ISA_EER10MSTFactoryRS2_I4TreeS4_ISG_EEEUlvE0_E9_M_createIRKSK_EEvRSt9_Any_dataOT_St17integral_constantIbLb0EE
FNDA:4,_ZNSt14_Function_base13_Base_managerIZZZZ14handleCommandsiRSt6vectorISt10unique_ptrI12ActiveObjectSt14default_deleteIS3_EESaIS6_EERS2_I5GraphS4_ISA_EER10MSTFactoryRS2_I4TreeS4_ISG_EEENKUlvE3_clEvENKUlvE_clEvENKUlvE_clEvEUlvE_E9_M_createIRSN_EEvRSt9_Any_dataOT_St17integral_constantIbLb0EE
FNDA:4,_ZNSt8functionIFvvEEC2IRZZZ14handleCommandsiRSt6vectorISt10unique_ptrI12ActiveObjectSt14default_deleteIS5_EESaIS8_EERS4_I5GraphS6_ISC_EER10MSTFactoryRS4_I4TreeS6_ISI_EEENKUlvE3_clEvENKUlvE_clEvEUlvE_vEEOT_
FNDA:8,_ZNSt9_Any_data9_M_accessIPZ14handleCommandsiRSt6vectorISt10unique_ptrI12ActiveObjectSt14default_deleteIS3_EESaIS6_EERS2_I5GraphS4_ISA_EER10MSTFactoryRS2_I4TreeS4_ISG_EEEUlvE4_EERT_v
FNDA:15,_ZNSt17_Function_handlerIFvvEZ4mainEUlvE0_E10_M_managerERSt9_Any_dataRKS3_St18_Manager_operation
FNDA:10,_ZNKSt9_Any_data9_M_accessIPZ14handleCommandsiRSt6vectorISt10unique_ptrI12ActiveObjectSt14default_deleteIS3_EESaIS6_EERS2_I5GraphS4_ISA_EER10MSTFactoryRS2_I4TreeS4_ISG_EEEUlvE6_EERKT_v
FNDA:8,_ZNSt9_Any_data9_M_accessIPZZZZZ14handleCommandsiRSt6vectorISt10unique_ptrI12ActiveObjectSt14default_deleteIS3_EESaIS6_EERS2_I5GraphS4_ISA_EER10MSTFactoryRS2_I4TreeS4_ISG_EEENKUlvE3_clEvENKUlvE_clEvENKUlvE_clEvENKUlvE_clEvEUlvE_EERT_v
FNDA:4,_ZNSt14_Function_base13_Base_managerIZ14handleCommandsiRSt6vectorISt10unique_ptrI12ActiveObjectSt14default_deleteIS3_EESaIS6_EERS2_I5GraphS4_ISA_EER10MSTFactoryRS2_I4TreeS4_ISG_EEEUlvE5_E10_M_destroyERSt9_Any_dataSt17integral_constantIbLb0EE
FNDA:34,_ZNSt14_Function_base13_Base_managerIZ14handleCommandsiRSt6vectorISt10unique_ptrI12ActiveObjectSt14default_deleteIS3_EESaIS6_EERS2_I5GraphS4_ISA_EER10MSTFactoryRS2_I4TreeS4_ISG_EEEUlvE0_E9_M_createIRSK_EEvRSt9_Any_dataOT_St17integral_constantIbLb0EE
FNDA:4,_ZNSt17_Function_handlerIFvvEZZZZZZ14handleCommandsiRSt6vectorISt10unique_ptrI12ActiveObjectSt14default_deleteIS3_EESaIS6_EERS2_I5GraphS4_ISA_EER10MSTFactoryRS2_I4TreeS4_ISG_EEENKUlvE3_clEvENKUlvE_clEvENKUlvE_clEvENKUlvE_clEvENKUlvE_clEvEUlvE_E9_M_invokeERKSt9_Any_data
FNDA:4,_ZNSt17_Function_handlerIFvvEZZZZ14handleCommandsiRSt6vectorISt10unique_ptrI12ActiveObjectSt14default_deleteIS3_EESaIS6_EERS2_I5GraphS4_ISA_EER10MSTFactoryRS2_I4TreeS4_ISG_EEENKUlvE3_clEvENKUlvE_clEvENKUlvE_clEvEUlvE_E9_M_invokeERKSt9_Any_data
FNDA:34,_ZNSt17_Function_handlerIFvvEZ14handleCommandsiRSt6vectorISt10unique_ptrI12ActiveObjectSt14default_deleteIS3_EESaIS6_EERS2_I5GraphS4_ISA_EER10MSTFactoryRS2_I4TreeS4_ISG_EEEUlvE0_E9_M_invokeERKSt9_Any_data
FNDA:4,_ZNSt14_Function_base13_Base_managerIZ14handleCommandsiRSt6vectorISt10unique_ptrI12ActiveObjectSt14default_deleteIS3_EESaIS6_EERS2_I5GraphS4_ISA_EER10MSTFactoryRS2_I4TreeS4_ISG_EEEUlvE5_E21_M_not_empty_functionISK_EEbRKT_
FNDA:13,_ZNSt14_Function_base13_Base_managerIZ4mainEUlvE0_E14_M_get_pointerERKSt9_Any_data
FNDA:11,_ZNSt14_Function_base13_Base_managerIZ4mainEUliE_E9_M_createIS1_EEvRSt9_Any_dataOT_St17integral_constantIbLb0EE
FNDA:0,_ZNSt14_Function_base13_Base_managerIZ14handleCommandsiRSt6vectorISt10unique_ptrI12ActiveObjectSt14default_deleteIS3_EESaIS6_EERS2_I5GraphS4_ISA_EER10MSTFactoryRS2_I4TreeS4_ISG_EEEUlvE1_E9_M_createIRKSK_EEvRSt9_Any_dataOT_St17integral_constantIbLb0EE
FNDA:0,_ZNSt14_Function_base13_Base_managerIZ14handleCommandsiRSt6vectorISt10unique_ptrI12ActiveObjectSt14default_deleteIS3_EESaIS6_EERS2_I5GraphS4_ISA_EER10MSTFactoryRS2_I4TreeS4_ISG_EEEUlvE0_E15_M_init_functorIRKSK_EEvRSt9_Any_dataOT_
FNDA:16,_ZNSt14_Function_base13_Base_managerIZ14handleCommandsiRSt6vectorISt10unique_ptrI12ActiveObjectSt14default_deleteIS3_EESaIS6_EERS2_I5GraphS4_ISA_EER10MSTFactoryRS2_I4TreeS4_ISG_EEEUlvE_E9_M_createIRSK_EEvRSt9_Any_dataOT_St17integral_constantIbLb0EE
FNDA:0,_ZNSt14_Function_base13_Base_managerIZ14handleCommandsiRSt6vectorISt10unique_ptrI12ActiveObjectSt14default_deleteIS3_EESaIS6_EERS2_I5GraphS4_ISA_EER10MSTFactoryRS2_I4TreeS4_ISG_EEEUlvE10_E15_M_init_functorIRKSK_EEvRSt9_Any_dataOT_
FNDA:4,_ZNSt17_Function_handlerIFvvEZZZZZZ14handleCommandsiRSt6vectorISt10unique_ptrI12ActiveObjectSt14default_deleteIS3_EESaIS6_EERS2_I5GraphS4_ISA_EER10MSTFactoryRS2_I4TreeS4_ISG_EEENKUlvE3_clEvENKUlvE_clEvENKUlvE_clEvENKUlvE_clEvENKUlvE_clEvEUlvE_E10_M_managerERSt9_Any_dataRKSR_St18_Manager_operation
FNDA:12,_ZNSt14_Function_base13_Base_managerIZ14handleCommandsiRSt6vectorISt10unique_ptrI12ActiveObjectSt14default_deleteIS3_EESaIS6_EERS2_I5GraphS4_ISA_EER10MSTFactoryRS2_I4TreeS4_ISG_EEEUlvE2_E15_M_init_functorIRSK_EEvRSt9_Any_dataOT_
FNDA:4,_ZNSt14_Function_base13_Base_managerIZ14handleCommandsiRSt6vectorISt10unique_ptrI12ActiveObjectSt14default_deleteIS3_EESaIS6_EERS2_I5GraphS4_ISA_EER10MSTFactoryRS2_I4TreeS4_ISG_EEEUlvE4_E14_M_get_pointerERKSt9_Any_data
FNDA:0,_ZNSt14_Function_base13_Base_managerIZZ14handleCommandsiRSt6vectorISt10unique_ptrI12ActiveObjectSt14default_deleteIS3_EESaIS6_EERS2_I5GraphS4_ISA_EER10MSTFactoryRS2_I4TreeS4_ISG_EEENKUlvE3_clEvEUlvE_E15_M_init_functorIRKSL_EEvRSt9_Any_dataOT_
FNDA:50,_ZNSt8functionIFvvEEC2ISt5_BindIFM12LFThreadPoolFviEPS4_mEEvEEOT_
FNDA:4,_ZNSt14_Function_base13_Base_managerIZZZZZ14handleCommandsiRSt6vectorISt10unique_ptrI12ActiveObjectSt14default_deleteIS3_EESaIS6_EERS2_I5GraphS4_ISA_EER10MSTFactoryRS2_I4TreeS4_ISG_EEENKUlvE3_clEvENKUlvE_clEvENKUlvE_clEvENKUlvE_clEvEUlvE_E15_M_init_functorIRSO_EEvRSt9_Any_dataOT_
FNDA:4,_ZNSt17_Function_handlerIFvvEZZZ14handleCommandsiRSt6vectorISt10unique_ptrI12ActiveObjectSt14default_deleteIS3_EESaIS6_EERS2_I5GraphS4_ISA_EER10MSTFactoryRS2_I4TreeS4_ISG_EEENKUlvE3_clEvENKUlvE_clEvEUlvE_E10_M_managerERSt9_Any_dataRKSO_St18_Manager_operation
FNDA:6,_ZNSt14_Function_base13_Base_managerIZ14handleCommandsiRSt6vectorISt10unique_ptrI12ActiveObjectSt14default_deleteIS3_EESaIS6_EERS2_I5GraphS4_ISA_EER10MSTFactoryRS2_I4TreeS4_ISG_EEEUlvE8_E10_M_managerERSt9_Any_dataRKSM_St18_Manager_operation
FNDA:12,_ZNSt14_Function_base13_Base_managerIZ14handleCommandsiRSt6vectorISt10unique_ptrI12ActiveObjectSt14default_deleteIS3_EESaIS6_EERS2_I5GraphS4_ISA_EER10MSTFactoryRS2_I4TreeS4_ISG_EEEUlvE1_E15_M_init_functorIRSK_EEvRSt9_Any_dataOT_
FNDA:4,_ZNSt14_Function_base13_Base_managerIZZZZZZ14handleCommandsiRSt6vectorISt10unique_ptrI12ActiveObjectSt14default_deleteIS3_EESaIS6_EERS2_I5GraphS4_ISA_EER10MSTFactoryRS2_I4TreeS4_ISG_EEENKUlvE3_clEvENKUlvE_clEvENKUlvE_clEvENKUlvE_clEvENKUlvE_clEvEUlvE_E10_M_destroyERSt9_Any_dataSt17integral_constantIbLb0EE
FNDA:10,_ZNSt17_Function_handlerIFvvEZ14handleCommandsiRSt6vectorISt10unique_ptrI12ActiveObjectSt14default_deleteIS3_EESaIS6_EERS2_I5GraphS4_ISA_EER10MSTFactoryRS2_I4TreeS4_ISG_EEEUlvE6_E10_M_managerERSt9_Any_dataRKSM_St18_Manager_operation
FNDA:4,_ZNSt8functionIFvvEEC2IRZ14handleCommandsiRSt6vectorISt10unique_ptrI12ActiveObjectSt14default_deleteIS5_EESaIS8_EERS4_I5GraphS6_ISC_EER10MSTFactoryRS4_I4TreeS6_ISI_EEEUlvE4_vEEOT_
FNDA:12,_ZNKSt9_Any_data9_M_accessIPZ14handleCommandsiRSt6vectorISt10unique_ptrI12ActiveObjectSt14default_deleteIS3_EESaIS6_EERS2_I5GraphS4_ISA_EER10MSTFactoryRS2_I4TreeS4_ISG_EEEUlvE1_EERKT_v
FNDA:16,_ZNKSt9_Any_data9_M_accessIPZ14handleCommandsiRSt6vectorISt10unique_ptrI12ActiveObjectSt14default_deleteIS3_EESaIS6_EERS2_I5GraphS4_ISA_EER10MSTFactoryRS2_I4TreeS4_ISG_EEEUlvE_EERKT_v
FNDA:4,_ZNSt14_Function_base13_Base_managerIZZZZZ14handleCommandsiRSt6vectorISt10unique_ptrI12ActiveObjectSt14default_deleteIS3_EESaIS6_EERS2_I5GraphS4_ISA_EER10MSTFactoryRS2_I4TreeS4_ISG_EEENKUlvE3_clEvENKUlvE_clEvENKUlvE_clEvENKUlvE_clEvEUlvE_E14_M_get_pointerERKSt9_Any_data
FNDA:4,_ZNSt14_Function_base13_Base_managerIZZZZZ14handleCommandsiRSt6vectorISt10unique_ptrI12ActiveObjectSt14default_deleteIS3_EESaIS6_EERS2_I5GraphS4_ISA_EER10MSTFactoryRS2_I4TreeS4_ISG_EEENKUlvE3_clEvENKUlvE_clEvENKUlvE_clEvENKUlvE_clEvEUlvE_E10_M_destroyERSt9_Any_dataSt17integral_constantIbLb0EE
FNDA:10,_ZNSt8functionIFvvEEC2IRZ14handleCommandsiRSt6vectorISt10unique_ptrI12ActiveObjectSt14default_deleteIS5_EESaIS8_EERS4_I5GraphS6_ISC_EER10MSTFactoryRS4_I4TreeS6_ISI_EEEUlvE6_vEEOT_
FNDA:4,_ZNSt14_Function_base13_Base_managerIZ14handleCommandsiRSt6vectorISt10unique_ptrI12ActiveObjectSt14default_deleteIS3_EESaIS6_EERS2_I5GraphS4_ISA_EER10MSTFactoryRS2_I4TreeS4_ISG_EEEUlvE9_E10_M_destroyERSt9_Any_dataSt17integral_constantIbLb0EE
FNDA:4,_ZNSt14_Function_base13_Base_managerIZZZZ14handleCommandsiRSt6vectorISt10unique_ptrI12ActiveObjectSt14default_deleteIS3_EESaIS6_EERS2_I5GraphS4_ISA_EER10MSTFactoryRS2_I4TreeS4_ISG_EEENKUlvE3_clEvENKUlvE_clEvENKUlvE_clEvEUlvE_E10_M_managerERSt9_Any_dataRKSP_St18_Manager_operation
FNDA:12,_ZNSt14_Function_base13_Base_managerIZ14handleCommandsiRSt6vectorISt10unique_ptrI12ActiveObjectSt14default_deleteIS3_EESaIS6_EERS2_I5GraphS4_ISA_EER10MSTFactoryRS2_I4TreeS4_ISG_EEEUlvE2_E10_M_destroyERSt9_Any_dataSt17integral_constantIbLb0EE
FNDA:6,_ZNSt17_Function_handlerIFvvEZ14handleCommandsiRSt6vectorISt10unique_ptrI12ActiveObjectSt14default_deleteIS3_EESaIS6_EERS2_I5GraphS4_ISA_EER10MSTFactoryRS2_I4TreeS4_ISG_EEEUlvE8_E10_M_managerERSt9_Any_dataRKSM_St18_Manager_operation
FNDA:4,_ZNSt14_Function_base13_Base_managerIZ14handleCommandsiRSt6vectorISt10unique_ptrI12ActiveObjectSt14default_deleteIS3_EESaIS6_EERS2_I5GraphS4_ISA_EER10MSTFactoryRS2_I4TreeS4_ISG_EEEUlvE9_E14_M_get_pointerERKSt9_Any_data
FNDA:100,_ZNKSt9_Any_data9_M_accessIPSt5_BindIFM12LFThreadPoolFviEPS2_mEEEERKT_v
FNDA:12,_ZNSt14_Function_base13_Base_managerIZ14handleCommandsiRSt6vectorISt10unique_ptrI12ActiveObjectSt14default_deleteIS3_EESaIS6_EERS2_I5GraphS4_ISA_EER10MSTFactoryRS2_I4TreeS4_ISG_EEEUlvE2_E21_M_not_empty_functionISK_EEbRKT_
FNDA:56,_ZNSt14_Function_base13_Base_managerIZ16acceptConnectioniRSt10unique_ptrI5GraphSt14default_deleteIS2_EER10MSTFactoryRS1_I4TreeS3_IS9_EERS1_I12LFThreadPoolS3_ISD_EEEUlvE_E10_M_managerERSt9_Any_dataRKSJ_St18_Manager_operation
FNDA:6,_ZNSt14_Function_base13_Base_managerIZ14handleCommandsiRSt6vectorISt10unique_ptrI12ActiveObjectSt14default_deleteIS3_EESaIS6_EERS2_I5GraphS4_ISA_EER10MSTFactoryRS2_I4TreeS4_ISG_EEEUlvE8_E21_M_not_empty_functionISK_EEbRKT_
FNDA:11,_ZNSt17_Function_handlerIFviEZ4mainEUliE_E9_M_invokeERKSt9_Any_dataOi
FNDA:16,_ZNSt17_Function_handlerIFvvEZ14handleCommandsiRSt6vectorISt10unique_ptrI12ActiveObjectSt14default_deleteIS3_EESaIS6_EERS2_I5GraphS4_ISA_EER10MSTFactoryRS2_I4TreeS4_ISG_EEEUlvE3_E9_M_invokeERKSt9_Any_data
FNDA:208,_ZNKSt8functionIFvvEEclEv
FNDA:4,_ZNSt8functionIFvvEEC2IRZ14handleCommandsiRSt6vectorISt10unique_ptrI12ActiveObjectSt14default_deleteIS5_EESaIS8_EERS4_I5GraphS6_ISC_EER10MSTFactoryRS4_I4TreeS6_ISI_EEEUlvE9_vEEOT_
FNDA:11,_ZNKSt9_Any_data9_M_accessIPZ4mainEUliE_EERKT_v
FNDA:11,_ZNSt8functionIFviEEaSIZ4mainEUliE_EENSt9enable_ifIXsrNS1_9_CallableIT_NS4_IXntsrSt7is_sameINSt9remove_cvINSt16remove_referenceIS6_E4typeEE4typeES1_E5valueESt5decayIS6_EE4type4typeESt15__invoke_resultIRSJ_JiEEEE5valueERS1_E4typeEOS6_
FNDA:142,_ZNSt8functionIFvvEEaSEOS1_
FNDA:16,_ZNSt8functionIFvvEEC2IRZ14handleCommandsiRSt6vectorISt10unique_ptrI12ActiveObjectSt14default_deleteIS5_EESaIS8_EERS4_I5GraphS6_ISC_EER10MSTFactoryRS4_I4TreeS6_ISI_EEEUlvE3_vEEOT_
FNDA:50,_ZNSt14_Function_base13_Base_managerISt5_BindIFM12LFThreadPoolFviEPS2_mEEE15_M_init_functorIS7_EEvRSt9_Any_dataOT_
FNDA:12,_ZNSt14_Function_base13_Base_managerIZ14handleCommandsiRSt6vectorISt10unique_ptrI12ActiveObjectSt14default_deleteIS3_EESaIS6_EERS2_I5GraphS4_ISA_EER10MSTFactoryRS2_I4TreeS4_ISG_EEEUlvE1_E10_M_destroyERSt9_Any_dataSt17integral_constantIbLb0EE
FNDA:0,_ZNSt14_Function_base13_Base_managerIZ14handleCommandsiRSt6vectorISt10unique_ptrI12ActiveObjectSt14default_deleteIS3_EESaIS6_EERS2_I5GraphS4_ISA_EER10MSTFactoryRS2_I4TreeS4_ISG_EEEUlvE5_E9_M_createIRKSK_EEvRSt9_Any_dataOT_St17integral_constantIbLb0EE
FNDA:8,_ZNSt9_Any_data9_M_accessIPZ14handleCommandsiRSt6vectorISt10unique_ptrI12ActiveObjectSt14default_deleteIS3_EESaIS6_EERS2_I5GraphS4_ISA_EER10MSTFactoryRS2_I4TreeS4_ISG_EEEUlvE10_EERT_v
FNDA:12,_ZNSt14_Function_base13_Base_managerIZ14handleCommandsiRSt6vectorISt10unique_ptrI12ActiveObjectSt14default_deleteIS3_EESaIS6_EERS2_I5GraphS4_ISA_EER10MSTFactoryRS2_I4TreeS4_ISG_EEEUlvE1_E10_M_managerERSt9_Any_dataRKSM_St18_Manager_operation
FNDA:16,_ZNSt14_Function_base13_Base_managerIZ14handleCommandsiRSt6vectorISt10unique_ptrI12ActiveObjectSt14default_deleteIS3_EESaIS6_EERS2_I5GraphS4_ISA_EER10MSTFactoryRS2_I4TreeS4_ISG_EEEUlvE3_E15_M_init_functorIRSK_EEvRSt9_Any_dataOT_
FNDA:8,_ZNSt9_Any_data9_M_accessIPZZZ14handleCommandsiRSt6vectorISt10unique_ptrI12ActiveObjectSt14default_deleteIS3_EESaIS6_EERS2_I5GraphS4_ISA_EER10MSTFactoryRS2_I4TreeS4_ISG_EEENKUlvE3_clEvENKUlvE_clEvEUlvE_EERT_v
FNDA:4,_ZNKSt9_Any_data9_M_accessIPZZZZ14handleCommandsiRSt6vectorISt10unique_ptrI12ActiveObjectSt14default_deleteIS3_EESaIS6_EERS2_I5GraphS4_ISA_EER10MSTFactoryRS2_I4TreeS4_ISG_EEENKUlvE3_clEvENKUlvE_clEvENKUlvE_clEvEUlvE_EERKT_v
FNDA:8,_ZNSt9_Any_data9_M_accessIPZZZZZZ14handleCommandsiRSt6vectorISt10unique_ptrI12ActiveObjectSt14default_deleteIS3_EESaIS6_EERS2_I5GraphS4_ISA_EER10MSTFactoryRS2_I4TreeS4_ISG_EEENKUlvE3_clEvENKUlvE_clEvENKUlvE_clEvENKUlvE_clEvENKUlvE_clEvEUlvE_EERT_v
FNDA:12,_ZNSt14_Function_base13_Base_managerIZ14handleCommandsiRSt6vectorISt10unique_ptrI12ActiveObjectSt14default_deleteIS3_EESaIS6_EERS2_I5GraphS4_ISA_EER10MSTFactoryRS2_I4TreeS4_ISG_EEEUlvE1_E14_M_get_pointerERKSt9_Any_data
FNDA:12,_ZNSt8functionIFvvEEC2IRZ14handleCommandsiRSt6vectorISt10unique_ptrI12ActiveObjectSt14default_deleteIS5_EESaIS8_EERS4_I5GraphS6_ISC_EER10MSTFactoryRS4_I4TreeS6_ISI_EEEUlvE1_vEEOT_
FNDA:6,_ZNSt14_Function_base13_Base_managerIZ14handleCommandsiRSt6vectorISt10unique_ptrI12ActiveObjectSt14default_deleteIS3_EESaIS6_EERS2_I5GraphS4_ISA_EER10MSTFactoryRS2_I4TreeS4_ISG_EEEUlvE8_E10_M_destroyERSt9_Any_dataSt17integral_constantIbLb0EE
FNDA:150,_ZNSt14_Function_base13_Base_managerISt5_BindIFM12LFThreadPoolFviEPS2_mEEE10_M_managerERSt9_Any_dataRKS9_St18_Manager_operation
FNDA:0,_ZNSt14_Function_base13_Base_managerIZ14handleCommandsiRSt6vectorISt10unique_ptrI12ActiveObjectSt14default_deleteIS3_EESaIS6_EERS2_I5GraphS4_ISA_EER10MSTFactoryRS2_I4TreeS4_ISG_EEEUlvE3_E15_M_init_functorIRKSK_EEvRSt9_Any_dataOT_
FNDA:56,_ZNSt17_Function_handlerIFvvEZ16acceptConnectioniRSt10unique_ptrI5GraphSt14default_deleteIS2_EER10MSTFactoryRS1_I4TreeS3_IS9_EERS1_I12LFThreadPoolS3_ISD_EEEUlvE_E10_M_managerERSt9_Any_dataRKSJ_St18_Manager_operation
FNDA:8,_ZNSt9_Any_data9_M_accessIPZ14handleCommandsiRSt6vectorISt10unique_ptrI12ActiveObjectSt14default_deleteIS3_EESaIS6_EERS2_I5GraphS4_ISA_EER10MSTFactoryRS2_I4TreeS4_ISG_EEEUlvE9_EERT_v
FNDA:0,_ZNSt14_Function_base13_Base_managerIZZ14handleCommandsiRSt6vectorISt10unique_ptrI12ActiveObjectSt14default_deleteIS3_EESaIS6_EERS2_I5GraphS4_ISA_EER10MSTFactoryRS2_I4TreeS4_ISG_EEENKUlvE3_clEvEUlvE_E9_M_createIRKSL_EEvRSt9_Any_dataOT_St17integral_constantIbLb0EE
FNDA:10,_ZNSt14_Function_base13_Base_managerIZ14handleCommandsiRSt6vectorISt10unique_ptrI12ActiveObjectSt14default_deleteIS3_EESaIS6_EERS2_I5GraphS4_ISA_EER10MSTFactoryRS2_I4TreeS4_ISG_EEEUlvE6_E21_M_not_empty_functionISK_EEbRKT_
FNDA:10,_ZNSt14_Function_base13_Base_managerIZ14handleCommandsiRSt6vectorISt10unique_ptrI12ActiveObjectSt14default_deleteIS3_EESaIS6_EERS2_I5GraphS4_ISA_EER10MSTFactoryRS2_I4TreeS4_ISG_EEEUlvE6_E15_M_init_functorIRSK_EEvRSt9_Any_dataOT_
FNDA:4,_ZNSt14_Function_base13_Base_managerIZZZ14handleCommandsiRSt6vectorISt10unique_ptrI12ActiveObjectSt14default_deleteIS3_EESaIS6_EERS2_I5GraphS4_ISA_EER10MSTFactoryRS2_I4TreeS4_ISG_EEENKUlvE3_clEvENKUlvE_clEvEUlvE_E9_M_createIRSM_EEvRSt9_Any_dataOT_St17integral_constantIbLb0EE
FNDA:4,_ZNSt17_Function_handlerIFvvEZZ14handleCommandsiRSt6vectorISt10unique_ptrI12ActiveObjectSt14default_deleteIS3_EESaIS6_EERS2_I5GraphS4_ISA_EER10MSTFactoryRS2_I4TreeS4_ISG_EEENKUlvE3_clEvEUlvE_E9_M_invokeERKSt9_Any_data
FNDA:12,_ZNSt14_Function_base13_Base_managerIZ14handleCommandsiRSt6vectorISt10unique_ptrI12ActiveObjectSt14default_deleteIS3_EESaIS6_EERS2_I5GraphS4_ISA_EER10MSTFactoryRS2_I4TreeS4_ISG_EEEUlvE2_E9_M_createIRSK_EEvRSt9_Any_dataOT_St17integral_constantIbLb0EE
FNDA:4,_ZNSt17_Function_handlerIFvvEZZZZZ14handleCommandsiRSt6vectorISt10unique_ptrI12ActiveObjectSt14default_deleteIS3_EESaIS6_EERS2_I5GraphS4_ISA_EER10MSTFactoryRS2_I4TreeS4_ISG_EEENKUlvE3_clEvENKUlvE_clEvENKUlvE_clEvENKUlvE_clEvEUlvE_E9_M_invokeERKSt9_Any_data
FNDA:16,_ZNSt14_Function_base13_Base_managerIZ14handleCommandsiRSt6vectorISt10unique_ptrI12ActiveObjectSt14default_deleteIS3_EESaIS6_EERS2_I5GraphS4_ISA_EER10MSTFactoryRS2_I4TreeS4_ISG_EEEUlvE3_E21_M_not_empty_functionISK_EEbRKT_
FNDA:0,_ZNSt14_Function_base13_Base_managerIZZZ14handleCommandsiRSt6vectorISt10unique_ptrI12ActiveObjectSt14default_deleteIS3_EESaIS6_EERS2_I5GraphS4_ISA_EER10MSTFactoryRS2_I4TreeS4_ISG_EEENKUlvE3_clEvENKUlvE_clEvEUlvE_E9_M_createIRKSM_EEvRSt9_Any_dataOT_St17integral_constantIbLb0EE
FNDA:16,_ZNSt8functionIFvvEEC2IRZ14handleCommandsiRSt6vectorISt10unique_ptrI12ActiveObjectSt14default_deleteIS5_EESaIS8_EERS4_I5GraphS6_ISC_EER10MSTFactoryRS4_I4TreeS6_ISI_EEEUlvE_vEEOT_
FNDA:4,_ZNKSt9_Any_data9_M_accessIPZZZ14handleCommandsiRSt6vectorISt10unique_ptrI12ActiveObjectSt14default_deleteIS3_EESaIS6_EERS2_I5GraphS4_ISA_EER10MSTFactoryRS2_I4TreeS4_ISG_EEENKUlvE3_clEvENKUlvE_clEvEUlvE_EERKT_v
FNDA:4,_ZNSt14_Function_base13_Base_managerIZ14handleCommandsiRSt6vectorISt10unique_ptrI12ActiveObjectSt14default_deleteIS3_EESaIS6_EERS2_I5GraphS4_ISA_EER10MSTFactoryRS2_I4TreeS4_ISG_EEEUlvE4_E15_M_init_functorIRSK_EEvRSt9_Any_dataOT_
FNDA:4,_ZNSt14_Function_base13_Base_managerIZZ14handleCommandsiRSt6vectorISt10unique_ptrI12ActiveObjectSt14default_deleteIS3_EESaIS6_EERS2_I5GraphS4_ISA_EER10MSTFactoryRS2_I4TreeS4_ISG_EEENKUlvE3_clEvEUlvE_E14_M_get_pointerERKSt9_Any_data
FNDA:8,_ZNSt17_Function_handlerIFvvEZ4mainEUlvE0_E9_M_invokeERKSt9_Any_data
FNDA:8,_ZNSt17_Function_handlerIFvvEZ16acceptConnectioniRSt10unique_ptrI5GraphSt14default_deleteIS2_EER10MSTFactoryRS1_I4TreeS3_IS9_EERS1_I12LFThreadPoolS3_ISD_EEEUlvE_E9_M_invokeERKSt9_Any_data
FNDA:10,_ZNSt14_Function_base13_Base_managerIZ14handleCommandsiRSt6vectorISt10unique_ptrI12ActiveObjectSt14default_deleteIS3_EESaIS6_EERS2_I5GraphS4_ISA_EER10MSTFactoryRS2_I4TreeS4_ISG_EEEUlvE6_E10_M_managerERSt9_Any_dataRKSM_St18_Manager_operation
FNDA:4,_ZNSt14_Function_base13_Base_managerIZZZZZZ14handleCommandsiRSt6vectorISt10unique_ptrI12ActiveObjectSt14default_deleteIS3_EESaIS6_EERS2_I5GraphS4_ISA_EER10MSTFactoryRS2_I4TreeS4_ISG_EEENKUlvE3_clEvENKUlvE_clEvENKUlvE_clEvENKUlvE_clEvENKUlvE_clEvEUlvE_E9_M_createIRSP_EEvRSt9_Any_dataOT_St17integral_constantIbLb0EE
FNDA:50,_ZNSt17_Function_handlerIFvvESt5_BindIFM12LFThreadPoolFviEPS2_mEEE9_M_invokeERKSt9_Any_data
FNDA:4,_ZNSt14_Function_base13_Base_managerIZ14handleCommandsiRSt6vectorISt10unique_ptrI12ActiveObjectSt14default_deleteIS3_EESaIS6_EERS2_I5GraphS4_ISA_EER10MSTFactoryRS2_I4TreeS4_ISG_EEEUlvE10_E10_M_managerERSt9_Any_dataRKSM_St18_Manager_operation
FNDA:4,_ZNSt17_Function_handlerIFvvEZ14handleCommandsiRSt6vectorISt10unique_ptrI12ActiveObjectSt14default_deleteIS3_EESaIS6_EERS2_I5GraphS4_ISA_EER10MSTFactoryRS2_I4TreeS4_ISG_EEEUlvE10_E10_M_managerERSt9_Any_dataRKSM_St18_Manager_operation
FNDA:11,_ZNSt8functionIFviEE4swapERS1_
FNDA:6,_ZNKSt9_Any_data9_M_accessIPZ14handleCommandsiRSt6vectorISt10unique_ptrI12ActiveObjectSt14default_deleteIS3_EESaIS6_EERS2_I5GraphS4_ISA_EER10MSTFactoryRS2_I4TreeS4_ISG_EEEUlvE8_EERKT_v
FNDA:4,_ZNSt14_Function_base13_Base_managerIZ14handleCommandsiRSt6vectorISt10unique_ptrI12ActiveObjectSt14default_deleteIS3_EESaIS6_EERS2_I5GraphS4_ISA_EER10MSTFactoryRS2_I4TreeS4_ISG_EEEUlvE4_E10_M_destroyERSt9_Any_dataSt17integral_constantIbLb0EE
FNDA:4,_ZNSt14_Function_base13_Base_managerIZ14handleCommandsiRSt6vectorISt10unique_ptrI12ActiveObjectSt14default_deleteIS3_EESaIS6_EERS2_I5GraphS4_ISA_EER10MSTFactoryRS2_I4TreeS4_ISG_EEEUlvE4_E10_M_managerERSt9_Any_dataRKSM_St18_Manager_operation
FNDA:4,_ZNSt17_Function_handlerIFvvEZ14handleCommandsiRSt6vectorISt10unique_ptrI12ActiveObjectSt14default_deleteIS3_EESaIS6_EERS2_I5GraphS4_ISA_EER10MSTFactoryRS2_I4TreeS4_ISG_EEEUlvE10_E9_M_invokeERKSt9_Any_data
FNDA:8,_ZNSt8functionIFvvEEC2IZ16acceptConnectioniRSt10unique_ptrI5GraphSt14default_deleteIS4_EER10MSTFactoryRS3_I4TreeS5_ISB_EERS3_I12LFThreadPoolS5_ISF_EEEUlvE_vEEOT_
FNDA:4,_ZNKSt9_Any_data9_M_accessIPZ14handleCommandsiRSt6vectorISt10unique_ptrI12ActiveObjectSt14default_deleteIS3_EESaIS6_EERS2_I5GraphS4_ISA_EER10MSTFactoryRS2_I4TreeS4_ISG_EEEUlvE5_EERKT_v
FNDA:4,_ZNSt14_Function_base13_Base_managerIZZZ14handleCommandsiRSt6vectorISt10unique_ptrI12ActiveObjectSt14default_deleteIS3_EESaIS6_EERS2_I5GraphS4_ISA_EER10MSTFactoryRS2_I4TreeS4_ISG_EEENKUlvE3_clEvENKUlvE_clEvEUlvE_E10_M_destroyERSt9_Any_dataSt17integral_constantIbLb0EE
FNDA:4,_ZNSt14_Function_base13_Base_managerIZZZZZ14handleCommandsiRSt6vectorISt10unique_ptrI12ActiveObjectSt14default_deleteIS3_EESaIS6_EERS2_I5GraphS4_ISA_EER10MSTFactoryRS2_I4TreeS4_ISG_EEENKUlvE3_clEvENKUlvE_clEvENKUlvE_clEvENKUlvE_clEvEUlvE_E9_M_createIRSO_EEvRSt9_Any_dataOT_St17integral_constantIbLb0EE
FNDA:0,_ZNSt14_Function_base13_Base_managerIZ14handleCommandsiRSt6vectorISt10unique_ptrI12ActiveObjectSt14default_deleteIS3_EESaIS6_EERS2_I5GraphS4_ISA_EER10MSTFactoryRS2_I4TreeS4_ISG_EEEUlvE_E15_M_init_functorIRKSK_EEvRSt9_Any_dataOT_
FNDA:22,_ZNSt9_Any_data9_M_accessIPZ4mainEUliE_EERT_v
FNDA:4,_ZNSt14_Function_base13_Base_managerIZZ14handleCommandsiRSt6vectorISt10unique_ptrI12ActiveObjectSt14default_deleteIS3_EESaIS6_EERS2_I5GraphS4_ISA_EER10MSTFactoryRS2_I4TreeS4_ISG_EEENKUlvE3_clEvEUlvE_E15_M_init_functorIRSL_EEvRSt9_Any_dataOT_
FNDA:79,_ZNSt8functionIFvvEEC2ERKS1_
FNDA:0,_ZNSt14_Function_base13_Base_managerIZ14handleCommandsiRSt6vectorISt10unique_ptrI12ActiveObjectSt14default_deleteIS3_EESaIS6_EERS2_I5GraphS4_ISA_EER10MSTFactoryRS2_I4TreeS4_ISG_EEEUlvE3_E9_M_createIRKSK_EEvRSt9_Any_dataOT_St17integral_constantIbLb0EE
FNDA:16,_ZNKSt9_Any_data9_M_accessIPZ14handleCommandsiRSt6vectorISt10unique_ptrI12ActiveObjectSt14default_deleteIS3_EESaIS6_EERS2_I5GraphS4_ISA_EER10MSTFactoryRS2_I4TreeS4_ISG_EEEUlvE3_EERKT_v
FNDA:10,_ZNSt17_Function_handlerIFvvEZ14handleCommandsiRSt6vectorISt10unique_ptrI12ActiveObjectSt14default_deleteIS3_EESaIS6_EERS2_I5GraphS4_ISA_EER10MSTFactoryRS2_I4TreeS4_ISG_EEEUlvE6_E9_M_invokeERKSt9_Any_data
FNDA:0,_ZNSt14_Function_base13_Base_managerIZ14handleCommandsiRSt6vectorISt10unique_ptrI12ActiveObjectSt14default_deleteIS3_EESaIS6_EERS2_I5GraphS4_ISA_EER10MSTFactoryRS2_I4TreeS4_ISG_EEEUlvE8_E15_M_init_functorIRKSK_EEvRSt9_Any_dataOT_
FNDA:68,_ZNSt9_Any_data9_M_accessIPZ14handleCommandsiRSt6vectorISt10unique_ptrI12ActiveObjectSt14default_deleteIS3_EESaIS6_EERS2_I5GraphS4_ISA_EER10MSTFactoryRS2_I4TreeS4_ISG_EEEUlvE0_EERT_v
FNDA:12,_ZNSt8functionIFvvEEC2IRZ14handleCommandsiRSt6vectorISt10unique_ptrI12ActiveObjectSt14default_deleteIS5_EESaIS8_EERS4_I5GraphS6_ISC_EER10MSTFactoryRS4_I4TreeS6_ISI_EEEUlvE2_vEEOT_
FNDA:0,_ZNSt14_Function_base13_Base_managerIZ14handleCommandsiRSt6vectorISt10unique_ptrI12ActiveObjectSt14default_deleteIS3_EESaIS6_EERS2_I5GraphS4_ISA_EER10MSTFactoryRS2_I4TreeS4_ISG_EEEUlvE2_E15_M_init_functorIRKSK_EEvRSt9_Any_dataOT_
FNDA:16,_ZNSt17_Function_handlerIFvvEZ14handleCommandsiRSt6vectorISt10unique_ptrI12ActiveObjectSt14default_deleteIS3_EESaIS6_EERS2_I5GraphS4_ISA_EER10MSTFactoryRS2_I4TreeS4_ISG_EEEUlvE_E9_M_invokeERKSt9_Any_data
FNDA:0,_ZNSt14_Function_base13_Base_managerIZZZ14handleCommandsiRSt6vectorISt10unique_ptrI12ActiveObjectSt14default_deleteIS3_EESaIS6_EERS2_I5GraphS4_ISA_EER10MSTFactoryRS2_I4TreeS4_ISG_EEENKUlvE3_clEvENKUlvE_clEvEUlvE_E15_M_init_functorIRKSM_EEvRSt9_Any_dataOT_
FNDA:0,_ZNSt14_Function_base13_Base_managerIZ14handleCommandsiRSt6vectorISt10unique_ptrI12ActiveObjectSt14default_deleteIS3_EESaIS6_EERS2_I5GraphS4_ISA_EER10MSTFactoryRS2_I4TreeS4_ISG_EEEUlvE4_E9_M_createIRKSK_EEvRSt9_Any_dataOT_St17integral_constantIbLb0EE
FNDA:10,_ZNSt14_Function_base13_Base_managerIZ14handleCommandsiRSt6vectorISt10unique_ptrI12ActiveObjectSt14default_deleteIS3_EESaIS6_EERS2_I5GraphS4_ISA_EER10MSTFactoryRS2_I4TreeS4_ISG_EEEUlvE6_E9_M_createIRSK_EEvRSt9_Any_dataOT_St17integral_constantIbLb0EE
FNDA:12,_ZNSt14_Function_base13_Base_managerIZ14handleCommandsiRSt6vectorISt10unique_ptrI12ActiveObjectSt14default_deleteIS3_EESaIS6_EERS2_I5GraphS4_ISA_EER10MSTFactoryRS2_I4TreeS4_ISG_EEEUlvE2_E14_M_get_pointerERKSt9_Any_data
FNDA:5,_ZNSt14_Function_base13_Base_managerIZ4mainEUlvE0_E21_M_not_empty_functionIS1_EEbRKT_
FNDA:5,_ZNSt14_Function_base13_Base_managerIZ4mainEUlvE0_E15_M_init_functorIRKS1_EEvRSt9_Any_dataOT_
FNDA:4,_ZNSt14_Function_base13_Base_managerIZZZZ14handleCommandsiRSt6vectorISt10unique_ptrI12ActiveObjectSt14default_deleteIS3_EESaIS6_EERS2_I5GraphS4_ISA_EER10MSTFactoryRS2_I4TreeS4_ISG_EEENKUlvE3_clEvENKUlvE_clEvENKUlvE_clEvEUlvE_E14_M_get_pointerERKSt9_Any_data
FNDA:32,_ZNSt14_Function_base13_Base_managerIZ16acceptConnectioniRSt10unique_ptrI5GraphSt14default_deleteIS2_EER10MSTFactoryRS1_I4TreeS3_IS9_EERS1_I12LFThreadPoolS3_ISD_EEEUlvE_E14_M_get_pointerERKSt9_Any_data
FNDA:0,_ZNSt14_Function_base13_Base_managerIZ14handleCommandsiRSt6vectorISt10unique_ptrI12ActiveObjectSt14default_deleteIS3_EESaIS6_EERS2_I5GraphS4_ISA_EER10MSTFactoryRS2_I4TreeS4_ISG_EEEUlvE_E9_M_createIRKSK_EEvRSt9_Any_dataOT_St17integral_constantIbLb0EE
FNDA:150,_ZNSt17_Function_handlerIFvvESt5_BindIFM12LFThreadPoolFviEPS2_mEEE10_M_managerERSt9_Any_dataRKS9_St18_Manager_operation
FNDA:0,_ZNSt14_Function_base13_Base_managerIZZZZZZ14handleCommandsiRSt6vectorISt10unique_ptrI12ActiveObjectSt14default_deleteIS3_EESaIS6_EERS2_I5GraphS4_ISA_EER10MSTFactoryRS2_I4TreeS4_ISG_EEENKUlvE3_clEvENKUlvE_clEvENKUlvE_clEvENKUlvE_clEvENKUlvE_clEvEUlvE_E15_M_init_functorIRKSP_EEvRSt9_Any_dataOT_
FNDA:4,_ZNSt8functionIFvvEEC2IRZZZZ14handleCommandsiRSt6vectorISt10unique_ptrI12ActiveObjectSt14default_deleteIS5_EESaIS8_EERS4_I5GraphS6_ISC_EER10MSTFactoryRS4_I4TreeS6_ISI_EEENKUlvE3_clEvENKUlvE_clEvENKUlvE_clEvEUlvE_vEEOT_
FNDA:4,_ZNSt14_Function_base13_Base_managerIZZZ14handleCommandsiRSt6vectorISt10unique_ptrI12ActiveObjectSt14default_deleteIS3_EESaIS6_EERS2_I5GraphS4_ISA_EER10MSTFactoryRS2_I4TreeS4_ISG_EEENKUlvE3_clEvENKUlvE_clEvEUlvE_E15_M_init_functorIRSM_EEvRSt9_Any_dataOT_
FNDA:0,_ZNSt14_Function_base13_Base_managerIZ14handleCommandsiRSt6vectorISt10unique_ptrI12ActiveObjectSt14default_deleteIS3_EESaIS6_EERS2_I5GraphS4_ISA_EER10MSTFactoryRS2_I4TreeS4_ISG_EEEUlvE9_E15_M_init_functorIRKSK_EEvRSt9_Any_dataOT_
FNDA:0,_ZNSt14_Function_base13_Base_managerIZ14handleCommandsiRSt6vectorISt10unique_ptrI12ActiveObjectSt14default_deleteIS3_EESaIS6_EERS2_I5GraphS4_ISA_EER10MSTFactoryRS2_I4TreeS4_ISG_EEEUlvE6_E15_M_init_functorIRKSK_EEvRSt9_Any_dataOT_
FNDA:0,_ZNSt14_Function_base13_Base_managerIZ14handleCommandsiRSt6vectorISt10unique_ptrI12ActiveObjectSt14default_deleteIS3_EESaIS6_EERS2_I5GraphS4_ISA_EER10MSTFactoryRS2_I4TreeS4_ISG_EEEUlvE4_E15_M_init_functorIRKSK_EEvRSt9_Any_dataOT_
FNDA:11,_ZNSt14_Function_base13_Base_managerIZ4mainEUliE_E21_M_not_empty_functionIS1_EEbRKT_
FNDA:50,_ZNSt14_Function_base13_Base_managerISt5_BindIFM12LFThreadPoolFviEPS2_mEEE21_M_not_empty_functionIS7_EEbRKT_
FNDA:4,_ZNSt17_Function_handlerIFvvEZ14handleCommandsiRSt6vectorISt10unique_ptrI12ActiveObjectSt14default_deleteIS3_EESaIS6_EERS2_I5GraphS4_ISA_EER10MSTFactoryRS2_I4TreeS4_ISG_EEEUlvE9_E9_M_invokeERKSt9_Any_data
FNDA:4,_ZNSt14_Function_base13_Base_managerIZZZ14handleCommandsiRSt6vectorISt10unique_ptrI12ActiveObjectSt14default_deleteIS3_EESaIS6_EERS2_I5GraphS4_ISA_EER10MSTFactoryRS2_I4TreeS4_ISG_EEENKUlvE3_clEvENKUlvE_clEvEUlvE_E21_M_not_empty_functionISM_EEbRKT_
FNDA:32,_ZNKSt9_Any_data9_M_accessIPZ16acceptConnectioniRSt10unique_ptrI5GraphSt14default_deleteIS2_EER10MSTFactoryRS1_I4TreeS3_IS9_EERS1_I12LFThreadPoolS3_ISD_EEEUlvE_EERKT_v
FNDA:6,_ZNSt14_Function_base13_Base_managerIZ14handleCommandsiRSt6vectorISt10unique_ptrI12ActiveObjectSt14default_deleteIS3_EESaIS6_EERS2_I5GraphS4_ISA_EER10MSTFactoryRS2_I4TreeS4_ISG_EEEUlvE8_E15_M_init_functorIRSK_EEvRSt9_Any_dataOT_
FNDA:16,_ZNSt14_Function_base13_Base_managerIZ14handleCommandsiRSt6vectorISt10unique_ptrI12ActiveObjectSt14default_deleteIS3_EESaIS6_EERS2_I5GraphS4_ISA_EER10MSTFactoryRS2_I4TreeS4_ISG_EEEUlvE3_E10_M_destroyERSt9_Any_dataSt17integral_constantIbLb0EE
FNDA:590,_ZNSt9_Any_data9_M_accessEv
FNDA:4,_ZNSt17_Function_handlerIFvvEZZ14handleCommandsiRSt6vectorISt10unique_ptrI12ActiveObjectSt14default_deleteIS3_EESaIS6_EERS2_I5GraphS4_ISA_EER10MSTFactoryRS2_I4TreeS4_ISG_EEENKUlvE3_clEvEUlvE_E10_M_managerERSt9_Any_dataRKSN_St18_Manager_operation
FNDA:4,_ZNSt14_Function_base13_Base_managerIZ14handleCommandsiRSt6vectorISt10unique_ptrI12ActiveObjectSt14default_deleteIS3_EESaIS6_EERS2_I5GraphS4_ISA_EER10MSTFactoryRS2_I4TreeS4_ISG_EEEUlvE10_E14_M_get_pointerERKSt9_Any_data
FNDA:687,_ZNSt14_Function_baseD2Ev
FNDA:64,_ZNSt9_Any_data9_M_accessIPZ16acceptConnectioniRSt10unique_ptrI5GraphSt14default_deleteIS2_EER10MSTFactoryRS1_I4TreeS3_IS9_EERS1_I12LFThreadPoolS3_ISD_EEEUlvE_EERT_v
FNDA:4,_ZNSt17_Function_handlerIFvvEZ14handleCommandsiRSt6vectorISt10unique_ptrI12ActiveObjectSt14default_deleteIS3_EESaIS6_EERS2_I5GraphS4_ISA_EER10MSTFactoryRS2_I4TreeS4_ISG_EEEUlvE5_E10_M_managerERSt9_Any_dataRKSM_St18_Manager_operation
FNDA:0,_ZNSt9_Any_data9_M_accessIPKSt9type_infoEERT_v
FNDA:6,_ZNSt14_Function_base13_Base_managerIZ14handleCommandsiRSt6vectorISt10unique_ptrI12ActiveObjectSt14default_deleteIS3_EESaIS6_EERS2_I5GraphS4_ISA_EER10MSTFactoryRS2_I4TreeS4_ISG_EEEUlvE8_E9_M_createIRSK_EEvRSt9_Any_dataOT_St17integral_constantIbLb0EE
FNDA:5,_ZNSt14_Function_base13_Base_managerIZ4mainEUlvE0_E15_M_init_functorIS1_EEvRSt9_Any_dataOT_
FNDA:34,_ZNSt14_Function_base13_Base_managerIZ14handleCommandsiRSt6vectorISt10unique_ptrI12ActiveObjectSt14default_deleteIS3_EESaIS6_EERS2_I5GraphS4_ISA_EER10MSTFactoryRS2_I4TreeS4_ISG_EEEUlvE0_E14_M_get_pointerERKSt9_Any_data
FNDA:155,_ZNSt8functionIFvvEE4swapERS1_
FNDA:440,_ZNKSt14_Function_base8_M_emptyEv
FNDA:4,_ZNSt14_Function_base13_Base_managerIZ14handleCommandsiRSt6vectorISt10unique_ptrI12ActiveObjectSt14default_deleteIS3_EESaIS6_EERS2_I5GraphS4_ISA_EER10MSTFactoryRS2_I4TreeS4_ISG_EEEUlvE4_E21_M_not_empty_functionISK_EEbRKT_
FNDA:4,_ZNSt17_Function_handlerIFvvEZZZ14handleCommandsiRSt6vectorISt10unique_ptrI12ActiveObjectSt14default_deleteIS3_EESaIS6_EERS2_I5GraphS4_ISA_EER10MSTFactoryRS2_I4TreeS4_ISG_EEENKUlvE3_clEvENKUlvE_clEvEUlvE_E9_M_invokeERKSt9_Any_data
FNDA:4,_ZNSt14_Function_base13_Base_managerIZZZZZZ14handleCommandsiRSt6vectorISt10unique_ptrI12ActiveObjectSt14default_deleteIS3_EESaIS6_EERS2_I5GraphS4_ISA_EER10MSTFactoryRS2_I4TreeS4_ISG_EEENKUlvE3_clEvENKUlvE_clEvENKUlvE_clEvENKUlvE_clEvENKUlvE_clEvEUlvE_E10_M_managerERSt9_Any_dataRKSR_St18_Manager_operation
FNDA:4,_ZNSt14_Function_base13_Base_managerIZ14handleCommandsiRSt6vectorISt10unique_ptrI12ActiveObjectSt14default_deleteIS3_EESaIS6_EERS2_I5GraphS4_ISA_EER10MSTFactoryRS2_I4TreeS4_ISG_EEEUlvE9_E10_M_managerERSt9_Any_dataRKSM_St18_Manager_operation
FNDA:4,_ZNSt17_Function_handlerIFvvEZ14handleCommandsiRSt6vectorISt10unique_ptrI12ActiveObjectSt14default_deleteIS3_EESaIS6_EERS2_I5GraphS4_ISA_EER10MSTFactoryRS2_I4TreeS4_ISG_EEEUlvE4_E9_M_invokeERKSt9_Any_data
FNDA:4,_ZNSt17_Function_handlerIFvvEZ14handleCommandsiRSt6vectorISt10unique_ptrI12ActiveObjectSt14default_deleteIS3_EESaIS6_EERS2_I5GraphS4_ISA_EER10MSTFactoryRS2_I4TreeS4_ISG_EEEUlvE4_E10_M_managerERSt9_Any_dataRKSM_St18_Manager_operation
FNDA:4,_ZNSt14_Function_base13_Base_managerIZZZZZZ14handleCommandsiRSt6vectorISt10unique_ptrI12ActiveObjectSt14default_deleteIS3_EESaIS6_EERS2_I5GraphS4_ISA_EER10MSTFactoryRS2_I4TreeS4_ISG_EEENKUlvE3_clEvENKUlvE_clEvENKUlvE_clEvENKUlvE_clEvENKUlvE_clEvEUlvE_E15_M_init_functorIRSP_EEvRSt9_Any_dataOT_
FNDA:5,_ZNSt14_Function_base13_Base_managerIZ4mainEUlvE0_E9_M_createIS1_EEvRSt9_Any_dataOT_St17integral_constantIbLb0EE
FNDA:4,_ZNSt14_Function_base13_Base_managerIZ14handleCommandsiRSt6vectorISt10unique_ptrI12ActiveObjectSt14default_deleteIS3_EESaIS6_EERS2_I5GraphS4_ISA_EER10MSTFactoryRS2_I4TreeS4_ISG_EEEUlvE9_E15_M_init_functorIRSK_EEvRSt9_Any_dataOT_
FNDA:4,_ZNSt17_Function_handlerIFvvEZZZZZ14handleCommandsiRSt6vectorISt10unique_ptrI12ActiveObjectSt14default_deleteIS3_EESaIS6_EERS2_I5GraphS4_ISA_EER10MSTFactoryRS2_I4TreeS4_ISG_EEENKUlvE3_clEvENKUlvE_clEvENKUlvE_clEvENKUlvE_clEvEUlvE_E10_M_managerERSt9_Any_dataRKSQ_St18_Manager_operation
FNDA:4,_ZNSt14_Function_base13_Base_managerIZZZZ14handleCommandsiRSt6vectorISt10unique_ptrI12ActiveObjectSt14default_deleteIS3_EESaIS6_EERS2_I5GraphS4_ISA_EER10MSTFactoryRS2_I4TreeS4_ISG_EEENKUlvE3_clEvENKUlvE_clEvENKUlvE_clEvEUlvE_E15_M_init_functorIRSN_EEvRSt9_Any_dataOT_
FNDA:0,_ZNSt14_Function_base13_Base_managerIZZZZZZ14handleCommandsiRSt6vectorISt10unique_ptrI12ActiveObjectSt14default_deleteIS3_EESaIS6_EERS2_I5GraphS4_ISA_EER10MSTFactoryRS2_I4TreeS4_ISG_EEENKUlvE3_clEvENKUlvE_clEvENKUlvE_clEvENKUlvE_clEvENKUlvE_clEvEUlvE_E9_M_createIRKSP_EEvRSt9_Any_dataOT_St17integral_constantIbLb0EE
FNDA:100,_ZNSt14_Function_base13_Base_managerISt5_BindIFM12LFThreadPoolFviEPS2_mEEE10_M_destroyERSt9_Any_dataSt17integral_constantIbLb0EE
FNDA:4,_ZNKSt9_Any_data9_M_accessIPZZZZZZ14handleCommandsiRSt6vectorISt10unique_ptrI12ActiveObjectSt14default_deleteIS3_EESaIS6_EERS2_I5GraphS4_ISA_EER10MSTFactoryRS2_I4TreeS4_ISG_EEENKUlvE3_clEvENKUlvE_clEvENKUlvE_clEvENKUlvE_clEvENKUlvE_clEvEUlvE_EERKT_v
FNDA:298,_ZNKSt9_Any_data9_M_accessEv
FNDA:4,_ZNSt14_Function_base13_Base_managerIZ14handleCommandsiRSt6vectorISt10unique_ptrI12ActiveObjectSt14default_deleteIS3_EESaIS6_EERS2_I5GraphS4_ISA_EER10MSTFactoryRS2_I4TreeS4_ISG_EEEUlvE4_E9_M_createIRSK_EEvRSt9_Any_dataOT_St17integral_constantIbLb0EE
FNDA:50,_ZNSt14_Function_base13_Base_managerISt5_BindIFM12LFThreadPoolFviEPS2_mEEE9_M_createIRKS7_EEvRSt9_Any_dataOT_St17integral_constantIbLb0EE
FNDA:0,_ZNSt14_Function_base13_Base_managerIZ14handleCommandsiRSt6vectorISt10unique_ptrI12ActiveObjectSt14default_deleteIS3_EESaIS6_EERS2_I5GraphS4_ISA_EER10MSTFactoryRS2_I4TreeS4_ISG_EEEUlvE5_E15_M_init_functorIRKSK_EEvRSt9_Any_dataOT_
FNDA:16,_ZNSt14_Function_base13_Base_managerIZ14handleCommandsiRSt6vectorISt10unique_ptrI12ActiveObjectSt14default_deleteIS3_EESaIS6_EERS2_I5GraphS4_ISA_EER10MSTFactoryRS2_I4TreeS4_ISG_EEEUlvE_E14_M_get_pointerERKSt9_Any_data
FNDA:11,_ZNSt14_Function_base13_Base_managerIZ4mainEUliE_E10_M_destroyERSt9_Any_dataSt17integral_constantIbLb0EE
FNDA:5,_ZNSt14_Function_base13_Base_managerIZ4mainEUlvE0_E9_M_createIRKS1_EEvRSt9_Any_dataOT_St17integral_constantIbLb0EE
FNDA:4,_ZNSt14_Function_base13_Base_managerIZ14handleCommandsiRSt6vectorISt10unique_ptrI12ActiveObjectSt14default_deleteIS3_EESaIS6_EERS2_I5GraphS4_ISA_EER10MSTFactoryRS2_I4TreeS4_ISG_EEEUlvE10_E10_M_destroyERSt9_Any_dataSt17integral_constantIbLb0EE
FNDA:100,_ZNSt14_Function_base13_Base_managerISt5_BindIFM12LFThreadPoolFviEPS2_mEEE14_M_get_pointerERKSt9_Any_data
FNDA:34,_ZNSt17_Function_handlerIFvvEZ14handleCommandsiRSt6vectorISt10unique_ptrI12ActiveObjectSt14default_deleteIS3_EESaIS6_EERS2_I5GraphS4_ISA_EER10MSTFactoryRS2_I4TreeS4_ISG_EEEUlvE0_E10_M_managerERSt9_Any_dataRKSM_St18_Manager_operation
FNDA:24,_ZNSt14_Function_base13_Base_managerIZ16acceptConnectioniRSt10unique_ptrI5GraphSt14default_deleteIS2_EER10MSTFactoryRS1_I4TreeS3_IS9_EERS1_I12LFThreadPoolS3_ISD_EEEUlvE_E15_M_init_functorIRKSH_EEvRSt9_Any_dataOT_
FNDA:4,_ZNSt17_Function_handlerIFvvEZ14handleCommandsiRSt6vectorISt10unique_ptrI12ActiveObjectSt14default_deleteIS3_EESaIS6_EERS2_I5GraphS4_ISA_EER10MSTFactoryRS2_I4TreeS4_ISG_EEEUlvE9_E10_M_managerERSt9_Any_dataRKSM_St18_Manager_operation
FNDA:221,_ZNKSt8functionIFvvEEcvbEv
FNDA:16,_ZNSt14_Function_base13_Base_managerIZ14handleCommandsiRSt6vectorISt10unique_ptrI12ActiveObjectSt14default_deleteIS3_EESaIS6_EERS2_I5GraphS4_ISA_EER10MSTFactoryRS2_I4TreeS4_ISG_EEEUlvE_E21_M_not_empty_functionISK_EEbRKT_
FNDA:4,_ZNSt14_Function_base13_Base_managerIZZZZZ14handleCommandsiRSt6vectorISt10unique_ptrI12ActiveObjectSt14default_deleteIS3_EESaIS6_EERS2_I5GraphS4_ISA_EER10MSTFactoryRS2_I4TreeS4_ISG_EEENKUlvE3_clEvENKUlvE_clEvENKUlvE_clEvENKUlvE_clEvEUlvE_E10_M_managerERSt9_Any_dataRKSQ_St18_Manager_operation
FNDA:16,_ZNSt14_Function_base13_Base_managerIZ14handleCommandsiRSt6vectorISt10unique_ptrI12ActiveObjectSt14default_deleteIS3_EESaIS6_EERS2_I5GraphS4_ISA_EER10MSTFactoryRS2_I4TreeS4_ISG_EEEUlvE_E10_M_managerERSt9_Any_dataRKSM_St18_Manager_operation
FNDA:50,_ZNSt14_Function_base13_Base_managerISt5_BindIFM12LFThreadPoolFviEPS2_mEEE15_M_init_functorIRKS7_EEvRSt9_Any_dataOT_
FNDA:34,_ZNSt14_Function_base13_Base_managerIZ14handleCommandsiRSt6vectorISt10unique_ptrI12ActiveObjectSt14default_deleteIS3_EESaIS6_EERS2_I5GraphS4_ISA_EER10MSTFactoryRS2_I4TreeS4_ISG_EEEUlvE0_E10_M_destroyERSt9_Any_dataSt17integral_constantIbLb0EE
FNDA:4,_ZNSt14_Function_base13_Base_managerIZZZZZZ14handleCommandsiRSt6vectorISt10unique_ptrI12ActiveObjectSt14default_deleteIS3_EESaIS6_EERS2_I5GraphS4_ISA_EER10MSTFactoryRS2_I4TreeS4_ISG_EEENKUlvE3_clEvENKUlvE_clEvENKUlvE_clEvENKUlvE_clEvENKUlvE_clEvEUlvE_E14_M_get_pointerERKSt9_Any_data
FNDA:4,_ZNSt8functionIFvvEEC2IRZ14handleCommandsiRSt6vectorISt10unique_ptrI12ActiveObjectSt14default_deleteIS5_EESaIS8_EERS4_I5GraphS6_ISC_EER10MSTFactoryRS4_I4TreeS6_ISI_EEEUlvE5_vEEOT_
FNDA:16,_ZNSt14_Function_base13_Base_managerIZ14handleCommandsiRSt6vectorISt10unique_ptrI12ActiveObjectSt14default_deleteIS3_EESaIS6_EERS2_I5GraphS4_ISA_EER10MSTFactoryRS2_I4TreeS4_ISG_EEEUlvE_E10_M_destroyERSt9_Any_dataSt17integral_constantIbLb0EE
FNDA:10,_ZNSt14_Function_base13_Base_managerIZ14handleCommandsiRSt6vectorISt10unique_ptrI12ActiveObjectSt14default_deleteIS3_EESaIS6_EERS2_I5GraphS4_ISA_EER10MSTFactoryRS2_I4TreeS4_ISG_EEEUlvE6_E14_M_get_pointerERKSt9_Any_data
FNDA:4,_ZNSt14_Function_base13_Base_managerIZZZZ14handleCommandsiRSt6vectorISt10unique_ptrI12ActiveObjectSt14default_deleteIS3_EESaIS6_EERS2_I5GraphS4_ISA_EER10MSTFactoryRS2_I4TreeS4_ISG_EEENKUlvE3_clEvENKUlvE_clEvENKUlvE_clEvEUlvE_E10_M_destroyERSt9_Any_dataSt17integral_constantIbLb0EE
FNDA:8,_ZNSt14_Function_base13_Base_managerIZ16acceptConnectioniRSt10unique_ptrI5GraphSt14default_deleteIS2_EER10MSTFactoryRS1_I4TreeS3_IS9_EERS1_I12LFThreadPoolS3_ISD_EEEUlvE_E21_M_not_empty_functionISH_EEbRKT_
FNDA:4,_ZNSt8functionIFvvEEC2IRZZZZZZ14handleCommandsiRSt6vectorISt10unique_ptrI12ActiveObjectSt14default_deleteIS5_EESaIS8_EERS4_I5GraphS6_ISC_EER10MSTFactoryRS4_I4TreeS6_ISI_EEENKUlvE3_clEvENKUlvE_clEvENKUlvE_clEvENKUlvE_clEvENKUlvE_clEvEUlvE_vEEOT_
FNDA:0,_ZNSt14_Function_base13_Base_managerIZZZZZ14handleCommandsiRSt6vectorISt10unique_ptrI12ActiveObjectSt14default_deleteIS3_EESaIS6_EERS2_I5GraphS4_ISA_EER10MSTFactoryRS2_I4TreeS4_ISG_EEENKUlvE3_clEvENKUlvE_clEvENKUlvE_clEvENKUlvE_clEvEUlvE_E15_M_init_functorIRKSO_EEvRSt9_Any_dataOT_
FNDA:0,_ZNSt14_Function_base13_Base_managerIZ4mainEUliE_E15_M_init_functorIRKS1_EEvRSt9_Any_dataOT_
FNDA:4,_ZNSt14_Function_base13_Base_managerIZZ14handleCommandsiRSt6vectorISt10unique_ptrI12ActiveObjectSt14default_deleteIS3_EESaIS6_EERS2_I5GraphS4_ISA_EER10MSTFactoryRS2_I4TreeS4_ISG_EEENKUlvE3_clEvEUlvE_E10_M_managerERSt9_Any_dataRKSN_St18_Manager_operation
FNDA:24,_ZNSt14_Function_base13_Base_managerIZ16acceptConnectioniRSt10unique_ptrI5GraphSt14default_deleteIS2_EER10MSTFactoryRS1_I4TreeS3_IS9_EERS1_I12LFThreadPoolS3_ISD_EEEUlvE_E9_M_createIRKSH_EEvRSt9_Any_dataOT_St17integral_constantIbLb0EE
FNDA:16,_ZNSt17_Function_handlerIFvvEZ14handleCommandsiRSt6vectorISt10unique_ptrI12ActiveObjectSt14default_deleteIS3_EESaIS6_EERS2_I5GraphS4_ISA_EER10MSTFactoryRS2_I4TreeS4_ISG_EEEUlvE_E10_M_managerERSt9_Any_dataRKSM_St18_Manager_operation
FNDA:200,_ZNSt9_Any_data9_M_accessIPSt5_BindIFM12LFThreadPoolFviEPS2_mEEEERT_v
FNDA:16,_ZNSt14_Function_base13_Base_managerIZ14handleCommandsiRSt6vectorISt10unique_ptrI12ActiveObjectSt14default_deleteIS3_EESaIS6_EERS2_I5GraphS4_ISA_EER10MSTFactoryRS2_I4TreeS4_ISG_EEEUlvE3_E10_M_managerERSt9_Any_dataRKSM_St18_Manager_operation
FNDA:4,_ZNSt17_Function_handlerIFvvEZ14handleCommandsiRSt6vectorISt10unique_ptrI12ActiveObjectSt14default_deleteIS3_EESaIS6_EERS2_I5GraphS4_ISA_EER10MSTFactoryRS2_I4TreeS4_ISG_EEEUlvE5_E9_M_invokeERKSt9_Any_data
FNDA:239,_ZNSt8functionIFvvEEC2Ev
FNDA:50,_ZNSt14_Function_base13_Base_managerISt5_BindIFM12LFThreadPoolFviEPS2_mEEE9_M_createIS7_EEvRSt9_Any_dataOT_St17integral_constantIbLb0EE
FNDA:8,_ZNSt9_Any_data9_M_accessIPZZZZ14handleCommandsiRSt6vectorISt10unique_ptrI12ActiveObjectSt14default_deleteIS3_EESaIS6_EERS2_I5GraphS4_ISA_EER10MSTFactoryRS2_I4TreeS4_ISG_EEENKUlvE3_clEvENKUlvE_clEvENKUlvE_clEvEUlvE_EERT_v
FNDA:13,_ZNSt8functionIFvvEEaSERKS1_
FNF:278
FNH:243
DA:85,590
DA:86,298
DA:90,590
DA:91,590
DA:95,298
DA:96,298
DA:134,298
DA:142,298
DA:158,295
DA:160,295
DA:161,295
DA:162,295
DA:173,295
DA:175,295
DA:176,295
DA:180,374
DA:183,374
DA:185,0
DA:187,0
DA:191,0
DA:193,0
DA:194,0
DA:195,0
DA:197,79
DA:198,79
DA:199,79
DA:200,79
DA:202,295
DA:203,295
DA:204,295
DA:206,374
DA:211,295
DA:215,295
DA:216,295
DA:235,216
DA:236,216
DA:239,687
DA:241,687
DA:243,687
DA:244,295
DA:245,687
DA:247,440
DA:267,374
DA:270,374
DA:273,0
DA:274,0
DA:275,0
DA:277,0
DA:278,0
DA:279,0
DA:281,374
DA:282,374
DA:284,374
DA:288,219
DA:290,219
DA:291,214
DA:368,250
DA:369,250
DA:386,79
DA:387,79
DA:389,79
DA:391,79
DA:392,79
DA:393,79
DA:395,79
DA:404,142
DA:405,142
DA:407,142
DA:409,142
DA:410,142
DA:411,142
DA:412,142
DA:414,142
DA:435,216
DA:437,216
DA:447,216
DA:449,216
DA:451,216
DA:452,216
DA:454,216
DA:469,13
DA:471,13
DA:472,13
DA:487,142
DA:489,142
DA:490,142
DA:530,11
DA:533,11
DA:534,11
DA:555,166
DA:557,166
DA:558,166
DA:559,166
DA:560,166
DA:572,221
DA:573,221
DA:586,219
DA:588,219
DA:589,0
DA:590,219
LF:100
LH:87
end_of_record
TN:
SF:/usr/include/c++/11/bits/std_mutex.h
FN:65,_ZNSt12__mutex_baseC2Ev
FN:91,_ZNSt5mutexC2Ev
FN:98,_ZNSt5mutex4lockEv
FN:108,_ZNSt5mutex8try_lockEv
FN:115,_ZNSt5mutex6unlockEv
FN:228,_ZNSt10lock_guardISt5mutexEC2ERS0_
FN:234,_ZNSt10lock_guardISt5mutexED2Ev
FNDA:42,_ZNSt10lock_guardISt5mutexEC2ERS0_
FNDA:97,_ZNSt5mutexC2Ev
FNDA:97,_ZNSt12__mutex_baseC2Ev
FNDA:85,_ZNSt5mutex8try_lockEv
FNDA:42,_ZNSt10lock_guardISt5mutexED2Ev
FNDA:1354,_ZNSt5mutex4lockEv
FNDA:1420,_ZNSt5mutex6unlockEv
FNF:7
FNH:7
DA:65,97
DA:91,97
DA:98,1354
DA:100,1354
DA:103,1354
DA:104,0
DA:105,1354
DA:108,85
DA:111,85
DA:115,1420
DA:118,1420
DA:119,1420
DA:228,42
DA:229,42
DA:234,42
DA:235,42
LF:16
LH:15
end_of_record
TN:
SF:/usr/include/c++/11/bits/std_thread.h
FN:86,_ZNSt6thread2idC2Ev
FN:89,_ZNSt6thread2idC2Em
FN:127,_ZNSt6threadC2IM12ActiveObjectFvvEJPS1_EvEEOT_DpOT0_
FN:149,_ZNSt6threadD2Ev
FN:175,_ZNKSt6thread8joinableEv
FN:206,_ZNSt6thread11_State_implINS_8_InvokerISt5tupleIJM12ActiveObjectFvvEPS3_EEEEEC2IJS5_S6_EEEDpOT_
FN:211,_ZNSt6thread11_State_implINS_8_InvokerISt5tupleIJM12ActiveObjectFvvEPS3_EEEEE6_M_runEv
FN:243,_ZNSt6thread8_InvokerISt5tupleIJM12ActiveObjectFvvEPS2_EEEC2IJS4_S5_EEEDpOT_
FN:258,_ZNSt6thread8_InvokerISt5tupleIJM12ActiveObjectFvvEPS2_EEE9_M_invokeIJLm0ELm1EEEEvSt12_Index_tupleIJXspT_EEE
FN:262,_ZNSt6thread8_InvokerISt5tupleIJM12ActiveObjectFvvEPS2_EEEclEv
FN:287,_ZSteqNSt6thread2idES0_
FN:313,_ZNSt11this_thread6get_idEv
FNDA:24,_ZNSt11this_thread6get_idEv
FNDA:66,_ZSteqNSt6thread2idES0_
FNDA:42,_ZNSt6thread8_InvokerISt5tupleIJM12ActiveObjectFvvEPS2_EEE9_M_invokeIJLm0ELm1EEEEvSt12_Index_tupleIJXspT_EEE
FNDA:42,_ZNSt6thread8_InvokerISt5tupleIJM12ActiveObjectFvvEPS2_EEEC2IJS4_S5_EEEDpOT_
FNDA:108,_ZNSt6thread2idC2Ev
FNDA:24,_ZNSt6thread2idC2Em
FNDA:42,_ZNSt6threadC2IM12ActiveObjectFvvEJPS1_EvEEOT_DpOT0_
FNDA:42,_ZNKSt6thread8joinableEv
FNDA:42,_ZNSt6threadD2Ev
FNDA:42,_ZNSt6thread11_State_implINS_8_InvokerISt5tupleIJM12ActiveObjectFvvEPS3_EEEEE6_M_runEv
FNDA:42,_ZNSt6thread8_InvokerISt5tupleIJM12ActiveObjectFvvEPS2_EEEclEv
FNDA:42,_ZNSt6thread11_State_implINS_8_InvokerISt5tupleIJM12ActiveObjectFvvEPS3_EEEEEC2IJS5_S6_EEEDpOT_
FNF:12
FNH:12
DA:86,108
DA:89,24
DA:127,42
DA:128,42
DA:138,42
DA:143,42
DA:144,42
DA:146,42
DA:149,42
DA:151,42
DA:152,0
DA:153,42
DA:175,42
DA:176,42
DA:206,42
DA:207,42
DA:208,42
DA:211,42
DA:243,42
DA:244,42
DA:245,42
DA:258,42
DA:259,42
DA:262,42
DA:266,42
DA:287,66
DA:293,66
DA:313,24
DA:318,24
LF:29
LH:28
end_of_record
TN:
SF:/usr/include/c++/11/bits/stl_algo.h
FN:79,_ZSt22__move_median_to_firstIN9__gnu_cxx17__normal_iteratorIP4EdgeSt6vectorIS2_SaIS2_EEEENS0_5__ops15_Iter_comp_iterIZN15KruskalStrategy7findMSTERK5GraphEUlS2_S2_E_EEEvT_SG_SG_SG_T0_
FN:813,_ZSt11__remove_ifIN9__gnu_cxx17__normal_iteratorIP4EdgeSt6vectorIS2_SaIS2_EEEENS0_5__ops10_Iter_predIZN5Graph10removeEdgeEiiEUlRKS2_E_EEET_SF_SF_T0_
FN:813,_ZSt11__remove_ifIN9__gnu_cxx17__normal_iteratorIP4EdgeSt6vectorIS2_SaIS2_EEEENS0_5__ops10_Iter_predIZN5Graph10removeEdgeEiiEUlRKS2_E0_EEET_SF_SF_T0_
FN:884,_ZSt9remove_ifIN9__gnu_cxx17__normal_iteratorIP4EdgeSt6vectorIS2_SaIS2_EEEEZN5Graph10removeEdgeEiiEUlRKS2_E_ET_SC_SC_T0_
FN:884,_ZSt9remove_ifIN9__gnu_cxx17__normal_iteratorIP4EdgeSt6vectorIS2_SaIS2_EEEEZN5Graph10removeEdgeEiiEUlRKS2_E0_ET_SC_SC_T0_
FN:1116,_ZSt9__reverseIN9__gnu_cxx17__normal_iteratorIPiSt6vectorIiSaIiEEEEEvT_S7_St26random_access_iterator_tag
FN:1145,_ZSt7reverseIN9__gnu_cxx17__normal_iteratorIPiSt6vectorIiSaIiEEEEEvT_S7_
FN:1642,_ZSt13__heap_selectIN9__gnu_cxx17__normal_iteratorIP4EdgeSt6vectorIS2_SaIS2_EEEENS0_5__ops15_Iter_comp_iterIZN15KruskalStrategy7findMSTERK5GraphEUlS2_S2_E_EEEvT_SG_SG_T0_
FN:1799,_ZSt25__unguarded_linear_insertIN9__gnu_cxx17__normal_iteratorIP4EdgeSt6vectorIS2_SaIS2_EEEENS0_5__ops14_Val_comp_iterIZN15KruskalStrategy7findMSTERK5GraphEUlS2_S2_E_EEEvT_T0_
FN:1819,_ZSt16__insertion_sortIN9__gnu_cxx17__normal_iteratorIP4EdgeSt6vectorIS2_SaIS2_EEEENS0_5__ops15_Iter_comp_iterIZN15KruskalStrategy7findMSTERK5GraphEUlS2_S2_E_EEEvT_SG_T0_
FN:1843,_ZSt26__unguarded_insertion_sortIN9__gnu_cxx17__normal_iteratorIP4EdgeSt6vectorIS2_SaIS2_EEEENS0_5__ops15_Iter_comp_iterIZN15KruskalStrategy7findMSTERK5GraphEUlS2_S2_E_EEEvT_SG_T0_
FN:1861,_ZSt22__final_insertion_sortIN9__gnu_cxx17__normal_iteratorIP4EdgeSt6vectorIS2_SaIS2_EEEENS0_5__ops15_Iter_comp_iterIZN15KruskalStrategy7findMSTERK5GraphEUlS2_S2_E_EEEvT_SG_T0_
FN:1878,_ZSt21__unguarded_partitionIN9__gnu_cxx17__normal_iteratorIP4EdgeSt6vectorIS2_SaIS2_EEEENS0_5__ops15_Iter_comp_iterIZN15KruskalStrategy7findMSTERK5GraphEUlS2_S2_E_EEET_SG_SG_SG_T0_
FN:1900,_ZSt27__unguarded_partition_pivotIN9__gnu_cxx17__normal_iteratorIP4EdgeSt6vectorIS2_SaIS2_EEEENS0_5__ops15_Iter_comp_iterIZN15KruskalStrategy7findMSTERK5GraphEUlS2_S2_E_EEET_SG_SG_T0_
FN:1912,_ZSt14__partial_sortIN9__gnu_cxx17__normal_iteratorIP4EdgeSt6vectorIS2_SaIS2_EEEENS0_5__ops15_Iter_comp_iterIZN15KruskalStrategy7findMSTERK5GraphEUlS2_S2_E_EEEvT_SG_SG_T0_
FN:1925,_ZSt16__introsort_loopIN9__gnu_cxx17__normal_iteratorIP4EdgeSt6vectorIS2_SaIS2_EEEElNS0_5__ops15_Iter_comp_iterIZN15KruskalStrategy7findMSTERK5GraphEUlS2_S2_E_EEEvT_SG_T0_T1_
FN:1949,_ZSt6__sortIN9__gnu_cxx17__normal_iteratorIP4EdgeSt6vectorIS2_SaIS2_EEEENS0_5__ops15_Iter_comp_iterIZN15KruskalStrategy7findMSTERK5GraphEUlS2_S2_E_EEEvT_SG_T0_
FN:4863,_ZSt4sortIN9__gnu_cxx17__normal_iteratorIP4EdgeSt6vectorIS2_SaIS2_EEEEZN15KruskalStrategy7findMSTERK5GraphEUlS2_S2_E_EvT_SD_T0_
FNDA:12,_ZSt4sortIN9__gnu_cxx17__normal_iteratorIP4EdgeSt6vectorIS2_SaIS2_EEEEZN15KruskalStrategy7findMSTERK5GraphEUlS2_S2_E_EvT_SD_T0_
FNDA:12,_ZSt16__introsort_loopIN9__gnu_cxx17__normal_iteratorIP4EdgeSt6vectorIS2_SaIS2_EEEElNS0_5__ops15_Iter_comp_iterIZN15KruskalStrategy7findMSTERK5GraphEUlS2_S2_E_EEEvT_SG_T0_T1_
FNDA:12,_ZSt22__final_insertion_sortIN9__gnu_cxx17__normal_iteratorIP4EdgeSt6vectorIS2_SaIS2_EEEENS0_5__ops15_Iter_comp_iterIZN15KruskalStrategy7findMSTERK5GraphEUlS2_S2_E_EEEvT_SG_T0_
FNDA:12,_ZSt6__sortIN9__gnu_cxx17__normal_iteratorIP4EdgeSt6vectorIS2_SaIS2_EEEENS0_5__ops15_Iter_comp_iterIZN15KruskalStrategy7findMSTERK5GraphEUlS2_S2_E_EEEvT_SG_T0_
FNDA:0,_ZSt22__move_median_to_firstIN9__gnu_cxx17__normal_iteratorIP4EdgeSt6vectorIS2_SaIS2_EEEENS0_5__ops15_Iter_comp_iterIZN15KruskalStrategy7findMSTERK5GraphEUlS2_S2_E_EEEvT_SG_SG_SG_T0_
FNDA:0,_ZSt13__heap_selectIN9__gnu_cxx17__normal_iteratorIP4EdgeSt6vectorIS2_SaIS2_EEEENS0_5__ops15_Iter_comp_iterIZN15KruskalStrategy7findMSTERK5GraphEUlS2_S2_E_EEEvT_SG_SG_T0_
FNDA:16,_ZSt9__reverseIN9__gnu_cxx17__normal_iteratorIPiSt6vectorIiSaIiEEEEEvT_S7_St26random_access_iterator_tag
FNDA:3,_ZSt11__remove_ifIN9__gnu_cxx17__normal_iteratorIP4EdgeSt6vectorIS2_SaIS2_EEEENS0_5__ops10_Iter_predIZN5Graph10removeEdgeEiiEUlRKS2_E0_EEET_SF_SF_T0_
FNDA:24,_ZSt25__unguarded_linear_insertIN9__gnu_cxx17__normal_iteratorIP4EdgeSt6vectorIS2_SaIS2_EEEENS0_5__ops14_Val_comp_iterIZN15KruskalStrategy7findMSTERK5GraphEUlS2_S2_E_EEEvT_T0_
FNDA:0,_ZSt27__unguarded_partition_pivotIN9__gnu_cxx17__normal_iteratorIP4EdgeSt6vectorIS2_SaIS2_EEEENS0_5__ops15_Iter_comp_iterIZN15KruskalStrategy7findMSTERK5GraphEUlS2_S2_E_EEET_SG_SG_T0_
FNDA:0,_ZSt26__unguarded_insertion_sortIN9__gnu_cxx17__normal_iteratorIP4EdgeSt6vectorIS2_SaIS2_EEEENS0_5__ops15_Iter_comp_iterIZN15KruskalStrategy7findMSTERK5GraphEUlS2_S2_E_EEEvT_SG_T0_
FNDA:0,_ZSt21__unguarded_partitionIN9__gnu_cxx17__normal_iteratorIP4EdgeSt6vectorIS2_SaIS2_EEEENS0_5__ops15_Iter_comp_iterIZN15KruskalStrategy7findMSTERK5GraphEUlS2_S2_E_EEET_SG_SG_SG_T0_
FNDA:3,_ZSt11__remove_ifIN9__gnu_cxx17__normal_iteratorIP4EdgeSt6vectorIS2_SaIS2_EEEENS0_5__ops10_Iter_predIZN5Graph10removeEdgeEiiEUlRKS2_E_EEET_SF_SF_T0_
FNDA:3,_ZSt9remove_ifIN9__gnu_cxx17__normal_iteratorIP4EdgeSt6vectorIS2_SaIS2_EEEEZN5Graph10removeEdgeEiiEUlRKS2_E0_ET_SC_SC_T0_
FNDA:3,_ZSt9remove_ifIN9__gnu_cxx17__normal_iteratorIP4EdgeSt6vectorIS2_SaIS2_EEEEZN5Graph10removeEdgeEiiEUlRKS2_E_ET_SC_SC_T0_
FNDA:16,_ZSt7reverseIN9__gnu_cxx17__normal_iteratorIPiSt6vectorIiSaIiEEEEEvT_S7_
FNDA:0,_ZSt14__partial_sortIN9__gnu_cxx17__normal_iteratorIP4EdgeSt6vectorIS2_SaIS2_EEEENS0_5__ops15_Iter_comp_iterIZN15KruskalStrategy7findMSTERK5GraphEUlS2_S2_E_EEEvT_SG_SG_T0_
FNDA:12,_ZSt16__insertion_sortIN9__gnu_cxx17__normal_iteratorIP4EdgeSt6vectorIS2_SaIS2_EEEENS0_5__ops15_Iter_comp_iterIZN15KruskalStrategy7findMSTERK5GraphEUlS2_S2_E_EEEvT_SG_T0_
FNF:18
FNH:12
DA:79,0
DA:82,0
DA:84,0
DA:85,0
DA:86,0
DA:87,0
DA:89,0
DA:91,0
DA:92,0
DA:93,0
DA:94,0
DA:96,0
DA:97,0
DA:813,6
DA:816,6
DA:817,6
DA:818,0
DA:819,6
DA:820,6
DA:821,14
DA:822,8
DA:824,8
DA:825,8
DA:827,6
DA:884,6
DA:894,6
DA:895,6
DA:1116,16
DA:1119,16
DA:1120,0
DA:1121,16
DA:1122,40
DA:1124,24
DA:1125,24
DA:1126,24
DA:1145,16
DA:1151,16
DA:1152,16
DA:1642,0
DA:1646,0
DA:1647,0
DA:1648,0
DA:1649,0
DA:1650,0
DA:1799,24
DA:1803,24
DA:1804,24
DA:1805,24
DA:1806,50
DA:1808,26
DA:1809,26
DA:1810,26
DA:1812,24
DA:1813,24
DA:1819,12
DA:1822,12
DA:1824,56
DA:1826,44
DA:1829,20
DA:1830,20
DA:1831,20
DA:1834,24
DA:1843,0
DA:1846,0
DA:1847,0
DA:1849,0
DA:1861,12
DA:1864,12
DA:1866,0
DA:1867,0
DA:1871,12
DA:1872,12
DA:1878,0
DA:1884,0
DA:1885,0
DA:1886,0
DA:1887,0
DA:1888,0
DA:1889,0
DA:1890,0
DA:1891,0
DA:1892,0
DA:1900,0
DA:1903,0
DA:1904,0
DA:1906,0
DA:1912,0
DA:1917,0
DA:1918,0
DA:1919,0
DA:1925,12
DA:1929,12
DA:1931,0
DA:1933,0
DA:1934,0
DA:1936,0
DA:1938,0
DA:1939,0
DA:1940,0
DA:1949,12
DA:1952,12
DA:1954,12
DA:1955,12
DA:1957,12
DA:1959,12
DA:4863,12
DA:4875,12
DA:4876,12
LF:108
LH:56
end_of_record
TN:
SF:/usr/include/c++/11/bits/stl_algobase.h
FN:152,_ZSt9iter_swapIN9__gnu_cxx17__normal_iteratorIP4EdgeSt6vectorIS2_SaIS2_EEEES7_EvT_T0_
FN:152,_ZSt9iter_swapIN9__gnu_cxx17__normal_iteratorIPiSt6vectorIiSaIiEEEES6_EvT_T0_
FN:230,_ZSt3minImERKT_S2_S2_
FN:254,_ZSt3maxIiERKT_S2_S2_
FN:254,_ZSt3maxImERKT_S2_S2_
FN:313,_ZSt12__niter_baseISt19_Bit_const_iteratorET_S1_
FN:313,_ZSt12__niter_baseIPSt4pairIiiEET_S3_
FN:313,_ZSt12__niter_baseIPSt6vectorIiSaIiEEET_S4_
FN:313,_ZSt12__niter_baseIPmET_S1_
FN:313,_ZSt12__niter_baseIPSt10unique_ptrI12ActiveObjectSt14default_deleteIS1_EEET_S6_
FN:313,_ZSt12__niter_baseIPiET_S1_
FN:313,_ZSt12__niter_baseIP4EdgeET_S2_
FN:313,_ZSt12__niter_baseIPSt6vectorI4EdgeSaIS1_EEET_S5_
FN:313,_ZSt12__niter_baseISt13_Bit_iteratorET_S1_
FN:313,_ZSt12__niter_baseIPPSt8functionIFvvEEET_S5_
FN:328,_ZSt12__niter_wrapIN9__gnu_cxx17__normal_iteratorIP4EdgeSt6vectorIS2_SaIS2_EEEES3_ET_S8_T0_
FN:328,_ZSt12__niter_wrapIN9__gnu_cxx17__normal_iteratorIPiSt6vectorIiSaIiEEEES2_ET_S7_T0_
FN:335,_ZSt12__niter_wrapIPPSt8functionIFvvEEET_RKS5_S5_
FN:335,_ZSt12__niter_wrapIPmET_RKS1_S1_
FN:335,_ZSt12__niter_wrapIPSt6vectorIiSaIiEEET_RKS4_S4_
FN:335,_ZSt12__niter_wrapISt13_Bit_iteratorET_RKS1_S1_
FN:335,_ZSt12__niter_wrapIPiET_RKS1_S1_
FN:335,_ZSt12__niter_wrapIP4EdgeET_RKS2_S2_
FN:380,_ZNSt11__copy_moveILb0ELb0ESt26random_access_iterator_tagE8__copy_mISt19_Bit_const_iteratorSt13_Bit_iteratorEET0_T_S6_S5_
FN:420,_ZNSt11__copy_moveILb0ELb1ESt26random_access_iterator_tagE8__copy_mImEEPT_PKS3_S6_S4_
FN:420,_ZNSt11__copy_moveILb1ELb1ESt26random_access_iterator_tagE8__copy_mI4EdgeEEPT_PKS4_S7_S5_
FN:420,_ZNSt11__copy_moveILb0ELb1ESt26random_access_iterator_tagE8__copy_mI4EdgeEEPT_PKS4_S7_S5_
FN:420,_ZNSt11__copy_moveILb0ELb1ESt26random_access_iterator_tagE8__copy_mIiEEPT_PKS3_S6_S4_
FN:420,_ZNSt11__copy_moveILb0ELb1ESt26random_access_iterator_tagE8__copy_mIPSt8functionIFvvEEEEPT_PKS7_SA_S8_
FN:420,_ZNSt11__copy_moveILb1ELb1ESt26random_access_iterator_tagE8__copy_mImEEPT_PKS3_S6_S4_
FN:486,_ZSt14__copy_move_a2ILb0EPKiPiET1_T0_S4_S3_
FN:486,_ZSt14__copy_move_a2ILb0EPiS0_ET1_T0_S2_S1_
FN:486,_ZSt14__copy_move_a2ILb1EPmS0_ET1_T0_S2_S1_
FN:486,_ZSt14__copy_move_a2ILb0EPK4EdgePS0_ET1_T0_S5_S4_
FN:486,_ZSt14__copy_move_a2ILb0EPmS0_ET1_T0_S2_S1_
FN:486,_ZSt14__copy_move_a2ILb0ESt19_Bit_const_iteratorSt13_Bit_iteratorET1_T0_S3_S2_
FN:486,_ZSt14__copy_move_a2ILb1EP4EdgeS1_ET1_T0_S3_S2_
FN:486,_ZSt14__copy_move_a2ILb0EPPSt8functionIFvvEES4_ET1_T0_S6_S5_
FN:521,_ZSt14__copy_move_a1ILb0EPmS0_ET1_T0_S2_S1_
FN:521,_ZSt14__copy_move_a1ILb1EPmS0_ET1_T0_S2_S1_
FN:521,_ZSt14__copy_move_a1ILb0ESt19_Bit_const_iteratorSt13_Bit_iteratorET1_T0_S3_S2_
FN:521,_ZSt14__copy_move_a1ILb0EPKiPiET1_T0_S4_S3_
FN:521,_ZSt14__copy_move_a1ILb0EPiS0_ET1_T0_S2_S1_
FN:521,_ZSt14__copy_move_a1ILb0EPPSt8functionIFvvEES4_ET1_T0_S6_S5_
FN:521,_ZSt14__copy_move_a1ILb0EPK4EdgePS0_ET1_T0_S5_S4_
FN:521,_ZSt14__copy_move_a1ILb1EP4EdgeS1_ET1_T0_S3_S2_
FN:527,_ZSt13__copy_move_aILb0EN9__gnu_cxx17__normal_iteratorIPKiSt6vectorIiSaIiEEEEPiET1_T0_SA_S9_
FN:527,_ZSt13__copy_move_aILb0EPPSt8functionIFvvEES4_ET1_T0_S6_S5_
FN:527,_ZSt13__copy_move_aILb1EN9__gnu_cxx17__normal_iteratorIP4EdgeSt6vectorIS2_SaIS2_EEEES7_ET1_T0_S9_S8_
FN:527,_ZSt13__copy_move_aILb1EN9__gnu_cxx17__normal_iteratorIPmSt6vectorImSaImEEEES2_ET1_T0_S8_S7_
FN:527,_ZSt13__copy_move_aILb0EN9__gnu_cxx17__normal_iteratorIPK4EdgeSt6vectorIS2_SaIS2_EEEEPS2_ET1_T0_SB_SA_
FN:527,_ZSt13__copy_move_aILb0EN9__gnu_cxx17__normal_iteratorIPKiSt6vectorIiSaIiEEEENS1_IPiS6_EEET1_T0_SB_SA_
FN:527,_ZSt13__copy_move_aILb0EPiS0_ET1_T0_S2_S1_
FN:527,_ZSt13__copy_move_aILb0EPmS0_ET1_T0_S2_S1_
FN:527,_ZSt13__copy_move_aILb0ESt19_Bit_const_iteratorSt13_Bit_iteratorET1_T0_S3_S2_
FN:611,_ZSt4copyISt19_Bit_const_iteratorSt13_Bit_iteratorET0_T_S3_S2_
FN:611,_ZSt4copyIPPSt8functionIFvvEES4_ET0_T_S6_S5_
FN:611,_ZSt4copyIN9__gnu_cxx17__normal_iteratorIPKiSt6vectorIiSaIiEEEENS1_IPiS6_EEET0_T_SB_SA_
FN:611,_ZSt4copyIPiS0_ET0_T_S2_S1_
FN:611,_ZSt4copyIN9__gnu_cxx17__normal_iteratorIPKiSt6vectorIiSaIiEEEEPiET0_T_SA_S9_
FN:611,_ZSt4copyIPmS0_ET0_T_S2_S1_
FN:611,_ZSt4copyISt13move_iteratorIN9__gnu_cxx17__normal_iteratorIPmSt6vectorImSaImEEEEES3_ET0_T_SA_S9_
FN:611,_ZSt4copyIN9__gnu_cxx17__normal_iteratorIPK4EdgeSt6vectorIS2_SaIS2_EEEEPS2_ET0_T_SB_SA_
FN:644,_ZSt4moveIN9__gnu_cxx17__normal_iteratorIP4EdgeSt6vectorIS2_SaIS2_EEEES7_ET0_T_S9_S8_
FN:714,_ZNSt20__copy_move_backwardILb1ELb0ESt26random_access_iterator_tagE13__copy_move_bIPSt6vectorIiSaIiEES6_EET0_T_S8_S7_
FN:731,_ZNSt20__copy_move_backwardILb0ELb1ESt26random_access_iterator_tagE13__copy_move_bIPSt8functionIFvvEEEEPT_PKS7_SA_S8_
FN:731,_ZNSt20__copy_move_backwardILb1ELb1ESt26random_access_iterator_tagE13__copy_move_bI4EdgeEEPT_PKS4_S7_S5_
FN:750,_ZSt23__copy_move_backward_a2ILb0EPPSt8functionIFvvEES4_ET1_T0_S6_S5_
FN:750,_ZSt23__copy_move_backward_a2ILb1EP4EdgeS1_ET1_T0_S3_S2_
FN:750,_ZSt23__copy_move_backward_a2ILb1EPSt6vectorIiSaIiEES3_ET1_T0_S5_S4_
FN:768,_ZSt23__copy_move_backward_a1ILb1EPSt6vectorIiSaIiEES3_ET1_T0_S5_S4_
FN:768,_ZSt23__copy_move_backward_a1ILb1EP4EdgeS1_ET1_T0_S3_S2_
FN:768,_ZSt23__copy_move_backward_a1ILb0EPPSt8functionIFvvEES4_ET1_T0_S6_S5_
FN:796,_ZSt22__copy_move_backward_aILb1EPSt6vectorIiSaIiEES3_ET1_T0_S5_S4_
FN:796,_ZSt22__copy_move_backward_aILb1EN9__gnu_cxx17__normal_iteratorIP4EdgeSt6vectorIS2_SaIS2_EEEES7_ET1_T0_S9_S8_
FN:796,_ZSt22__copy_move_backward_aILb0EPPSt8functionIFvvEES4_ET1_T0_S6_S5_
FN:848,_ZSt13copy_backwardIPPSt8functionIFvvEES4_ET0_T_S6_S5_
FN:884,_ZSt13move_backwardIN9__gnu_cxx17__normal_iteratorIP4EdgeSt6vectorIS2_SaIS2_EEEES7_ET0_T_S9_S8_
FN:884,_ZSt13move_backwardIPSt6vectorIiSaIiEES3_ET0_T_S5_S4_
FN:908,_ZSt9__fill_a1IPSt6vectorIiSaIiEES2_EN9__gnu_cxx11__enable_ifIXntsrSt11__is_scalarIT0_E7__valueEvE6__typeET_SB_RKS7_
FN:919,_ZSt9__fill_a1IPiiEN9__gnu_cxx11__enable_ifIXsrSt11__is_scalarIT0_E7__valueEvE6__typeET_S8_RKS4_
FN:968,_ZSt8__fill_aIPSt6vectorIiSaIiEES2_EvT_S4_RKT0_
FN:968,_ZSt8__fill_aIPiiEvT_S1_RKT0_
FN:992,_ZSt4fillIPSt6vectorIiSaIiEES2_EvT_S4_RKT0_
FN:1010,_ZSt17__size_to_integerm
FN:1109,_ZSt10__fill_n_aIPimiET_S1_T0_RKT1_St26random_access_iterator_tag
FN:1144,_ZSt6fill_nIPimiET_S1_T0_RKT1_
FN:1514,_ZSt4__lgl
FN:2061,_ZSt9__find_ifIN9__gnu_cxx17__normal_iteratorIP4EdgeSt6vectorIS2_SaIS2_EEEENS0_5__ops10_Iter_predIZN5Graph10removeEdgeEiiEUlRKS2_E0_EEET_SF_SF_T0_St26random_access_iterator_tag
FN:2061,_ZSt9__find_ifIN9__gnu_cxx17__normal_iteratorIP4EdgeSt6vectorIS2_SaIS2_EEEENS0_5__ops10_Iter_predIZN5Graph10removeEdgeEiiEUlRKS2_E_EEET_SF_SF_T0_St26random_access_iterator_tag
FN:2112,_ZSt9__find_ifIN9__gnu_cxx17__normal_iteratorIP4EdgeSt6vectorIS2_SaIS2_EEEENS0_5__ops10_Iter_predIZN5Graph10removeEdgeEiiEUlRKS2_E_EEET_SF_SF_T0_
FN:2112,_ZSt9__find_ifIN9__gnu_cxx17__normal_iteratorIP4EdgeSt6vectorIS2_SaIS2_EEEENS0_5__ops10_Iter_predIZN5Graph10removeEdgeEiiEUlRKS2_E0_EEET_SF_SF_T0_
FNDA:0,_ZSt14__copy_move_a1ILb0EPiS0_ET1_T0_S2_S1_
FNDA:44,_ZSt14__copy_move_a2ILb0EPmS0_ET1_T0_S2_S1_
FNDA:160,_ZSt10__fill_n_aIPimiET_S1_T0_RKT1_St26random_access_iterator_tag
FNDA:372,_ZSt12__niter_baseIPiET_S1_
FNDA:144,_ZSt12__niter_baseIPSt10unique_ptrI12ActiveObjectSt14default_deleteIS1_EEET_S6_
FNDA:0,_ZSt4copyIPiS0_ET0_T_S2_S1_
FNDA:48,_ZSt14__copy_move_a2ILb0EPK4EdgePS0_ET1_T0_S5_S4_
FNDA:120,_ZSt12__niter_wrapIPiET_RKS1_S1_
FNDA:0,_ZSt13__copy_move_aILb0EPiS0_ET1_T0_S2_S1_
FNDA:20,_ZNSt20__copy_move_backwardILb1ELb1ESt26random_access_iterator_tagE13__copy_move_bI4EdgeEEPT_PKS4_S7_S5_
FNDA:160,_ZSt8__fill_aIPiiEvT_S1_RKT0_
FNDA:0,_ZSt4moveIN9__gnu_cxx17__normal_iteratorIP4EdgeSt6vectorIS2_SaIS2_EEEES7_ET0_T_S9_S8_
FNDA:4,_ZSt4copyISt13move_iteratorIN9__gnu_cxx17__normal_iteratorIPmSt6vectorImSaImEEEEES3_ET0_T_SA_S9_
FNDA:20,_ZSt13move_backwardIN9__gnu_cxx17__normal_iteratorIP4EdgeSt6vectorIS2_SaIS2_EEEES7_ET0_T_S9_S8_
FNDA:160,_ZSt9__fill_a1IPiiEN9__gnu_cxx11__enable_ifIXsrSt11__is_scalarIT0_E7__valueEvE6__typeET_S8_RKS4_
FNDA:0,_ZSt14__copy_move_a1ILb0EPPSt8functionIFvvEES4_ET1_T0_S6_S5_
FNDA:48,_ZSt14__copy_move_a1ILb0EPK4EdgePS0_ET1_T0_S5_S4_
FNDA:20,_ZSt23__copy_move_backward_a1ILb1EP4EdgeS1_ET1_T0_S3_S2_
FNDA:0,_ZSt9__fill_a1IPSt6vectorIiSaIiEES2_EN9__gnu_cxx11__enable_ifIXntsrSt11__is_scalarIT0_E7__valueEvE6__typeET_SB_RKS7_
FNDA:44,_ZSt13__copy_move_aILb0EPmS0_ET1_T0_S2_S1_
FNDA:2556,_ZSt12__niter_baseIP4EdgeET_S2_
FNDA:120,_ZSt4copyIN9__gnu_cxx17__normal_iteratorIPKiSt6vectorIiSaIiEEEEPiET0_T_SA_S9_
FNDA:48,_ZSt12__niter_wrapIP4EdgeET_RKS2_S2_
FNDA:0,_ZSt4fillIPSt6vectorIiSaIiEES2_EvT_S4_RKT0_
FNDA:44,_ZSt14__copy_move_a2ILb0ESt19_Bit_const_iteratorSt13_Bit_iteratorET1_T0_S3_S2_
FNDA:0,_ZSt14__copy_move_a2ILb1EP4EdgeS1_ET1_T0_S3_S2_
FNDA:44,_ZSt4copyIPmS0_ET0_T_S2_S1_
FNDA:0,_ZSt13move_backwardIPSt6vectorIiSaIiEES3_ET0_T_S5_S4_
FNDA:5,_ZSt3maxIiERKT_S2_S2_
FNDA:0,_ZSt23__copy_move_backward_a1ILb0EPPSt8functionIFvvEES4_ET1_T0_S6_S5_
FNDA:160,_ZSt6fill_nIPimiET_S1_T0_RKT1_
FNDA:44,_ZNSt11__copy_moveILb0ELb0ESt26random_access_iterator_tagE8__copy_mISt19_Bit_const_iteratorSt13_Bit_iteratorEET0_T_S6_S5_
FNDA:24,_ZSt9iter_swapIN9__gnu_cxx17__normal_iteratorIPiSt6vectorIiSaIiEEEES6_EvT_T0_
FNDA:0,_ZSt14__copy_move_a2ILb0EPPSt8functionIFvvEES4_ET1_T0_S6_S5_
FNDA:3,_ZSt9__find_ifIN9__gnu_cxx17__normal_iteratorIP4EdgeSt6vectorIS2_SaIS2_EEEENS0_5__ops10_Iter_predIZN5Graph10removeEdgeEiiEUlRKS2_E_EEET_SF_SF_T0_
FNDA:0,_ZSt9iter_swapIN9__gnu_cxx17__normal_iteratorIP4EdgeSt6vectorIS2_SaIS2_EEEES7_EvT_T0_
FNDA:126,_ZSt12__niter_baseIPSt6vectorI4EdgeSaIS1_EEET_S5_
FNDA:3,_ZSt9__find_ifIN9__gnu_cxx17__normal_iteratorIP4EdgeSt6vectorIS2_SaIS2_EEEENS0_5__ops10_Iter_predIZN5Graph10removeEdgeEiiEUlRKS2_E0_EEET_SF_SF_T0_
FNDA:0,_ZSt14__copy_move_a1ILb1EP4EdgeS1_ET1_T0_S3_S2_
FNDA:44,_ZSt12__niter_baseISt13_Bit_iteratorET_S1_
FNDA:0,_ZSt12__niter_baseIPPSt8functionIFvvEEET_S5_
FNDA:4,_ZNSt11__copy_moveILb1ELb1ESt26random_access_iterator_tagE8__copy_mImEEPT_PKS3_S6_S4_
FNDA:44,_ZSt13__copy_move_aILb0ESt19_Bit_const_iteratorSt13_Bit_iteratorET1_T0_S3_S2_
FNDA:48,_ZSt4copyIN9__gnu_cxx17__normal_iteratorIPK4EdgeSt6vectorIS2_SaIS2_EEEEPS2_ET0_T_SB_SA_
FNDA:620,_ZSt3maxImERKT_S2_S2_
FNDA:120,_ZSt13__copy_move_aILb0EN9__gnu_cxx17__normal_iteratorIPKiSt6vectorIiSaIiEEEEPiET1_T0_SA_S9_
FNDA:0,_ZSt13__copy_move_aILb0EPPSt8functionIFvvEES4_ET1_T0_S6_S5_
FNDA:0,_ZSt23__copy_move_backward_a2ILb0EPPSt8functionIFvvEES4_ET1_T0_S6_S5_
FNDA:20,_ZSt23__copy_move_backward_a2ILb1EP4EdgeS1_ET1_T0_S3_S2_
FNDA:20,_ZSt12__niter_wrapIN9__gnu_cxx17__normal_iteratorIP4EdgeSt6vectorIS2_SaIS2_EEEES3_ET_S8_T0_
FNDA:0,_ZSt13__copy_move_aILb1EN9__gnu_cxx17__normal_iteratorIP4EdgeSt6vectorIS2_SaIS2_EEEES7_ET1_T0_S9_S8_
FNDA:0,_ZSt13copy_backwardIPPSt8functionIFvvEES4_ET0_T_S6_S5_
FNDA:12,_ZSt4__lgl
FNDA:0,_ZNSt20__copy_move_backwardILb0ELb1ESt26random_access_iterator_tagE13__copy_move_bIPSt8functionIFvvEEEEPT_PKS7_SA_S8_
FNDA:3,_ZSt9__find_ifIN9__gnu_cxx17__normal_iteratorIP4EdgeSt6vectorIS2_SaIS2_EEEENS0_5__ops10_Iter_predIZN5Graph10removeEdgeEiiEUlRKS2_E_EEET_SF_SF_T0_St26random_access_iterator_tag
FNDA:88,_ZSt12__niter_baseISt19_Bit_const_iteratorET_S1_
FNDA:44,_ZSt14__copy_move_a1ILb0EPmS0_ET1_T0_S2_S1_
FNDA:160,_ZSt17__size_to_integerm
FNDA:156,_ZSt12__niter_baseIPSt4pairIiiEET_S3_
FNDA:3,_ZSt9__find_ifIN9__gnu_cxx17__normal_iteratorIP4EdgeSt6vectorIS2_SaIS2_EEEENS0_5__ops10_Iter_predIZN5Graph10removeEdgeEiiEUlRKS2_E0_EEET_SF_SF_T0_St26random_access_iterator_tag
FNDA:0,_ZSt22__copy_move_backward_aILb1EPSt6vectorIiSaIiEES3_ET1_T0_S5_S4_
FNDA:120,_ZSt14__copy_move_a2ILb0EPKiPiET1_T0_S4_S3_
FNDA:0,_ZNSt20__copy_move_backwardILb1ELb0ESt26random_access_iterator_tagE13__copy_move_bIPSt6vectorIiSaIiEES6_EET0_T_S8_S7_
FNDA:44,_ZSt4copyISt19_Bit_const_iteratorSt13_Bit_iteratorET0_T_S3_S2_
FNDA:44,_ZNSt11__copy_moveILb0ELb1ESt26random_access_iterator_tagE8__copy_mImEEPT_PKS3_S6_S4_
FNDA:0,_ZSt12__niter_wrapIN9__gnu_cxx17__normal_iteratorIPiSt6vectorIiSaIiEEEES2_ET_S7_T0_
FNDA:4,_ZSt13__copy_move_aILb1EN9__gnu_cxx17__normal_iteratorIPmSt6vectorImSaImEEEES2_ET1_T0_S8_S7_
FNDA:20,_ZSt22__copy_move_backward_aILb1EN9__gnu_cxx17__normal_iteratorIP4EdgeSt6vectorIS2_SaIS2_EEEES7_ET1_T0_S9_S8_
FNDA:0,_ZSt12__niter_baseIPSt6vectorIiSaIiEEET_S4_
FNDA:0,_ZSt12__niter_wrapIPPSt8functionIFvvEEET_RKS5_S5_
FNDA:0,_ZNSt11__copy_moveILb1ELb1ESt26random_access_iterator_tagE8__copy_mI4EdgeEEPT_PKS4_S7_S5_
FNDA:0,_ZSt23__copy_move_backward_a1ILb1EPSt6vectorIiSaIiEES3_ET1_T0_S5_S4_
FNDA:4,_ZSt14__copy_move_a1ILb1EPmS0_ET1_T0_S2_S1_
FNDA:44,_ZSt14__copy_move_a1ILb0ESt19_Bit_const_iteratorSt13_Bit_iteratorET1_T0_S3_S2_
FNDA:0,_ZSt8__fill_aIPSt6vectorIiSaIiEES2_EvT_S4_RKT0_
FNDA:0,_ZSt22__copy_move_backward_aILb0EPPSt8functionIFvvEES4_ET1_T0_S6_S5_
FNDA:48,_ZSt12__niter_wrapIPmET_RKS1_S1_
FNDA:48,_ZNSt11__copy_moveILb0ELb1ESt26random_access_iterator_tagE8__copy_mI4EdgeEEPT_PKS4_S7_S5_
FNDA:48,_ZSt13__copy_move_aILb0EN9__gnu_cxx17__normal_iteratorIPK4EdgeSt6vectorIS2_SaIS2_EEEEPS2_ET1_T0_SB_SA_
FNDA:0,_ZSt14__copy_move_a2ILb0EPiS0_ET1_T0_S2_S1_
FNDA:196,_ZSt12__niter_baseIPmET_S1_
FNDA:0,_ZSt12__niter_wrapIPSt6vectorIiSaIiEEET_RKS4_S4_
FNDA:120,_ZSt14__copy_move_a1ILb0EPKiPiET1_T0_S4_S3_
FNDA:0,_ZSt13__copy_move_aILb0EN9__gnu_cxx17__normal_iteratorIPKiSt6vectorIiSaIiEEEENS1_IPiS6_EEET1_T0_SB_SA_
FNDA:44,_ZSt12__niter_wrapISt13_Bit_iteratorET_RKS1_S1_
FNDA:0,_ZSt4copyIN9__gnu_cxx17__normal_iteratorIPKiSt6vectorIiSaIiEEEENS1_IPiS6_EEET0_T_SB_SA_
FNDA:1417,_ZSt3minImERKT_S2_S2_
FNDA:0,_ZSt23__copy_move_backward_a2ILb1EPSt6vectorIiSaIiEES3_ET1_T0_S5_S4_
FNDA:0,_ZSt4copyIPPSt8functionIFvvEES4_ET0_T_S6_S5_
FNDA:120,_ZNSt11__copy_moveILb0ELb1ESt26random_access_iterator_tagE8__copy_mIiEEPT_PKS3_S6_S4_
FNDA:0,_ZNSt11__copy_moveILb0ELb1ESt26random_access_iterator_tagE8__copy_mIPSt8functionIFvvEEEEPT_PKS7_SA_S8_
FNDA:4,_ZSt14__copy_move_a2ILb1EPmS0_ET1_T0_S2_S1_
FNF:92
FNH:57
DA:152,24
DA:182,24
DA:184,24
DA:230,1417
DA:235,1417
DA:236,2
DA:237,1415
DA:254,625
DA:259,625
DA:260,320
DA:261,305
DA:313,3682
DA:315,3682
DA:328,20
DA:329,20
DA:335,260
DA:336,260
DA:380,44
DA:383,252
DA:385,208
DA:386,208
DA:387,208
DA:389,44
DA:420,216
DA:429,216
DA:430,216
DA:431,168
DA:432,216
DA:486,260
DA:495,260
DA:521,260
DA:522,260
DA:527,260
DA:529,260
DA:532,260
DA:611,260
DA:620,260
DA:644,0
DA:652,0
DA:653,0
DA:714,0
DA:717,0
DA:718,0
DA:719,0
DA:720,0
DA:731,20
DA:740,20
DA:741,20
DA:742,20
DA:743,20
DA:750,20
DA:760,20
DA:762,20
DA:768,20
DA:769,20
DA:796,20
DA:798,20
DA:801,20
DA:848,0
DA:859,0
DA:884,20
DA:894,20
DA:896,20
DA:908,0
DA:911,0
DA:912,0
DA:913,0
DA:919,160
DA:922,160
DA:923,916
DA:924,756
DA:925,160
DA:968,160
DA:969,160
DA:992,0
DA:999,0
DA:1000,0
DA:1010,160
DA:1109,160
DA:1115,160
DA:1116,0
DA:1120,160
DA:1121,160
DA:1144,160
DA:1149,160
DA:1150,320
DA:1514,12
DA:1515,12
DA:2061,6
DA:2065,6
DA:2067,6
DA:2069,0
DA:2070,0
DA:2071,0
DA:2073,0
DA:2074,0
DA:2075,0
DA:2077,0
DA:2078,0
DA:2079,0
DA:2081,0
DA:2082,0
DA:2083,0
DA:2086,6
DA:2088,4
DA:2089,4
DA:2090,2
DA:2091,2
DA:2093,4
DA:2094,4
DA:2095,4
DA:2096,0
DA:2098,0
DA:2099,0
DA:2100,0
DA:2101,0
DA:2103,0
DA:2105,0
DA:2112,6
DA:2114,6
DA:2115,12
LF:121
LH:84
end_of_record
TN:
SF:/usr/include/c++/11/bits/stl_bvector.h
FN:77,_ZNSt14_Bit_referenceC2EPmm
FN:86,_ZNKSt14_Bit_referencecvbEv
FN:90,_ZNSt14_Bit_referenceaSEb
FN:148,_ZNSt18_Bit_iterator_baseC2EPmj
FN:152,_ZNSt18_Bit_iterator_base10_M_bump_upEv
FN:172,_ZNSt18_Bit_iterator_base7_M_incrEl
FN:224,_ZStmiRKSt18_Bit_iterator_baseS1_
FN:241,_ZNSt13_Bit_iteratorC2Ev
FN:243,_ZNSt13_Bit_iteratorC2EPmj
FN:251,_ZNKSt13_Bit_iteratordeEv
FN:255,_ZNSt13_Bit_iteratorppEv
FN:285,_ZNSt13_Bit_iteratorpLEl
FN:299,_ZNKSt13_Bit_iteratorixEl
FN:303,_ZStplRKSt13_Bit_iteratorl
FN:336,_ZNSt19_Bit_const_iteratorC2EPmj
FN:339,_ZNSt19_Bit_const_iteratorC2ERKSt13_Bit_iterator
FN:347,_ZNKSt19_Bit_const_iteratordeEv
FN:351,_ZNSt19_Bit_const_iteratorppEv
FN:443,_ZNSt13_Bvector_baseISaIbEE18_Bvector_impl_dataC2Ev
FN:465,_ZNSt13_Bvector_baseISaIbEE18_Bvector_impl_data8_M_resetEv
FN:485,_ZNSt13_Bvector_baseISaIbEE13_Bvector_implC2ERKSaImE
FN:502,_ZNKSt13_Bvector_baseISaIbEE13_Bvector_impl11_M_end_addrEv
FN:518,_ZNKSt13_Bvector_baseISaIbEE20_M_get_Bit_allocatorEv
FN:531,_ZNSt13_Bvector_baseISaIbEEC2ERKS0_
FN:542,_ZNSt13_Bvector_baseISaIbEED2Ev
FN:549,_ZNSt13_Bvector_baseISaIbEE11_M_allocateEm
FN:553,_ZNSt13_Bvector_baseISaIbEE13_M_deallocateEv
FN:572,_ZNSt13_Bvector_baseISaIbEE8_S_nwordEm
FN:647,_ZNSt6vectorIbSaIbEEC2EmRKbRKS0_
FN:660,_ZNSt6vectorIbSaIbEEC2ERKS1_
FN:733,_ZNSt6vectorIbSaIbEED2Ev
FN:831,_ZNSt6vectorIbSaIbEE5beginEv
FN:835,_ZNKSt6vectorIbSaIbEE5beginEv
FN:843,_ZNKSt6vectorIbSaIbEE3endEv
FN:881,_ZNKSt6vectorIbSaIbEE4sizeEv
FN:906,_ZNSt6vectorIbSaIbEEixEm
FN:1128,_ZNSt6vectorIbSaIbEE15_M_copy_alignedESt19_Bit_const_iteratorS2_St13_Bit_iterator
FN:1137,_ZNSt6vectorIbSaIbEE13_M_initializeEm
FN:1150,_ZNSt6vectorIbSaIbEE19_M_initialize_valueEb
FNDA:1048,_ZNSt14_Bit_referenceC2EPmm
FNDA:80,_ZNSt13_Bvector_baseISaIbEE13_M_deallocateEv
FNDA:88,_ZNKSt6vectorIbSaIbEE3endEv
FNDA:320,_ZNSt13_Bit_iteratorC2Ev
FNDA:208,_ZNKSt19_Bit_const_iteratordeEv
FNDA:160,_ZNSt13_Bvector_baseISaIbEE18_Bvector_impl_dataC2Ev
FNDA:676,_ZNSt6vectorIbSaIbEE5beginEv
FNDA:800,_ZNSt13_Bit_iteratorC2EPmj
FNDA:80,_ZNSt13_Bvector_baseISaIbEE13_Bvector_implC2ERKSaImE
FNDA:88,_ZNSt19_Bit_const_iteratorC2ERKSt13_Bit_iterator
FNDA:80,_ZNSt13_Bvector_baseISaIbEEC2ERKS0_
FNDA:44,_ZNKSt6vectorIbSaIbEE4sizeEv
FNDA:840,_ZNKSt13_Bit_iteratordeEv
FNDA:36,_ZNSt6vectorIbSaIbEEC2EmRKbRKS0_
FNDA:44,_ZNKSt13_Bvector_baseISaIbEE20_M_get_Bit_allocatorEv
FNDA:44,_ZNSt6vectorIbSaIbEE15_M_copy_alignedESt19_Bit_const_iteratorS2_St13_Bit_iterator
FNDA:712,_ZStplRKSt13_Bit_iteratorl
FNDA:712,_ZNSt13_Bit_iteratorpLEl
FNDA:80,_ZNSt13_Bvector_baseISaIbEED2Ev
FNDA:36,_ZNSt6vectorIbSaIbEE19_M_initialize_valueEb
FNDA:1340,_ZNSt18_Bit_iterator_baseC2EPmj
FNDA:632,_ZNKSt13_Bit_iteratorixEl
FNDA:80,_ZNSt13_Bvector_baseISaIbEE18_Bvector_impl_data8_M_resetEv
FNDA:208,_ZNSt13_Bit_iteratorppEv
FNDA:364,_ZNSt14_Bit_referenceaSEb
FNDA:116,_ZNKSt13_Bvector_baseISaIbEE13_Bvector_impl11_M_end_addrEv
FNDA:88,_ZStmiRKSt18_Bit_iterator_baseS1_
FNDA:684,_ZNKSt14_Bit_referencecvbEv
FNDA:80,_ZNSt6vectorIbSaIbEE13_M_initializeEm
FNDA:44,_ZNSt6vectorIbSaIbEEC2ERKS1_
FNDA:80,_ZNSt13_Bvector_baseISaIbEE11_M_allocateEm
FNDA:208,_ZNSt19_Bit_const_iteratorppEv
FNDA:712,_ZNSt18_Bit_iterator_base7_M_incrEl
FNDA:160,_ZNSt13_Bvector_baseISaIbEE8_S_nwordEm
FNDA:132,_ZNSt19_Bit_const_iteratorC2EPmj
FNDA:632,_ZNSt6vectorIbSaIbEEixEm
FNDA:416,_ZNSt18_Bit_iterator_base10_M_bump_upEv
FNDA:88,_ZNKSt6vectorIbSaIbEE5beginEv
FNDA:80,_ZNSt6vectorIbSaIbEED2Ev
FNF:39
FNH:39
DA:77,1048
DA:78,1048
DA:86,684
DA:87,684
DA:90,364
DA:92,364
DA:93,216
DA:95,148
DA:96,364
DA:148,1340
DA:149,1340
DA:152,416
DA:154,416
DA:156,0
DA:157,0
DA:159,416
DA:172,712
DA:174,712
DA:175,712
DA:176,712
DA:177,712
DA:179,0
DA:180,0
DA:182,712
DA:183,712
DA:224,88
DA:226,88
DA:227,88
DA:241,320
DA:243,800
DA:244,800
DA:251,840
DA:252,840
DA:255,208
DA:257,208
DA:258,208
DA:285,712
DA:287,712
DA:288,712
DA:299,632
DA:300,632
DA:303,712
DA:305,712
DA:306,712
DA:307,712
DA:336,132
DA:337,132
DA:339,88
DA:340,88
DA:347,208
DA:348,208
DA:351,208
DA:353,208
DA:354,208
DA:443,160
DA:444,160
DA:445,160
DA:465,80
DA:466,80
DA:485,80
DA:486,80
DA:487,80
DA:502,116
DA:504,116
DA:505,116
DA:506,0
DA:518,44
DA:519,44
DA:531,80
DA:532,80
DA:542,80
DA:543,80
DA:549,80
DA:550,80
DA:553,80
DA:555,80
DA:557,80
DA:558,80
DA:559,80
DA:561,80
DA:563,80
DA:572,160
DA:573,160
DA:647,36
DA:654,36
DA:656,36
DA:657,36
DA:658,36
DA:660,44
DA:661,44
DA:663,44
DA:664,44
DA:665,44
DA:733,80
DA:831,676
DA:832,676
DA:835,88
DA:836,88
DA:843,88
DA:844,88
DA:881,44
DA:882,44
DA:906,632
DA:907,632
DA:1128,44
DA:1131,44
DA:1132,88
DA:1133,88
DA:1137,80
DA:1139,80
DA:1141,80
DA:1142,80
DA:1143,80
DA:1144,80
DA:1145,80
DA:1147,80
DA:1150,36
DA:1152,36
DA:1153,36
DA:1154,36
DA:1156,36
LF:121
LH:116
end_of_record
TN:
SF:/usr/include/c++/11/bits/stl_construct.h
FN:109,_ZSt10_ConstructISt6vectorIiSaIiEEJS2_EEvPT_DpOT0_
FN:109,_ZSt10_ConstructISt10shared_ptrI13ThreadContextEJEEvPT_DpOT0_
FN:109,_ZSt10_ConstructISt6vectorIiSaIiEEJRKS2_EEvPT_DpOT0_
FN:109,_ZSt10_ConstructISt10unique_ptrI12ActiveObjectSt14default_deleteIS1_EEJS4_EEvPT_DpOT0_
FN:109,_ZSt10_ConstructISt6vectorI4EdgeSaIS1_EEJEEvPT_DpOT0_
FN:146,_ZSt8_DestroyISt6vectorI4EdgeSaIS1_EEEvPT_
FN:146,_ZSt8_DestroyISt6vectorIiSaIiEEEvPT_
FN:146,_ZSt8_DestroyISt10unique_ptrI12ActiveObjectSt14default_deleteIS1_EEEvPT_
FN:146,_ZSt8_DestroyISt8functionIFvvEEEvPT_
FN:146,_ZSt8_DestroyISt6threadEvPT_
FN:146,_ZSt8_DestroyISt10shared_ptrI13ThreadContextEEvPT_
FN:160,_ZNSt12_Destroy_auxILb0EE9__destroyIPSt6threadEEvT_S4_
FN:160,_ZNSt12_Destroy_auxILb0EE9__destroyIPSt6vectorI4EdgeSaIS3_EEEEvT_S7_
FN:160,_ZNSt12_Destroy_auxILb0EE9__destroyIPSt10shared_ptrI13ThreadContextEEEvT_S6_
FN:160,_ZNSt12_Destroy_auxILb0EE9__destroyIPSt8functionIFvvEEEEvT_S6_
FN:160,_ZNSt12_Destroy_auxILb0EE9__destroyIPSt10unique_ptrI12ActiveObjectSt14default_deleteIS3_EEEEvT_S8_
FN:160,_ZNSt12_Destroy_auxILb0EE9__destroyIPSt6vectorIiSaIiEEEEvT_S6_
FN:172,_ZNSt12_Destroy_auxILb1EE9__destroyIP4EdgeEEvT_S4_
FN:172,_ZNSt12_Destroy_auxILb1EE9__destroyIN9__gnu_cxx17__normal_iteratorIPiSt6vectorIiSaIiEEEEEEvT_S9_
FN:172,_ZNSt12_Destroy_auxILb1EE9__destroyIPSt4pairIiiEEEvT_S5_
FN:172,_ZNSt12_Destroy_auxILb1EE9__destroyIPmEEvT_S3_
FN:172,_ZNSt12_Destroy_auxILb1EE9__destroyIPiEEvT_S3_
FN:182,_ZSt8_DestroyIPSt4pairIiiEEvT_S3_
FN:182,_ZSt8_DestroyIPmEvT_S1_
FN:182,_ZSt8_DestroyIPSt6vectorI4EdgeSaIS1_EEEvT_S5_
FN:182,_ZSt8_DestroyIPSt10unique_ptrI12ActiveObjectSt14default_deleteIS1_EEEvT_S6_
FN:182,_ZSt8_DestroyIPiEvT_S1_
FN:182,_ZSt8_DestroyIPSt10shared_ptrI13ThreadContextEEvT_S4_
FN:182,_ZSt8_DestroyIP4EdgeEvT_S2_
FN:182,_ZSt8_DestroyIN9__gnu_cxx17__normal_iteratorIPiSt6vectorIiSaIiEEEEEvT_S7_
FN:182,_ZSt8_DestroyIPSt6vectorIiSaIiEEEvT_S4_
FN:182,_ZSt8_DestroyIPSt8functionIFvvEEEvT_S4_
FN:182,_ZSt8_DestroyIPSt6threadEvT_S2_
FNDA:0,_ZSt8_DestroyIPSt6threadEvT_S2_
FNDA:0,_ZSt10_ConstructISt10unique_ptrI12ActiveObjectSt14default_deleteIS1_EEJS4_EEvPT_DpOT0_
FNDA:76,_ZSt10_ConstructISt6vectorIiSaIiEEJRKS2_EEvPT_DpOT0_
FNDA:199,_ZSt10_ConstructISt6vectorI4EdgeSaIS1_EEJEEvPT_DpOT0_
FNDA:40,_ZSt8_DestroyIPSt6vectorIiSaIiEEEvT_S4_
FNDA:50,_ZSt10_ConstructISt10shared_ptrI13ThreadContextEJEEvPT_DpOT0_
FNDA:50,_ZSt8_DestroyISt10shared_ptrI13ThreadContextEEvPT_
FNDA:42,_ZSt8_DestroyIPSt8functionIFvvEEEvT_S4_
FNDA:8,_ZNSt12_Destroy_auxILb1EE9__destroyIPmEEvT_S3_
FNDA:0,_ZSt8_DestroyISt6threadEvPT_
FNDA:40,_ZNSt12_Destroy_auxILb0EE9__destroyIPSt6vectorIiSaIiEEEEvT_S6_
FNDA:0,_ZSt8_DestroyIN9__gnu_cxx17__normal_iteratorIPiSt6vectorIiSaIiEEEEEvT_S7_
FNDA:289,_ZSt8_DestroyIP4EdgeEvT_S2_
FNDA:296,_ZNSt12_Destroy_auxILb1EE9__destroyIPiEEvT_S3_
FNDA:42,_ZSt8_DestroyISt10unique_ptrI12ActiveObjectSt14default_deleteIS1_EEEvPT_
FNDA:10,_ZSt8_DestroyIPSt10shared_ptrI13ThreadContextEEvT_S4_
FNDA:76,_ZSt8_DestroyISt6vectorIiSaIiEEEvPT_
FNDA:12,_ZNSt12_Destroy_auxILb0EE9__destroyIPSt10unique_ptrI12ActiveObjectSt14default_deleteIS3_EEEEvT_S8_
FNDA:16,_ZNSt12_Destroy_auxILb1EE9__destroyIPSt4pairIiiEEEvT_S5_
FNDA:0,_ZSt8_DestroyISt8functionIFvvEEEvPT_
FNDA:42,_ZNSt12_Destroy_auxILb0EE9__destroyIPSt8functionIFvvEEEEvT_S6_
FNDA:296,_ZSt8_DestroyIPiEvT_S1_
FNDA:199,_ZSt8_DestroyISt6vectorI4EdgeSaIS1_EEEvPT_
FNDA:10,_ZNSt12_Destroy_auxILb0EE9__destroyIPSt10shared_ptrI13ThreadContextEEEvT_S6_
FNDA:42,_ZNSt12_Destroy_auxILb0EE9__destroyIPSt6vectorI4EdgeSaIS3_EEEEvT_S7_
FNDA:0,_ZSt10_ConstructISt6vectorIiSaIiEEJS2_EEvPT_DpOT0_
FNDA:12,_ZSt8_DestroyIPSt10unique_ptrI12ActiveObjectSt14default_deleteIS1_EEEvT_S6_
FNDA:42,_ZSt8_DestroyIPSt6vectorI4EdgeSaIS1_EEEvT_S5_
FNDA:8,_ZSt8_DestroyIPmEvT_S1_
FNDA:0,_ZNSt12_Destroy_auxILb1EE9__destroyIN9__gnu_cxx17__normal_iteratorIPiSt6vectorIiSaIiEEEEEEvT_S9_
FNDA:0,_ZNSt12_Destroy_auxILb0EE9__destroyIPSt6threadEEvT_S4_
FNDA:289,_ZNSt12_Destroy_auxILb1EE9__destroyIP4EdgeEEvT_S4_
FNDA:16,_ZSt8_DestroyIPSt4pairIiiEEvT_S3_
FNF:33
FNH:25
DA:109,325
DA:119,325
DA:120,325
DA:146,367
DA:151,367
DA:153,367
DA:160,146
DA:162,513
DA:163,367
DA:164,146
DA:172,609
DA:182,755
DA:196,755
DA:197,755
LF:14
LH:14
end_of_record
TN:
SF:/usr/include/c++/11/bits/stl_deque.h
FN:96,_ZSt16__deque_buf_sizem
FN:131,_ZNSt15_Deque_iteratorISt8functionIFvvEERS2_PS2_E14_S_buffer_sizeEv
FN:151,_ZNSt15_Deque_iteratorISt8functionIFvvEERS2_PS2_EC2Ev
FN:168,_ZNSt15_Deque_iteratorISt8functionIFvvEERS2_PS2_EC2ERKS5_
FN:180,_ZNKSt15_Deque_iteratorISt8functionIFvvEERS2_PS2_EdeEv
FN:208,_ZNSt15_Deque_iteratorISt8functionIFvvEERS2_PS2_EmmEv
FN:260,_ZNSt15_Deque_iteratorISt8functionIFvvEERS2_PS2_E11_M_set_nodeEPS4_
FN:268,_ZSteqRKSt15_Deque_iteratorISt8functionIFvvEERS2_PS2_ES7_
FN:353,_ZStmiRKSt15_Deque_iteratorISt8functionIFvvEERS2_PS2_ES7_
FN:437,_ZNSt11_Deque_baseISt8functionIFvvEESaIS2_EEC2Ev
FN:495,_ZNSt11_Deque_baseISt8functionIFvvEESaIS2_EE16_Deque_impl_dataC2Ev
FN:524,_ZNSt11_Deque_baseISt8functionIFvvEESaIS2_EE11_Deque_implC2Ev
FN:547,_ZNSt11_Deque_baseISt8functionIFvvEESaIS2_EE19_M_get_Tp_allocatorEv
FN:551,_ZNKSt11_Deque_baseISt8functionIFvvEESaIS2_EE19_M_get_Tp_allocatorEv
FN:555,_ZNKSt11_Deque_baseISt8functionIFvvEESaIS2_EE20_M_get_map_allocatorEv
FN:559,_ZNSt11_Deque_baseISt8functionIFvvEESaIS2_EE16_M_allocate_nodeEv
FN:566,_ZNSt11_Deque_baseISt8functionIFvvEESaIS2_EE18_M_deallocate_nodeEPS2_
FN:573,_ZNSt11_Deque_baseISt8functionIFvvEESaIS2_EE15_M_allocate_mapEm
FN:580,_ZNSt11_Deque_baseISt8functionIFvvEESaIS2_EE17_M_deallocate_mapEPPS2_m
FN:596,_ZNSt11_Deque_baseISt8functionIFvvEESaIS2_EED2Ev
FN:617,_ZNSt11_Deque_baseISt8functionIFvvEESaIS2_EE17_M_initialize_mapEm
FN:656,_ZNSt11_Deque_baseISt8functionIFvvEESaIS2_EE15_M_create_nodesEPPS2_S6_
FN:674,_ZNSt11_Deque_baseISt8functionIFvvEESaIS2_EE16_M_destroy_nodesEPPS2_S6_
FN:807,_ZNSt5dequeISt8functionIFvvEESaIS2_EE14_S_buffer_sizeEv
FN:834,_ZNSt5dequeISt8functionIFvvEESaIS2_EEC2Ev
FN:1006,_ZNSt5dequeISt8functionIFvvEESaIS2_EED2Ev
FN:1128,_ZNSt5dequeISt8functionIFvvEESaIS2_EE5beginEv
FN:1145,_ZNSt5dequeISt8functionIFvvEESaIS2_EE3endEv
FN:1233,_ZNKSt5dequeISt8functionIFvvEESaIS2_EE4sizeEv
FN:1238,_ZNKSt5dequeISt8functionIFvvEESaIS2_EE8max_sizeEv
FN:1311,_ZNKSt5dequeISt8functionIFvvEESaIS2_EE5emptyEv
FN:1405,_ZNSt5dequeISt8functionIFvvEESaIS2_EE5frontEv
FN:1427,_ZNSt5dequeISt8functionIFvvEESaIS2_EE4backEv
FN:1532,_ZNSt5dequeISt8functionIFvvEESaIS2_EE9pop_frontEv
FN:1834,_ZNSt5dequeISt8functionIFvvEESaIS2_EE11_S_max_sizeERKS3_
FN:2045,_ZNSt5dequeISt8functionIFvvEESaIS2_EE15_M_destroy_dataESt15_Deque_iteratorIS2_RS2_PS2_ES8_RKS3_
FN:2126,_ZNSt5dequeISt8functionIFvvEESaIS2_EE22_M_reserve_map_at_backEm
FNDA:90,_ZNSt15_Deque_iteratorISt8functionIFvvEERS2_PS2_E11_M_set_nodeEPS4_
FNDA:2,_ZNSt5dequeISt8functionIFvvEESaIS2_EE11_S_max_sizeERKS3_
FNDA:2,_ZNSt5dequeISt8functionIFvvEESaIS2_EE22_M_reserve_map_at_backEm
FNDA:226,_ZNSt11_Deque_baseISt8functionIFvvEESaIS2_EE19_M_get_Tp_allocatorEv
FNDA:42,_ZNSt5dequeISt8functionIFvvEESaIS2_EE15_M_destroy_dataESt15_Deque_iteratorIS2_RS2_PS2_ES8_RKS3_
FNDA:142,_ZNSt5dequeISt8functionIFvvEESaIS2_EE5frontEv
FNDA:184,_ZNSt5dequeISt8functionIFvvEESaIS2_EE3endEv
FNDA:142,_ZNSt5dequeISt8functionIFvvEESaIS2_EE4backEv
FNDA:92,_ZNSt15_Deque_iteratorISt8functionIFvvEERS2_PS2_E14_S_buffer_sizeEv
FNDA:44,_ZNSt11_Deque_baseISt8functionIFvvEESaIS2_EE16_M_allocate_nodeEv
FNDA:336,_ZSteqRKSt15_Deque_iteratorISt8functionIFvvEERS2_PS2_ES7_
FNDA:336,_ZNKSt5dequeISt8functionIFvvEESaIS2_EE5emptyEv
FNDA:42,_ZNSt11_Deque_baseISt8functionIFvvEESaIS2_EE17_M_deallocate_mapEPPS2_m
FNDA:2,_ZNKSt5dequeISt8functionIFvvEESaIS2_EE8max_sizeEv
FNDA:264,_ZSt16__deque_buf_sizem
FNDA:284,_ZNKSt15_Deque_iteratorISt8functionIFvvEERS2_PS2_EdeEv
FNDA:86,_ZNKSt11_Deque_baseISt8functionIFvvEESaIS2_EE19_M_get_Tp_allocatorEv
FNDA:42,_ZNSt11_Deque_baseISt8functionIFvvEESaIS2_EED2Ev
FNDA:0,_ZNSt5dequeISt8functionIFvvEESaIS2_EE14_S_buffer_sizeEv
FNDA:42,_ZNSt11_Deque_baseISt8functionIFvvEESaIS2_EE11_Deque_implC2Ev
FNDA:44,_ZNSt11_Deque_baseISt8functionIFvvEESaIS2_EE18_M_deallocate_nodeEPS2_
FNDA:42,_ZNSt11_Deque_baseISt8functionIFvvEESaIS2_EE17_M_initialize_mapEm
FNDA:452,_ZNSt15_Deque_iteratorISt8functionIFvvEERS2_PS2_EC2ERKS5_
FNDA:184,_ZNSt5dequeISt8functionIFvvEESaIS2_EE5beginEv
FNDA:84,_ZNSt15_Deque_iteratorISt8functionIFvvEERS2_PS2_EC2Ev
FNDA:42,_ZNSt11_Deque_baseISt8functionIFvvEESaIS2_EE15_M_allocate_mapEm
FNDA:42,_ZNSt5dequeISt8functionIFvvEESaIS2_EEC2Ev
FNDA:142,_ZNSt5dequeISt8functionIFvvEESaIS2_EE9pop_frontEv
FNDA:42,_ZNSt5dequeISt8functionIFvvEESaIS2_EED2Ev
FNDA:42,_ZNSt11_Deque_baseISt8functionIFvvEESaIS2_EE16_M_destroy_nodesEPPS2_S6_
FNDA:42,_ZNSt11_Deque_baseISt8functionIFvvEESaIS2_EE16_Deque_impl_dataC2Ev
FNDA:42,_ZNSt11_Deque_baseISt8functionIFvvEESaIS2_EEC2Ev
FNDA:2,_ZStmiRKSt15_Deque_iteratorISt8functionIFvvEERS2_PS2_ES7_
FNDA:84,_ZNKSt11_Deque_baseISt8functionIFvvEESaIS2_EE20_M_get_map_allocatorEv
FNDA:142,_ZNSt15_Deque_iteratorISt8functionIFvvEERS2_PS2_EmmEv
FNDA:42,_ZNSt11_Deque_baseISt8functionIFvvEESaIS2_EE15_M_create_nodesEPPS2_S6_
FNDA:2,_ZNKSt5dequeISt8functionIFvvEESaIS2_EE4sizeEv
FNF:37
FNH:36
DA:96,264
DA:98,264
DA:131,92
DA:132,92
DA:151,84
DA:152,84
DA:168,452
DA:169,452
DA:170,452
DA:180,284
DA:181,284
DA:208,142
DA:210,142
DA:212,2
DA:213,2
DA:215,142
DA:216,142
DA:260,90
DA:262,90
DA:263,90
DA:264,90
DA:265,90
DA:268,336
DA:269,336
DA:353,2
DA:355,2
DA:356,2
DA:357,2
DA:358,2
DA:437,42
DA:438,42
DA:439,42
DA:495,42
DA:496,42
DA:497,42
DA:524,42
DA:526,42
DA:527,42
DA:547,226
DA:548,226
DA:551,86
DA:552,86
DA:555,84
DA:556,84
DA:559,44
DA:562,44
DA:566,44
DA:569,44
DA:570,44
DA:573,42
DA:575,42
DA:576,84
DA:577,42
DA:580,42
DA:582,42
DA:583,42
DA:584,42
DA:596,42
DA:599,42
DA:601,42
DA:602,42
DA:603,42
DA:605,42
DA:617,42
DA:620,42
DA:623,84
DA:624,42
DA:625,42
DA:632,42
DA:633,42
DA:634,42
DA:637,42
DA:638,0
DA:640,0
DA:641,0
DA:642,0
DA:643,0
DA:646,42
DA:647,42
DA:648,42
DA:649,84
DA:650,42
DA:651,42
DA:652,42
DA:656,42
DA:662,84
DA:663,42
DA:665,0
DA:667,0
DA:668,0
DA:670,42
DA:674,42
DA:678,84
DA:679,42
DA:680,42
DA:807,0
DA:808,0
DA:834,42
DA:1006,42
DA:1007,42
DA:1128,184
DA:1129,184
DA:1145,184
DA:1146,184
DA:1233,2
DA:1234,2
DA:1238,2
DA:1239,2
DA:1311,336
DA:1312,336
DA:1405,142
DA:1408,142
DA:1427,142
DA:1430,142
DA:1431,142
DA:1432,142
DA:1532,142
DA:1535,142
DA:1536,142
DA:1538,140
DA:1540,140
DA:1543,2
DA:1544,142
DA:1834,2
DA:1836,2
DA:1837,2
DA:1838,2
DA:2045,42
DA:2049,42
DA:2050,42
DA:2126,2
DA:2128,2
DA:2129,2
DA:2130,0
DA:2131,2
LF:135
LH:124
end_of_record
TN:
SF:/usr/include/c++/11/bits/stl_function.h
FN:389,_ZNKSt7greaterISt4pairIiiEEclERKS1_S4_
FN:399,_ZNKSt4lessIiEclERKiS2_
FN:1174,_ZNKSt10_Select1stISt4pairIKiSt8functionIFvvEEEEclERKS5_
FNDA:28,_ZNKSt7greaterISt4pairIiiEEclERKS1_S4_
FNDA:29,_ZNKSt10_Select1stISt4pairIKiSt8functionIFvvEEEEclERKS5_
FNDA:32,_ZNKSt4lessIiEclERKiS2_
FNF:3
FNH:3
DA:389,28
DA:390,28
DA:399,32
DA:400,32
DA:1174,29
DA:1175,29
LF:6
LH:6
end_of_record
TN:
SF:/usr/include/c++/11/bits/stl_heap.h
FN:134,_ZSt11__push_heapIN9__gnu_cxx17__normal_iteratorIPSt4pairIiiESt6vectorIS3_SaIS3_EEEElS3_NS0_5__ops14_Iter_comp_valISt7greaterIS3_EEEEvT_T0_SF_T1_RT2_
FN:134,_ZSt11__push_heapIN9__gnu_cxx17__normal_iteratorIP4EdgeSt6vectorIS2_SaIS2_EEEElS2_NS0_5__ops14_Iter_comp_valIZN15KruskalStrategy7findMSTERK5GraphEUlS2_S2_E_EEEvT_T0_SH_T1_RT2_
FN:197,_ZSt9push_heapIN9__gnu_cxx17__normal_iteratorIPSt4pairIiiESt6vectorIS3_SaIS3_EEEESt7greaterIS3_EEvT_SB_T0_
FN:223,_ZSt13__adjust_heapIN9__gnu_cxx17__normal_iteratorIPSt4pairIiiESt6vectorIS3_SaIS3_EEEElS3_NS0_5__ops15_Iter_comp_iterISt7greaterIS3_EEEEvT_T0_SF_T1_T2_
FN:223,_ZSt13__adjust_heapIN9__gnu_cxx17__normal_iteratorIP4EdgeSt6vectorIS2_SaIS2_EEEElS2_NS0_5__ops15_Iter_comp_iterIZN15KruskalStrategy7findMSTERK5GraphEUlS2_S2_E_EEEvT_T0_SH_T1_T2_
FN:253,_ZSt10__pop_heapIN9__gnu_cxx17__normal_iteratorIPSt4pairIiiESt6vectorIS3_SaIS3_EEEENS0_5__ops15_Iter_comp_iterISt7greaterIS3_EEEEvT_SE_SE_RT0_
FN:253,_ZSt10__pop_heapIN9__gnu_cxx17__normal_iteratorIP4EdgeSt6vectorIS2_SaIS2_EEEENS0_5__ops15_Iter_comp_iterIZN15KruskalStrategy7findMSTERK5GraphEUlS2_S2_E_EEEvT_SG_SG_RT0_
FN:316,_ZSt8pop_heapIN9__gnu_cxx17__normal_iteratorIPSt4pairIiiESt6vectorIS3_SaIS3_EEEESt7greaterIS3_EEvT_SB_T0_
FN:339,_ZSt11__make_heapIN9__gnu_cxx17__normal_iteratorIP4EdgeSt6vectorIS2_SaIS2_EEEENS0_5__ops15_Iter_comp_iterIZN15KruskalStrategy7findMSTERK5GraphEUlS2_S2_E_EEEvT_SG_RT0_
FN:418,_ZSt11__sort_heapIN9__gnu_cxx17__normal_iteratorIP4EdgeSt6vectorIS2_SaIS2_EEEENS0_5__ops15_Iter_comp_iterIZN15KruskalStrategy7findMSTERK5GraphEUlS2_S2_E_EEEvT_SG_RT0_
FNDA:76,_ZSt8pop_heapIN9__gnu_cxx17__normal_iteratorIPSt4pairIiiESt6vectorIS3_SaIS3_EEEESt7greaterIS3_EEvT_SB_T0_
FNDA:0,_ZSt13__adjust_heapIN9__gnu_cxx17__normal_iteratorIP4EdgeSt6vectorIS2_SaIS2_EEEElS2_NS0_5__ops15_Iter_comp_iterIZN15KruskalStrategy7findMSTERK5GraphEUlS2_S2_E_EEEvT_T0_SH_T1_T2_
FNDA:0,_ZSt11__push_heapIN9__gnu_cxx17__normal_iteratorIP4EdgeSt6vectorIS2_SaIS2_EEEElS2_NS0_5__ops14_Iter_comp_valIZN15KruskalStrategy7findMSTERK5GraphEUlS2_S2_E_EEEvT_T0_SH_T1_RT2_
FNDA:0,_ZSt11__sort_heapIN9__gnu_cxx17__normal_iteratorIP4EdgeSt6vectorIS2_SaIS2_EEEENS0_5__ops15_Iter_comp_iterIZN15KruskalStrategy7findMSTERK5GraphEUlS2_S2_E_EEEvT_SG_RT0_
FNDA:0,_ZSt10__pop_heapIN9__gnu_cxx17__normal_iteratorIP4EdgeSt6vectorIS2_SaIS2_EEEENS0_5__ops15_Iter_comp_iterIZN15KruskalStrategy7findMSTERK5GraphEUlS2_S2_E_EEEvT_SG_SG_RT0_
FNDA:0,_ZSt11__make_heapIN9__gnu_cxx17__normal_iteratorIP4EdgeSt6vectorIS2_SaIS2_EEEENS0_5__ops15_Iter_comp_iterIZN15KruskalStrategy7findMSTERK5GraphEUlS2_S2_E_EEEvT_SG_RT0_
FNDA:76,_ZSt9push_heapIN9__gnu_cxx17__normal_iteratorIPSt4pairIiiESt6vectorIS3_SaIS3_EEEESt7greaterIS3_EEvT_SB_T0_
FNDA:24,_ZSt10__pop_heapIN9__gnu_cxx17__normal_iteratorIPSt4pairIiiESt6vectorIS3_SaIS3_EEEENS0_5__ops15_Iter_comp_iterISt7greaterIS3_EEEEvT_SE_SE_RT0_
FNDA:100,_ZSt11__push_heapIN9__gnu_cxx17__normal_iteratorIPSt4pairIiiESt6vectorIS3_SaIS3_EEEElS3_NS0_5__ops14_Iter_comp_valISt7greaterIS3_EEEEvT_T0_SF_T1_RT2_
FNDA:24,_ZSt13__adjust_heapIN9__gnu_cxx17__normal_iteratorIPSt4pairIiiESt6vectorIS3_SaIS3_EEEElS3_NS0_5__ops15_Iter_comp_iterISt7greaterIS3_EEEEvT_T0_SF_T1_T2_
FNF:10
FNH:5
DA:134,100
DA:138,100
DA:139,106
DA:141,6
DA:142,6
DA:143,6
DA:145,100
DA:146,100
DA:197,76
DA:213,76
DA:214,76
DA:215,76
DA:216,76
DA:217,76
DA:223,24
DA:226,24
DA:227,24
DA:228,24
DA:230,0
DA:231,0
DA:233,0
DA:234,0
DA:235,0
DA:237,24
DA:239,4
DA:240,4
DA:242,4
DA:245,24
DA:246,24
DA:247,24
DA:248,24
DA:253,24
DA:261,24
DA:262,24
DA:263,24
DA:264,24
DA:265,24
DA:266,24
DA:316,76
DA:327,76
DA:331,24
DA:332,24
DA:334,76
DA:339,0
DA:347,0
DA:348,0
DA:350,0
DA:351,0
DA:352,0
DA:354,0
DA:355,0
DA:357,0
DA:358,0
DA:359,0
DA:418,0
DA:421,0
DA:423,0
DA:424,0
DA:426,0
LF:59
LH:38
end_of_record
TN:
SF:/usr/include/c++/11/bits/stl_iterator.h
FN:1027,_ZN9__gnu_cxx17__normal_iteratorIPKiSt6vectorIiSaIiEEEC2ERKS2_
FN:1027,_ZN9__gnu_cxx17__normal_iteratorIPSt10shared_ptrI13ThreadContextESt6vectorIS3_SaIS3_EEEC2ERKS4_
FN:1027,_ZN9__gnu_cxx17__normal_iteratorIPKSt4pairIiiESt6vectorIS2_SaIS2_EEEC2ERKS4_
FN:1027,_ZN9__gnu_cxx17__normal_iteratorIPSt10unique_ptrI12ActiveObjectSt14default_deleteIS2_EESt6vectorIS5_SaIS5_EEEC2ERKS6_
FN:1027,_ZN9__gnu_cxx17__normal_iteratorIPiSt6vectorIiSaIiEEEC2ERKS1_
FN:1027,_ZN9__gnu_cxx17__normal_iteratorIPmSt6vectorImSaImEEEC2ERKS1_
FN:1027,_ZN9__gnu_cxx17__normal_iteratorIPSt4pairIiiESt6vectorIS2_SaIS2_EEEC2ERKS3_
FN:1027,_ZN9__gnu_cxx17__normal_iteratorIP4EdgeSt6vectorIS1_SaIS1_EEEC2ERKS2_
FN:1027,_ZN9__gnu_cxx17__normal_iteratorIPKSt6vectorI4EdgeSaIS2_EES1_IS4_SaIS4_EEEC2ERKS6_
FN:1027,_ZN9__gnu_cxx17__normal_iteratorIPK4EdgeSt6vectorIS1_SaIS1_EEEC2ERKS3_
FN:1027,_ZN9__gnu_cxx17__normal_iteratorIPSt6vectorIiSaIiEES1_IS3_SaIS3_EEEC2ERKS4_
FN:1033,_ZN9__gnu_cxx17__normal_iteratorIPK4EdgeSt6vectorIS1_SaIS1_EEEC2IPS1_EERKNS0_IT_NS_11__enable_ifIXsrSt10__are_sameISA_S9_E7__valueES6_E6__typeEEE
FN:1042,_ZNK9__gnu_cxx17__normal_iteratorIPmSt6vectorImSaImEEEdeEv
FN:1042,_ZNK9__gnu_cxx17__normal_iteratorIPSt4pairIiiESt6vectorIS2_SaIS2_EEEdeEv
FN:1042,_ZNK9__gnu_cxx17__normal_iteratorIPKSt4pairIiiESt6vectorIS2_SaIS2_EEEdeEv
FN:1042,_ZNK9__gnu_cxx17__normal_iteratorIPSt10shared_ptrI13ThreadContextESt6vectorIS3_SaIS3_EEEdeEv
FN:1042,_ZNK9__gnu_cxx17__normal_iteratorIPSt10unique_ptrI12ActiveObjectSt14default_deleteIS2_EESt6vectorIS5_SaIS5_EEEdeEv
FN:1042,_ZNK9__gnu_cxx17__normal_iteratorIPK4EdgeSt6vectorIS1_SaIS1_EEEdeEv
FN:1042,_ZNK9__gnu_cxx17__normal_iteratorIP4EdgeSt6vectorIS1_SaIS1_EEEdeEv
FN:1042,_ZNK9__gnu_cxx17__normal_iteratorIPiSt6vectorIiSaIiEEEdeEv
FN:1047,_ZNK9__gnu_cxx17__normal_iteratorIPSt10shared_ptrI13ThreadContextESt6vectorIS3_SaIS3_EEEptEv
FN:1052,_ZN9__gnu_cxx17__normal_iteratorIPSt10unique_ptrI12ActiveObjectSt14default_deleteIS2_EESt6vectorIS5_SaIS5_EEEppEv
FN:1052,_ZN9__gnu_cxx17__normal_iteratorIPSt10shared_ptrI13ThreadContextESt6vectorIS3_SaIS3_EEEppEv
FN:1052,_ZN9__gnu_cxx17__normal_iteratorIP4EdgeSt6vectorIS1_SaIS1_EEEppEv
FN:1052,_ZN9__gnu_cxx17__normal_iteratorIPmSt6vectorImSaImEEEppEv
FN:1052,_ZN9__gnu_cxx17__normal_iteratorIPK4EdgeSt6vectorIS1_SaIS1_EEEppEv
FN:1052,_ZN9__gnu_cxx17__normal_iteratorIPiSt6vectorIiSaIiEEEppEv
FN:1066,_ZN9__gnu_cxx17__normal_iteratorIPiSt6vectorIiSaIiEEEmmEv
FN:1066,_ZN9__gnu_cxx17__normal_iteratorIPSt4pairIiiESt6vectorIS2_SaIS2_EEEmmEv
FN:1066,_ZN9__gnu_cxx17__normal_iteratorIP4EdgeSt6vectorIS1_SaIS1_EEEmmEv
FN:1090,_ZNK9__gnu_cxx17__normal_iteratorIP4EdgeSt6vectorIS1_SaIS1_EEEplEl
FN:1090,_ZNK9__gnu_cxx17__normal_iteratorIPiSt6vectorIiSaIiEEEplEl
FN:1090,_ZNK9__gnu_cxx17__normal_iteratorIPSt4pairIiiESt6vectorIS2_SaIS2_EEEplEl
FN:1100,_ZNK9__gnu_cxx17__normal_iteratorIP4EdgeSt6vectorIS1_SaIS1_EEEmiEl
FN:1100,_ZNK9__gnu_cxx17__normal_iteratorIPSt4pairIiiESt6vectorIS2_SaIS2_EEEmiEl
FN:1100,_ZNK9__gnu_cxx17__normal_iteratorIPiSt6vectorIiSaIiEEEmiEl
FN:1100,_ZNK9__gnu_cxx17__normal_iteratorIPSt10unique_ptrI12ActiveObjectSt14default_deleteIS2_EESt6vectorIS5_SaIS5_EEEmiEl
FN:1105,_ZNK9__gnu_cxx17__normal_iteratorIPKSt4pairIiiESt6vectorIS2_SaIS2_EEE4baseEv
FN:1105,_ZNK9__gnu_cxx17__normal_iteratorIPiSt6vectorIiSaIiEEE4baseEv
FN:1105,_ZNK9__gnu_cxx17__normal_iteratorIPKiSt6vectorIiSaIiEEE4baseEv
FN:1105,_ZNK9__gnu_cxx17__normal_iteratorIP4EdgeSt6vectorIS1_SaIS1_EEE4baseEv
FN:1105,_ZNK9__gnu_cxx17__normal_iteratorIPSt10unique_ptrI12ActiveObjectSt14default_deleteIS2_EESt6vectorIS5_SaIS5_EEE4baseEv
FN:1105,_ZNK9__gnu_cxx17__normal_iteratorIPKSt6vectorI4EdgeSaIS2_EES1_IS4_SaIS4_EEE4baseEv
FN:1105,_ZNK9__gnu_cxx17__normal_iteratorIPSt10shared_ptrI13ThreadContextESt6vectorIS3_SaIS3_EEE4baseEv
FN:1105,_ZNK9__gnu_cxx17__normal_iteratorIPSt4pairIiiESt6vectorIS2_SaIS2_EEE4baseEv
FN:1105,_ZNK9__gnu_cxx17__normal_iteratorIPmSt6vectorImSaImEEE4baseEv
FN:1105,_ZNK9__gnu_cxx17__normal_iteratorIPSt6vectorIiSaIiEES1_IS3_SaIS3_EEE4baseEv
FN:1105,_ZNK9__gnu_cxx17__normal_iteratorIPK4EdgeSt6vectorIS1_SaIS1_EEE4baseEv
FN:1163,_ZN9__gnu_cxxeqIPSt10unique_ptrI12ActiveObjectSt14default_deleteIS2_EESt6vectorIS5_SaIS5_EEEEbRKNS_17__normal_iteratorIT_T0_EESF_
FN:1163,_ZN9__gnu_cxxeqIPKSt6vectorI4EdgeSaIS2_EES1_IS4_SaIS4_EEEEbRKNS_17__normal_iteratorIT_T0_EESE_
FN:1163,_ZN9__gnu_cxxeqIP4EdgeSt6vectorIS1_SaIS1_EEEEbRKNS_17__normal_iteratorIT_T0_EESB_
FN:1163,_ZN9__gnu_cxxeqIPiSt6vectorIiSaIiEEEEbRKNS_17__normal_iteratorIT_T0_EESA_
FN:1163,_ZN9__gnu_cxxeqIPKSt4pairIiiESt6vectorIS2_SaIS2_EEEEbRKNS_17__normal_iteratorIT_T0_EESD_
FN:1179,_ZN9__gnu_cxxneIP4EdgeSt6vectorIS1_SaIS1_EEEEbRKNS_17__normal_iteratorIT_T0_EESB_
FN:1179,_ZN9__gnu_cxxneIPmSt6vectorImSaImEEEEbRKNS_17__normal_iteratorIT_T0_EESA_
FN:1179,_ZN9__gnu_cxxneIPK4EdgeSt6vectorIS1_SaIS1_EEEEbRKNS_17__normal_iteratorIT_T0_EESC_
FN:1179,_ZN9__gnu_cxxneIPSt10shared_ptrI13ThreadContextESt6vectorIS3_SaIS3_EEEEbRKNS_17__normal_iteratorIT_T0_EESD_
FN:1179,_ZN9__gnu_cxxneIPSt10unique_ptrI12ActiveObjectSt14default_deleteIS2_EESt6vectorIS5_SaIS5_EEEEbRKNS_17__normal_iteratorIT_T0_EESF_
FN:1195,_ZN9__gnu_cxxltIP4EdgeSt6vectorIS1_SaIS1_EEEEbRKNS_17__normal_iteratorIT_T0_EESB_
FN:1195,_ZN9__gnu_cxxltIPiSt6vectorIiSaIiEEEEbRKNS_17__normal_iteratorIT_T0_EESA_
FN:1268,_ZN9__gnu_cxxmiIPmSt6vectorImSaImEEEENS_17__normal_iteratorIT_T0_E15difference_typeERKS8_SB_
FN:1268,_ZN9__gnu_cxxmiIP4EdgeSt6vectorIS1_SaIS1_EEEENS_17__normal_iteratorIT_T0_E15difference_typeERKS9_SC_
FN:1268,_ZN9__gnu_cxxmiIPiSt6vectorIiSaIiEEEENS_17__normal_iteratorIT_T0_E15difference_typeERKS8_SB_
FN:1268,_ZN9__gnu_cxxmiIPSt6vectorIiSaIiEES1_IS3_SaIS3_EEEENS_17__normal_iteratorIT_T0_E15difference_typeERKSA_SD_
FN:1268,_ZN9__gnu_cxxmiIPSt10unique_ptrI12ActiveObjectSt14default_deleteIS2_EESt6vectorIS5_SaIS5_EEEENS_17__normal_iteratorIT_T0_E15difference_typeERKSD_SG_
FN:1268,_ZN9__gnu_cxxmiIPSt4pairIiiESt6vectorIS2_SaIS2_EEEENS_17__normal_iteratorIT_T0_E15difference_typeERKSA_SD_
FN:1268,_ZN9__gnu_cxxmiIPK4EdgeSt6vectorIS1_SaIS1_EEEENS_17__normal_iteratorIT_T0_E15difference_typeERKSA_SD_
FN:1291,_ZSt12__niter_baseIPK4EdgeSt6vectorIS0_SaIS0_EEET_N9__gnu_cxx17__normal_iteratorIS6_T0_EE
FN:1291,_ZSt12__niter_baseIPiSt6vectorIiSaIiEEET_N9__gnu_cxx17__normal_iteratorIS4_T0_EE
FN:1291,_ZSt12__niter_baseIP4EdgeSt6vectorIS0_SaIS0_EEET_N9__gnu_cxx17__normal_iteratorIS5_T0_EE
FN:1291,_ZSt12__niter_baseIPmSt6vectorImSaImEEET_N9__gnu_cxx17__normal_iteratorIS4_T0_EE
FN:1291,_ZSt12__niter_baseIPKiSt6vectorIiSaIiEEET_N9__gnu_cxx17__normal_iteratorIS5_T0_EE
FN:1439,_ZNSt13move_iteratorIN9__gnu_cxx17__normal_iteratorIPmSt6vectorImSaImEEEEEC2ES6_
FN:1439,_ZNSt13move_iteratorIPSt6vectorIiSaIiEEEC2ES3_
FN:1439,_ZNSt13move_iteratorIN9__gnu_cxx17__normal_iteratorIPSt10unique_ptrI12ActiveObjectSt14default_deleteIS3_EESt6vectorIS6_SaIS6_EEEEEC2ESB_
FN:1464,_ZNKSt13move_iteratorIPSt6vectorIiSaIiEEE4baseEv
FN:1464,_ZNKSt13move_iteratorIN9__gnu_cxx17__normal_iteratorIPSt10unique_ptrI12ActiveObjectSt14default_deleteIS3_EESt6vectorIS6_SaIS6_EEEEE4baseEv
FN:1464,_ZNKSt13move_iteratorIN9__gnu_cxx17__normal_iteratorIPmSt6vectorImSaImEEEEE4baseEv
FN:1477,_ZNKSt13move_iteratorIPSt6vectorIiSaIiEEEdeEv
FN:1477,_ZNKSt13move_iteratorIN9__gnu_cxx17__normal_iteratorIPSt10unique_ptrI12ActiveObjectSt14default_deleteIS3_EESt6vectorIS6_SaIS6_EEEEEdeEv
FN:1489,_ZNSt13move_iteratorIPSt6vectorIiSaIiEEEppEv
FN:1489,_ZNSt13move_iteratorIN9__gnu_cxx17__normal_iteratorIPSt10unique_ptrI12ActiveObjectSt14default_deleteIS3_EESt6vectorIS6_SaIS6_EEEEEppEv
FN:1648,_ZSteqIN9__gnu_cxx17__normal_iteratorIPSt10unique_ptrI12ActiveObjectSt14default_deleteIS3_EESt6vectorIS6_SaIS6_EEEEEbRKSt13move_iteratorIT_ESG_
FN:1648,_ZSteqIPSt6vectorIiSaIiEEEbRKSt13move_iteratorIT_ES8_
FN:1661,_ZStneIN9__gnu_cxx17__normal_iteratorIPSt10unique_ptrI12ActiveObjectSt14default_deleteIS3_EESt6vectorIS6_SaIS6_EEEEEbRKSt13move_iteratorIT_ESG_
FN:1661,_ZStneIPSt6vectorIiSaIiEEEbRKSt13move_iteratorIT_ES8_
FN:1693,_ZStmiIN9__gnu_cxx17__normal_iteratorIPmSt6vectorImSaImEEEES6_EDTmicldtfp_4baseEcldtfp0_4baseEERKSt13move_iteratorIT_ERKS8_IT0_E
FN:1693,_ZStmiIN9__gnu_cxx17__normal_iteratorIPSt10unique_ptrI12ActiveObjectSt14default_deleteIS3_EESt6vectorIS6_SaIS6_EEEESB_EDTmicldtfp_4baseEcldtfp0_4baseEERKSt13move_iteratorIT_ERKSD_IT0_E
FN:1706,_ZSt18make_move_iteratorIPSt6vectorIiSaIiEEESt13move_iteratorIT_ES5_
FN:1714,_ZSt32__make_move_if_noexcept_iteratorIN9__gnu_cxx17__normal_iteratorIPmSt6vectorImSaImEEEESt13move_iteratorIS6_EET0_T_
FN:1714,_ZSt32__make_move_if_noexcept_iteratorIN9__gnu_cxx17__normal_iteratorIPSt10unique_ptrI12ActiveObjectSt14default_deleteIS3_EESt6vectorIS6_SaIS6_EEEESt13move_iteratorISB_EET0_T_
FN:1723,_ZSt32__make_move_if_noexcept_iteratorISt6vectorIiSaIiEESt13move_iteratorIPS2_EET0_PT_
FN:2464,_ZSt12__miter_baseIN9__gnu_cxx17__normal_iteratorIPmSt6vectorImSaImEEEEEDTcl12__miter_basecldtfp_4baseEEESt13move_iteratorIT_E
FNDA:18,_ZN9__gnu_cxxeqIP4EdgeSt6vectorIS1_SaIS1_EEEEbRKNS_17__normal_iteratorIT_T0_EESB_
FNDA:24,_ZN9__gnu_cxx17__normal_iteratorIPiSt6vectorIiSaIiEEEppEv
FNDA:4,_ZStmiIN9__gnu_cxx17__normal_iteratorIPmSt6vectorImSaImEEEES6_EDTmicldtfp_4baseEcldtfp0_4baseEERKSt13move_iteratorIT_ERKS8_IT0_E
FNDA:64,_ZNK9__gnu_cxx17__normal_iteratorIPSt6vectorIiSaIiEES1_IS3_SaIS3_EEE4baseEv
FNDA:304,_ZN9__gnu_cxxneIPK4EdgeSt6vectorIS1_SaIS1_EEEEbRKNS_17__normal_iteratorIT_T0_EESC_
FNDA:92,_ZN9__gnu_cxx17__normal_iteratorIPKSt6vectorI4EdgeSaIS2_EES1_IS4_SaIS4_EEEC2ERKS6_
FNDA:127,_ZN9__gnu_cxxneIPSt10shared_ptrI13ThreadContextESt6vectorIS3_SaIS3_EEEEbRKNS_17__normal_iteratorIT_T0_EESD_
FNDA:2812,_ZN9__gnu_cxx17__normal_iteratorIP4EdgeSt6vectorIS1_SaIS1_EEEC2ERKS2_
FNDA:148,_ZNK9__gnu_cxx17__normal_iteratorIPSt4pairIiiESt6vectorIS2_SaIS2_EEEplEl
FNDA:92,_ZN9__gnu_cxxeqIPKSt4pairIiiESt6vectorIS2_SaIS2_EEEEbRKNS_17__normal_iteratorIT_T0_EESD_
FNDA:40,_ZN9__gnu_cxxltIPiSt6vectorIiSaIiEEEEbRKNS_17__normal_iteratorIT_T0_EESA_
FNDA:12,_ZN9__gnu_cxxmiIPK4EdgeSt6vectorIS1_SaIS1_EEEENS_17__normal_iteratorIT_T0_E15difference_typeERKSA_SD_
FNDA:16,_ZN9__gnu_cxxeqIPiSt6vectorIiSaIiEEEEbRKNS_17__normal_iteratorIT_T0_EESA_
FNDA:302,_ZN9__gnu_cxx17__normal_iteratorIPK4EdgeSt6vectorIS1_SaIS1_EEEC2ERKS3_
FNDA:32,_ZStneIPSt6vectorIiSaIiEEEbRKSt13move_iteratorIT_ES8_
FNDA:114,_ZNK9__gnu_cxx17__normal_iteratorIPiSt6vectorIiSaIiEEEdeEv
FNDA:1607,_ZNK9__gnu_cxx17__normal_iteratorIP4EdgeSt6vectorIS1_SaIS1_EEEdeEv
FNDA:728,_ZNK9__gnu_cxx17__normal_iteratorIPK4EdgeSt6vectorIS1_SaIS1_EEE4baseEv
FNDA:6,_ZStmiIN9__gnu_cxx17__normal_iteratorIPSt10unique_ptrI12ActiveObjectSt14default_deleteIS3_EESt6vectorIS6_SaIS6_EEEESB_EDTmicldtfp_4baseEcldtfp0_4baseEERKSt13move_iteratorIT_ERKSD_IT0_E
FNDA:240,_ZSt12__niter_baseIPKiSt6vectorIiSaIiEEET_N9__gnu_cxx17__normal_iteratorIS5_T0_EE
FNDA:32,_ZN9__gnu_cxx17__normal_iteratorIPSt6vectorIiSaIiEES1_IS3_SaIS3_EEEC2ERKS4_
FNDA:48,_ZN9__gnu_cxxneIPSt10unique_ptrI12ActiveObjectSt14default_deleteIS2_EESt6vectorIS5_SaIS5_EEEEbRKNS_17__normal_iteratorIT_T0_EESF_
FNDA:8,_ZSt12__miter_baseIN9__gnu_cxx17__normal_iteratorIPmSt6vectorImSaImEEEEEDTcl12__miter_basecldtfp_4baseEEESt13move_iteratorIT_E
FNDA:16,_ZN9__gnu_cxxmiIPSt6vectorIiSaIiEES1_IS3_SaIS3_EEEENS_17__normal_iteratorIT_T0_E15difference_typeERKSA_SD_
FNDA:6,_ZStneIN9__gnu_cxx17__normal_iteratorIPSt10unique_ptrI12ActiveObjectSt14default_deleteIS3_EESt6vectorIS6_SaIS6_EEEEEbRKSt13move_iteratorIT_ESG_
FNDA:66,_ZNK9__gnu_cxx17__normal_iteratorIPiSt6vectorIiSaIiEEEmiEl
FNDA:42,_ZNK9__gnu_cxx17__normal_iteratorIPSt10unique_ptrI12ActiveObjectSt14default_deleteIS2_EESt6vectorIS5_SaIS5_EEEmiEl
FNDA:24,_ZNKSt13move_iteratorIN9__gnu_cxx17__normal_iteratorIPSt10unique_ptrI12ActiveObjectSt14default_deleteIS3_EESt6vectorIS6_SaIS6_EEEEE4baseEv
FNDA:0,_ZNK9__gnu_cxx17__normal_iteratorIPiSt6vectorIiSaIiEEEplEl
FNDA:0,_ZNSt13move_iteratorIN9__gnu_cxx17__normal_iteratorIPSt10unique_ptrI12ActiveObjectSt14default_deleteIS3_EESt6vectorIS6_SaIS6_EEEEEppEv
FNDA:10,_ZN9__gnu_cxx17__normal_iteratorIPmSt6vectorImSaImEEEppEv
FNDA:0,_ZNKSt13move_iteratorIN9__gnu_cxx17__normal_iteratorIPSt10unique_ptrI12ActiveObjectSt14default_deleteIS3_EESt6vectorIS6_SaIS6_EEEEEdeEv
FNDA:16,_ZNKSt13move_iteratorIN9__gnu_cxx17__normal_iteratorIPmSt6vectorImSaImEEEEE4baseEv
FNDA:456,_ZNK9__gnu_cxx17__normal_iteratorIPSt4pairIiiESt6vectorIS2_SaIS2_EEE4baseEv
FNDA:254,_ZNK9__gnu_cxx17__normal_iteratorIPSt10shared_ptrI13ThreadContextESt6vectorIS3_SaIS3_EEE4baseEv
FNDA:6,_ZN9__gnu_cxxeqIPSt10unique_ptrI12ActiveObjectSt14default_deleteIS2_EESt6vectorIS5_SaIS5_EEEEbRKNS_17__normal_iteratorIT_T0_EESF_
FNDA:12,_ZSt32__make_move_if_noexcept_iteratorIN9__gnu_cxx17__normal_iteratorIPSt10unique_ptrI12ActiveObjectSt14default_deleteIS3_EESt6vectorIS6_SaIS6_EEEESt13move_iteratorISB_EET0_T_
FNDA:732,_ZN9__gnu_cxx17__normal_iteratorIPSt4pairIiiESt6vectorIS2_SaIS2_EEEC2ERKS3_
FNDA:88,_ZNK9__gnu_cxx17__normal_iteratorIPmSt6vectorImSaImEEE4baseEv
FNDA:204,_ZN9__gnu_cxx17__normal_iteratorIPK4EdgeSt6vectorIS1_SaIS1_EEEppEv
FNDA:204,_ZNK9__gnu_cxx17__normal_iteratorIPK4EdgeSt6vectorIS1_SaIS1_EEEdeEv
FNDA:46,_ZN9__gnu_cxxeqIPKSt6vectorI4EdgeSaIS2_EES1_IS4_SaIS4_EEEEbRKNS_17__normal_iteratorIT_T0_EESE_
FNDA:8,_ZSt12__niter_baseIPmSt6vectorImSaImEEET_N9__gnu_cxx17__normal_iteratorIS4_T0_EE
FNDA:30,_ZN9__gnu_cxxmiIPSt10unique_ptrI12ActiveObjectSt14default_deleteIS2_EESt6vectorIS5_SaIS5_EEEENS_17__normal_iteratorIT_T0_E15difference_typeERKSD_SG_
FNDA:202,_ZN9__gnu_cxxmiIPSt4pairIiiESt6vectorIS2_SaIS2_EEEENS_17__normal_iteratorIT_T0_E15difference_typeERKSA_SD_
FNDA:42,_ZN9__gnu_cxx17__normal_iteratorIPSt10unique_ptrI12ActiveObjectSt14default_deleteIS2_EESt6vectorIS5_SaIS5_EEEppEv
FNDA:24,_ZN9__gnu_cxx17__normal_iteratorIPSt4pairIiiESt6vectorIS2_SaIS2_EEEmmEv
FNDA:0,_ZSt18make_move_iteratorIPSt6vectorIiSaIiEEESt13move_iteratorIT_ES5_
FNDA:372,_ZNK9__gnu_cxx17__normal_iteratorIPSt4pairIiiESt6vectorIS2_SaIS2_EEEdeEv
FNDA:0,_ZSt12__niter_baseIPiSt6vectorIiSaIiEEET_N9__gnu_cxx17__normal_iteratorIS4_T0_EE
FNDA:6,_ZSteqIN9__gnu_cxx17__normal_iteratorIPSt10unique_ptrI12ActiveObjectSt14default_deleteIS3_EESt6vectorIS6_SaIS6_EEEEEbRKSt13move_iteratorIT_ESG_
FNDA:472,_ZN9__gnu_cxxmiIP4EdgeSt6vectorIS1_SaIS1_EEEENS_17__normal_iteratorIT_T0_E15difference_typeERKS9_SC_
FNDA:76,_ZNK9__gnu_cxx17__normal_iteratorIPKSt4pairIiiESt6vectorIS2_SaIS2_EEEdeEv
FNDA:248,_ZN9__gnu_cxx17__normal_iteratorIPiSt6vectorIiSaIiEEEC2ERKS1_
FNDA:109,_ZN9__gnu_cxx17__normal_iteratorIPSt10shared_ptrI13ThreadContextESt6vectorIS3_SaIS3_EEEppEv
FNDA:64,_ZSt32__make_move_if_noexcept_iteratorISt6vectorIiSaIiEESt13move_iteratorIPS2_EET0_PT_
FNDA:40,_ZN9__gnu_cxx17__normal_iteratorIPmSt6vectorImSaImEEEC2ERKS1_
FNDA:216,_ZNK9__gnu_cxx17__normal_iteratorIPSt10unique_ptrI12ActiveObjectSt14default_deleteIS2_EESt6vectorIS5_SaIS5_EEE4baseEv
FNDA:42,_ZN9__gnu_cxxmiIPiSt6vectorIiSaIiEEEENS_17__normal_iteratorIT_T0_E15difference_typeERKS8_SB_
FNDA:84,_ZNK9__gnu_cxx17__normal_iteratorIPSt10unique_ptrI12ActiveObjectSt14default_deleteIS2_EESt6vectorIS5_SaIS5_EEEdeEv
FNDA:50,_ZN9__gnu_cxx17__normal_iteratorIP4EdgeSt6vectorIS1_SaIS1_EEEmmEv
FNDA:32,_ZSteqIPSt6vectorIiSaIiEEEbRKSt13move_iteratorIT_ES8_
FNDA:64,_ZNK9__gnu_cxx17__normal_iteratorIP4EdgeSt6vectorIS1_SaIS1_EEEplEl
FNDA:8,_ZSt32__make_move_if_noexcept_iteratorIN9__gnu_cxx17__normal_iteratorIPmSt6vectorImSaImEEEESt13move_iteratorIS6_EET0_T_
FNDA:122,_ZNK9__gnu_cxx17__normal_iteratorIPSt10shared_ptrI13ThreadContextESt6vectorIS3_SaIS3_EEEdeEv
FNDA:0,_ZNKSt13move_iteratorIPSt6vectorIiSaIiEEEdeEv
FNDA:92,_ZNK9__gnu_cxx17__normal_iteratorIPKSt6vectorI4EdgeSaIS2_EES1_IS4_SaIS4_EEE4baseEv
FNDA:80,_ZSt12__niter_baseIP4EdgeSt6vectorIS0_SaIS0_EEET_N9__gnu_cxx17__normal_iteratorIS5_T0_EE
FNDA:1018,_ZN9__gnu_cxx17__normal_iteratorIP4EdgeSt6vectorIS1_SaIS1_EEEppEv
FNDA:0,_ZN9__gnu_cxxltIP4EdgeSt6vectorIS1_SaIS1_EEEEbRKNS_17__normal_iteratorIT_T0_EESB_
FNDA:240,_ZN9__gnu_cxx17__normal_iteratorIPKiSt6vectorIiSaIiEEEC2ERKS2_
FNDA:40,_ZN9__gnu_cxx17__normal_iteratorIPiSt6vectorIiSaIiEEEmmEv
FNDA:346,_ZNK9__gnu_cxx17__normal_iteratorIP4EdgeSt6vectorIS1_SaIS1_EEEmiEl
FNDA:0,_ZNSt13move_iteratorIPSt6vectorIiSaIiEEEppEv
FNDA:184,_ZNK9__gnu_cxx17__normal_iteratorIPKSt4pairIiiESt6vectorIS2_SaIS2_EEE4baseEv
FNDA:46,_ZN9__gnu_cxx17__normal_iteratorIPSt10shared_ptrI13ThreadContextESt6vectorIS3_SaIS3_EEEC2ERKS4_
FNDA:280,_ZNK9__gnu_cxx17__normal_iteratorIPiSt6vectorIiSaIiEEE4baseEv
FNDA:260,_ZN9__gnu_cxx17__normal_iteratorIPKSt4pairIiiESt6vectorIS2_SaIS2_EEEC2ERKS4_
FNDA:8,_ZNSt13move_iteratorIN9__gnu_cxx17__normal_iteratorIPmSt6vectorImSaImEEEEEC2ES6_
FNDA:5,_ZNK9__gnu_cxx17__normal_iteratorIPSt10shared_ptrI13ThreadContextESt6vectorIS3_SaIS3_EEEptEv
FNDA:5162,_ZNK9__gnu_cxx17__normal_iteratorIP4EdgeSt6vectorIS1_SaIS1_EEE4baseEv
FNDA:240,_ZNK9__gnu_cxx17__normal_iteratorIPKiSt6vectorIiSaIiEEE4baseEv
FNDA:14,_ZN9__gnu_cxxmiIPmSt6vectorImSaImEEEENS_17__normal_iteratorIT_T0_E15difference_typeERKS8_SB_
FNDA:64,_ZNSt13move_iteratorIPSt6vectorIiSaIiEEEC2ES3_
FNDA:12,_ZN9__gnu_cxx17__normal_iteratorIPK4EdgeSt6vectorIS1_SaIS1_EEEC2IPS1_EERKNS0_IT_NS_11__enable_ifIXsrSt10__are_sameISA_S9_E7__valueES6_E6__typeEEE
FNDA:156,_ZN9__gnu_cxx17__normal_iteratorIPSt10unique_ptrI12ActiveObjectSt14default_deleteIS2_EESt6vectorIS5_SaIS5_EEEC2ERKS6_
FNDA:64,_ZNKSt13move_iteratorIPSt6vectorIiSaIiEEE4baseEv
FNDA:10,_ZNK9__gnu_cxx17__normal_iteratorIPmSt6vectorImSaImEEEdeEv
FNDA:1624,_ZN9__gnu_cxxneIP4EdgeSt6vectorIS1_SaIS1_EEEEbRKNS_17__normal_iteratorIT_T0_EESB_
FNDA:12,_ZNSt13move_iteratorIN9__gnu_cxx17__normal_iteratorIPSt10unique_ptrI12ActiveObjectSt14default_deleteIS3_EESt6vectorIS6_SaIS6_EEEEEC2ESB_
FNDA:16,_ZN9__gnu_cxxneIPmSt6vectorImSaImEEEEbRKNS_17__normal_iteratorIT_T0_EESA_
FNDA:152,_ZNK9__gnu_cxx17__normal_iteratorIPSt4pairIiiESt6vectorIS2_SaIS2_EEEmiEl
FNDA:96,_ZSt12__niter_baseIPK4EdgeSt6vectorIS0_SaIS0_EEET_N9__gnu_cxx17__normal_iteratorIS6_T0_EE
FNF:93
FNH:85
DA:1027,4960
DA:1028,4960
DA:1033,12
DA:1037,12
DA:1042,2589
DA:1043,2589
DA:1047,5
DA:1048,5
DA:1052,1407
DA:1054,1407
DA:1055,1407
DA:1066,114
DA:1068,114
DA:1069,114
DA:1090,212
DA:1091,212
DA:1100,606
DA:1101,606
DA:1105,7764
DA:1106,7764
DA:1163,178
DA:1166,178
DA:1179,2119
DA:1182,2119
DA:1195,40
DA:1198,40
DA:1268,788
DA:1271,788
DA:1291,424
DA:1293,424
DA:1439,84
DA:1440,84
DA:1464,104
DA:1465,104
DA:1477,0
DA:1481,0
DA:1489,0
DA:1491,0
DA:1492,0
DA:1648,38
DA:1650,38
DA:1661,38
DA:1663,38
DA:1693,10
DA:1696,10
DA:1706,0
DA:1707,0
DA:1714,20
DA:1715,20
DA:1723,64
DA:1724,64
DA:2464,8
DA:2466,8
LF:53
LH:46
end_of_record
TN:
SF:/usr/include/c++/11/bits/stl_iterator_base_funcs.h
FN:98,_ZSt10__distanceIPKcENSt15iterator_traitsIT_E15difference_typeES3_S3_St26random_access_iterator_tag
FN:98,_ZSt10__distanceIPcENSt15iterator_traitsIT_E15difference_typeES2_S2_St26random_access_iterator_tag
FN:98,_ZSt10__distanceISt13move_iteratorIN9__gnu_cxx17__normal_iteratorIPmSt6vectorImSaImEEEEEENSt15iterator_traitsIT_E15difference_typeESA_SA_St26random_access_iterator_tag
FN:98,_ZSt10__distanceISt13move_iteratorIN9__gnu_cxx17__normal_iteratorIPSt10unique_ptrI12ActiveObjectSt14default_deleteIS4_EESt6vectorIS7_SaIS7_EEEEEENSt15iterator_traitsIT_E15difference_typeESF_SF_St26random_access_iterator_tag
FN:138,_ZSt8distanceIPKcENSt15iterator_traitsIT_E15difference_typeES3_S3_
FN:138,_ZSt8distanceISt13move_iteratorIN9__gnu_cxx17__normal_iteratorIPSt10unique_ptrI12ActiveObjectSt14default_deleteIS4_EESt6vectorIS7_SaIS7_EEEEEENSt15iterator_traitsIT_E15difference_typeESF_SF_
FN:138,_ZSt8distanceIPcENSt15iterator_traitsIT_E15difference_typeES2_S2_
FN:138,_ZSt8distanceISt13move_iteratorIN9__gnu_cxx17__normal_iteratorIPmSt6vectorImSaImEEEEEENSt15iterator_traitsIT_E15difference_typeESA_SA_
FNDA:4,_ZSt8distanceISt13move_iteratorIN9__gnu_cxx17__normal_iteratorIPmSt6vectorImSaImEEEEEENSt15iterator_traitsIT_E15difference_typeESA_SA_
FNDA:142,_ZSt8distanceIPcENSt15iterator_traitsIT_E15difference_typeES2_S2_
FNDA:142,_ZSt10__distanceIPcENSt15iterator_traitsIT_E15difference_typeES2_S2_St26random_access_iterator_tag
FNDA:6,_ZSt8distanceISt13move_iteratorIN9__gnu_cxx17__normal_iteratorIPSt10unique_ptrI12ActiveObjectSt14default_deleteIS4_EESt6vectorIS7_SaIS7_EEEEEENSt15iterator_traitsIT_E15difference_typeESF_SF_
FNDA:6,_ZSt10__distanceISt13move_iteratorIN9__gnu_cxx17__normal_iteratorIPSt10unique_ptrI12ActiveObjectSt14default_deleteIS4_EESt6vectorIS7_SaIS7_EEEEEENSt15iterator_traitsIT_E15difference_typeESF_SF_St26random_access_iterator_tag
FNDA:4,_ZSt10__distanceISt13move_iteratorIN9__gnu_cxx17__normal_iteratorIPmSt6vectorImSaImEEEEEENSt15iterator_traitsIT_E15difference_typeESA_SA_St26random_access_iterator_tag
FNDA:370,_ZSt8distanceIPKcENSt15iterator_traitsIT_E15difference_typeES3_S3_
FNDA:370,_ZSt10__distanceIPKcENSt15iterator_traitsIT_E15difference_typeES3_S3_St26random_access_iterator_tag
FNF:8
FNH:8
DA:98,522
DA:104,522
DA:138,522
DA:141,522
DA:142,1044
LF:5
LH:5
end_of_record
TN:
SF:/usr/include/c++/11/bits/stl_iterator_base_types.h
FN:238,_ZSt19__iterator_categoryIPKcENSt15iterator_traitsIT_E17iterator_categoryERKS3_
FN:238,_ZSt19__iterator_categoryIPcENSt15iterator_traitsIT_E17iterator_categoryERKS2_
FN:238,_ZSt19__iterator_categoryIPiENSt15iterator_traitsIT_E17iterator_categoryERKS2_
FN:238,_ZSt19__iterator_categoryISt13move_iteratorIN9__gnu_cxx17__normal_iteratorIPmSt6vectorImSaImEEEEEENSt15iterator_traitsIT_E17iterator_categoryERKSA_
FN:238,_ZSt19__iterator_categoryIN9__gnu_cxx17__normal_iteratorIPiSt6vectorIiSaIiEEEEENSt15iterator_traitsIT_E17iterator_categoryERKS8_
FN:238,_ZSt19__iterator_categoryIN9__gnu_cxx17__normal_iteratorIP4EdgeSt6vectorIS2_SaIS2_EEEEENSt15iterator_traitsIT_E17iterator_categoryERKS9_
FN:238,_ZSt19__iterator_categoryISt13move_iteratorIN9__gnu_cxx17__normal_iteratorIPSt10unique_ptrI12ActiveObjectSt14default_deleteIS4_EESt6vectorIS7_SaIS7_EEEEEENSt15iterator_traitsIT_E17iterator_categoryERKSF_
FNDA:370,_ZSt19__iterator_categoryIPKcENSt15iterator_traitsIT_E17iterator_categoryERKS3_
FNDA:142,_ZSt19__iterator_categoryIPcENSt15iterator_traitsIT_E17iterator_categoryERKS2_
FNDA:8,_ZSt19__iterator_categoryISt13move_iteratorIN9__gnu_cxx17__normal_iteratorIPmSt6vectorImSaImEEEEEENSt15iterator_traitsIT_E17iterator_categoryERKSA_
FNDA:160,_ZSt19__iterator_categoryIPiENSt15iterator_traitsIT_E17iterator_categoryERKS2_
FNDA:16,_ZSt19__iterator_categoryIN9__gnu_cxx17__normal_iteratorIPiSt6vectorIiSaIiEEEEENSt15iterator_traitsIT_E17iterator_categoryERKS8_
FNDA:6,_ZSt19__iterator_categoryIN9__gnu_cxx17__normal_iteratorIP4EdgeSt6vectorIS2_SaIS2_EEEEENSt15iterator_traitsIT_E17iterator_categoryERKS9_
FNDA:12,_ZSt19__iterator_categoryISt13move_iteratorIN9__gnu_cxx17__normal_iteratorIPSt10unique_ptrI12ActiveObjectSt14default_deleteIS4_EESt6vectorIS7_SaIS7_EEEEEENSt15iterator_traitsIT_E17iterator_categoryERKSF_
FNF:7
FNH:7
DA:238,714
DA:239,714
LF:2
LH:2
end_of_record
TN:
SF:/usr/include/c++/11/bits/stl_map.h
FN:185,_ZNSt3mapIiSt8functionIFvvEESt4lessIiESaISt4pairIKiS2_EEEC2Ev
FN:302,_ZNSt3mapIiSt8functionIFvvEESt4lessIiESaISt4pairIKiS2_EEED2Ev
FN:374,_ZNSt3mapIiSt8functionIFvvEESt4lessIiESaISt4pairIKiS2_EEE3endEv
FN:492,_ZNSt3mapIiSt8functionIFvvEESt4lessIiESaISt4pairIKiS2_EEEixERS6_
FN:1142,_ZNKSt3mapIiSt8functionIFvvEESt4lessIiESaISt4pairIKiS2_EEE8key_compEv
FN:1169,_ZNSt3mapIiSt8functionIFvvEESt4lessIiESaISt4pairIKiS2_EEE4findERS6_
FN:1258,_ZNSt3mapIiSt8functionIFvvEESt4lessIiESaISt4pairIKiS2_EEE11lower_boundERS6_
FNDA:8,_ZNKSt3mapIiSt8functionIFvvEESt4lessIiESaISt4pairIKiS2_EEE8key_compEv
FNDA:21,_ZNSt3mapIiSt8functionIFvvEESt4lessIiESaISt4pairIKiS2_EEE3endEv
FNDA:13,_ZNSt3mapIiSt8functionIFvvEESt4lessIiESaISt4pairIKiS2_EEE11lower_boundERS6_
FNDA:8,_ZNSt3mapIiSt8functionIFvvEESt4lessIiESaISt4pairIKiS2_EEE4findERS6_
FNDA:5,_ZNSt3mapIiSt8functionIFvvEESt4lessIiESaISt4pairIKiS2_EEEC2Ev
FNDA:13,_ZNSt3mapIiSt8functionIFvvEESt4lessIiESaISt4pairIKiS2_EEEixERS6_
FNDA:5,_ZNSt3mapIiSt8functionIFvvEESt4lessIiESaISt4pairIKiS2_EEED2Ev
FNF:7
FNH:7
DA:185,5
DA:302,5
DA:374,21
DA:375,21
DA:492,13
DA:497,13
DA:499,13
DA:501,5
DA:502,5
DA:503,5
DA:507,13
DA:1142,8
DA:1143,8
DA:1169,8
DA:1170,8
DA:1258,13
DA:1259,13
LF:17
LH:17
end_of_record
TN:
SF:/usr/include/c++/11/bits/stl_pair.h
FN:322,_ZNSt4pairIPSt18_Rb_tree_node_baseS1_EC2IRS1_Lb1EEEOT_RKS1_
FN:336,_ZNSt4pairIPSt18_Rb_tree_node_baseS1_EC2IRS1_Lb1EEERKS1_OT_
FN:352,_ZNSt4pairIPSt18_Rb_tree_node_baseS1_EC2IRS1_S4_Lb1EEEOT_OT0_
FN:352,_ZNSt4pairIiiEC2IRiS2_Lb1EEEOT_OT0_
FN:352,_ZNSt4pairIiiEC2IiRiLb1EEEOT_OT0_
FN:352,_ZNSt4pairIPSt18_Rb_tree_node_baseS1_EC2IRPSt13_Rb_tree_nodeIS_IKiSt8functionIFvvEEEERS1_Lb1EEEOT_OT0_
FN:352,_ZNSt4pairIiiEC2IRiiLb1EEEOT_OT0_
FN:401,_ZNSt4pairIiiEaSEOS0_
FN:489,_ZStltIiiEbRKSt4pairIT_T0_ES5_
FN:502,_ZStgtIiiEbRKSt4pairIT_T0_ES5_
FNDA:5,_ZNSt4pairIPSt18_Rb_tree_node_baseS1_EC2IRPSt13_Rb_tree_nodeIS_IKiSt8functionIFvvEEEERS1_Lb1EEEOT_OT0_
FNDA:16,_ZNSt4pairIiiEC2IiRiLb1EEEOT_OT0_
FNDA:60,_ZNSt4pairIiiEC2IRiiLb1EEEOT_OT0_
FNDA:28,_ZStltIiiEbRKSt4pairIT_T0_ES5_
FNDA:28,_ZStgtIiiEbRKSt4pairIT_T0_ES5_
FNDA:0,_ZNSt4pairIPSt18_Rb_tree_node_baseS1_EC2IRS1_Lb1EEEOT_RKS1_
FNDA:0,_ZNSt4pairIPSt18_Rb_tree_node_baseS1_EC2IRS1_S4_Lb1EEEOT_OT0_
FNDA:0,_ZNSt4pairIPSt18_Rb_tree_node_baseS1_EC2IRS1_Lb1EEERKS1_OT_
FNDA:134,_ZNSt4pairIiiEaSEOS0_
FNDA:32,_ZNSt4pairIiiEC2IRiS2_Lb1EEEOT_OT0_
FNF:10
FNH:7
DA:322,0
DA:323,0
DA:336,0
DA:337,0
DA:352,113
DA:353,113
DA:401,134
DA:408,134
DA:409,134
DA:410,134
DA:489,28
DA:490,28
DA:491,28
DA:502,28
DA:503,28
LF:15
LH:11
end_of_record
TN:
SF:/usr/include/c++/11/bits/stl_queue.h
FN:166,_ZNSt5queueISt8functionIFvvEESt5dequeIS2_SaIS2_EEEC2IS5_vEEv
FN:203,_ZNKSt5queueISt8functionIFvvEESt5dequeIS2_SaIS2_EEE5emptyEv
FN:216,_ZNSt5queueISt8functionIFvvEESt5dequeIS2_SaIS2_EEE5frontEv
FN:276,_ZNSt5queueISt8functionIFvvEESt5dequeIS2_SaIS2_EEE7emplaceIJRZZZZZZ14handleCommandsiRSt6vectorISt10unique_ptrI12ActiveObjectSt14default_deleteISA_EESaISD_EERS9_I5GraphSB_ISH_EER10MSTFactoryRS9_I4TreeSB_ISN_EEENKUlvE3_clEvENKUlvE_clEvENKUlvE_clEvENKUlvE_clEvENKUlvE_clEvEUlvE_EEEDcDpOT_
FN:276,_ZNSt5queueISt8functionIFvvEESt5dequeIS2_SaIS2_EEE7emplaceIJRZ14handleCommandsiRSt6vectorISt10unique_ptrI12ActiveObjectSt14default_deleteISA_EESaISD_EERS9_I5GraphSB_ISH_EER10MSTFactoryRS9_I4TreeSB_ISN_EEEUlvE1_EEEDcDpOT_
FN:276,_ZNSt5queueISt8functionIFvvEESt5dequeIS2_SaIS2_EEE7emplaceIJRZZZ14handleCommandsiRSt6vectorISt10unique_ptrI12ActiveObjectSt14default_deleteISA_EESaISD_EERS9_I5GraphSB_ISH_EER10MSTFactoryRS9_I4TreeSB_ISN_EEENKUlvE3_clEvENKUlvE_clEvEUlvE_EEEDcDpOT_
FN:276,_ZNSt5queueISt8functionIFvvEESt5dequeIS2_SaIS2_EEE7emplaceIJRZ14handleCommandsiRSt6vectorISt10unique_ptrI12ActiveObjectSt14default_deleteISA_EESaISD_EERS9_I5GraphSB_ISH_EER10MSTFactoryRS9_I4TreeSB_ISN_EEEUlvE8_EEEDcDpOT_
FN:276,_ZNSt5queueISt8functionIFvvEESt5dequeIS2_SaIS2_EEE7emplaceIJRZZZZZ14handleCommandsiRSt6vectorISt10unique_ptrI12ActiveObjectSt14default_deleteISA_EESaISD_EERS9_I5GraphSB_ISH_EER10MSTFactoryRS9_I4TreeSB_ISN_EEENKUlvE3_clEvENKUlvE_clEvENKUlvE_clEvENKUlvE_clEvEUlvE_EEEDcDpOT_
FN:276,_ZNSt5queueISt8functionIFvvEESt5dequeIS2_SaIS2_EEE7emplaceIJRZZ14handleCommandsiRSt6vectorISt10unique_ptrI12ActiveObjectSt14default_deleteISA_EESaISD_EERS9_I5GraphSB_ISH_EER10MSTFactoryRS9_I4TreeSB_ISN_EEENKUlvE3_clEvEUlvE_EEEDcDpOT_
FN:276,_ZNSt5queueISt8functionIFvvEESt5dequeIS2_SaIS2_EEE7emplaceIJRZ14handleCommandsiRSt6vectorISt10unique_ptrI12ActiveObjectSt14default_deleteISA_EESaISD_EERS9_I5GraphSB_ISH_EER10MSTFactoryRS9_I4TreeSB_ISN_EEEUlvE4_EEEDcDpOT_
FN:276,_ZNSt5queueISt8functionIFvvEESt5dequeIS2_SaIS2_EEE7emplaceIJRZ14handleCommandsiRSt6vectorISt10unique_ptrI12ActiveObjectSt14default_deleteISA_EESaISD_EERS9_I5GraphSB_ISH_EER10MSTFactoryRS9_I4TreeSB_ISN_EEEUlvE3_EEEDcDpOT_
FN:276,_ZNSt5queueISt8functionIFvvEESt5dequeIS2_SaIS2_EEE7emplaceIJRZ14handleCommandsiRSt6vectorISt10unique_ptrI12ActiveObjectSt14default_deleteISA_EESaISD_EERS9_I5GraphSB_ISH_EER10MSTFactoryRS9_I4TreeSB_ISN_EEEUlvE10_EEEDcDpOT_
FN:276,_ZNSt5queueISt8functionIFvvEESt5dequeIS2_SaIS2_EEE7emplaceIJRZ14handleCommandsiRSt6vectorISt10unique_ptrI12ActiveObjectSt14default_deleteISA_EESaISD_EERS9_I5GraphSB_ISH_EER10MSTFactoryRS9_I4TreeSB_ISN_EEEUlvE6_EEEDcDpOT_
FN:276,_ZNSt5queueISt8functionIFvvEESt5dequeIS2_SaIS2_EEE7emplaceIJRZZZZ14handleCommandsiRSt6vectorISt10unique_ptrI12ActiveObjectSt14default_deleteISA_EESaISD_EERS9_I5GraphSB_ISH_EER10MSTFactoryRS9_I4TreeSB_ISN_EEENKUlvE3_clEvENKUlvE_clEvENKUlvE_clEvEUlvE_EEEDcDpOT_
FN:276,_ZNSt5queueISt8functionIFvvEESt5dequeIS2_SaIS2_EEE7emplaceIJRZ14handleCommandsiRSt6vectorISt10unique_ptrI12ActiveObjectSt14default_deleteISA_EESaISD_EERS9_I5GraphSB_ISH_EER10MSTFactoryRS9_I4TreeSB_ISN_EEEUlvE0_EEEDcDpOT_
FN:276,_ZNSt5queueISt8functionIFvvEESt5dequeIS2_SaIS2_EEE7emplaceIJRZ14handleCommandsiRSt6vectorISt10unique_ptrI12ActiveObjectSt14default_deleteISA_EESaISD_EERS9_I5GraphSB_ISH_EER10MSTFactoryRS9_I4TreeSB_ISN_EEEUlvE2_EEEDcDpOT_
FN:276,_ZNSt5queueISt8functionIFvvEESt5dequeIS2_SaIS2_EEE7emplaceIJRZ14handleCommandsiRSt6vectorISt10unique_ptrI12ActiveObjectSt14default_deleteISA_EESaISD_EERS9_I5GraphSB_ISH_EER10MSTFactoryRS9_I4TreeSB_ISN_EEEUlvE_EEEDcDpOT_
FN:276,_ZNSt5queueISt8functionIFvvEESt5dequeIS2_SaIS2_EEE7emplaceIJRZ14handleCommandsiRSt6vectorISt10unique_ptrI12ActiveObjectSt14default_deleteISA_EESaISD_EERS9_I5GraphSB_ISH_EER10MSTFactoryRS9_I4TreeSB_ISN_EEEUlvE5_EEEDcDpOT_
FN:276,_ZNSt5queueISt8functionIFvvEESt5dequeIS2_SaIS2_EEE7emplaceIJRZ14handleCommandsiRSt6vectorISt10unique_ptrI12ActiveObjectSt14default_deleteISA_EESaISD_EERS9_I5GraphSB_ISH_EER10MSTFactoryRS9_I4TreeSB_ISN_EEEUlvE9_EEEDcDpOT_
FN:298,_ZNSt5queueISt8functionIFvvEESt5dequeIS2_SaIS2_EEE3popEv
FN:514,_ZNSt14priority_queueISt4pairIiiESt6vectorIS1_SaIS1_EESt7greaterIS1_EEC2IS4_vEEv
FN:612,_ZNKSt14priority_queueISt4pairIiiESt6vectorIS1_SaIS1_EESt7greaterIS1_EE5emptyEv
FN:625,_ZNKSt14priority_queueISt4pairIiiESt6vectorIS1_SaIS1_EESt7greaterIS1_EE3topEv
FN:648,_ZNSt14priority_queueISt4pairIiiESt6vectorIS1_SaIS1_EESt7greaterIS1_EE4pushEOS1_
FN:675,_ZNSt14priority_queueISt4pairIiiESt6vectorIS1_SaIS1_EESt7greaterIS1_EE3popEv
FNDA:16,_ZNSt14priority_queueISt4pairIiiESt6vectorIS1_SaIS1_EESt7greaterIS1_EEC2IS4_vEEv
FNDA:92,_ZNKSt14priority_queueISt4pairIiiESt6vectorIS1_SaIS1_EESt7greaterIS1_EE5emptyEv
FNDA:4,_ZNSt5queueISt8functionIFvvEESt5dequeIS2_SaIS2_EEE7emplaceIJRZZZZZ14handleCommandsiRSt6vectorISt10unique_ptrI12ActiveObjectSt14default_deleteISA_EESaISD_EERS9_I5GraphSB_ISH_EER10MSTFactoryRS9_I4TreeSB_ISN_EEENKUlvE3_clEvENKUlvE_clEvENKUlvE_clEvENKUlvE_clEvEUlvE_EEEDcDpOT_
FNDA:4,_ZNSt5queueISt8functionIFvvEESt5dequeIS2_SaIS2_EEE7emplaceIJRZZZ14handleCommandsiRSt6vectorISt10unique_ptrI12ActiveObjectSt14default_deleteISA_EESaISD_EERS9_I5GraphSB_ISH_EER10MSTFactoryRS9_I4TreeSB_ISN_EEENKUlvE3_clEvENKUlvE_clEvEUlvE_EEEDcDpOT_
FNDA:6,_ZNSt5queueISt8functionIFvvEESt5dequeIS2_SaIS2_EEE7emplaceIJRZ14handleCommandsiRSt6vectorISt10unique_ptrI12ActiveObjectSt14default_deleteISA_EESaISD_EERS9_I5GraphSB_ISH_EER10MSTFactoryRS9_I4TreeSB_ISN_EEEUlvE8_EEEDcDpOT_
FNDA:4,_ZNSt5queueISt8functionIFvvEESt5dequeIS2_SaIS2_EEE7emplaceIJRZ14handleCommandsiRSt6vectorISt10unique_ptrI12ActiveObjectSt14default_deleteISA_EESaISD_EERS9_I5GraphSB_ISH_EER10MSTFactoryRS9_I4TreeSB_ISN_EEEUlvE4_EEEDcDpOT_
FNDA:4,_ZNSt5queueISt8functionIFvvEESt5dequeIS2_SaIS2_EEE7emplaceIJRZZ14handleCommandsiRSt6vectorISt10unique_ptrI12ActiveObjectSt14default_deleteISA_EESaISD_EERS9_I5GraphSB_ISH_EER10MSTFactoryRS9_I4TreeSB_ISN_EEENKUlvE3_clEvEUlvE_EEEDcDpOT_
FNDA:4,_ZNSt5queueISt8functionIFvvEESt5dequeIS2_SaIS2_EEE7emplaceIJRZZZZZZ14handleCommandsiRSt6vectorISt10unique_ptrI12ActiveObjectSt14default_deleteISA_EESaISD_EERS9_I5GraphSB_ISH_EER10MSTFactoryRS9_I4TreeSB_ISN_EEENKUlvE3_clEvENKUlvE_clEvENKUlvE_clEvENKUlvE_clEvENKUlvE_clEvEUlvE_EEEDcDpOT_
FNDA:12,_ZNSt5queueISt8functionIFvvEESt5dequeIS2_SaIS2_EEE7emplaceIJRZ14handleCommandsiRSt6vectorISt10unique_ptrI12ActiveObjectSt14default_deleteISA_EESaISD_EERS9_I5GraphSB_ISH_EER10MSTFactoryRS9_I4TreeSB_ISN_EEEUlvE1_EEEDcDpOT_
FNDA:336,_ZNKSt5queueISt8functionIFvvEESt5dequeIS2_SaIS2_EEE5emptyEv
FNDA:12,_ZNSt5queueISt8functionIFvvEESt5dequeIS2_SaIS2_EEE7emplaceIJRZ14handleCommandsiRSt6vectorISt10unique_ptrI12ActiveObjectSt14default_deleteISA_EESaISD_EERS9_I5GraphSB_ISH_EER10MSTFactoryRS9_I4TreeSB_ISN_EEEUlvE2_EEEDcDpOT_
FNDA:76,_ZNSt14priority_queueISt4pairIiiESt6vectorIS1_SaIS1_EESt7greaterIS1_EE4pushEOS1_
FNDA:16,_ZNSt5queueISt8functionIFvvEESt5dequeIS2_SaIS2_EEE7emplaceIJRZ14handleCommandsiRSt6vectorISt10unique_ptrI12ActiveObjectSt14default_deleteISA_EESaISD_EERS9_I5GraphSB_ISH_EER10MSTFactoryRS9_I4TreeSB_ISN_EEEUlvE_EEEDcDpOT_
FNDA:34,_ZNSt5queueISt8functionIFvvEESt5dequeIS2_SaIS2_EEE7emplaceIJRZ14handleCommandsiRSt6vectorISt10unique_ptrI12ActiveObjectSt14default_deleteISA_EESaISD_EERS9_I5GraphSB_ISH_EER10MSTFactoryRS9_I4TreeSB_ISN_EEEUlvE0_EEEDcDpOT_
FNDA:4,_ZNSt5queueISt8functionIFvvEESt5dequeIS2_SaIS2_EEE7emplaceIJRZZZZ14handleCommandsiRSt6vectorISt10unique_ptrI12ActiveObjectSt14default_deleteISA_EESaISD_EERS9_I5GraphSB_ISH_EER10MSTFactoryRS9_I4TreeSB_ISN_EEENKUlvE3_clEvENKUlvE_clEvENKUlvE_clEvEUlvE_EEEDcDpOT_
FNDA:4,_ZNSt5queueISt8functionIFvvEESt5dequeIS2_SaIS2_EEE7emplaceIJRZ14handleCommandsiRSt6vectorISt10unique_ptrI12ActiveObjectSt14default_deleteISA_EESaISD_EERS9_I5GraphSB_ISH_EER10MSTFactoryRS9_I4TreeSB_ISN_EEEUlvE9_EEEDcDpOT_
FNDA:76,_ZNKSt14priority_queueISt4pairIiiESt6vectorIS1_SaIS1_EESt7greaterIS1_EE3topEv
FNDA:4,_ZNSt5queueISt8functionIFvvEESt5dequeIS2_SaIS2_EEE7emplaceIJRZ14handleCommandsiRSt6vectorISt10unique_ptrI12ActiveObjectSt14default_deleteISA_EESaISD_EERS9_I5GraphSB_ISH_EER10MSTFactoryRS9_I4TreeSB_ISN_EEEUlvE5_EEEDcDpOT_
FNDA:142,_ZNSt5queueISt8functionIFvvEESt5dequeIS2_SaIS2_EEE3popEv
FNDA:16,_ZNSt5queueISt8functionIFvvEESt5dequeIS2_SaIS2_EEE7emplaceIJRZ14handleCommandsiRSt6vectorISt10unique_ptrI12ActiveObjectSt14default_deleteISA_EESaISD_EERS9_I5GraphSB_ISH_EER10MSTFactoryRS9_I4TreeSB_ISN_EEEUlvE3_EEEDcDpOT_
FNDA:4,_ZNSt5queueISt8functionIFvvEESt5dequeIS2_SaIS2_EEE7emplaceIJRZ14handleCommandsiRSt6vectorISt10unique_ptrI12ActiveObjectSt14default_deleteISA_EESaISD_EERS9_I5GraphSB_ISH_EER10MSTFactoryRS9_I4TreeSB_ISN_EEEUlvE10_EEEDcDpOT_
FNDA:10,_ZNSt5queueISt8functionIFvvEESt5dequeIS2_SaIS2_EEE7emplaceIJRZ14handleCommandsiRSt6vectorISt10unique_ptrI12ActiveObjectSt14default_deleteISA_EESaISD_EERS9_I5GraphSB_ISH_EER10MSTFactoryRS9_I4TreeSB_ISN_EEEUlvE6_EEEDcDpOT_
FNDA:42,_ZNSt5queueISt8functionIFvvEESt5dequeIS2_SaIS2_EEEC2IS5_vEEv
FNDA:76,_ZNSt14priority_queueISt4pairIiiESt6vectorIS1_SaIS1_EESt7greaterIS1_EE3popEv
FNDA:142,_ZNSt5queueISt8functionIFvvEESt5dequeIS2_SaIS2_EEE5frontEv
FNF:25
FNH:25
DA:166,42
DA:167,42
DA:203,336
DA:204,336
DA:216,142
DA:219,142
DA:276,142
DA:277,142
DA:298,142
DA:301,142
DA:302,142
DA:514,16
DA:515,16
DA:612,92
DA:613,92
DA:625,76
DA:628,76
DA:648,76
DA:650,76
DA:651,76
DA:652,76
DA:675,76
DA:678,76
DA:679,76
DA:680,76
LF:25
LH:25
end_of_record
TN:
SF:/usr/include/c++/11/bits/stl_tree.h
FN:146,_ZNSt20_Rb_tree_key_compareISt4lessIiEEC2Ev
FN:173,_ZNSt15_Rb_tree_headerC2Ev
FN:206,_ZNSt15_Rb_tree_header8_M_resetEv
FN:234,_ZNSt13_Rb_tree_nodeISt4pairIKiSt8functionIFvvEEEE9_M_valptrEv
FN:238,_ZNKSt13_Rb_tree_nodeISt4pairIKiSt8functionIFvvEEEE9_M_valptrEv
FN:273,_ZNSt17_Rb_tree_iteratorISt4pairIKiSt8functionIFvvEEEEC2EPSt18_Rb_tree_node_base
FN:277,_ZNKSt17_Rb_tree_iteratorISt4pairIKiSt8functionIFvvEEEEdeEv
FN:285,_ZNSt17_Rb_tree_iteratorISt4pairIKiSt8functionIFvvEEEEppEv
FN:300,_ZNSt17_Rb_tree_iteratorISt4pairIKiSt8functionIFvvEEEEmmEv
FN:315,_ZSteqRKSt17_Rb_tree_iteratorISt4pairIKiSt8functionIFvvEEEES8_
FN:320,_ZStneRKSt17_Rb_tree_iteratorISt4pairIKiSt8functionIFvvEEEES8_
FN:350,_ZNSt23_Rb_tree_const_iteratorISt4pairIKiSt8functionIFvvEEEEC2ERKSt17_Rb_tree_iteratorIS5_E
FN:354,_ZNKSt23_Rb_tree_const_iteratorISt4pairIKiSt8functionIFvvEEEE13_M_const_castEv
FN:547,_ZNSt8_Rb_treeIiSt4pairIKiSt8functionIFvvEEESt10_Select1stIS5_ESt4lessIiESaIS5_EE21_M_get_Node_allocatorEv
FN:560,_ZNSt8_Rb_treeIiSt4pairIKiSt8functionIFvvEEESt10_Select1stIS5_ESt4lessIiESaIS5_EE11_M_get_nodeEv
FN:564,_ZNSt8_Rb_treeIiSt4pairIKiSt8functionIFvvEEESt10_Select1stIS5_ESt4lessIiESaIS5_EE11_M_put_nodeEPSt13_Rb_tree_nodeIS5_E
FN:590,_ZNSt8_Rb_treeIiSt4pairIKiSt8functionIFvvEEESt10_Select1stIS5_ESt4lessIiESaIS5_EE17_M_construct_nodeIJRKSt21piecewise_construct_tSt5tupleIJRS1_EESG_IJEEEEEvPSt13_Rb_tree_nodeIS5_EDpOT_
FN:609,_ZNSt8_Rb_treeIiSt4pairIKiSt8functionIFvvEEESt10_Select1stIS5_ESt4lessIiESaIS5_EE14_M_create_nodeIJRKSt21piecewise_construct_tSt5tupleIJRS1_EESG_IJEEEEEPSt13_Rb_tree_nodeIS5_EDpOT_
FN:618,_ZNSt8_Rb_treeIiSt4pairIKiSt8functionIFvvEEESt10_Select1stIS5_ESt4lessIiESaIS5_EE15_M_destroy_nodeEPSt13_Rb_tree_nodeIS5_E
FN:629,_ZNSt8_Rb_treeIiSt4pairIKiSt8functionIFvvEEESt10_Select1stIS5_ESt4lessIiESaIS5_EE12_M_drop_nodeEPSt13_Rb_tree_nodeIS5_E
FN:667,_ZNSt8_Rb_treeIiSt4pairIKiSt8functionIFvvEEESt10_Select1stIS5_ESt4lessIiESaIS5_EE13_Rb_tree_implIS9_Lb1EEC2Ev
FN:718,_ZNSt8_Rb_treeIiSt4pairIKiSt8functionIFvvEEESt10_Select1stIS5_ESt4lessIiESaIS5_EE11_M_leftmostEv
FN:726,_ZNSt8_Rb_treeIiSt4pairIKiSt8functionIFvvEEESt10_Select1stIS5_ESt4lessIiESaIS5_EE12_M_rightmostEv
FN:734,_ZNKSt8_Rb_treeIiSt4pairIKiSt8functionIFvvEEESt10_Select1stIS5_ESt4lessIiESaIS5_EE9_M_mbeginEv
FN:738,_ZNSt8_Rb_treeIiSt4pairIKiSt8functionIFvvEEESt10_Select1stIS5_ESt4lessIiESaIS5_EE8_M_beginEv
FN:749,_ZNSt8_Rb_treeIiSt4pairIKiSt8functionIFvvEEESt10_Select1stIS5_ESt4lessIiESaIS5_EE6_M_endEv
FN:757,_ZNSt8_Rb_treeIiSt4pairIKiSt8functionIFvvEEESt10_Select1stIS5_ESt4lessIiESaIS5_EE6_S_keyEPKSt13_Rb_tree_nodeIS5_E
FN:779,_ZNSt8_Rb_treeIiSt4pairIKiSt8functionIFvvEEESt10_Select1stIS5_ESt4lessIiESaIS5_EE7_S_leftEPSt18_Rb_tree_node_base
FN:787,_ZNSt8_Rb_treeIiSt4pairIKiSt8functionIFvvEEESt10_Select1stIS5_ESt4lessIiESaIS5_EE8_S_rightEPSt18_Rb_tree_node_base
FN:795,_ZNSt8_Rb_treeIiSt4pairIKiSt8functionIFvvEEESt10_Select1stIS5_ESt4lessIiESaIS5_EE6_S_keyEPKSt18_Rb_tree_node_base
FN:928,_ZNSt8_Rb_treeIiSt4pairIKiSt8functionIFvvEEESt10_Select1stIS5_ESt4lessIiESaIS5_EEC2Ev
FN:983,_ZNSt8_Rb_treeIiSt4pairIKiSt8functionIFvvEEESt10_Select1stIS5_ESt4lessIiESaIS5_EED2Ev
FN:991,_ZNKSt8_Rb_treeIiSt4pairIKiSt8functionIFvvEEESt10_Select1stIS5_ESt4lessIiESaIS5_EE8key_compEv
FN:995,_ZNSt8_Rb_treeIiSt4pairIKiSt8functionIFvvEEESt10_Select1stIS5_ESt4lessIiESaIS5_EE5beginEv
FN:1003,_ZNSt8_Rb_treeIiSt4pairIKiSt8functionIFvvEEESt10_Select1stIS5_ESt4lessIiESaIS5_EE3endEv
FN:1031,_ZNKSt8_Rb_treeIiSt4pairIKiSt8functionIFvvEEESt10_Select1stIS5_ESt4lessIiESaIS5_EE4sizeEv
FN:1269,_ZNSt8_Rb_treeIiSt4pairIKiSt8functionIFvvEEESt10_Select1stIS5_ESt4lessIiESaIS5_EE11lower_boundERS1_
FN:1883,_ZNSt8_Rb_treeIiSt4pairIKiSt8functionIFvvEEESt10_Select1stIS5_ESt4lessIiESaIS5_EE8_M_eraseEPSt13_Rb_tree_nodeIS5_E
FN:1900,_ZNSt8_Rb_treeIiSt4pairIKiSt8functionIFvvEEESt10_Select1stIS5_ESt4lessIiESaIS5_EE14_M_lower_boundEPSt13_Rb_tree_nodeIS5_EPSt18_Rb_tree_node_baseRS1_
FN:2061,_ZNSt8_Rb_treeIiSt4pairIKiSt8functionIFvvEEESt10_Select1stIS5_ESt4lessIiESaIS5_EE24_M_get_insert_unique_posERS1_
FN:2163,_ZNSt8_Rb_treeIiSt4pairIKiSt8functionIFvvEEESt10_Select1stIS5_ESt4lessIiESaIS5_EE29_M_get_insert_hint_unique_posESt23_Rb_tree_const_iteratorIS5_ERS1_
FN:2330,_ZNSt8_Rb_treeIiSt4pairIKiSt8functionIFvvEEESt10_Select1stIS5_ESt4lessIiESaIS5_EE14_M_insert_nodeEPSt18_Rb_tree_node_baseSD_PSt13_Rb_tree_nodeIS5_E
FN:2428,_ZNSt8_Rb_treeIiSt4pairIKiSt8functionIFvvEEESt10_Select1stIS5_ESt4lessIiESaIS5_EE22_M_emplace_hint_uniqueIJRKSt21piecewise_construct_tSt5tupleIJRS1_EESG_IJEEEEESt17_Rb_tree_iteratorIS5_ESt23_Rb_tree_const_iteratorIS5_EDpOT_
FN:2520,_ZNSt8_Rb_treeIiSt4pairIKiSt8functionIFvvEEESt10_Select1stIS5_ESt4lessIiESaIS5_EE4findERS1_
FNDA:5,_ZNSt23_Rb_tree_const_iteratorISt4pairIKiSt8functionIFvvEEEEC2ERKSt17_Rb_tree_iteratorIS5_E
FNDA:21,_ZNKSt17_Rb_tree_iteratorISt4pairIKiSt8functionIFvvEEEEdeEv
FNDA:5,_ZNSt8_Rb_treeIiSt4pairIKiSt8functionIFvvEEESt10_Select1stIS5_ESt4lessIiESaIS5_EED2Ev
FNDA:5,_ZNSt8_Rb_treeIiSt4pairIKiSt8functionIFvvEEESt10_Select1stIS5_ESt4lessIiESaIS5_EEC2Ev
FNDA:13,_ZNSt8_Rb_treeIiSt4pairIKiSt8functionIFvvEEESt10_Select1stIS5_ESt4lessIiESaIS5_EE11lower_boundERS1_
FNDA:5,_ZNSt8_Rb_treeIiSt4pairIKiSt8functionIFvvEEESt10_Select1stIS5_ESt4lessIiESaIS5_EE17_M_construct_nodeIJRKSt21piecewise_construct_tSt5tupleIJRS1_EESG_IJEEEEEvPSt13_Rb_tree_nodeIS5_EDpOT_
FNDA:5,_ZNKSt8_Rb_treeIiSt4pairIKiSt8functionIFvvEEESt10_Select1stIS5_ESt4lessIiESaIS5_EE4sizeEv
FNDA:26,_ZSteqRKSt17_Rb_tree_iteratorISt4pairIKiSt8functionIFvvEEEES8_
FNDA:36,_ZNSt8_Rb_treeIiSt4pairIKiSt8functionIFvvEEESt10_Select1stIS5_ESt4lessIiESaIS5_EE6_M_endEv
FNDA:29,_ZNKSt13_Rb_tree_nodeISt4pairIKiSt8functionIFvvEEEE9_M_valptrEv
FNDA:20,_ZNSt8_Rb_treeIiSt4pairIKiSt8functionIFvvEEESt10_Select1stIS5_ESt4lessIiESaIS5_EE21_M_get_Node_allocatorEv
FNDA:8,_ZStneRKSt17_Rb_tree_iteratorISt4pairIKiSt8functionIFvvEEEES8_
FNDA:31,_ZNSt13_Rb_tree_nodeISt4pairIKiSt8functionIFvvEEEE9_M_valptrEv
FNDA:5,_ZNSt8_Rb_treeIiSt4pairIKiSt8functionIFvvEEESt10_Select1stIS5_ESt4lessIiESaIS5_EE8_S_rightEPSt18_Rb_tree_node_base
FNDA:21,_ZNSt8_Rb_treeIiSt4pairIKiSt8functionIFvvEEESt10_Select1stIS5_ESt4lessIiESaIS5_EE7_S_leftEPSt18_Rb_tree_node_base
FNDA:0,_ZNSt17_Rb_tree_iteratorISt4pairIKiSt8functionIFvvEEEEppEv
FNDA:5,_ZNSt8_Rb_treeIiSt4pairIKiSt8functionIFvvEEESt10_Select1stIS5_ESt4lessIiESaIS5_EE22_M_emplace_hint_uniqueIJRKSt21piecewise_construct_tSt5tupleIJRS1_EESG_IJEEEEESt17_Rb_tree_iteratorIS5_ESt23_Rb_tree_const_iteratorIS5_EDpOT_
FNDA:10,_ZNSt8_Rb_treeIiSt4pairIKiSt8functionIFvvEEESt10_Select1stIS5_ESt4lessIiESaIS5_EE8_M_eraseEPSt13_Rb_tree_nodeIS5_E
FNDA:0,_ZNSt17_Rb_tree_iteratorISt4pairIKiSt8functionIFvvEEEEmmEv
FNDA:29,_ZNSt8_Rb_treeIiSt4pairIKiSt8functionIFvvEEESt10_Select1stIS5_ESt4lessIiESaIS5_EE6_S_keyEPKSt13_Rb_tree_nodeIS5_E
FNDA:5,_ZNSt8_Rb_treeIiSt4pairIKiSt8functionIFvvEEESt10_Select1stIS5_ESt4lessIiESaIS5_EE11_M_put_nodeEPSt13_Rb_tree_nodeIS5_E
FNDA:8,_ZNKSt8_Rb_treeIiSt4pairIKiSt8functionIFvvEEESt10_Select1stIS5_ESt4lessIiESaIS5_EE8key_compEv
FNDA:8,_ZNSt8_Rb_treeIiSt4pairIKiSt8functionIFvvEEESt10_Select1stIS5_ESt4lessIiESaIS5_EE6_S_keyEPKSt18_Rb_tree_node_base
FNDA:5,_ZNSt8_Rb_treeIiSt4pairIKiSt8functionIFvvEEESt10_Select1stIS5_ESt4lessIiESaIS5_EE15_M_destroy_nodeEPSt13_Rb_tree_nodeIS5_E
FNDA:5,_ZNSt8_Rb_treeIiSt4pairIKiSt8functionIFvvEEESt10_Select1stIS5_ESt4lessIiESaIS5_EE29_M_get_insert_hint_unique_posESt23_Rb_tree_const_iteratorIS5_ERS1_
FNDA:0,_ZNSt8_Rb_treeIiSt4pairIKiSt8functionIFvvEEESt10_Select1stIS5_ESt4lessIiESaIS5_EE11_M_leftmostEv
FNDA:70,_ZNSt17_Rb_tree_iteratorISt4pairIKiSt8functionIFvvEEEEC2EPSt18_Rb_tree_node_base
FNDA:5,_ZNSt20_Rb_tree_key_compareISt4lessIiEEC2Ev
FNDA:8,_ZNSt8_Rb_treeIiSt4pairIKiSt8functionIFvvEEESt10_Select1stIS5_ESt4lessIiESaIS5_EE4findERS1_
FNDA:31,_ZNKSt8_Rb_treeIiSt4pairIKiSt8functionIFvvEEESt10_Select1stIS5_ESt4lessIiESaIS5_EE9_M_mbeginEv
FNDA:5,_ZNKSt23_Rb_tree_const_iteratorISt4pairIKiSt8functionIFvvEEEE13_M_const_castEv
FNDA:0,_ZNSt8_Rb_treeIiSt4pairIKiSt8functionIFvvEEESt10_Select1stIS5_ESt4lessIiESaIS5_EE12_M_rightmostEv
FNDA:5,_ZNSt8_Rb_treeIiSt4pairIKiSt8functionIFvvEEESt10_Select1stIS5_ESt4lessIiESaIS5_EE13_Rb_tree_implIS9_Lb1EEC2Ev
FNDA:5,_ZNSt8_Rb_treeIiSt4pairIKiSt8functionIFvvEEESt10_Select1stIS5_ESt4lessIiESaIS5_EE11_M_get_nodeEv
FNDA:31,_ZNSt8_Rb_treeIiSt4pairIKiSt8functionIFvvEEESt10_Select1stIS5_ESt4lessIiESaIS5_EE8_M_beginEv
FNDA:5,_ZNSt8_Rb_treeIiSt4pairIKiSt8functionIFvvEEESt10_Select1stIS5_ESt4lessIiESaIS5_EE5beginEv
FNDA:5,_ZNSt15_Rb_tree_headerC2Ev
FNDA:29,_ZNSt8_Rb_treeIiSt4pairIKiSt8functionIFvvEEESt10_Select1stIS5_ESt4lessIiESaIS5_EE3endEv
FNDA:5,_ZNSt8_Rb_treeIiSt4pairIKiSt8functionIFvvEEESt10_Select1stIS5_ESt4lessIiESaIS5_EE12_M_drop_nodeEPSt13_Rb_tree_nodeIS5_E
FNDA:5,_ZNSt8_Rb_treeIiSt4pairIKiSt8functionIFvvEEESt10_Select1stIS5_ESt4lessIiESaIS5_EE14_M_insert_nodeEPSt18_Rb_tree_node_baseSD_PSt13_Rb_tree_nodeIS5_E
FNDA:21,_ZNSt8_Rb_treeIiSt4pairIKiSt8functionIFvvEEESt10_Select1stIS5_ESt4lessIiESaIS5_EE14_M_lower_boundEPSt13_Rb_tree_nodeIS5_EPSt18_Rb_tree_node_baseRS1_
FNDA:5,_ZNSt15_Rb_tree_header8_M_resetEv
FNDA:5,_ZNSt8_Rb_treeIiSt4pairIKiSt8functionIFvvEEESt10_Select1stIS5_ESt4lessIiESaIS5_EE14_M_create_nodeIJRKSt21piecewise_construct_tSt5tupleIJRS1_EESG_IJEEEEEPSt13_Rb_tree_nodeIS5_EDpOT_
FNDA:5,_ZNSt8_Rb_treeIiSt4pairIKiSt8functionIFvvEEESt10_Select1stIS5_ESt4lessIiESaIS5_EE24_M_get_insert_unique_posERS1_
FNF:44
FNH:40
DA:146,5
DA:150,5
DA:173,5
DA:174,5
DA:175,5
DA:176,5
DA:177,5
DA:206,5
DA:208,5
DA:209,5
DA:210,5
DA:211,5
DA:212,5
DA:234,31
DA:235,31
DA:238,29
DA:239,29
DA:273,70
DA:274,70
DA:277,21
DA:278,21
DA:285,0
DA:287,0
DA:288,0
DA:300,0
DA:302,0
DA:303,0
DA:315,26
DA:316,26
DA:320,8
DA:321,8
DA:350,5
DA:351,5
DA:354,5
DA:355,5
DA:547,20
DA:548,20
DA:560,5
DA:561,5
DA:564,5
DA:565,5
DA:590,5
DA:594,5
DA:595,5
DA:599,0
DA:601,0
DA:602,0
DA:603,0
DA:605,5
DA:609,5
DA:611,5
DA:612,5
DA:613,5
DA:618,5
DA:623,5
DA:624,5
DA:626,5
DA:629,5
DA:631,5
DA:632,5
DA:633,5
DA:667,5
DA:671,5
DA:672,5
DA:718,0
DA:719,0
DA:726,0
DA:727,0
DA:734,31
DA:735,31
DA:738,31
DA:739,31
DA:749,36
DA:750,36
DA:757,29
DA:775,29
DA:779,21
DA:780,21
DA:787,5
DA:788,5
DA:795,8
DA:796,8
DA:928,5
DA:983,5
DA:984,5
DA:991,8
DA:992,8
DA:995,5
DA:996,5
DA:1003,29
DA:1004,29
DA:1031,5
DA:1032,5
DA:1269,13
DA:1270,13
DA:1883,10
DA:1887,15
DA:1889,5
DA:1890,5
DA:1891,5
DA:1892,5
DA:1894,10
DA:1900,21
DA:1904,37
DA:1905,16
DA:1906,16
DA:1908,0
DA:1909,21
DA:2061,5
DA:2065,5
DA:2066,5
DA:2067,5
DA:2068,5
DA:2070,0
DA:2071,0
DA:2072,0
DA:2074,5
DA:2075,5
DA:2077,5
DA:2078,5
DA:2080,0
DA:2082,0
DA:2083,0
DA:2084,0
DA:2163,5
DA:2167,5
DA:2171,5
DA:2173,5
DA:2174,5
DA:2175,0
DA:2177,5
DA:2179,0
DA:2182,0
DA:2183,0
DA:2184,0
DA:2185,0
DA:2187,0
DA:2188,0
DA:2190,0
DA:2193,0
DA:2195,0
DA:2198,0
DA:2199,0
DA:2200,0
DA:2201,0
DA:2203,0
DA:2204,0
DA:2206,0
DA:2209,0
DA:2213,0
DA:2330,5
DA:2333,5
DA:2334,10
DA:2337,5
DA:2338,5
DA:2339,5
DA:2340,5
DA:2428,5
DA:2431,5
DA:2435,5
DA:2437,5
DA:2438,5
DA:2440,0
DA:2441,0
DA:2443,0
DA:2445,0
DA:2446,0
DA:2520,8
DA:2523,8
DA:2524,16
DA:2525,8
DA:2526,24
LF:172
LH:125
end_of_record
TN:
SF:/usr/include/c++/11/bits/stl_uninitialized.h
FN:85,_ZNSt20__uninitialized_copyILb0EE13__uninit_copyISt13move_iteratorIN9__gnu_cxx17__normal_iteratorIPSt10unique_ptrI12ActiveObjectSt14default_deleteIS6_EESt6vectorIS9_SaIS9_EEEEESA_EET0_T_SH_SG_
FN:85,_ZNSt20__uninitialized_copyILb0EE13__uninit_copyISt13move_iteratorIPSt6vectorIiSaIiEEES6_EET0_T_S9_S8_
FN:108,_ZNSt20__uninitialized_copyILb1EE13__uninit_copyIN9__gnu_cxx17__normal_iteratorIPK4EdgeSt6vectorIS4_SaIS4_EEEEPS4_EET0_T_SD_SC_
FN:108,_ZNSt20__uninitialized_copyILb1EE13__uninit_copyISt13move_iteratorIN9__gnu_cxx17__normal_iteratorIPmSt6vectorImSaImEEEEES5_EET0_T_SC_SB_
FN:108,_ZNSt20__uninitialized_copyILb1EE13__uninit_copyIPiS2_EET0_T_S4_S3_
FN:108,_ZNSt20__uninitialized_copyILb1EE13__uninit_copyIN9__gnu_cxx17__normal_iteratorIPKiSt6vectorIiSaIiEEEEPiEET0_T_SC_SB_
FN:126,_ZSt18uninitialized_copyISt13move_iteratorIN9__gnu_cxx17__normal_iteratorIPSt10unique_ptrI12ActiveObjectSt14default_deleteIS4_EESt6vectorIS7_SaIS7_EEEEES8_ET0_T_SF_SE_
FN:126,_ZSt18uninitialized_copyIN9__gnu_cxx17__normal_iteratorIPK4EdgeSt6vectorIS2_SaIS2_EEEEPS2_ET0_T_SB_SA_
FN:126,_ZSt18uninitialized_copyISt13move_iteratorIN9__gnu_cxx17__normal_iteratorIPmSt6vectorImSaImEEEEES3_ET0_T_SA_S9_
FN:126,_ZSt18uninitialized_copyIPiS0_ET0_T_S2_S1_
FN:126,_ZSt18uninitialized_copyIN9__gnu_cxx17__normal_iteratorIPKiSt6vectorIiSaIiEEEEPiET0_T_SA_S9_
FN:126,_ZSt18uninitialized_copyISt13move_iteratorIPSt6vectorIiSaIiEEES4_ET0_T_S7_S6_
FN:230,_ZNSt22__uninitialized_fill_nILb0EE15__uninit_fill_nIPSt6vectorIiSaIiEEmS4_EET_S6_T0_RKT1_
FN:253,_ZNSt22__uninitialized_fill_nILb1EE15__uninit_fill_nIPimiEET_S3_T0_RKT1_
FN:273,_ZSt20uninitialized_fill_nIPimiET_S1_T0_RKT1_
FN:273,_ZSt20uninitialized_fill_nIPSt6vectorIiSaIiEEmS2_ET_S4_T0_RKT1_
FN:331,_ZSt22__uninitialized_copy_aIN9__gnu_cxx17__normal_iteratorIPK4EdgeSt6vectorIS2_SaIS2_EEEEPS2_S2_ET0_T_SB_SA_RSaIT1_E
FN:331,_ZSt22__uninitialized_copy_aIPiS0_iET0_T_S2_S1_RSaIT1_E
FN:331,_ZSt22__uninitialized_copy_aISt13move_iteratorIPSt6vectorIiSaIiEEES4_S3_ET0_T_S7_S6_RSaIT1_E
FN:331,_ZSt22__uninitialized_copy_aIN9__gnu_cxx17__normal_iteratorIPKiSt6vectorIiSaIiEEEEPiiET0_T_SA_S9_RSaIT1_E
FN:331,_ZSt22__uninitialized_copy_aISt13move_iteratorIN9__gnu_cxx17__normal_iteratorIPmSt6vectorImSaImEEEEES3_mET0_T_SA_S9_RSaIT1_E
FN:331,_ZSt22__uninitialized_copy_aISt13move_iteratorIN9__gnu_cxx17__normal_iteratorIPSt10unique_ptrI12ActiveObjectSt14default_deleteIS4_EESt6vectorIS7_SaIS7_EEEEES8_S7_ET0_T_SF_SE_RSaIT1_E
FN:338,_ZSt22__uninitialized_move_aIPSt6vectorIiSaIiEES3_SaIS2_EET0_T_S6_S5_RT1_
FN:349,_ZSt34__uninitialized_move_if_noexcept_aIPSt6vectorIiSaIiEES3_SaIS2_EET0_T_S6_S5_RT1_
FN:408,_ZSt24__uninitialized_fill_n_aIPSt6vectorIiSaIiEEmS2_S2_ET_S4_T0_RKT1_RSaIT2_E
FN:408,_ZSt24__uninitialized_fill_n_aIPimiiET_S1_T0_RKT1_RSaIT2_E
FN:573,_ZNSt27__uninitialized_default_n_1ILb0EE18__uninit_default_nIPSt10shared_ptrI13ThreadContextEmEET_S6_T0_
FN:573,_ZNSt27__uninitialized_default_n_1ILb0EE18__uninit_default_nIPSt6vectorI4EdgeSaIS3_EEmEET_S7_T0_
FN:630,_ZSt25__uninitialized_default_nIPSt10shared_ptrI13ThreadContextEmET_S4_T0_
FN:630,_ZSt25__uninitialized_default_nIPSt6vectorI4EdgeSaIS1_EEmET_S5_T0_
FN:702,_ZSt27__uninitialized_default_n_aIPSt10shared_ptrI13ThreadContextEmS2_ET_S4_T0_RSaIT1_E
FN:702,_ZSt27__uninitialized_default_n_aIPSt6vectorI4EdgeSaIS1_EEmS3_ET_S5_T0_RSaIT1_E
FN:986,_ZSt19__relocate_object_aISt6vectorI4EdgeSaIS1_EES3_SaIS3_EEvPT_PT0_RT1_
FN:986,_ZSt19__relocate_object_aISt10unique_ptrI12ActiveObjectSt14default_deleteIS1_EES4_SaIS4_EEvPT_PT0_RT1_
FN:986,_ZSt19__relocate_object_aISt4pairIiiES1_SaIS1_EEvPT_PT0_RT1_
FN:1006,_ZSt14__relocate_a_1IiiENSt9enable_ifIXsrSt24__is_bitwise_relocatableIT_vE5valueEPS2_E4typeES4_S4_S4_RSaIT0_E
FN:1006,_ZSt14__relocate_a_1ImmENSt9enable_ifIXsrSt24__is_bitwise_relocatableIT_vE5valueEPS2_E4typeES4_S4_S4_RSaIT0_E
FN:1006,_ZSt14__relocate_a_1I4EdgeS0_ENSt9enable_ifIXsrSt24__is_bitwise_relocatableIT_vE5valueEPS3_E4typeES5_S5_S5_RSaIT0_E
FN:1018,_ZSt14__relocate_a_1IPSt4pairIiiES2_SaIS1_EET0_T_S5_S4_RT1_
FN:1018,_ZSt14__relocate_a_1IPSt10unique_ptrI12ActiveObjectSt14default_deleteIS1_EES5_SaIS4_EET0_T_S8_S7_RT1_
FN:1018,_ZSt14__relocate_a_1IPSt6vectorI4EdgeSaIS1_EES4_SaIS3_EET0_T_S7_S6_RT1_
FN:1040,_ZSt12__relocate_aIP4EdgeS1_SaIS0_EET0_T_S4_S3_RT1_
FN:1040,_ZSt12__relocate_aIPSt4pairIiiES2_SaIS1_EET0_T_S5_S4_RT1_
FN:1040,_ZSt12__relocate_aIPSt10unique_ptrI12ActiveObjectSt14default_deleteIS1_EES5_SaIS4_EET0_T_S8_S7_RT1_
FN:1040,_ZSt12__relocate_aIPiS0_SaIiEET0_T_S3_S2_RT1_
FN:1040,_ZSt12__relocate_aIPSt6vectorI4EdgeSaIS1_EES4_SaIS3_EET0_T_S7_S6_RT1_
FN:1040,_ZSt12__relocate_aIPmS0_SaImEET0_T_S3_S2_RT1_
FNDA:0,_ZNSt20__uninitialized_copyILb1EE13__uninit_copyIPiS2_EET0_T_S4_S3_
FNDA:0,_ZSt22__uninitialized_move_aIPSt6vectorIiSaIiEES3_SaIS2_EET0_T_S6_S5_RT1_
FNDA:6,_ZSt22__uninitialized_copy_aISt13move_iteratorIN9__gnu_cxx17__normal_iteratorIPSt10unique_ptrI12ActiveObjectSt14default_deleteIS4_EESt6vectorIS7_SaIS7_EEEEES8_S7_ET0_T_SF_SE_RSaIT1_E
FNDA:120,_ZNSt20__uninitialized_copyILb1EE13__uninit_copyIN9__gnu_cxx17__normal_iteratorIPKiSt6vectorIiSaIiEEEEPiEET0_T_SC_SB_
FNDA:20,_ZSt12__relocate_aIPmS0_SaImEET0_T_S3_S2_RT1_
FNDA:12,_ZSt19__relocate_object_aISt4pairIiiES1_SaIS1_EEvPT_PT0_RT1_
FNDA:42,_ZSt25__uninitialized_default_nIPSt6vectorI4EdgeSaIS1_EEmET_S5_T0_
FNDA:4,_ZSt22__uninitialized_copy_aISt13move_iteratorIN9__gnu_cxx17__normal_iteratorIPmSt6vectorImSaImEEEEES3_mET0_T_SA_S9_RSaIT1_E
FNDA:32,_ZSt18uninitialized_copyISt13move_iteratorIPSt6vectorIiSaIiEEES4_ET0_T_S7_S6_
FNDA:42,_ZSt14__relocate_a_1IPSt6vectorI4EdgeSaIS1_EES4_SaIS3_EET0_T_S7_S6_RT1_
FNDA:48,_ZSt12__relocate_aIPSt10unique_ptrI12ActiveObjectSt14default_deleteIS1_EES5_SaIS4_EET0_T_S8_S7_RT1_
FNDA:84,_ZSt12__relocate_aIPiS0_SaIiEET0_T_S3_S2_RT1_
FNDA:42,_ZSt27__uninitialized_default_n_aIPSt6vectorI4EdgeSaIS1_EEmS3_ET_S5_T0_RSaIT1_E
FNDA:4,_ZNSt20__uninitialized_copyILb1EE13__uninit_copyISt13move_iteratorIN9__gnu_cxx17__normal_iteratorIPmSt6vectorImSaImEEEEES5_EET0_T_SC_SB_
FNDA:42,_ZSt19__relocate_object_aISt10unique_ptrI12ActiveObjectSt14default_deleteIS1_EES4_SaIS4_EEvPT_PT0_RT1_
FNDA:42,_ZSt12__relocate_aIPSt6vectorI4EdgeSaIS1_EES4_SaIS3_EET0_T_S7_S6_RT1_
FNDA:836,_ZSt14__relocate_a_1I4EdgeS0_ENSt9enable_ifIXsrSt24__is_bitwise_relocatableIT_vE5valueEPS3_E4typeES5_S5_S5_RSaIT0_E
FNDA:42,_ZNSt27__uninitialized_default_n_1ILb0EE18__uninit_default_nIPSt6vectorI4EdgeSaIS3_EEmEET_S7_T0_
FNDA:16,_ZSt20uninitialized_fill_nIPSt6vectorIiSaIiEEmS2_ET_S4_T0_RKT1_
FNDA:160,_ZSt24__uninitialized_fill_n_aIPimiiET_S1_T0_RKT1_RSaIT2_E
FNDA:6,_ZNSt20__uninitialized_copyILb0EE13__uninit_copyISt13move_iteratorIN9__gnu_cxx17__normal_iteratorIPSt10unique_ptrI12ActiveObjectSt14default_deleteIS6_EESt6vectorIS9_SaIS9_EEEEESA_EET0_T_SH_SG_
FNDA:48,_ZSt18uninitialized_copyIN9__gnu_cxx17__normal_iteratorIPK4EdgeSt6vectorIS2_SaIS2_EEEEPS2_ET0_T_SB_SA_
FNDA:160,_ZSt20uninitialized_fill_nIPimiET_S1_T0_RKT1_
FNDA:5,_ZNSt27__uninitialized_default_n_1ILb0EE18__uninit_default_nIPSt10shared_ptrI13ThreadContextEmEET_S6_T0_
FNDA:0,_ZSt22__uninitialized_copy_aIPiS0_iET0_T_S2_S1_RSaIT1_E
FNDA:48,_ZSt14__relocate_a_1IPSt10unique_ptrI12ActiveObjectSt14default_deleteIS1_EES5_SaIS4_EET0_T_S8_S7_RT1_
FNDA:48,_ZSt22__uninitialized_copy_aIN9__gnu_cxx17__normal_iteratorIPK4EdgeSt6vectorIS2_SaIS2_EEEEPS2_S2_ET0_T_SB_SA_RSaIT1_E
FNDA:120,_ZSt18uninitialized_copyIN9__gnu_cxx17__normal_iteratorIPKiSt6vectorIiSaIiEEEEPiET0_T_SA_S9_
FNDA:4,_ZSt18uninitialized_copyISt13move_iteratorIN9__gnu_cxx17__normal_iteratorIPmSt6vectorImSaImEEEEES3_ET0_T_SA_S9_
FNDA:0,_ZSt18uninitialized_copyIPiS0_ET0_T_S2_S1_
FNDA:120,_ZSt22__uninitialized_copy_aIN9__gnu_cxx17__normal_iteratorIPKiSt6vectorIiSaIiEEEEPiiET0_T_SA_S9_RSaIT1_E
FNDA:32,_ZNSt20__uninitialized_copyILb0EE13__uninit_copyISt13move_iteratorIPSt6vectorIiSaIiEEES6_EET0_T_S9_S8_
FNDA:48,_ZNSt20__uninitialized_copyILb1EE13__uninit_copyIN9__gnu_cxx17__normal_iteratorIPK4EdgeSt6vectorIS4_SaIS4_EEEEPS4_EET0_T_SD_SC_
FNDA:32,_ZSt22__uninitialized_copy_aISt13move_iteratorIPSt6vectorIiSaIiEEES4_S3_ET0_T_S7_S6_RSaIT1_E
FNDA:0,_ZSt19__relocate_object_aISt6vectorI4EdgeSaIS1_EES3_SaIS3_EEvPT_PT0_RT1_
FNDA:52,_ZSt12__relocate_aIPSt4pairIiiES2_SaIS1_EET0_T_S5_S4_RT1_
FNDA:16,_ZSt24__uninitialized_fill_n_aIPSt6vectorIiSaIiEEmS2_S2_ET_S4_T0_RKT1_RSaIT2_E
FNDA:836,_ZSt12__relocate_aIP4EdgeS1_SaIS0_EET0_T_S4_S3_RT1_
FNDA:84,_ZSt14__relocate_a_1IiiENSt9enable_ifIXsrSt24__is_bitwise_relocatableIT_vE5valueEPS2_E4typeES4_S4_S4_RSaIT0_E
FNDA:32,_ZSt34__uninitialized_move_if_noexcept_aIPSt6vectorIiSaIiEES3_SaIS2_EET0_T_S6_S5_RT1_
FNDA:5,_ZSt27__uninitialized_default_n_aIPSt10shared_ptrI13ThreadContextEmS2_ET_S4_T0_RSaIT1_E
FNDA:16,_ZNSt22__uninitialized_fill_nILb0EE15__uninit_fill_nIPSt6vectorIiSaIiEEmS4_EET_S6_T0_RKT1_
FNDA:6,_ZSt18uninitialized_copyISt13move_iteratorIN9__gnu_cxx17__normal_iteratorIPSt10unique_ptrI12ActiveObjectSt14default_deleteIS4_EESt6vectorIS7_SaIS7_EEEEES8_ET0_T_SF_SE_
FNDA:52,_ZSt14__relocate_a_1IPSt4pairIiiES2_SaIS1_EET0_T_S5_S4_RT1_
FNDA:20,_ZSt14__relocate_a_1ImmENSt9enable_ifIXsrSt24__is_bitwise_relocatableIT_vE5valueEPS2_E4typeES4_S4_S4_RSaIT0_E
FNDA:160,_ZNSt22__uninitialized_fill_nILb1EE15__uninit_fill_nIPimiEET_S3_T0_RKT1_
FNDA:5,_ZSt25__uninitialized_default_nIPSt10shared_ptrI13ThreadContextEmET_S4_T0_
FNF:47
FNH:42
DA:85,38
DA:88,38
DA:91,38
DA:92,0
DA:93,38
DA:95,0
DA:97,0
DA:98,0
DA:108,172
DA:110,172
DA:126,210
DA:145,210
DA:151,210
DA:230,16
DA:233,16
DA:236,92
DA:237,76
DA:238,16
DA:240,0
DA:242,0
DA:243,0
DA:253,160
DA:255,160
DA:273,176
DA:293,176
DA:297,176
DA:331,210
DA:333,210
DA:338,0
DA:341,0
DA:343,0
DA:349,32
DA:355,32
DA:356,32
DA:408,176
DA:410,176
DA:573,47
DA:575,47
DA:578,296
DA:579,249
DA:580,47
DA:630,47
DA:635,47
DA:640,47
DA:702,47
DA:704,47
DA:986,54
DA:994,54
DA:995,54
DA:996,54
DA:1006,940
DA:1009,940
DA:1010,940
DA:1011,235
DA:1012,940
DA:1018,142
DA:1030,142
DA:1031,196
DA:1032,54
DA:1034,142
DA:1040,1082
DA:1046,1082
DA:1048,1082
LF:63
LH:53
end_of_record
TN:
SF:/usr/include/c++/11/bits/stl_vector.h
FN:97,_ZNSt12_Vector_baseImSaImEE17_Vector_impl_dataC2Ev
FN:97,_ZNSt12_Vector_baseISt6vectorIiSaIiEESaIS2_EE17_Vector_impl_dataC2Ev
FN:97,_ZNSt12_Vector_baseISt6vectorI4EdgeSaIS1_EESaIS3_EE17_Vector_impl_dataC2Ev
FN:97,_ZNSt12_Vector_baseISt6threadSaIS0_EE17_Vector_impl_dataC2Ev
FN:97,_ZNSt12_Vector_baseISt4pairIiiESaIS1_EE17_Vector_impl_dataC2Ev
FN:97,_ZNSt12_Vector_baseISt10unique_ptrI12ActiveObjectSt14default_deleteIS1_EESaIS4_EE17_Vector_impl_dataC2Ev
FN:97,_ZNSt12_Vector_baseI4EdgeSaIS0_EE17_Vector_impl_dataC2Ev
FN:97,_ZNSt12_Vector_baseIiSaIiEE17_Vector_impl_dataC2Ev
FN:97,_ZNSt12_Vector_baseISt10shared_ptrI13ThreadContextESaIS2_EE17_Vector_impl_dataC2Ev
FN:102,_ZNSt12_Vector_baseI4EdgeSaIS0_EE17_Vector_impl_dataC2EOS3_
FN:102,_ZNSt12_Vector_baseIiSaIiEE17_Vector_impl_dataC2EOS2_
FN:109,_ZNSt12_Vector_baseImSaImEE17_Vector_impl_data12_M_copy_dataERKS2_
FN:109,_ZNSt12_Vector_baseIiSaIiEE17_Vector_impl_data12_M_copy_dataERKS2_
FN:109,_ZNSt12_Vector_baseISt10unique_ptrI12ActiveObjectSt14default_deleteIS1_EESaIS4_EE17_Vector_impl_data12_M_copy_dataERKS7_
FN:117,_ZNSt12_Vector_baseISt10unique_ptrI12ActiveObjectSt14default_deleteIS1_EESaIS4_EE17_Vector_impl_data12_M_swap_dataERS7_
FN:117,_ZNSt12_Vector_baseIiSaIiEE17_Vector_impl_data12_M_swap_dataERS2_
FN:117,_ZNSt12_Vector_baseImSaImEE17_Vector_impl_data12_M_swap_dataERS2_
FN:131,_ZNSt12_Vector_baseIiSaIiEE12_Vector_implC2Ev
FN:131,_ZNSt12_Vector_baseISt6vectorIiSaIiEESaIS2_EE12_Vector_implC2Ev
FN:131,_ZNSt12_Vector_baseISt6threadSaIS0_EE12_Vector_implC2Ev
FN:131,_ZNSt12_Vector_baseISt4pairIiiESaIS1_EE12_Vector_implC2Ev
FN:131,_ZNSt12_Vector_baseISt10unique_ptrI12ActiveObjectSt14default_deleteIS1_EESaIS4_EE12_Vector_implC2Ev
FN:131,_ZNSt12_Vector_baseImSaImEE12_Vector_implC2Ev
FN:131,_ZNSt12_Vector_baseI4EdgeSaIS0_EE12_Vector_implC2Ev
FN:131,_ZNSt12_Vector_baseISt6vectorI4EdgeSaIS1_EESaIS3_EE12_Vector_implC2Ev
FN:136,_ZNSt12_Vector_baseI4EdgeSaIS0_EE12_Vector_implC2ERKS1_
FN:136,_ZNSt12_Vector_baseISt10unique_ptrI12ActiveObjectSt14default_deleteIS1_EESaIS4_EE12_Vector_implC2ERKS5_
FN:136,_ZNSt12_Vector_baseIiSaIiEE12_Vector_implC2ERKS0_
FN:136,_ZNSt12_Vector_baseISt10shared_ptrI13ThreadContextESaIS2_EE12_Vector_implC2ERKS3_
FN:136,_ZNSt12_Vector_baseImSaImEE12_Vector_implC2ERKS0_
FN:143,_ZNSt12_Vector_baseI4EdgeSaIS0_EE12_Vector_implC2EOS3_
FN:143,_ZNSt12_Vector_baseIiSaIiEE12_Vector_implC2EOS2_
FN:276,_ZNSt12_Vector_baseISt10shared_ptrI13ThreadContextESaIS2_EE19_M_get_Tp_allocatorEv
FN:276,_ZNSt12_Vector_baseISt6vectorI4EdgeSaIS1_EESaIS3_EE19_M_get_Tp_allocatorEv
FN:276,_ZNSt12_Vector_baseISt4pairIiiESaIS1_EE19_M_get_Tp_allocatorEv
FN:276,_ZNSt12_Vector_baseImSaImEE19_M_get_Tp_allocatorEv
FN:276,_ZNSt12_Vector_baseIiSaIiEE19_M_get_Tp_allocatorEv
FN:276,_ZNSt12_Vector_baseISt6threadSaIS0_EE19_M_get_Tp_allocatorEv
FN:276,_ZNSt12_Vector_baseI4EdgeSaIS0_EE19_M_get_Tp_allocatorEv
FN:276,_ZNSt12_Vector_baseISt10unique_ptrI12ActiveObjectSt14default_deleteIS1_EESaIS4_EE19_M_get_Tp_allocatorEv
FN:276,_ZNSt12_Vector_baseISt6vectorIiSaIiEESaIS2_EE19_M_get_Tp_allocatorEv
FN:280,_ZNKSt12_Vector_baseImSaImEE19_M_get_Tp_allocatorEv
FN:280,_ZNKSt12_Vector_baseISt6vectorIiSaIiEESaIS2_EE19_M_get_Tp_allocatorEv
FN:280,_ZNKSt12_Vector_baseISt10unique_ptrI12ActiveObjectSt14default_deleteIS1_EESaIS4_EE19_M_get_Tp_allocatorEv
FN:280,_ZNKSt12_Vector_baseISt4pairIiiESaIS1_EE19_M_get_Tp_allocatorEv
FN:280,_ZNKSt12_Vector_baseIiSaIiEE19_M_get_Tp_allocatorEv
FN:280,_ZNKSt12_Vector_baseISt6vectorI4EdgeSaIS1_EESaIS3_EE19_M_get_Tp_allocatorEv
FN:280,_ZNKSt12_Vector_baseI4EdgeSaIS0_EE19_M_get_Tp_allocatorEv
FN:284,_ZNKSt12_Vector_baseImSaImEE13get_allocatorEv
FN:284,_ZNKSt12_Vector_baseISt10unique_ptrI12ActiveObjectSt14default_deleteIS1_EESaIS4_EE13get_allocatorEv
FN:284,_ZNKSt12_Vector_baseIiSaIiEE13get_allocatorEv
FN:288,_ZNSt12_Vector_baseISt4pairIiiESaIS1_EEC2Ev
FN:288,_ZNSt12_Vector_baseI4EdgeSaIS0_EEC2Ev
FN:288,_ZNSt12_Vector_baseIiSaIiEEC2Ev
FN:288,_ZNSt12_Vector_baseImSaImEEC2Ev
FN:288,_ZNSt12_Vector_baseISt6vectorIiSaIiEESaIS2_EEC2Ev
FN:288,_ZNSt12_Vector_baseISt10unique_ptrI12ActiveObjectSt14default_deleteIS1_EESaIS4_EEC2Ev
FN:288,_ZNSt12_Vector_baseISt6vectorI4EdgeSaIS1_EESaIS3_EEC2Ev
FN:288,_ZNSt12_Vector_baseISt6threadSaIS0_EEC2Ev
FN:293,_ZNSt12_Vector_baseImSaImEEC2ERKS0_
FN:293,_ZNSt12_Vector_baseISt10unique_ptrI12ActiveObjectSt14default_deleteIS1_EESaIS4_EEC2ERKS5_
FN:293,_ZNSt12_Vector_baseIiSaIiEEC2ERKS0_
FN:303,_ZNSt12_Vector_baseIiSaIiEEC2EmRKS0_
FN:303,_ZNSt12_Vector_baseISt10shared_ptrI13ThreadContextESaIS2_EEC2EmRKS3_
FN:303,_ZNSt12_Vector_baseI4EdgeSaIS0_EEC2EmRKS1_
FN:308,_ZNSt12_Vector_baseIiSaIiEEC2EOS1_
FN:308,_ZNSt12_Vector_baseI4EdgeSaIS0_EEC2EOS2_
FN:333,_ZNSt12_Vector_baseISt10shared_ptrI13ThreadContextESaIS2_EED2Ev
FN:333,_ZNSt12_Vector_baseISt6threadSaIS0_EED2Ev
FN:333,_ZNSt12_Vector_baseIiSaIiEED2Ev
FN:333,_ZNSt12_Vector_baseISt4pairIiiESaIS1_EED2Ev
FN:333,_ZNSt12_Vector_baseISt6vectorIiSaIiEESaIS2_EED2Ev
FN:333,_ZNSt12_Vector_baseI4EdgeSaIS0_EED2Ev
FN:333,_ZNSt12_Vector_baseISt10unique_ptrI12ActiveObjectSt14default_deleteIS1_EESaIS4_EED2Ev
FN:333,_ZNSt12_Vector_baseISt6vectorI4EdgeSaIS1_EESaIS3_EED2Ev
FN:333,_ZNSt12_Vector_baseImSaImEED2Ev
FN:343,_ZNSt12_Vector_baseISt10shared_ptrI13ThreadContextESaIS2_EE11_M_allocateEm
FN:343,_ZNSt12_Vector_baseISt4pairIiiESaIS1_EE11_M_allocateEm
FN:343,_ZNSt12_Vector_baseIiSaIiEE11_M_allocateEm
FN:343,_ZNSt12_Vector_baseISt10unique_ptrI12ActiveObjectSt14default_deleteIS1_EESaIS4_EE11_M_allocateEm
FN:343,_ZNSt12_Vector_baseImSaImEE11_M_allocateEm
FN:343,_ZNSt12_Vector_baseISt6vectorIiSaIiEESaIS2_EE11_M_allocateEm
FN:343,_ZNSt12_Vector_baseI4EdgeSaIS0_EE11_M_allocateEm
FN:343,_ZNSt12_Vector_baseISt6vectorI4EdgeSaIS1_EESaIS3_EE11_M_allocateEm
FN:350,_ZNSt12_Vector_baseISt6vectorIiSaIiEESaIS2_EE13_M_deallocateEPS2_m
FN:350,_ZNSt12_Vector_baseImSaImEE13_M_deallocateEPmm
FN:350,_ZNSt12_Vector_baseISt6threadSaIS0_EE13_M_deallocateEPS0_m
FN:350,_ZNSt12_Vector_baseISt4pairIiiESaIS1_EE13_M_deallocateEPS1_m
FN:350,_ZNSt12_Vector_baseISt10shared_ptrI13ThreadContextESaIS2_EE13_M_deallocateEPS2_m
FN:350,_ZNSt12_Vector_baseIiSaIiEE13_M_deallocateEPim
FN:350,_ZNSt12_Vector_baseI4EdgeSaIS0_EE13_M_deallocateEPS0_m
FN:350,_ZNSt12_Vector_baseISt6vectorI4EdgeSaIS1_EESaIS3_EE13_M_deallocateEPS3_m
FN:350,_ZNSt12_Vector_baseISt10unique_ptrI12ActiveObjectSt14default_deleteIS1_EESaIS4_EE13_M_deallocateEPS4_m
FN:359,_ZNSt12_Vector_baseISt10shared_ptrI13ThreadContextESaIS2_EE17_M_create_storageEm
FN:359,_ZNSt12_Vector_baseIiSaIiEE17_M_create_storageEm
FN:359,_ZNSt12_Vector_baseI4EdgeSaIS0_EE17_M_create_storageEm
FN:453,_ZNSt6vectorIS_I4EdgeSaIS0_EESaIS2_EE14_S_do_relocateEPS2_S5_S5_RS3_St17integral_constantIbLb1EE
FN:453,_ZNSt6vectorImSaImEE14_S_do_relocateEPmS2_S2_RS0_St17integral_constantIbLb1EE
FN:453,_ZNSt6vectorISt4pairIiiESaIS1_EE14_S_do_relocateEPS1_S4_S4_RS2_St17integral_constantIbLb1EE
FN:453,_ZNSt6vectorIiSaIiEE14_S_do_relocateEPiS2_S2_RS0_St17integral_constantIbLb1EE
FN:453,_ZNSt6vectorISt10unique_ptrI12ActiveObjectSt14default_deleteIS1_EESaIS4_EE14_S_do_relocateEPS4_S7_S7_RS5_St17integral_constantIbLb1EE
FN:453,_ZNSt6vectorI4EdgeSaIS0_EE14_S_do_relocateEPS0_S3_S3_RS1_St17integral_constantIbLb1EE
FN:465,_ZNSt6vectorIiSaIiEE11_S_relocateEPiS2_S2_RS0_
FN:465,_ZNSt6vectorISt4pairIiiESaIS1_EE11_S_relocateEPS1_S4_S4_RS2_
FN:465,_ZNSt6vectorI4EdgeSaIS0_EE11_S_relocateEPS0_S3_S3_RS1_
FN:465,_ZNSt6vectorIS_I4EdgeSaIS0_EESaIS2_EE11_S_relocateEPS2_S5_S5_RS3_
FN:465,_ZNSt6vectorISt10unique_ptrI12ActiveObjectSt14default_deleteIS1_EESaIS4_EE11_S_relocateEPS4_S7_S7_RS5_
FN:465,_ZNSt6vectorImSaImEE11_S_relocateEPmS2_S2_RS0_
FN:487,_ZNSt6vectorISt4pairIiiESaIS1_EEC2Ev
FN:487,_ZNSt6vectorIiSaIiEEC2Ev
FN:487,_ZNSt6vectorIS_IiSaIiEESaIS1_EEC2Ev
FN:487,_ZNSt6vectorIS_I4EdgeSaIS0_EESaIS2_EEC2Ev
FN:487,_ZNSt6vectorI4EdgeSaIS0_EEC2Ev
FN:487,_ZNSt6vectorImSaImEEC2Ev
FN:487,_ZNSt6vectorISt10unique_ptrI12ActiveObjectSt14default_deleteIS1_EESaIS4_EEC2Ev
FN:487,_ZNSt6vectorISt6threadSaIS0_EEC2Ev
FN:497,_ZNSt6vectorIiSaIiEEC2ERKS0_
FN:510,_ZNSt6vectorISt10shared_ptrI13ThreadContextESaIS2_EEC2EmRKS3_
FN:522,_ZNSt6vectorIiSaIiEEC2EmRKiRKS0_
FN:553,_ZNSt6vectorIiSaIiEEC2ERKS1_
FN:553,_ZNSt6vectorI4EdgeSaIS0_EEC2ERKS2_
FN:572,_ZNSt6vectorIiSaIiEEC2EOS1_
FN:572,_ZNSt6vectorI4EdgeSaIS0_EEC2EOS2_
FN:653,_ZNSt6vectorImSaImEEC2ISt13move_iteratorIN9__gnu_cxx17__normal_iteratorIPmS1_EEEvEET_S9_RKS0_
FN:653,_ZNSt6vectorISt10unique_ptrI12ActiveObjectSt14default_deleteIS1_EESaIS4_EEC2ISt13move_iteratorIN9__gnu_cxx17__normal_iteratorIPS4_S6_EEEvEET_SE_RKS5_
FN:678,_ZNSt6vectorI4EdgeSaIS0_EED2Ev
FN:678,_ZNSt6vectorISt6threadSaIS0_EED2Ev
FN:678,_ZNSt6vectorIiSaIiEED2Ev
FN:678,_ZNSt6vectorISt10unique_ptrI12ActiveObjectSt14default_deleteIS1_EESaIS4_EED2Ev
FN:678,_ZNSt6vectorISt10shared_ptrI13ThreadContextESaIS2_EED2Ev
FN:678,_ZNSt6vectorIS_I4EdgeSaIS0_EESaIS2_EED2Ev
FN:678,_ZNSt6vectorISt4pairIiiESaIS1_EED2Ev
FN:678,_ZNSt6vectorImSaImEED2Ev
FN:678,_ZNSt6vectorIS_IiSaIiEESaIS1_EED2Ev
FN:709,_ZNSt6vectorIiSaIiEEaSEOS1_
FN:811,_ZNSt6vectorImSaImEE5beginEv
FN:811,_ZNSt6vectorI4EdgeSaIS0_EE5beginEv
FN:811,_ZNSt6vectorIS_IiSaIiEESaIS1_EE5beginEv
FN:811,_ZNSt6vectorISt4pairIiiESaIS1_EE5beginEv
FN:811,_ZNSt6vectorISt10shared_ptrI13ThreadContextESaIS2_EE5beginEv
FN:811,_ZNSt6vectorIiSaIiEE5beginEv
FN:811,_ZNSt6vectorISt10unique_ptrI12ActiveObjectSt14default_deleteIS1_EESaIS4_EE5beginEv
FN:820,_ZNKSt6vectorIiSaIiEE5beginEv
FN:820,_ZNKSt6vectorI4EdgeSaIS0_EE5beginEv
FN:820,_ZNKSt6vectorISt4pairIiiESaIS1_EE5beginEv
FN:820,_ZNKSt6vectorIS_I4EdgeSaIS0_EESaIS2_EE5beginEv
FN:829,_ZNSt6vectorI4EdgeSaIS0_EE3endEv
FN:829,_ZNSt6vectorISt4pairIiiESaIS1_EE3endEv
FN:829,_ZNSt6vectorISt10shared_ptrI13ThreadContextESaIS2_EE3endEv
FN:829,_ZNSt6vectorImSaImEE3endEv
FN:829,_ZNSt6vectorISt10unique_ptrI12ActiveObjectSt14default_deleteIS1_EESaIS4_EE3endEv
FN:829,_ZNSt6vectorIiSaIiEE3endEv
FN:829,_ZNSt6vectorIS_IiSaIiEESaIS1_EE3endEv
FN:838,_ZNKSt6vectorIS_I4EdgeSaIS0_EESaIS2_EE3endEv
FN:838,_ZNKSt6vectorIiSaIiEE3endEv
FN:838,_ZNKSt6vectorISt4pairIiiESaIS1_EE3endEv
FN:838,_ZNKSt6vectorI4EdgeSaIS0_EE3endEv
FN:884,_ZNKSt6vectorI4EdgeSaIS0_EE6cbeginEv
FN:918,_ZNKSt6vectorISt10unique_ptrI12ActiveObjectSt14default_deleteIS1_EESaIS4_EE4sizeEv
FN:918,_ZNKSt6vectorI4EdgeSaIS0_EE4sizeEv
FN:918,_ZNKSt6vectorISt4pairIiiESaIS1_EE4sizeEv
FN:918,_ZNKSt6vectorIS_IiSaIiEESaIS1_EE4sizeEv
FN:918,_ZNKSt6vectorIiSaIiEE4sizeEv
FN:918,_ZNKSt6vectorIS_I4EdgeSaIS0_EESaIS2_EE4sizeEv
FN:918,_ZNKSt6vectorImSaImEE4sizeEv
FN:923,_ZNKSt6vectorIS_I4EdgeSaIS0_EESaIS2_EE8max_sizeEv
FN:923,_ZNKSt6vectorImSaImEE8max_sizeEv
FN:923,_ZNKSt6vectorI4EdgeSaIS0_EE8max_sizeEv
FN:923,_ZNKSt6vectorISt4pairIiiESaIS1_EE8max_sizeEv
FN:923,_ZNKSt6vectorIS_IiSaIiEESaIS1_EE8max_sizeEv
FN:923,_ZNKSt6vectorISt10unique_ptrI12ActiveObjectSt14default_deleteIS1_EESaIS4_EE8max_sizeEv
FN:923,_ZNKSt6vectorIiSaIiEE8max_sizeEv
FN:937,_ZNSt6vectorIS_I4EdgeSaIS0_EESaIS2_EE6resizeEm
FN:957,_ZNSt6vectorIS_IiSaIiEESaIS1_EE6resizeEmRKS1_
FN:989,_ZNSt6vectorISt10unique_ptrI12ActiveObjectSt14default_deleteIS1_EESaIS4_EE13shrink_to_fitEv
FN:989,_ZNSt6vectorImSaImEE13shrink_to_fitEv
FN:998,_ZNKSt6vectorIiSaIiEE8capacityEv
FN:998,_ZNKSt6vectorISt10unique_ptrI12ActiveObjectSt14default_deleteIS1_EESaIS4_EE8capacityEv
FN:998,_ZNKSt6vectorImSaImEE8capacityEv
FN:1007,_ZNKSt6vectorISt4pairIiiESaIS1_EE5emptyEv
FN:1007,_ZNKSt6vectorIS_I4EdgeSaIS0_EESaIS2_EE5emptyEv
FN:1043,_ZNSt6vectorI4EdgeSaIS0_EEixEm
FN:1043,_ZNSt6vectorISt10shared_ptrI13ThreadContextESaIS2_EEixEm
FN:1043,_ZNSt6vectorIiSaIiEEixEm
FN:1043,_ZNSt6vectorIS_IiSaIiEESaIS1_EEixEm
FN:1043,_ZNSt6vectorISt10unique_ptrI12ActiveObjectSt14default_deleteIS1_EESaIS4_EEixEm
FN:1043,_ZNSt6vectorIS_I4EdgeSaIS0_EESaIS2_EEixEm
FN:1061,_ZNKSt6vectorIS_I4EdgeSaIS0_EESaIS2_EEixEm
FN:1061,_ZNKSt6vectorIiSaIiEEixEm
FN:1132,_ZNKSt6vectorISt4pairIiiESaIS1_EE5frontEv
FN:1143,_ZNSt6vectorI4EdgeSaIS0_EE4backEv
FN:1143,_ZNSt6vectorISt10unique_ptrI12ActiveObjectSt14default_deleteIS1_EESaIS4_EE4backEv
FN:1143,_ZNSt6vectorISt4pairIiiESaIS1_EE4backEv
FN:1143,_ZNSt6vectorIiSaIiEE4backEv
FN:1187,_ZNSt6vectorImSaImEE9push_backERKm
FN:1187,_ZNSt6vectorI4EdgeSaIS0_EE9push_backERKS0_
FN:1203,_ZNSt6vectorISt10unique_ptrI12ActiveObjectSt14default_deleteIS1_EESaIS4_EE9push_backEOS4_
FN:1203,_ZNSt6vectorIiSaIiEE9push_backEOi
FN:1203,_ZNSt6vectorISt4pairIiiESaIS1_EE9push_backEOS1_
FN:1203,_ZNSt6vectorI4EdgeSaIS0_EE9push_backEOS0_
FN:1225,_ZNSt6vectorISt4pairIiiESaIS1_EE8pop_backEv
FN:1457,_ZNSt6vectorI4EdgeSaIS0_EE5eraseEN9__gnu_cxx17__normal_iteratorIPKS0_S2_EES7_
FN:1480,_ZNSt6vectorImSaImEE4swapERS1_
FN:1480,_ZNSt6vectorISt10unique_ptrI12ActiveObjectSt14default_deleteIS1_EESaIS4_EE4swapERS6_
FN:1498,_ZNSt6vectorImSaImEE5clearEv
FN:1498,_ZNSt6vectorIiSaIiEE5clearEv
FN:1498,_ZNSt6vectorISt10unique_ptrI12ActiveObjectSt14default_deleteIS1_EESaIS4_EE5clearEv
FN:1498,_ZNSt6vectorISt10shared_ptrI13ThreadContextESaIS2_EE5clearEv
FN:1508,_ZNSt6vectorIiSaIiEE20_M_allocate_and_copyIN9__gnu_cxx17__normal_iteratorIPKiS1_EEEEPimT_S9_
FN:1577,_ZNSt6vectorISt10unique_ptrI12ActiveObjectSt14default_deleteIS1_EESaIS4_EE19_M_range_initializeISt13move_iteratorIN9__gnu_cxx17__normal_iteratorIPS4_S6_EEEEEvT_SE_St20forward_iterator_tag
FN:1577,_ZNSt6vectorImSaImEE19_M_range_initializeISt13move_iteratorIN9__gnu_cxx17__normal_iteratorIPmS1_EEEEEvT_S9_St20forward_iterator_tag
FN:1593,_ZNSt6vectorIiSaIiEE18_M_fill_initializeEmRKi
FN:1603,_ZNSt6vectorISt10shared_ptrI13ThreadContextESaIS2_EE21_M_default_initializeEm
FN:1709,_ZNSt6vectorIS_IiSaIiEESaIS1_EE16_Temporary_valueC2IJRKS1_EEEPS3_DpOT_
FN:1715,_ZNSt6vectorIS_IiSaIiEESaIS1_EE16_Temporary_valueD2Ev
FN:1719,_ZNSt6vectorIS_IiSaIiEESaIS1_EE16_Temporary_value6_M_valEv
FN:1723,_ZNSt6vectorIS_IiSaIiEESaIS1_EE16_Temporary_value6_M_ptrEv
FN:1756,_ZNKSt6vectorIiSaIiEE12_M_check_lenEmPKc
FN:1756,_ZNKSt6vectorISt10unique_ptrI12ActiveObjectSt14default_deleteIS1_EESaIS4_EE12_M_check_lenEmPKc
FN:1756,_ZNKSt6vectorISt4pairIiiESaIS1_EE12_M_check_lenEmPKc
FN:1756,_ZNKSt6vectorIS_I4EdgeSaIS0_EESaIS2_EE12_M_check_lenEmPKc
FN:1756,_ZNKSt6vectorImSaImEE12_M_check_lenEmPKc
FN:1756,_ZNKSt6vectorIS_IiSaIiEESaIS1_EE12_M_check_lenEmPKc
FN:1756,_ZNKSt6vectorI4EdgeSaIS0_EE12_M_check_lenEmPKc
FN:1767,_ZNSt6vectorImSaImEE17_S_check_init_lenEmRKS0_
FN:1767,_ZNSt6vectorISt10shared_ptrI13ThreadContextESaIS2_EE17_S_check_init_lenEmRKS3_
FN:1767,_ZNSt6vectorIiSaIiEE17_S_check_init_lenEmRKS0_
FN:1767,_ZNSt6vectorISt10unique_ptrI12ActiveObjectSt14default_deleteIS1_EESaIS4_EE17_S_check_init_lenEmRKS5_
FN:1776,_ZNSt6vectorIS_I4EdgeSaIS0_EESaIS2_EE11_S_max_sizeERKS3_
FN:1776,_ZNSt6vectorImSaImEE11_S_max_sizeERKS0_
FN:1776,_ZNSt6vectorI4EdgeSaIS0_EE11_S_max_sizeERKS1_
FN:1776,_ZNSt6vectorIS_IiSaIiEESaIS1_EE11_S_max_sizeERKS2_
FN:1776,_ZNSt6vectorIiSaIiEE11_S_max_sizeERKS0_
FN:1776,_ZNSt6vectorISt10shared_ptrI13ThreadContextESaIS2_EE11_S_max_sizeERKS3_
FN:1776,_ZNSt6vectorISt4pairIiiESaIS1_EE11_S_max_sizeERKS2_
FN:1776,_ZNSt6vectorISt10unique_ptrI12ActiveObjectSt14default_deleteIS1_EESaIS4_EE11_S_max_sizeERKS5_
FN:1792,_ZNSt6vectorISt10unique_ptrI12ActiveObjectSt14default_deleteIS1_EESaIS4_EE15_M_erase_at_endEPS4_
FN:1792,_ZNSt6vectorIiSaIiEE15_M_erase_at_endEPi
FN:1792,_ZNSt6vectorImSaImEE15_M_erase_at_endEPm
FN:1792,_ZNSt6vectorIS_I4EdgeSaIS0_EESaIS2_EE15_M_erase_at_endEPS2_
FN:1792,_ZNSt6vectorI4EdgeSaIS0_EE15_M_erase_at_endEPS0_
FN:1792,_ZNSt6vectorIS_IiSaIiEESaIS1_EE15_M_erase_at_endEPS1_
FN:1792,_ZNSt6vectorISt10shared_ptrI13ThreadContextESaIS2_EE15_M_erase_at_endEPS2_
FN:1815,_ZNSt6vectorIiSaIiEE14_M_move_assignEOS1_St17integral_constantIbLb1EE
FNDA:10,_ZNKSt6vectorImSaImEE12_M_check_lenEmPKc
FNDA:4,_ZNSt6vectorImSaImEEC2ISt13move_iteratorIN9__gnu_cxx17__normal_iteratorIPmS1_EEEvEET_S9_RKS0_
FNDA:4,_ZNSt6vectorImSaImEE19_M_range_initializeISt13move_iteratorIN9__gnu_cxx17__normal_iteratorIPmS1_EEEEEvT_S9_St20forward_iterator_tag
FNDA:96,_ZNKSt6vectorIS_IiSaIiEESaIS1_EE4sizeEv
FNDA:5,_ZNSt12_Vector_baseISt10shared_ptrI13ThreadContextESaIS2_EE13_M_deallocateEPS2_m
FNDA:6,_ZNSt6vectorISt10unique_ptrI12ActiveObjectSt14default_deleteIS1_EESaIS4_EE19_M_range_initializeISt13move_iteratorIN9__gnu_cxx17__normal_iteratorIPS4_S6_EEEEEvT_SE_St20forward_iterator_tag
FNDA:124,_ZNSt6vectorIiSaIiEE3endEv
FNDA:266,_ZNSt6vectorISt10shared_ptrI13ThreadContextESaIS2_EEixEm
FNDA:6,_ZNSt12_Vector_baseISt10unique_ptrI12ActiveObjectSt14default_deleteIS1_EESaIS4_EEC2Ev
FNDA:338,_ZNSt12_Vector_baseIiSaIiEE13_M_deallocateEPim
FNDA:14,_ZNSt12_Vector_baseImSaImEE11_M_allocateEm
FNDA:42,_ZNSt6vectorISt10unique_ptrI12ActiveObjectSt14default_deleteIS1_EESaIS4_EE4backEv
FNDA:18,_ZNSt12_Vector_baseISt10unique_ptrI12ActiveObjectSt14default_deleteIS1_EESaIS4_EE17_Vector_impl_data12_M_copy_dataERKS7_
FNDA:6,_ZNSt12_Vector_baseISt10unique_ptrI12ActiveObjectSt14default_deleteIS1_EESaIS4_EE12_Vector_implC2Ev
FNDA:6,_ZNSt6vectorImSaImEEC2Ev
FNDA:280,_ZNSt12_Vector_baseIiSaIiEE17_M_create_storageEm
FNDA:0,_ZNSt12_Vector_baseI4EdgeSaIS0_EE12_Vector_implC2EOS3_
FNDA:0,_ZNSt6vectorIS_I4EdgeSaIS0_EESaIS2_EE15_M_erase_at_endEPS2_
FNDA:168,_ZNKSt6vectorISt4pairIiiESaIS1_EE5beginEv
FNDA:16,_ZNSt12_Vector_baseISt4pairIiiESaIS1_EE12_Vector_implC2Ev
FNDA:296,_ZNSt12_Vector_baseIiSaIiEE17_Vector_impl_dataC2Ev
FNDA:46,_ZNKSt6vectorIS_I4EdgeSaIS0_EESaIS2_EE5beginEv
FNDA:283,_ZNSt12_Vector_baseI4EdgeSaIS0_EED2Ev
FNDA:42,_ZNKSt6vectorIS_I4EdgeSaIS0_EESaIS2_EE12_M_check_lenEmPKc
FNDA:52,_ZNSt6vectorISt4pairIiiESaIS1_EE11_S_max_sizeERKS2_
FNDA:42,_ZNSt12_Vector_baseISt6vectorI4EdgeSaIS1_EESaIS3_EEC2Ev
FNDA:0,_ZNSt6vectorI4EdgeSaIS0_EEC2EOS2_
FNDA:16,_ZNSt12_Vector_baseISt6vectorIiSaIiEESaIS2_EE11_M_allocateEm
FNDA:6,_ZNSt12_Vector_baseISt10unique_ptrI12ActiveObjectSt14default_deleteIS1_EESaIS4_EED2Ev
FNDA:6,_ZNSt12_Vector_baseISt6threadSaIS0_EEC2Ev
FNDA:0,_ZNSt12_Vector_baseIiSaIiEE12_Vector_implC2EOS2_
FNDA:6,_ZNSt12_Vector_baseImSaImEE12_Vector_implC2Ev
FNDA:100,_ZNSt6vectorI4EdgeSaIS0_EE9push_backERKS0_
FNDA:0,_ZNSt6vectorIS_IiSaIiEESaIS1_EE16_Temporary_value6_M_valEv
FNDA:42,_ZNSt6vectorIS_I4EdgeSaIS0_EESaIS2_EED2Ev
FNDA:46,_ZNKSt6vectorImSaImEE4sizeEv
FNDA:5,_ZNSt6vectorISt10shared_ptrI13ThreadContextESaIS2_EE11_S_max_sizeERKS3_
FNDA:120,_ZNKSt6vectorIiSaIiEE3endEv
FNDA:0,_ZNSt12_Vector_baseIiSaIiEEC2ERKS0_
FNDA:404,_ZNKSt6vectorIiSaIiEE4sizeEv
FNDA:30,_ZNSt12_Vector_baseISt10unique_ptrI12ActiveObjectSt14default_deleteIS1_EESaIS4_EE13_M_deallocateEPS4_m
FNDA:0,_ZNSt6vectorIS_IiSaIiEESaIS1_EE15_M_erase_at_endEPS1_
FNDA:294,_ZNKSt6vectorIS_I4EdgeSaIS0_EESaIS2_EE4sizeEv
FNDA:280,_ZNSt12_Vector_baseIiSaIiEE12_Vector_implC2ERKS0_
FNDA:16,_ZNSt6vectorIS_IiSaIiEESaIS1_EE3endEv
FNDA:42,_ZNSt6vectorIS_I4EdgeSaIS0_EESaIS2_EE11_S_relocateEPS2_S5_S5_RS3_
FNDA:6,_ZNSt6vectorI4EdgeSaIS0_EE5eraseEN9__gnu_cxx17__normal_iteratorIPKS0_S2_EES7_
FNDA:701,_ZNSt12_Vector_baseI4EdgeSaIS0_EE13_M_deallocateEPS0_m
FNDA:32,_ZNSt6vectorIS_IiSaIiEESaIS1_EE11_S_max_sizeERKS2_
FNDA:6,_ZNSt6vectorI4EdgeSaIS0_EE15_M_erase_at_endEPS0_
FNDA:6,_ZNSt6vectorISt10unique_ptrI12ActiveObjectSt14default_deleteIS1_EESaIS4_EEC2Ev
FNDA:52,_ZNKSt12_Vector_baseISt4pairIiiESaIS1_EE19_M_get_Tp_allocatorEv
FNDA:16,_ZNSt6vectorIS_IiSaIiEESaIS1_EE5beginEv
FNDA:244,_ZNSt6vectorIiSaIiEE11_S_max_sizeERKS0_
FNDA:178,_ZNSt6vectorISt4pairIiiESaIS1_EE5beginEv
FNDA:32,_ZNKSt6vectorIS_IiSaIiEESaIS1_EE8max_sizeEv
FNDA:10,_ZNSt6vectorImSaImEE9push_backERKm
FNDA:84,_ZNSt12_Vector_baseISt6vectorI4EdgeSaIS1_EESaIS3_EE13_M_deallocateEPS3_m
FNDA:9056,_ZNSt6vectorIiSaIiEEixEm
FNDA:4,_ZNSt12_Vector_baseImSaImEE17_Vector_impl_data12_M_swap_dataERS2_
FNDA:76,_ZNSt6vectorISt4pairIiiESaIS1_EE4backEv
FNDA:418,_ZNKSt6vectorI4EdgeSaIS0_EE12_M_check_lenEmPKc
FNDA:6,_ZNKSt6vectorISt10unique_ptrI12ActiveObjectSt14default_deleteIS1_EESaIS4_EE8capacityEv
FNDA:5,_ZNSt6vectorISt10shared_ptrI13ThreadContextESaIS2_EE15_M_erase_at_endEPS2_
FNDA:5,_ZNSt6vectorISt10shared_ptrI13ThreadContextESaIS2_EE5clearEv
FNDA:76,_ZNKSt6vectorISt4pairIiiESaIS1_EE5frontEv
FNDA:48,_ZNSt12_Vector_baseI4EdgeSaIS0_EE17_M_create_storageEm
FNDA:0,_ZNSt6vectorIS_IiSaIiEESaIS1_EE16_Temporary_valueC2IJRKS1_EEEPS3_DpOT_
FNDA:0,_ZNKSt6vectorIiSaIiEE8capacityEv
FNDA:16,_ZNKSt6vectorIS_IiSaIiEESaIS1_EE12_M_check_lenEmPKc
FNDA:6,_ZNSt6vectorISt10unique_ptrI12ActiveObjectSt14default_deleteIS1_EESaIS4_EEC2ISt13move_iteratorIN9__gnu_cxx17__normal_iteratorIPS4_S6_EEEvEET_SE_RKS5_
FNDA:48,_ZNKSt6vectorISt10unique_ptrI12ActiveObjectSt14default_deleteIS1_EESaIS4_EE8max_sizeEv
FNDA:0,_ZNKSt12_Vector_baseIiSaIiEE13get_allocatorEv
FNDA:0,_ZNSt12_Vector_baseISt6threadSaIS0_EE19_M_get_Tp_allocatorEv
FNDA:4,_ZNKSt12_Vector_baseImSaImEE13get_allocatorEv
FNDA:16,_ZNSt6vectorISt4pairIiiESaIS1_EED2Ev
FNDA:42,_ZNSt12_Vector_baseISt6vectorI4EdgeSaIS1_EESaIS3_EED2Ev
FNDA:20,_ZNSt6vectorImSaImEE11_S_relocateEPmS2_S2_RS0_
FNDA:6,_ZNKSt12_Vector_baseISt10unique_ptrI12ActiveObjectSt14default_deleteIS1_EESaIS4_EE13get_allocatorEv
FNDA:5,_ZNSt12_Vector_baseISt10shared_ptrI13ThreadContextESaIS2_EE12_Vector_implC2ERKS3_
FNDA:92,_ZNKSt6vectorISt4pairIiiESaIS1_EE3endEv
FNDA:235,_ZNSt12_Vector_baseI4EdgeSaIS0_EE12_Vector_implC2Ev
FNDA:48,_ZNSt6vectorISt10unique_ptrI12ActiveObjectSt14default_deleteIS1_EESaIS4_EE14_S_do_relocateEPS4_S7_S7_RS5_St17integral_constantIbLb1EE
FNDA:76,_ZNSt6vectorISt4pairIiiESaIS1_EE9push_backEOS1_
FNDA:28,_ZNSt6vectorISt10shared_ptrI13ThreadContextESaIS2_EE5beginEv
FNDA:48,_ZNSt6vectorISt10unique_ptrI12ActiveObjectSt14default_deleteIS1_EESaIS4_EE11_S_relocateEPS4_S7_S7_RS5_
FNDA:346,_ZNSt6vectorI4EdgeSaIS0_EE9push_backEOS0_
FNDA:884,_ZNKSt12_Vector_baseI4EdgeSaIS0_EE19_M_get_Tp_allocatorEv
FNDA:142,_ZNSt6vectorISt10unique_ptrI12ActiveObjectSt14default_deleteIS1_EESaIS4_EEixEm
FNDA:88,_ZNSt12_Vector_baseISt6vectorIiSaIiEESaIS2_EE19_M_get_Tp_allocatorEv
FNDA:904,_ZNSt6vectorIS_I4EdgeSaIS0_EESaIS2_EEixEm
FNDA:36,_ZNSt6vectorISt10unique_ptrI12ActiveObjectSt14default_deleteIS1_EESaIS4_EE5beginEv
FNDA:6,_ZNSt6vectorISt6threadSaIS0_EEC2Ev
FNDA:6,_ZNSt6vectorISt10unique_ptrI12ActiveObjectSt14default_deleteIS1_EESaIS4_EE4swapERS6_
FNDA:76,_ZNSt6vectorISt4pairIiiESaIS1_EE8pop_backEv
FNDA:84,_ZNKSt6vectorIiSaIiEE8max_sizeEv
FNDA:42,_ZNSt12_Vector_baseISt6vectorI4EdgeSaIS1_EESaIS3_EE11_M_allocateEm
FNDA:84,_ZNSt12_Vector_baseISt10unique_ptrI12ActiveObjectSt14default_deleteIS1_EESaIS4_EE19_M_get_Tp_allocatorEv
FNDA:168,_ZNKSt12_Vector_baseISt6vectorI4EdgeSaIS1_EESaIS3_EE19_M_get_Tp_allocatorEv
FNDA:48,_ZNSt12_Vector_baseI4EdgeSaIS0_EEC2EmRKS1_
FNDA:42,_ZNSt6vectorIS_I4EdgeSaIS0_EESaIS2_EE6resizeEm
FNDA:54,_ZNSt6vectorISt10unique_ptrI12ActiveObjectSt14default_deleteIS1_EESaIS4_EE11_S_max_sizeERKS5_
FNDA:66,_ZNSt6vectorIiSaIiEE4backEv
FNDA:6,_ZNSt6vectorISt10unique_ptrI12ActiveObjectSt14default_deleteIS1_EESaIS4_EE17_S_check_init_lenEmRKS5_
FNDA:204,_ZNKSt12_Vector_baseIiSaIiEE19_M_get_Tp_allocatorEv
FNDA:5,_ZNSt6vectorISt10shared_ptrI13ThreadContextESaIS2_EE21_M_default_initializeEm
FNDA:46,_ZNKSt6vectorIS_I4EdgeSaIS0_EESaIS2_EE5emptyEv
FNDA:5,_ZNSt12_Vector_baseISt10shared_ptrI13ThreadContextESaIS2_EEC2EmRKS3_
FNDA:6,_ZNKSt6vectorImSaImEE8capacityEv
FNDA:5,_ZNSt12_Vector_baseISt10shared_ptrI13ThreadContextESaIS2_EE17_Vector_impl_dataC2Ev
FNDA:0,_ZNSt6vectorIiSaIiEEC2ERKS0_
FNDA:160,_ZNSt6vectorIiSaIiEE18_M_fill_initializeEmRKi
FNDA:58,_ZNSt6vectorIiSaIiEE5beginEv
FNDA:6924,_ZNSt6vectorIS_IiSaIiEESaIS1_EEixEm
FNDA:836,_ZNSt6vectorI4EdgeSaIS0_EE14_S_do_relocateEPS0_S3_S3_RS1_St17integral_constantIbLb1EE
FNDA:466,_ZNSt12_Vector_baseI4EdgeSaIS0_EE11_M_allocateEm
FNDA:4,_ZNSt6vectorImSaImEED2Ev
FNDA:148,_ZNKSt6vectorI4EdgeSaIS0_EE3endEv
FNDA:4,_ZNSt12_Vector_baseImSaImEE12_Vector_implC2ERKS0_
FNDA:1173,_ZNSt12_Vector_baseI4EdgeSaIS0_EE19_M_get_Tp_allocatorEv
FNDA:0,_ZNSt12_Vector_baseIiSaIiEEC2EOS1_
FNDA:42,_ZNSt12_Vector_baseISt6vectorI4EdgeSaIS1_EESaIS3_EE12_Vector_implC2Ev
FNDA:24,_ZNSt6vectorIS_IiSaIiEESaIS1_EED2Ev
FNDA:0,_ZNSt12_Vector_baseI4EdgeSaIS0_EEC2EOS2_
FNDA:4,_ZNSt12_Vector_baseImSaImEED2Ev
FNDA:24,_ZNSt12_Vector_baseISt6vectorIiSaIiEESaIS2_EE17_Vector_impl_dataC2Ev
FNDA:14,_ZNSt12_Vector_baseImSaImEE13_M_deallocateEPmm
FNDA:168,_ZNSt6vectorIS_I4EdgeSaIS0_EESaIS2_EE11_S_max_sizeERKS3_
FNDA:6,_ZNSt6vectorImSaImEE15_M_erase_at_endEPm
FNDA:296,_ZNSt12_Vector_baseIiSaIiEED2Ev
FNDA:126,_ZNSt12_Vector_baseISt6vectorI4EdgeSaIS1_EESaIS3_EE19_M_get_Tp_allocatorEv
FNDA:5,_ZNSt6vectorISt10shared_ptrI13ThreadContextESaIS2_EE17_S_check_init_lenEmRKS3_
FNDA:24,_ZNSt6vectorIS_IiSaIiEESaIS1_EEC2Ev
FNDA:24,_ZNKSt12_Vector_baseImSaImEE19_M_get_Tp_allocatorEv
FNDA:0,_ZNSt6vectorIiSaIiEEC2EOS1_
FNDA:16,_ZNSt12_Vector_baseISt4pairIiiESaIS1_EED2Ev
FNDA:280,_ZNSt12_Vector_baseIiSaIiEEC2EmRKS0_
FNDA:16,_ZNSt12_Vector_baseISt4pairIiiESaIS1_EEC2Ev
FNDA:6,_ZNSt6vectorImSaImEE5clearEv
FNDA:12,_ZNSt12_Vector_baseImSaImEE17_Vector_impl_data12_M_copy_dataERKS2_
FNDA:14,_ZNSt12_Vector_baseImSaImEE17_Vector_impl_dataC2Ev
FNDA:42,_ZNKSt6vectorIiSaIiEE12_M_check_lenEmPKc
FNDA:4,_ZNSt6vectorImSaImEE17_S_check_init_lenEmRKS0_
FNDA:42,_ZNSt6vectorIS_I4EdgeSaIS0_EESaIS2_EE14_S_do_relocateEPS2_S5_S5_RS3_St17integral_constantIbLb1EE
FNDA:16,_ZNSt6vectorIiSaIiEEC2Ev
FNDA:6,_ZNSt6vectorISt10unique_ptrI12ActiveObjectSt14default_deleteIS1_EESaIS4_EE15_M_erase_at_endEPS4_
FNDA:1380,_ZNSt6vectorI4EdgeSaIS0_EE3endEv
FNDA:0,_ZNSt6vectorIiSaIiEE15_M_erase_at_endEPi
FNDA:40,_ZNSt12_Vector_baseISt6vectorIiSaIiEESaIS2_EE13_M_deallocateEPS2_m
FNDA:16,_ZNSt6vectorISt4pairIiiESaIS1_EEC2Ev
FNDA:5,_ZNSt12_Vector_baseISt10shared_ptrI13ThreadContextESaIS2_EED2Ev
FNDA:0,_ZNSt12_Vector_baseISt6threadSaIS0_EED2Ev
FNDA:15,_ZNSt12_Vector_baseISt10shared_ptrI13ThreadContextESaIS2_EE19_M_get_Tp_allocatorEv
FNDA:0,_ZNSt6vectorIS_IiSaIiEESaIS1_EE16_Temporary_value6_M_ptrEv
FNDA:5,_ZNSt12_Vector_baseISt10shared_ptrI13ThreadContextESaIS2_EE11_M_allocateEm
FNDA:4,_ZNSt6vectorImSaImEE4swapERS1_
FNDA:168,_ZNKSt6vectorIS_I4EdgeSaIS0_EESaIS2_EE8max_sizeEv
FNDA:100,_ZNKSt6vectorIS_I4EdgeSaIS0_EESaIS2_EEixEm
FNDA:16,_ZNSt12_Vector_baseIiSaIiEE12_Vector_implC2Ev
FNDA:52,_ZNSt6vectorISt4pairIiiESaIS1_EE14_S_do_relocateEPS1_S4_S4_RS2_St17integral_constantIbLb1EE
FNDA:46,_ZNKSt6vectorIS_I4EdgeSaIS0_EESaIS2_EE3endEv
FNDA:346,_ZNSt6vectorI4EdgeSaIS0_EE4backEv
FNDA:24,_ZNSt12_Vector_baseISt6vectorIiSaIiEESaIS2_EE12_Vector_implC2Ev
FNDA:50,_ZNKSt6vectorIiSaIiEEixEm
FNDA:836,_ZNKSt6vectorI4EdgeSaIS0_EE8max_sizeEv
FNDA:18,_ZNSt6vectorISt10shared_ptrI13ThreadContextESaIS2_EE3endEv
FNDA:16,_ZNSt12_Vector_baseISt4pairIiiESaIS1_EE17_Vector_impl_dataC2Ev
FNDA:6,_ZNSt12_Vector_baseISt10unique_ptrI12ActiveObjectSt14default_deleteIS1_EESaIS4_EE17_Vector_impl_data12_M_swap_dataERS7_
FNDA:254,_ZNSt6vectorISt4pairIiiESaIS1_EE3endEv
FNDA:0,_ZNSt12_Vector_baseISt6threadSaIS0_EE13_M_deallocateEPS0_m
FNDA:0,_ZNSt12_Vector_baseIiSaIiEE17_Vector_impl_data12_M_copy_dataERKS2_
FNDA:32,_ZNKSt12_Vector_baseISt6vectorIiSaIiEESaIS2_EE19_M_get_Tp_allocatorEv
FNDA:6,_ZNSt12_Vector_baseISt6threadSaIS0_EE17_Vector_impl_dataC2Ev
FNDA:24,_ZNSt6vectorImSaImEE11_S_max_sizeERKS0_
FNDA:42,_ZNSt6vectorISt10unique_ptrI12ActiveObjectSt14default_deleteIS1_EESaIS4_EE9push_backEOS4_
FNDA:0,_ZNSt6vectorIiSaIiEE14_M_move_assignEOS1_St17integral_constantIbLb1EE
FNDA:160,_ZNSt6vectorIiSaIiEE17_S_check_init_lenEmRKS0_
FNDA:0,_ZNSt12_Vector_baseI4EdgeSaIS0_EE17_Vector_impl_dataC2EOS3_
FNDA:20,_ZNKSt6vectorImSaImEE8max_sizeEv
FNDA:235,_ZNSt12_Vector_baseI4EdgeSaIS0_EEC2Ev
FNDA:42,_ZNSt12_Vector_baseISt6vectorI4EdgeSaIS1_EESaIS3_EE17_Vector_impl_dataC2Ev
FNDA:16,_ZNSt12_Vector_baseIiSaIiEEC2Ev
FNDA:20,_ZNSt6vectorImSaImEE14_S_do_relocateEPmS2_S2_RS0_St17integral_constantIbLb1EE
FNDA:42,_ZNSt6vectorIS_I4EdgeSaIS0_EESaIS2_EEC2Ev
FNDA:102,_ZNKSt6vectorISt10unique_ptrI12ActiveObjectSt14default_deleteIS1_EESaIS4_EE4sizeEv
FNDA:50,_ZNSt6vectorIiSaIiEE9push_backEOi
FNDA:78,_ZNSt6vectorISt10unique_ptrI12ActiveObjectSt14default_deleteIS1_EESaIS4_EE3endEv
FNDA:322,_ZNSt12_Vector_baseIiSaIiEE11_M_allocateEm
FNDA:84,_ZNSt6vectorIiSaIiEE11_S_relocateEPiS2_S2_RS0_
FNDA:6,_ZNSt12_Vector_baseImSaImEEC2Ev
FNDA:16,_ZNSt6vectorIS_IiSaIiEESaIS1_EE6resizeEmRKS1_
FNDA:120,_ZNSt6vectorIiSaIiEEC2ERKS1_
FNDA:6,_ZNSt12_Vector_baseISt6threadSaIS0_EE12_Vector_implC2Ev
FNDA:52,_ZNSt6vectorISt4pairIiiESaIS1_EE11_S_relocateEPS1_S4_S4_RS2_
FNDA:24,_ZNSt12_Vector_baseISt6vectorIiSaIiEESaIS2_EEC2Ev
FNDA:48,_ZNSt6vectorI4EdgeSaIS0_EEC2ERKS2_
FNDA:283,_ZNSt6vectorI4EdgeSaIS0_EED2Ev
FNDA:120,_ZNKSt6vectorIiSaIiEE5beginEv
FNDA:84,_ZNSt6vectorIiSaIiEE14_S_do_relocateEPiS2_S2_RS0_St17integral_constantIbLb1EE
FNDA:6,_ZNSt6vectorISt10unique_ptrI12ActiveObjectSt14default_deleteIS1_EESaIS4_EE5clearEv
FNDA:0,_ZNSt12_Vector_baseIiSaIiEE17_Vector_impl_data12_M_swap_dataERS2_
FNDA:0,_ZNSt6vectorISt6threadSaIS0_EED2Ev
FNDA:18,_ZNSt12_Vector_baseISt10unique_ptrI12ActiveObjectSt14default_deleteIS1_EESaIS4_EE17_Vector_impl_dataC2Ev
FNDA:235,_ZNSt6vectorI4EdgeSaIS0_EEC2Ev
FNDA:54,_ZNKSt12_Vector_baseISt10unique_ptrI12ActiveObjectSt14default_deleteIS1_EESaIS4_EE19_M_get_Tp_allocatorEv
FNDA:0,_ZNSt6vectorIiSaIiEE5clearEv
FNDA:20,_ZNSt6vectorImSaImEE3endEv
FNDA:20,_ZNSt6vectorImSaImEE5beginEv
FNDA:24,_ZNKSt6vectorISt10unique_ptrI12ActiveObjectSt14default_deleteIS1_EESaIS4_EE12_M_check_lenEmPKc
FNDA:42,_ZNSt12_Vector_baseISt4pairIiiESaIS1_EE13_M_deallocateEPS1_m
FNDA:0,_ZNSt12_Vector_baseIiSaIiEE17_Vector_impl_dataC2EOS2_
FNDA:48,_ZNSt12_Vector_baseI4EdgeSaIS0_EE12_Vector_implC2ERKS1_
FNDA:24,_ZNSt12_Vector_baseISt6vectorIiSaIiEESaIS2_EED2Ev
FNDA:1022,_ZNSt6vectorI4EdgeSaIS0_EE5beginEv
FNDA:5,_ZNSt12_Vector_baseISt10shared_ptrI13ThreadContextESaIS2_EE17_M_create_storageEm
FNDA:26,_ZNSt12_Vector_baseISt4pairIiiESaIS1_EE11_M_allocateEm
FNDA:148,_ZNKSt6vectorI4EdgeSaIS0_EE5beginEv
FNDA:26,_ZNKSt6vectorISt4pairIiiESaIS1_EE12_M_check_lenEmPKc
FNDA:0,_ZNSt6vectorIS_IiSaIiEESaIS1_EE16_Temporary_valueD2Ev
FNDA:5,_ZNSt6vectorISt10shared_ptrI13ThreadContextESaIS2_EED2Ev
FNDA:283,_ZNSt12_Vector_baseI4EdgeSaIS0_EE17_Vector_impl_dataC2Ev
FNDA:104,_ZNKSt6vectorISt4pairIiiESaIS1_EE4sizeEv
FNDA:836,_ZNSt6vectorI4EdgeSaIS0_EE11_S_max_sizeERKS1_
FNDA:44,_ZNSt12_Vector_baseImSaImEE19_M_get_Tp_allocatorEv
FNDA:6,_ZNKSt6vectorI4EdgeSaIS0_EE6cbeginEv
FNDA:836,_ZNSt6vectorI4EdgeSaIS0_EE11_S_relocateEPS0_S3_S3_RS1_
FNDA:660,_ZNSt12_Vector_baseIiSaIiEE19_M_get_Tp_allocatorEv
FNDA:6,_ZNSt12_Vector_baseISt10unique_ptrI12ActiveObjectSt14default_deleteIS1_EESaIS4_EE12_Vector_implC2ERKS5_
FNDA:92,_ZNKSt6vectorISt4pairIiiESaIS1_EE5emptyEv
FNDA:6,_ZNSt6vectorImSaImEE13shrink_to_fitEv
FNDA:0,_ZNSt6vectorIiSaIiEE20_M_allocate_and_copyIN9__gnu_cxx17__normal_iteratorIPKiS1_EEEEPimT_S9_
FNDA:6,_ZNSt12_Vector_baseISt10unique_ptrI12ActiveObjectSt14default_deleteIS1_EESaIS4_EEC2ERKS5_
FNDA:5,_ZNSt6vectorISt10shared_ptrI13ThreadContextESaIS2_EEC2EmRKS3_
FNDA:68,_ZNSt12_Vector_baseISt4pairIiiESaIS1_EE19_M_get_Tp_allocatorEv
FNDA:6,_ZNSt6vectorISt10unique_ptrI12ActiveObjectSt14default_deleteIS1_EESaIS4_EED2Ev
FNDA:4,_ZNSt12_Vector_baseImSaImEEC2ERKS0_
FNDA:1810,_ZNKSt6vectorI4EdgeSaIS0_EE4sizeEv
FNDA:160,_ZNSt6vectorIiSaIiEEC2EmRKiRKS0_
FNDA:0,_ZNSt6vectorIiSaIiEEaSEOS1_
FNDA:6,_ZNSt6vectorISt10unique_ptrI12ActiveObjectSt14default_deleteIS1_EESaIS4_EE13shrink_to_fitEv
FNDA:30,_ZNSt12_Vector_baseISt10unique_ptrI12ActiveObjectSt14default_deleteIS1_EESaIS4_EE11_M_allocateEm
FNDA:52,_ZNKSt6vectorISt4pairIiiESaIS1_EE8max_sizeEv
FNDA:44,_ZNSt6vectorI4EdgeSaIS0_EEixEm
FNDA:296,_ZNSt6vectorIiSaIiEED2Ev
FNF:244
FNH:215
DA:97,704
DA:98,704
DA:99,704
DA:102,0
DA:103,0
DA:104,0
DA:105,0
DA:109,30
DA:111,30
DA:112,30
DA:113,30
DA:114,30
DA:117,10
DA:121,10
DA:122,10
DA:123,10
DA:124,10
DA:125,10
DA:131,351
DA:133,351
DA:134,351
DA:136,343
DA:137,343
DA:138,343
DA:143,0
DA:144,0
DA:145,0
DA:276,2258
DA:277,2258
DA:280,1418
DA:281,1418
DA:284,10
DA:285,10
DA:288,351
DA:293,10
DA:294,10
DA:303,333
DA:304,333
DA:305,333
DA:308,0
DA:333,676
DA:335,676
DA:336,676
DA:337,676
DA:343,921
DA:346,921
DA:350,1254
DA:353,1254
DA:354,911
DA:355,1254
DA:359,333
DA:361,333
DA:362,333
DA:363,333
DA:364,333
DA:453,1082
DA:456,1082
DA:465,1082
DA:469,1082
DA:487,351
DA:497,0
DA:498,0
DA:510,5
DA:511,5
DA:512,5
DA:522,160
DA:524,160
DA:525,160
DA:553,168
DA:555,168
DA:557,168
DA:558,168
DA:560,168
DA:561,168
DA:572,0
DA:653,10
DA:655,10
DA:657,10
DA:658,10
DA:659,10
DA:678,676
DA:680,676
DA:681,676
DA:683,676
DA:709,0
DA:711,0
DA:714,0
DA:715,0
DA:811,1358
DA:812,1358
DA:820,482
DA:821,482
DA:829,1890
DA:830,1890
DA:838,406
DA:839,406
DA:884,6
DA:885,6
DA:918,2856
DA:919,2856
DA:923,1240
DA:924,1240
DA:937,42
DA:939,42
DA:940,42
DA:941,0
DA:942,0
DA:943,42
DA:957,16
DA:959,16
DA:960,16
DA:961,0
DA:962,0
DA:963,16
DA:989,12
DA:990,12
DA:998,12
DA:999,12
DA:1000,12
DA:1007,138
DA:1008,138
DA:1043,17336
DA:1046,17336
DA:1061,150
DA:1064,150
DA:1132,76
DA:1135,76
DA:1143,530
DA:1146,530
DA:1187,110
DA:1189,110
DA:1192,20
DA:1194,20
DA:1198,90
DA:1199,110
DA:1203,514
DA:1204,514
DA:1225,76
DA:1228,76
DA:1229,76
DA:1231,76
DA:1457,6
DA:1459,6
DA:1460,6
DA:1461,12
DA:1480,10
DA:1483,10
DA:1486,10
DA:1487,10
DA:1488,10
DA:1489,10
DA:1498,17
DA:1499,17
DA:1508,0
DA:1511,0
DA:1514,0
DA:1515,0
DA:1516,0
DA:1518,0
DA:1520,0
DA:1521,0
DA:1577,10
DA:1580,10
DA:1582,10
DA:1583,10
DA:1584,10
DA:1585,10
DA:1587,10
DA:1588,10
DA:1593,160
DA:1595,160
DA:1596,160
DA:1597,160
DA:1598,160
DA:1603,5
DA:1605,5
DA:1606,5
DA:1607,5
DA:1608,5
DA:1709,0
DA:1711,0
DA:1713,0
DA:1715,0
DA:1716,0
DA:1719,0
DA:1723,0
DA:1756,578
DA:1758,578
DA:1759,0
DA:1761,578
DA:1762,578
DA:1767,175
DA:1769,175
DA:1770,0
DA:1772,175
DA:1776,1415
DA:1781,1415
DA:1783,1415
DA:1784,1415
DA:1792,23
DA:1794,23
DA:1796,21
DA:1797,21
DA:1798,21
DA:1801,23
DA:1815,0
DA:1817,0
DA:1818,0
DA:1819,0
DA:1820,0
DA:1821,0
LF:211
LH:169
end_of_record
TN:
SF:/usr/include/c++/11/bits/this_thread_sleep.h
FN:70,_ZNSt11this_thread9sleep_forIlSt5ratioILl1ELl1000EEEEvRKNSt6chrono8durationIT_T0_EE
FNDA:644847,_ZNSt11this_thread9sleep_forIlSt5ratioILl1ELl1000EEEEvRKNSt6chrono8durationIT_T0_EE
FNF:1
FNH:1
DA:70,644847
DA:72,644847
DA:73,0
DA:74,644847
DA:75,644847
DA:77,1289694
DA:79,644847
DA:80,644847
DA:82,644847
LF:9
LH:8
end_of_record
TN:
SF:/usr/include/c++/11/bits/unique_lock.h
FN:66,_ZNSt11unique_lockISt5mutexEC2ERS0_
FN:77,_ZNSt11unique_lockISt5mutexEC2ERS0_St13try_to_lock_t
FN:101,_ZNSt11unique_lockISt5mutexED2Ev
FN:131,_ZNSt11unique_lockISt5mutexE4lockEv
FN:189,_ZNSt11unique_lockISt5mutexE6unlockEv
FN:217,_ZNKSt11unique_lockISt5mutexE9owns_lockEv
FNDA:1372,_ZNSt11unique_lockISt5mutexE6unlockEv
FNDA:85,_ZNKSt11unique_lockISt5mutexE9owns_lockEv
FNDA:1306,_ZNSt11unique_lockISt5mutexEC2ERS0_
FNDA:85,_ZNSt11unique_lockISt5mutexEC2ERS0_St13try_to_lock_t
FNDA:1306,_ZNSt11unique_lockISt5mutexE4lockEv
FNDA:1385,_ZNSt11unique_lockISt5mutexED2Ev
FNF:6
FNH:6
DA:66,1306
DA:67,1306
DA:69,1306
DA:70,1306
DA:71,1306
DA:77,85
DA:78,85
DA:79,85
DA:101,1385
DA:103,1385
DA:104,1366
DA:105,1385
DA:131,1306
DA:133,1306
DA:134,0
DA:135,1306
DA:136,0
DA:139,1306
DA:140,1306
DA:142,1306
DA:189,1372
DA:191,1372
DA:192,0
DA:193,1372
DA:195,1372
DA:196,1372
DA:198,1372
DA:217,85
DA:218,85
LF:29
LH:26
end_of_record
TN:
SF:/usr/include/c++/11/bits/unique_ptr.h
FN:79,_ZNKSt14default_deleteI12ActiveObjectEclEPS0_
FN:79,_ZNKSt14default_deleteISt8functionIFvvEEEclEPS2_
FN:79,_ZNKSt14default_deleteI12LFThreadPoolEclEPS0_
FN:79,_ZNKSt14default_deleteI4TreeEclEPS0_
FN:79,_ZNKSt14default_deleteI7ReactorEclEPS0_
FN:79,_ZNKSt14default_deleteI9functArgsEclEPS0_
FN:79,_ZNKSt14default_deleteI11MSTStrategyEclEPS0_
FN:79,_ZNKSt14default_deleteINSt6thread6_StateEEclEPS1_
FN:79,_ZNKSt14default_deleteI5GraphEclEPS0_
FN:154,_ZNSt15__uniq_ptr_implISt8functionIFvvEESt14default_deleteIS2_EEC2Ev
FN:155,_ZNSt15__uniq_ptr_implINSt6thread6_StateESt14default_deleteIS1_EEC2EPS1_
FN:155,_ZNSt15__uniq_ptr_implI11MSTStrategySt14default_deleteIS0_EEC2EPS0_
FN:155,_ZNSt15__uniq_ptr_implI12ActiveObjectSt14default_deleteIS0_EEC2EPS0_
FN:155,_ZNSt15__uniq_ptr_implI9functArgsSt14default_deleteIS0_EEC2EPS0_
FN:155,_ZNSt15__uniq_ptr_implI4TreeSt14default_deleteIS0_EEC2EPS0_
FN:155,_ZNSt15__uniq_ptr_implI5GraphSt14default_deleteIS0_EEC2EPS0_
FN:155,_ZNSt15__uniq_ptr_implISt8functionIFvvEESt14default_deleteIS2_EEC2EPS2_
FN:155,_ZNSt15__uniq_ptr_implI7ReactorSt14default_deleteIS0_EEC2EPS0_
FN:155,_ZNSt15__uniq_ptr_implI12LFThreadPoolSt14default_deleteIS0_EEC2EPS0_
FN:161,_ZNSt15__uniq_ptr_implI12ActiveObjectSt14default_deleteIS0_EEC2EOS3_
FN:165,_ZNSt15__uniq_ptr_implI5GraphSt14default_deleteIS0_EEaSEOS3_
FN:165,_ZNSt15__uniq_ptr_implISt8functionIFvvEESt14default_deleteIS2_EEaSEOS5_
FN:165,_ZNSt15__uniq_ptr_implI9functArgsSt14default_deleteIS0_EEaSEOS3_
FN:165,_ZNSt15__uniq_ptr_implI4TreeSt14default_deleteIS0_EEaSEOS3_
FN:165,_ZNSt15__uniq_ptr_implI12LFThreadPoolSt14default_deleteIS0_EEaSEOS3_
FN:165,_ZNSt15__uniq_ptr_implI11MSTStrategySt14default_deleteIS0_EEaSEOS3_
FN:172,_ZNSt15__uniq_ptr_implI5GraphSt14default_deleteIS0_EE6_M_ptrEv
FN:172,_ZNSt15__uniq_ptr_implI7ReactorSt14default_deleteIS0_EE6_M_ptrEv
FN:172,_ZNSt15__uniq_ptr_implI12ActiveObjectSt14default_deleteIS0_EE6_M_ptrEv
FN:172,_ZNSt15__uniq_ptr_implI9functArgsSt14default_deleteIS0_EE6_M_ptrEv
FN:172,_ZNSt15__uniq_ptr_implINSt6thread6_StateESt14default_deleteIS1_EE6_M_ptrEv
FN:172,_ZNSt15__uniq_ptr_implI4TreeSt14default_deleteIS0_EE6_M_ptrEv
FN:172,_ZNSt15__uniq_ptr_implISt8functionIFvvEESt14default_deleteIS2_EE6_M_ptrEv
FN:172,_ZNSt15__uniq_ptr_implI12LFThreadPoolSt14default_deleteIS0_EE6_M_ptrEv
FN:172,_ZNSt15__uniq_ptr_implI11MSTStrategySt14default_deleteIS0_EE6_M_ptrEv
FN:173,_ZNKSt15__uniq_ptr_implI7ReactorSt14default_deleteIS0_EE6_M_ptrEv
FN:173,_ZNKSt15__uniq_ptr_implI12ActiveObjectSt14default_deleteIS0_EE6_M_ptrEv
FN:173,_ZNKSt15__uniq_ptr_implISt8functionIFvvEESt14default_deleteIS2_EE6_M_ptrEv
FN:173,_ZNKSt15__uniq_ptr_implI4TreeSt14default_deleteIS0_EE6_M_ptrEv
FN:173,_ZNKSt15__uniq_ptr_implI11MSTStrategySt14default_deleteIS0_EE6_M_ptrEv
FN:173,_ZNKSt15__uniq_ptr_implI5GraphSt14default_deleteIS0_EE6_M_ptrEv
FN:173,_ZNKSt15__uniq_ptr_implI12LFThreadPoolSt14default_deleteIS0_EE6_M_ptrEv
FN:173,_ZNKSt15__uniq_ptr_implI9functArgsSt14default_deleteIS0_EE6_M_ptrEv
FN:174,_ZNSt15__uniq_ptr_implI5GraphSt14default_deleteIS0_EE10_M_deleterEv
FN:174,_ZNSt15__uniq_ptr_implI11MSTStrategySt14default_deleteIS0_EE10_M_deleterEv
FN:174,_ZNSt15__uniq_ptr_implI12ActiveObjectSt14default_deleteIS0_EE10_M_deleterEv
FN:174,_ZNSt15__uniq_ptr_implI4TreeSt14default_deleteIS0_EE10_M_deleterEv
FN:174,_ZNSt15__uniq_ptr_implI12LFThreadPoolSt14default_deleteIS0_EE10_M_deleterEv
FN:174,_ZNSt15__uniq_ptr_implI7ReactorSt14default_deleteIS0_EE10_M_deleterEv
FN:174,_ZNSt15__uniq_ptr_implINSt6thread6_StateESt14default_deleteIS1_EE10_M_deleterEv
FN:174,_ZNSt15__uniq_ptr_implISt8functionIFvvEESt14default_deleteIS2_EE10_M_deleterEv
FN:174,_ZNSt15__uniq_ptr_implI9functArgsSt14default_deleteIS0_EE10_M_deleterEv
FN:177,_ZNSt15__uniq_ptr_implI5GraphSt14default_deleteIS0_EE5resetEPS0_
FN:177,_ZNSt15__uniq_ptr_implI12ActiveObjectSt14default_deleteIS0_EE5resetEPS0_
FN:177,_ZNSt15__uniq_ptr_implI11MSTStrategySt14default_deleteIS0_EE5resetEPS0_
FN:177,_ZNSt15__uniq_ptr_implI9functArgsSt14default_deleteIS0_EE5resetEPS0_
FN:177,_ZNSt15__uniq_ptr_implI12LFThreadPoolSt14default_deleteIS0_EE5resetEPS0_
FN:177,_ZNSt15__uniq_ptr_implI7ReactorSt14default_deleteIS0_EE5resetEPS0_
FN:177,_ZNSt15__uniq_ptr_implISt8functionIFvvEESt14default_deleteIS2_EE5resetEPS2_
FN:177,_ZNSt15__uniq_ptr_implI4TreeSt14default_deleteIS0_EE5resetEPS0_
FN:185,_ZNSt15__uniq_ptr_implI5GraphSt14default_deleteIS0_EE7releaseEv
FN:185,_ZNSt15__uniq_ptr_implISt8functionIFvvEESt14default_deleteIS2_EE7releaseEv
FN:185,_ZNSt15__uniq_ptr_implI9functArgsSt14default_deleteIS0_EE7releaseEv
FN:185,_ZNSt15__uniq_ptr_implI11MSTStrategySt14default_deleteIS0_EE7releaseEv
FN:185,_ZNSt15__uniq_ptr_implI4TreeSt14default_deleteIS0_EE7releaseEv
FN:185,_ZNSt15__uniq_ptr_implI12LFThreadPoolSt14default_deleteIS0_EE7releaseEv
FN:211,_ZNSt15__uniq_ptr_dataI12ActiveObjectSt14default_deleteIS0_ELb1ELb1EEC2EOS3_
FN:212,_ZNSt15__uniq_ptr_dataI12LFThreadPoolSt14default_deleteIS0_ELb1ELb1EEaSEOS3_
FN:212,_ZNSt15__uniq_ptr_dataI4TreeSt14default_deleteIS0_ELb1ELb1EEaSEOS3_
FN:212,_ZNSt15__uniq_ptr_dataI11MSTStrategySt14default_deleteIS0_ELb1ELb1EEaSEOS3_
FN:212,_ZNSt15__uniq_ptr_dataISt8functionIFvvEESt14default_deleteIS2_ELb1ELb1EEaSEOS5_
FN:212,_ZNSt15__uniq_ptr_dataI5GraphSt14default_deleteIS0_ELb1ELb1EEaSEOS3_
FN:212,_ZNSt15__uniq_ptr_dataI9functArgsSt14default_deleteIS0_ELb1ELb1EEaSEOS3_
FN:269,_ZNSt10unique_ptrISt8functionIFvvEESt14default_deleteIS2_EEC2IS4_vEEv
FN:281,_ZNSt10unique_ptrI11MSTStrategySt14default_deleteIS0_EEC2IS2_vEEPS0_
FN:281,_ZNSt10unique_ptrI9functArgsSt14default_deleteIS0_EEC2IS2_vEEPS0_
FN:281,_ZNSt10unique_ptrI12LFThreadPoolSt14default_deleteIS0_EEC2IS2_vEEPS0_
FN:281,_ZNSt10unique_ptrI5GraphSt14default_deleteIS0_EEC2IS2_vEEPS0_
FN:281,_ZNSt10unique_ptrI7ReactorSt14default_deleteIS0_EEC2IS2_vEEPS0_
FN:281,_ZNSt10unique_ptrISt8functionIFvvEESt14default_deleteIS2_EEC2IS4_vEEPS2_
FN:281,_ZNSt10unique_ptrI4TreeSt14default_deleteIS0_EEC2IS2_vEEPS0_
FN:281,_ZNSt10unique_ptrI12ActiveObjectSt14default_deleteIS0_EEC2IS2_vEEPS0_
FN:281,_ZNSt10unique_ptrINSt6thread6_StateESt14default_deleteIS1_EEC2IS3_vEEPS1_
FN:327,_ZNSt10unique_ptrI12ActiveObjectSt14default_deleteIS0_EEC2EOS3_
FN:355,_ZNSt10unique_ptrI9functArgsSt14default_deleteIS0_EED2Ev
FN:355,_ZNSt10unique_ptrI12LFThreadPoolSt14default_deleteIS0_EED2Ev
FN:355,_ZNSt10unique_ptrINSt6thread6_StateESt14default_deleteIS1_EED2Ev
FN:355,_ZNSt10unique_ptrI12ActiveObjectSt14default_deleteIS0_EED2Ev
FN:355,_ZNSt10unique_ptrI5GraphSt14default_deleteIS0_EED2Ev
FN:355,_ZNSt10unique_ptrI4TreeSt14default_deleteIS0_EED2Ev
FN:355,_ZNSt10unique_ptrI7ReactorSt14default_deleteIS0_EED2Ev
FN:355,_ZNSt10unique_ptrISt8functionIFvvEESt14default_deleteIS2_EED2Ev
FN:355,_ZNSt10unique_ptrI11MSTStrategySt14default_deleteIS0_EED2Ev
FN:371,_ZNSt10unique_ptrI4TreeSt14default_deleteIS0_EEaSEOS3_
FN:371,_ZNSt10unique_ptrI12LFThreadPoolSt14default_deleteIS0_EEaSEOS3_
FN:371,_ZNSt10unique_ptrI11MSTStrategySt14default_deleteIS0_EEaSEOS3_
FN:371,_ZNSt10unique_ptrI5GraphSt14default_deleteIS0_EEaSEOS3_
FN:371,_ZNSt10unique_ptrISt8functionIFvvEESt14default_deleteIS2_EEaSEOS5_
FN:371,_ZNSt10unique_ptrI9functArgsSt14default_deleteIS0_EEaSEOS3_
FN:395,_ZNSt10unique_ptrI4TreeSt14default_deleteIS0_EEaSEDn
FN:395,_ZNSt10unique_ptrI5GraphSt14default_deleteIS0_EEaSEDn
FN:405,_ZNKSt10unique_ptrI7ReactorSt14default_deleteIS0_EEdeEv
FN:405,_ZNKSt10unique_ptrI5GraphSt14default_deleteIS0_EEdeEv
FN:413,_ZNKSt10unique_ptrI12LFThreadPoolSt14default_deleteIS0_EEptEv
FN:413,_ZNKSt10unique_ptrI7ReactorSt14default_deleteIS0_EEptEv
FN:413,_ZNKSt10unique_ptrI5GraphSt14default_deleteIS0_EEptEv
FN:413,_ZNKSt10unique_ptrI4TreeSt14default_deleteIS0_EEptEv
FN:413,_ZNKSt10unique_ptrI12ActiveObjectSt14default_deleteIS0_EEptEv
FN:413,_ZNKSt10unique_ptrI11MSTStrategySt14default_deleteIS0_EEptEv
FN:421,_ZNKSt10unique_ptrI12LFThreadPoolSt14default_deleteIS0_EE3getEv
FN:421,_ZNKSt10unique_ptrI4TreeSt14default_deleteIS0_EE3getEv
FN:421,_ZNKSt10unique_ptrISt8functionIFvvEESt14default_deleteIS2_EE3getEv
FN:421,_ZNKSt10unique_ptrI5GraphSt14default_deleteIS0_EE3getEv
FN:421,_ZNKSt10unique_ptrI9functArgsSt14default_deleteIS0_EE3getEv
FN:421,_ZNKSt10unique_ptrI11MSTStrategySt14default_deleteIS0_EE3getEv
FN:421,_ZNKSt10unique_ptrI7ReactorSt14default_deleteIS0_EE3getEv
FN:421,_ZNKSt10unique_ptrI12ActiveObjectSt14default_deleteIS0_EE3getEv
FN:426,_ZNSt10unique_ptrI12ActiveObjectSt14default_deleteIS0_EE11get_deleterEv
FN:426,_ZNSt10unique_ptrI12LFThreadPoolSt14default_deleteIS0_EE11get_deleterEv
FN:426,_ZNSt10unique_ptrI11MSTStrategySt14default_deleteIS0_EE11get_deleterEv
FN:426,_ZNSt10unique_ptrI7ReactorSt14default_deleteIS0_EE11get_deleterEv
FN:426,_ZNSt10unique_ptrISt8functionIFvvEESt14default_deleteIS2_EE11get_deleterEv
FN:426,_ZNSt10unique_ptrINSt6thread6_StateESt14default_deleteIS1_EE11get_deleterEv
FN:426,_ZNSt10unique_ptrI9functArgsSt14default_deleteIS0_EE11get_deleterEv
FN:426,_ZNSt10unique_ptrI4TreeSt14default_deleteIS0_EE11get_deleterEv
FN:426,_ZNSt10unique_ptrI5GraphSt14default_deleteIS0_EE11get_deleterEv
FN:435,_ZNKSt10unique_ptrI5GraphSt14default_deleteIS0_EEcvbEv
FN:435,_ZNKSt10unique_ptrI11MSTStrategySt14default_deleteIS0_EEcvbEv
FN:435,_ZNKSt10unique_ptrI4TreeSt14default_deleteIS0_EEcvbEv
FN:452,_ZNSt10unique_ptrI11MSTStrategySt14default_deleteIS0_EE5resetEPS0_
FN:452,_ZNSt10unique_ptrI12ActiveObjectSt14default_deleteIS0_EE5resetEPS0_
FN:452,_ZNSt10unique_ptrISt8functionIFvvEESt14default_deleteIS2_EE5resetEPS2_
FN:452,_ZNSt10unique_ptrI7ReactorSt14default_deleteIS0_EE5resetEPS0_
FN:452,_ZNSt10unique_ptrI4TreeSt14default_deleteIS0_EE5resetEPS0_
FN:452,_ZNSt10unique_ptrI5GraphSt14default_deleteIS0_EE5resetEPS0_
FN:452,_ZNSt10unique_ptrI12LFThreadPoolSt14default_deleteIS0_EE5resetEPS0_
FN:452,_ZNSt10unique_ptrI9functArgsSt14default_deleteIS0_EE5resetEPS0_
FN:760,_ZSteqI4TreeSt14default_deleteIS0_EEbRKSt10unique_ptrIT_T0_EDn
FN:760,_ZSteqI5GraphSt14default_deleteIS0_EEbRKSt10unique_ptrIT_T0_EDn
FN:781,_ZStneI4TreeSt14default_deleteIS0_EEbRKSt10unique_ptrIT_T0_EDn
FN:781,_ZStneI5GraphSt14default_deleteIS0_EEbRKSt10unique_ptrIT_T0_EDn
FN:781,_ZStneI11MSTStrategySt14default_deleteIS0_EEbRKSt10unique_ptrIT_T0_EDn
FN:961,_ZSt11make_uniqueISt8functionIFvvEEJRS2_EENSt9_MakeUniqIT_E15__single_objectEDpOT0_
FN:961,_ZSt11make_uniqueI7ReactorJEENSt9_MakeUniqIT_E15__single_objectEDpOT0_
FN:961,_ZSt11make_uniqueI12ActiveObjectJEENSt9_MakeUniqIT_E15__single_objectEDpOT0_
FN:961,_ZSt11make_uniqueI5GraphJRiS1_EENSt9_MakeUniqIT_E15__single_objectEDpOT0_
FN:961,_ZSt11make_uniqueI12LFThreadPoolJiR7ReactorEENSt9_MakeUniqIT_E15__single_objectEDpOT0_
FN:961,_ZSt11make_uniqueI4TreeJRSt6vectorI4EdgeSaIS2_EEEENSt9_MakeUniqIT_E15__single_objectEDpOT0_
FNDA:6,_ZNSt10unique_ptrI9functArgsSt14default_deleteIS0_EE5resetEPS0_
FNDA:10,_ZNSt15__uniq_ptr_dataI9functArgsSt14default_deleteIS0_ELb1ELb1EEaSEOS3_
FNDA:450,_ZNSt15__uniq_ptr_implISt8functionIFvvEESt14default_deleteIS2_EE6_M_ptrEv
FNDA:5,_ZNSt15__uniq_ptr_implI12LFThreadPoolSt14default_deleteIS0_EE7releaseEv
FNDA:18,_ZNSt15__uniq_ptr_dataI5GraphSt14default_deleteIS0_ELb1ELb1EEaSEOS3_
FNDA:10,_ZNKSt10unique_ptrI7ReactorSt14default_deleteIS0_EE3getEv
FNDA:0,_ZNSt10unique_ptrI5GraphSt14default_deleteIS0_EE11get_deleterEv
FNDA:5,_ZNKSt14default_deleteI7ReactorEclEPS0_
FNDA:5,_ZNSt15__uniq_ptr_implI7ReactorSt14default_deleteIS0_EE5resetEPS0_
FNDA:262,_ZNSt15__uniq_ptr_implI4TreeSt14default_deleteIS0_EE6_M_ptrEv
FNDA:5,_ZNSt10unique_ptrI12LFThreadPoolSt14default_deleteIS0_EE5resetEPS0_
FNDA:18,_ZNSt15__uniq_ptr_implI5GraphSt14default_deleteIS0_EEC2EPS0_
FNDA:0,_ZNSt15__uniq_ptr_implINSt6thread6_StateESt14default_deleteIS1_EE10_M_deleterEv
FNDA:24,_ZNSt15__uniq_ptr_implI4TreeSt14default_deleteIS0_EE7releaseEv
FNDA:10,_ZNKSt14default_deleteI9functArgsEclEPS0_
FNDA:42,_ZNSt10unique_ptrI12ActiveObjectSt14default_deleteIS0_EEC2IS2_vEEPS0_
FNDA:50,_ZNSt15__uniq_ptr_implISt8functionIFvvEESt14default_deleteIS2_EEC2EPS2_
FNDA:260,_ZNKSt15__uniq_ptr_implI5GraphSt14default_deleteIS0_EE6_M_ptrEv
FNDA:18,_ZSt11make_uniqueI5GraphJRiS1_EENSt9_MakeUniqIT_E15__single_objectEDpOT0_
FNDA:0,_ZNSt10unique_ptrI7ReactorSt14default_deleteIS0_EED2Ev
FNDA:5,_ZNKSt10unique_ptrI7ReactorSt14default_deleteIS0_EEdeEv
FNDA:48,_ZNKSt15__uniq_ptr_implI11MSTStrategySt14default_deleteIS0_EE6_M_ptrEv
FNDA:0,_ZNSt10unique_ptrI4TreeSt14default_deleteIS0_EE11get_deleterEv
FNDA:24,_ZNSt10unique_ptrI4TreeSt14default_deleteIS0_EED2Ev
FNDA:42,_ZSt11make_uniqueI12ActiveObjectJEENSt9_MakeUniqIT_E15__single_objectEDpOT0_
FNDA:142,_ZNKSt10unique_ptrI12ActiveObjectSt14default_deleteIS0_EEptEv
FNDA:64,_ZSteqI4TreeSt14default_deleteIS0_EEbRKSt10unique_ptrIT_T0_EDn
FNDA:50,_ZNSt15__uniq_ptr_dataISt8functionIFvvEESt14default_deleteIS2_ELb1ELb1EEaSEOS5_
FNDA:210,_ZNKSt15__uniq_ptr_implI4TreeSt14default_deleteIS0_EE6_M_ptrEv
FNDA:24,_ZNSt15__uniq_ptr_dataI11MSTStrategySt14default_deleteIS0_ELb1ELb1EEaSEOS3_
FNDA:0,_ZNSt10unique_ptrI9functArgsSt14default_deleteIS0_EE11get_deleterEv
FNDA:24,_ZNSt10unique_ptrI4TreeSt14default_deleteIS0_EEC2IS2_vEEPS0_
FNDA:94,_ZNKSt10unique_ptrI4TreeSt14default_deleteIS0_EEptEv
FNDA:5,_ZNSt15__uniq_ptr_implI12LFThreadPoolSt14default_deleteIS0_EEaSEOS3_
FNDA:11,_ZNSt10unique_ptrI5GraphSt14default_deleteIS0_EEaSEDn
FNDA:24,_ZNSt15__uniq_ptr_dataI4TreeSt14default_deleteIS0_ELb1ELb1EEaSEOS3_
FNDA:142,_ZNKSt10unique_ptrI5GraphSt14default_deleteIS0_EEptEv
FNDA:33,_ZNSt10unique_ptrI5GraphSt14default_deleteIS0_EE5resetEPS0_
FNDA:24,_ZNSt15__uniq_ptr_implI4TreeSt14default_deleteIS0_EEC2EPS0_
FNDA:5,_ZNSt15__uniq_ptr_implI12LFThreadPoolSt14default_deleteIS0_EEC2EPS0_
FNDA:116,_ZNKSt10unique_ptrI4TreeSt14default_deleteIS0_EEcvbEv
FNDA:42,_ZNSt10unique_ptrINSt6thread6_StateESt14default_deleteIS1_EEC2IS3_vEEPS1_
FNDA:66,_ZSteqI5GraphSt14default_deleteIS0_EEbRKSt10unique_ptrIT_T0_EDn
FNDA:24,_ZSt11make_uniqueI4TreeJRSt6vectorI4EdgeSaIS2_EEEENSt9_MakeUniqIT_E15__single_objectEDpOT0_
FNDA:24,_ZNKSt10unique_ptrI5GraphSt14default_deleteIS0_EEdeEv
FNDA:142,_ZNKSt10unique_ptrI12ActiveObjectSt14default_deleteIS0_EE3getEv
FNDA:200,_ZNSt15__uniq_ptr_implI11MSTStrategySt14default_deleteIS0_EE6_M_ptrEv
FNDA:50,_ZNSt10unique_ptrISt8functionIFvvEESt14default_deleteIS2_EEaSEOS5_
FNDA:50,_ZNSt15__uniq_ptr_implISt8functionIFvvEESt14default_deleteIS2_EEC2Ev
FNDA:24,_ZNKSt10unique_ptrI11MSTStrategySt14default_deleteIS0_EEcvbEv
FNDA:10,_ZNSt10unique_ptrI9functArgsSt14default_deleteIS0_EEaSEOS3_
FNDA:24,_ZNSt10unique_ptrI11MSTStrategySt14default_deleteIS0_EED2Ev
FNDA:83,_ZNSt15__uniq_ptr_implI4TreeSt14default_deleteIS0_EE5resetEPS0_
FNDA:30,_ZNSt15__uniq_ptr_implI9functArgsSt14default_deleteIS0_EE10_M_deleterEv
FNDA:5,_ZSt11make_uniqueI12LFThreadPoolJiR7ReactorEENSt9_MakeUniqIT_E15__single_objectEDpOT0_
FNDA:100,_ZNSt10unique_ptrISt8functionIFvvEESt14default_deleteIS2_EED2Ev
FNDA:10,_ZNKSt15__uniq_ptr_implI9functArgsSt14default_deleteIS0_EE6_M_ptrEv
FNDA:18,_ZNKSt14default_deleteI5GraphEclEPS0_
FNDA:5,_ZNSt15__uniq_ptr_implI7ReactorSt14default_deleteIS0_EEC2EPS0_
FNDA:0,_ZNKSt14default_deleteINSt6thread6_StateEEclEPS1_
FNDA:150,_ZNSt15__uniq_ptr_implISt8functionIFvvEESt14default_deleteIS2_EE10_M_deleterEv
FNDA:24,_ZNSt15__uniq_ptr_implI11MSTStrategySt14default_deleteIS0_EEaSEOS3_
FNDA:24,_ZNKSt14default_deleteI11MSTStrategyEclEPS0_
FNDA:100,_ZNSt15__uniq_ptr_implISt8functionIFvvEESt14default_deleteIS2_EE5resetEPS2_
FNDA:8,_ZNKSt15__uniq_ptr_implI12LFThreadPoolSt14default_deleteIS0_EE6_M_ptrEv
FNDA:24,_ZNKSt10unique_ptrI11MSTStrategySt14default_deleteIS0_EEptEv
FNDA:40,_ZNSt15__uniq_ptr_implI12LFThreadPoolSt14default_deleteIS0_EE6_M_ptrEv
FNDA:52,_ZNSt15__uniq_ptr_implI11MSTStrategySt14default_deleteIS0_EE5resetEPS0_
FNDA:42,_ZNSt10unique_ptrI12ActiveObjectSt14default_deleteIS0_EE5resetEPS0_
FNDA:84,_ZNSt15__uniq_ptr_dataI12ActiveObjectSt14default_deleteIS0_ELb1ELb1EEC2EOS3_
FNDA:42,_ZNSt15__uniq_ptr_implINSt6thread6_StateESt14default_deleteIS1_EEC2EPS1_
FNDA:42,_ZNSt15__uniq_ptr_implI12ActiveObjectSt14default_deleteIS0_EE5resetEPS0_
FNDA:260,_ZNKSt10unique_ptrI5GraphSt14default_deleteIS0_EE3getEv
FNDA:10,_ZNKSt10unique_ptrI9functArgsSt14default_deleteIS0_EE3getEv
FNDA:336,_ZNSt15__uniq_ptr_implI12ActiveObjectSt14default_deleteIS0_EE6_M_ptrEv
FNDA:50,_ZNKSt14default_deleteISt8functionIFvvEEEclEPS2_
FNDA:24,_ZNSt10unique_ptrI11MSTStrategySt14default_deleteIS0_EEaSEOS3_
FNDA:84,_ZNSt15__uniq_ptr_implI12ActiveObjectSt14default_deleteIS0_EEC2EOS3_
FNDA:15,_ZNSt15__uniq_ptr_implI7ReactorSt14default_deleteIS0_EE6_M_ptrEv
FNDA:50,_ZSt11make_uniqueISt8functionIFvvEEJRS2_EENSt9_MakeUniqIT_E15__single_objectEDpOT0_
FNDA:18,_ZNSt10unique_ptrI5GraphSt14default_deleteIS0_EEaSEOS3_
FNDA:42,_ZNSt15__uniq_ptr_implI12ActiveObjectSt14default_deleteIS0_EE10_M_deleterEv
FNDA:10,_ZNSt15__uniq_ptr_implI9functArgsSt14default_deleteIS0_EE7releaseEv
FNDA:142,_ZNKSt15__uniq_ptr_implI12ActiveObjectSt14default_deleteIS0_EE6_M_ptrEv
FNDA:5,_ZNSt10unique_ptrI12LFThreadPoolSt14default_deleteIS0_EEC2IS2_vEEPS0_
FNDA:50,_ZNKSt10unique_ptrISt8functionIFvvEESt14default_deleteIS2_EE3getEv
FNDA:210,_ZNKSt10unique_ptrI4TreeSt14default_deleteIS0_EE3getEv
FNDA:10,_ZNKSt15__uniq_ptr_implI7ReactorSt14default_deleteIS0_EE6_M_ptrEv
FNDA:42,_ZNSt10unique_ptrINSt6thread6_StateESt14default_deleteIS1_EED2Ev
FNDA:18,_ZNSt15__uniq_ptr_implI5GraphSt14default_deleteIS0_EEaSEOS3_
FNDA:28,_ZStneI5GraphSt14default_deleteIS0_EEbRKSt10unique_ptrIT_T0_EDn
FNDA:24,_ZStneI11MSTStrategySt14default_deleteIS0_EEbRKSt10unique_ptrIT_T0_EDn
FNDA:72,_ZNSt15__uniq_ptr_implI11MSTStrategySt14default_deleteIS0_EE10_M_deleterEv
FNDA:50,_ZNSt15__uniq_ptr_implISt8functionIFvvEESt14default_deleteIS2_EE7releaseEv
FNDA:5,_ZNSt10unique_ptrI12LFThreadPoolSt14default_deleteIS0_EED2Ev
FNDA:10,_ZNSt10unique_ptrI9functArgsSt14default_deleteIS0_EEC2IS2_vEEPS0_
FNDA:52,_ZStneI4TreeSt14default_deleteIS0_EEbRKSt10unique_ptrIT_T0_EDn
FNDA:42,_ZNKSt14default_deleteI12ActiveObjectEclEPS0_
FNDA:54,_ZNSt15__uniq_ptr_implI5GraphSt14default_deleteIS0_EE10_M_deleterEv
FNDA:24,_ZNSt10unique_ptrI11MSTStrategySt14default_deleteIS0_EEC2IS2_vEEPS0_
FNDA:174,_ZNSt15__uniq_ptr_implI5GraphSt14default_deleteIS0_EE6_M_ptrEv
FNDA:51,_ZNSt15__uniq_ptr_implI5GraphSt14default_deleteIS0_EE5resetEPS0_
FNDA:5,_ZNSt10unique_ptrI12LFThreadPoolSt14default_deleteIS0_EEaSEOS3_
FNDA:24,_ZNSt10unique_ptrI4TreeSt14default_deleteIS0_EEaSEOS3_
FNDA:8,_ZNKSt10unique_ptrI12LFThreadPoolSt14default_deleteIS0_EEptEv
FNDA:8,_ZNKSt10unique_ptrI12LFThreadPoolSt14default_deleteIS0_EE3getEv
FNDA:10,_ZNSt10unique_ptrI9functArgsSt14default_deleteIS0_EED2Ev
FNDA:28,_ZNSt10unique_ptrI11MSTStrategySt14default_deleteIS0_EE5resetEPS0_
FNDA:18,_ZNSt15__uniq_ptr_implI5GraphSt14default_deleteIS0_EE7releaseEv
FNDA:84,_ZNSt15__uniq_ptr_implINSt6thread6_StateESt14default_deleteIS1_EE6_M_ptrEv
FNDA:50,_ZNSt10unique_ptrISt8functionIFvvEESt14default_deleteIS2_EEC2IS4_vEEPS2_
FNDA:24,_ZNKSt14default_deleteI4TreeEclEPS0_
FNDA:5,_ZNSt15__uniq_ptr_implI7ReactorSt14default_deleteIS0_EE10_M_deleterEv
FNDA:5,_ZNSt15__uniq_ptr_dataI12LFThreadPoolSt14default_deleteIS0_ELb1ELb1EEaSEOS3_
FNDA:24,_ZNSt10unique_ptrI4TreeSt14default_deleteIS0_EEaSEDn
FNDA:15,_ZNSt15__uniq_ptr_implI12LFThreadPoolSt14default_deleteIS0_EE10_M_deleterEv
FNDA:24,_ZNSt15__uniq_ptr_implI4TreeSt14default_deleteIS0_EEaSEOS3_
FNDA:0,_ZNSt10unique_ptrINSt6thread6_StateESt14default_deleteIS1_EE11get_deleterEv
FNDA:0,_ZNSt10unique_ptrISt8functionIFvvEESt14default_deleteIS2_EE11get_deleterEv
FNDA:5,_ZSt11make_uniqueI7ReactorJEENSt9_MakeUniqIT_E15__single_objectEDpOT0_
FNDA:0,_ZNSt10unique_ptrI7ReactorSt14default_deleteIS0_EE11get_deleterEv
FNDA:24,_ZNSt15__uniq_ptr_implI11MSTStrategySt14default_deleteIS0_EE7releaseEv
FNDA:10,_ZNSt15__uniq_ptr_implI9functArgsSt14default_deleteIS0_EEC2EPS0_
FNDA:18,_ZNSt10unique_ptrI5GraphSt14default_deleteIS0_EEC2IS2_vEEPS0_
FNDA:50,_ZNKSt15__uniq_ptr_implISt8functionIFvvEESt14default_deleteIS2_EE6_M_ptrEv
FNDA:10,_ZNSt15__uniq_ptr_implI9functArgsSt14default_deleteIS0_EEaSEOS3_
FNDA:0,_ZNSt10unique_ptrI11MSTStrategySt14default_deleteIS0_EE11get_deleterEv
FNDA:5,_ZNSt10unique_ptrI7ReactorSt14default_deleteIS0_EEC2IS2_vEEPS0_
FNDA:59,_ZNSt10unique_ptrI4TreeSt14default_deleteIS0_EE5resetEPS0_
FNDA:72,_ZNSt15__uniq_ptr_implI4TreeSt14default_deleteIS0_EE10_M_deleterEv
FNDA:84,_ZNSt10unique_ptrI12ActiveObjectSt14default_deleteIS0_EEC2EOS3_
FNDA:0,_ZNSt10unique_ptrI12LFThreadPoolSt14default_deleteIS0_EE11get_deleterEv
FNDA:18,_ZNSt10unique_ptrI5GraphSt14default_deleteIS0_EED2Ev
FNDA:126,_ZNSt10unique_ptrI12ActiveObjectSt14default_deleteIS0_EED2Ev
FNDA:10,_ZNSt15__uniq_ptr_implI12LFThreadPoolSt14default_deleteIS0_EE5resetEPS0_
FNDA:50,_ZNSt15__uniq_ptr_implISt8functionIFvvEESt14default_deleteIS2_EEaSEOS5_
FNDA:94,_ZNKSt10unique_ptrI5GraphSt14default_deleteIS0_EEcvbEv
FNDA:5,_ZNSt10unique_ptrI7ReactorSt14default_deleteIS0_EE5resetEPS0_
FNDA:48,_ZNKSt10unique_ptrI11MSTStrategySt14default_deleteIS0_EE3getEv
FNDA:42,_ZNSt15__uniq_ptr_implI12ActiveObjectSt14default_deleteIS0_EEC2EPS0_
FNDA:24,_ZNSt15__uniq_ptr_implI11MSTStrategySt14default_deleteIS0_EEC2EPS0_
FNDA:50,_ZNSt10unique_ptrISt8functionIFvvEESt14default_deleteIS2_EEC2IS4_vEEv
FNDA:72,_ZNSt15__uniq_ptr_implI9functArgsSt14default_deleteIS0_EE6_M_ptrEv
FNDA:16,_ZNSt15__uniq_ptr_implI9functArgsSt14default_deleteIS0_EE5resetEPS0_
FNDA:0,_ZNSt10unique_ptrI12ActiveObjectSt14default_deleteIS0_EE11get_deleterEv
FNDA:5,_ZNKSt10unique_ptrI7ReactorSt14default_deleteIS0_EEptEv
FNDA:50,_ZNSt10unique_ptrISt8functionIFvvEESt14default_deleteIS2_EE5resetEPS2_
FNDA:5,_ZNKSt14default_deleteI12LFThreadPoolEclEPS0_
FNF:148
FNH:136
DA:79,178
DA:85,178
DA:86,178
DA:154,50
DA:155,220
DA:161,84
DA:162,84
DA:163,84
DA:165,131
DA:167,131
DA:168,131
DA:169,131
DA:172,1633
DA:173,738
DA:174,440
DA:177,359
DA:179,359
DA:180,359
DA:181,359
DA:182,178
DA:183,359
DA:185,131
DA:187,131
DA:188,131
DA:189,131
DA:211,84
DA:212,131
DA:269,50
DA:270,50
DA:271,50
DA:281,220
DA:282,220
DA:283,220
DA:327,84
DA:355,349
DA:359,349
DA:360,349
DA:361,0
DA:362,349
DA:363,349
DA:371,131
DA:395,35
DA:397,35
DA:398,35
DA:405,29
DA:407,29
DA:408,29
DA:413,415
DA:416,415
DA:421,738
DA:422,738
DA:426,0
DA:427,0
DA:435,234
DA:436,234
DA:452,228
DA:456,228
DA:457,228
DA:760,130
DA:761,130
DA:781,104
DA:782,104
DA:961,144
DA:962,144
LF:64
LH:61
end_of_record
TN:
SF:/usr/include/c++/11/bits/vector.tcc
FN:109,_ZNSt6vectorI4EdgeSaIS0_EE12emplace_backIJS0_EEERS0_DpOT_
FN:109,_ZNSt6vectorISt10unique_ptrI12ActiveObjectSt14default_deleteIS1_EESaIS4_EE12emplace_backIJS4_EEERS4_DpOT_
FN:109,_ZNSt6vectorIiSaIiEE12emplace_backIJiEEERiDpOT_
FN:109,_ZNSt6vectorISt4pairIiiESaIS1_EE12emplace_backIJS1_EEERS1_DpOT_
FN:184,_ZNSt6vectorI4EdgeSaIS0_EE8_M_eraseEN9__gnu_cxx17__normal_iteratorIPS0_S2_EES6_
FN:198,_ZNSt6vectorIiSaIiEEaSERKS1_
FN:426,_ZNSt6vectorImSaImEE17_M_realloc_insertIJRKmEEEvN9__gnu_cxx17__normal_iteratorIPmS1_EEDpOT_
FN:426,_ZNSt6vectorI4EdgeSaIS0_EE17_M_realloc_insertIJS0_EEEvN9__gnu_cxx17__normal_iteratorIPS0_S2_EEDpOT_
FN:426,_ZNSt6vectorISt10unique_ptrI12ActiveObjectSt14default_deleteIS1_EESaIS4_EE17_M_realloc_insertIJS4_EEEvN9__gnu_cxx17__normal_iteratorIPS4_S6_EEDpOT_
FN:426,_ZNSt6vectorI4EdgeSaIS0_EE17_M_realloc_insertIJRKS0_EEEvN9__gnu_cxx17__normal_iteratorIPS0_S2_EEDpOT_
FN:426,_ZNSt6vectorIiSaIiEE17_M_realloc_insertIJiEEEvN9__gnu_cxx17__normal_iteratorIPiS1_EEDpOT_
FN:426,_ZNSt6vectorISt4pairIiiESaIS1_EE17_M_realloc_insertIJS1_EEEvN9__gnu_cxx17__normal_iteratorIPS1_S3_EEDpOT_
FN:509,_ZNSt6vectorIS_IiSaIiEESaIS1_EE14_M_fill_insertEN9__gnu_cxx17__normal_iteratorIPS1_S3_EEmRKS1_
FN:611,_ZNSt6vectorIS_I4EdgeSaIS0_EESaIS2_EE17_M_default_appendEm
FN:687,_ZNSt6vectorImSaImEE16_M_shrink_to_fitEv
FN:687,_ZNSt6vectorISt10unique_ptrI12ActiveObjectSt14default_deleteIS1_EESaIS4_EE16_M_shrink_to_fitEv
FNDA:6,_ZNSt6vectorI4EdgeSaIS0_EE8_M_eraseEN9__gnu_cxx17__normal_iteratorIPS0_S2_EES6_
FNDA:26,_ZNSt6vectorISt4pairIiiESaIS1_EE17_M_realloc_insertIJS1_EEEvN9__gnu_cxx17__normal_iteratorIPS1_S3_EEDpOT_
FNDA:6,_ZNSt6vectorISt10unique_ptrI12ActiveObjectSt14default_deleteIS1_EESaIS4_EE16_M_shrink_to_fitEv
FNDA:42,_ZNSt6vectorIS_I4EdgeSaIS0_EESaIS2_EE17_M_default_appendEm
FNDA:42,_ZNSt6vectorIiSaIiEE17_M_realloc_insertIJiEEEvN9__gnu_cxx17__normal_iteratorIPiS1_EEDpOT_
FNDA:6,_ZNSt6vectorImSaImEE16_M_shrink_to_fitEv
FNDA:80,_ZNSt6vectorI4EdgeSaIS0_EE17_M_realloc_insertIJRKS0_EEEvN9__gnu_cxx17__normal_iteratorIPS0_S2_EEDpOT_
FNDA:24,_ZNSt6vectorISt10unique_ptrI12ActiveObjectSt14default_deleteIS1_EESaIS4_EE17_M_realloc_insertIJS4_EEEvN9__gnu_cxx17__normal_iteratorIPS4_S6_EEDpOT_
FNDA:76,_ZNSt6vectorISt4pairIiiESaIS1_EE12emplace_backIJS1_EEERS1_DpOT_
FNDA:338,_ZNSt6vectorI4EdgeSaIS0_EE17_M_realloc_insertIJS0_EEEvN9__gnu_cxx17__normal_iteratorIPS0_S2_EEDpOT_
FNDA:10,_ZNSt6vectorImSaImEE17_M_realloc_insertIJRKmEEEvN9__gnu_cxx17__normal_iteratorIPmS1_EEDpOT_
FNDA:0,_ZNSt6vectorIiSaIiEEaSERKS1_
FNDA:42,_ZNSt6vectorISt10unique_ptrI12ActiveObjectSt14default_deleteIS1_EESaIS4_EE12emplace_backIJS4_EEERS4_DpOT_
FNDA:346,_ZNSt6vectorI4EdgeSaIS0_EE12emplace_backIJS0_EEERS0_DpOT_
FNDA:50,_ZNSt6vectorIiSaIiEE12emplace_backIJiEEERiDpOT_
FNDA:16,_ZNSt6vectorIS_IiSaIiEESaIS1_EE14_M_fill_insertEN9__gnu_cxx17__normal_iteratorIPS1_S3_EEmRKS1_
FNF:16
FNH:15
DA:109,514
DA:112,514
DA:115,84
DA:117,84
DA:121,430
DA:123,514
DA:184,6
DA:187,6
DA:189,6
DA:190,0
DA:191,6
DA:193,6
DA:198,0
DA:201,0
DA:205,0
DA:207,0
DA:208,0
DA:211,0
DA:212,0
DA:213,0
DA:214,0
DA:215,0
DA:216,0
DA:217,0
DA:219,0
DA:220,0
DA:223,0
DA:224,0
DA:226,0
DA:228,0
DA:229,0
DA:230,0
DA:231,0
DA:232,0
DA:233,0
DA:234,0
DA:236,0
DA:238,0
DA:239,0
DA:243,0
DA:245,0
DA:246,0
DA:248,0
DA:250,0
DA:252,0
DA:426,520
DA:436,520
DA:437,520
DA:438,520
DA:439,520
DA:440,520
DA:441,520
DA:449,520
DA:450,520
DA:456,520
DA:461,520
DA:462,520
DA:464,520
DA:466,520
DA:467,520
DA:500,520
DA:501,520
DA:502,520
DA:503,520
DA:504,520
DA:505,520
DA:509,16
DA:512,16
DA:514,16
DA:515,16
DA:520,0
DA:521,0
DA:523,0
DA:524,0
DA:525,0
DA:528,0
DA:531,0
DA:532,0
DA:534,0
DA:536,0
DA:542,0
DA:543,0
DA:546,0
DA:548,0
DA:550,0
DA:551,0
DA:553,0
DA:555,0
DA:559,16
DA:560,16
DA:561,16
DA:562,16
DA:566,16
DA:568,16
DA:569,16
DA:573,16
DA:574,16
DA:576,16
DA:580,16
DA:581,16
DA:583,0
DA:585,0
DA:586,0
DA:587,0
DA:588,0
DA:590,0
DA:591,0
DA:592,0
DA:593,0
DA:595,16
DA:596,16
DA:598,16
DA:599,16
DA:600,16
DA:601,16
DA:602,16
DA:603,16
DA:606,16
DA:611,42
DA:614,42
DA:616,42
DA:617,42
DA:618,42
DA:620,42
DA:621,0
DA:623,42
DA:626,0
DA:627,0
DA:628,0
DA:634,42
DA:635,42
DA:640,42
DA:641,42
DA:643,0
DA:645,0
DA:646,0
DA:648,42
DA:649,42
DA:675,42
DA:676,42
DA:677,42
DA:678,42
DA:679,42
DA:680,42
DA:683,42
DA:687,12
DA:690,12
DA:691,2
DA:693,10
LF:149
LH:81
end_of_record
TN:
SF:/usr/include/c++/11/chrono
FN:223,_ZNSt6chrono20__duration_cast_implINS_8durationIlSt5ratioILl1ELl1EEEES2_ILl1ELl1000EElLb1ELb0EE6__castIlS5_EES4_RKNS1_IT_T0_EE
FN:236,_ZNSt6chrono20__duration_cast_implINS_8durationIlSt5ratioILl1ELl1000000000EEEES2_ILl1000000ELl1EElLb0ELb1EE6__castIlS2_ILl1ELl1000EEEES4_RKNS1_IT_T0_EE
FN:236,_ZNSt6chrono20__duration_cast_implINS_8durationIlSt5ratioILl1ELl1000EEEES2_ILl1000ELl1EElLb0ELb1EE6__castIlS2_ILl1ELl1EEEES4_RKNS1_IT_T0_EE
FN:267,_ZNSt6chrono13duration_castINS_8durationIlSt5ratioILl1ELl1EEEElS2_ILl1ELl1000EEEENSt9enable_ifIXsrNS_13__is_durationIT_EE5valueES8_E4typeERKNS1_IT0_T1_EE
FN:267,_ZNSt6chrono13duration_castINS_8durationIlSt5ratioILl1ELl1000000000EEEElS2_ILl1ELl1000EEEENSt9enable_ifIXsrNS_13__is_durationIT_EE5valueES8_E4typeERKNS1_IT0_T1_EE
FN:267,_ZNSt6chrono13duration_castINS_8durationIlSt5ratioILl1ELl1000EEEElS2_ILl1ELl1EEEENSt9enable_ifIXsrNS_13__is_durationIT_EE5valueES8_E4typeERKNS1_IT0_T1_EE
FN:432,_ZNSt6chrono15duration_valuesIlE4zeroEv
FN:521,_ZNSt6chrono8durationIlSt5ratioILl1ELl1000000000EEEC1IlvEERKT_
FN:521,_ZNSt6chrono8durationIlSt5ratioILl1ELl1EEEC1IlvEERKT_
FN:521,_ZNSt6chrono8durationIlSt5ratioILl1ELl1000EEEC2IivEERKT_
FN:521,_ZNSt6chrono8durationIlSt5ratioILl1ELl1000EEEC2IlvEERKT_
FN:529,_ZNSt6chrono8durationIlSt5ratioILl1ELl1000EEEC2IlS1_ILl1ELl1EEvEERKNS0_IT_T0_EE
FN:537,_ZNKSt6chrono8durationIlSt5ratioILl1ELl1000EEE5countEv
FN:537,_ZNKSt6chrono8durationIlSt5ratioILl1ELl1EEE5countEv
FN:537,_ZNKSt6chrono8durationIlSt5ratioILl1ELl1000000000EEE5countEv
FN:623,_ZNSt6chrono8durationIlSt5ratioILl1ELl1000EEE4zeroEv
FN:660,_ZNSt6chronomiIlSt5ratioILl1ELl1000EElS1_ILl1ELl1EEEENSt11common_typeIJNS_8durationIT_T0_EENS5_IT1_T2_EEEE4typeERKS8_RKSB_
FN:772,_ZNSt6chronoltIlSt5ratioILl1ELl1000EElS2_EEbRKNS_8durationIT_T0_EERKNS3_IT1_T2_EE
FN:805,_ZNSt6chronoleIlSt5ratioILl1ELl1000EElS2_EEbRKNS_8durationIT_T0_EERKNS3_IT1_T2_EE
FNDA:644847,_ZNSt6chrono20__duration_cast_implINS_8durationIlSt5ratioILl1ELl1EEEES2_ILl1ELl1000EElLb1ELb0EE6__castIlS5_EES4_RKNS1_IT_T0_EE
FNDA:1289694,_ZNKSt6chrono8durationIlSt5ratioILl1ELl1EEE5countEv
FNDA:644847,_ZNSt6chrono8durationIlSt5ratioILl1ELl1000EEEC2IivEERKT_
FNDA:644847,_ZNSt6chrono13duration_castINS_8durationIlSt5ratioILl1ELl1000000000EEEElS2_ILl1ELl1000EEEENSt9enable_ifIXsrNS_13__is_durationIT_EE5valueES8_E4typeERKNS1_IT0_T1_EE
FNDA:1934541,_ZNSt6chrono8durationIlSt5ratioILl1ELl1000EEEC2IlvEERKT_
FNDA:644847,_ZNKSt6chrono8durationIlSt5ratioILl1ELl1000000000EEE5countEv
FNDA:644847,_ZNSt6chronomiIlSt5ratioILl1ELl1000EElS1_ILl1ELl1EEEENSt11common_typeIJNS_8durationIT_T0_EENS5_IT1_T2_EEEE4typeERKS8_RKSB_
FNDA:644847,_ZNSt6chronoltIlSt5ratioILl1ELl1000EElS2_EEbRKNS_8durationIT_T0_EERKNS3_IT1_T2_EE
FNDA:644847,_ZNSt6chrono13duration_castINS_8durationIlSt5ratioILl1ELl1000EEEElS2_ILl1ELl1EEEENSt9enable_ifIXsrNS_13__is_durationIT_EE5valueES8_E4typeERKNS1_IT0_T1_EE
FNDA:644847,_ZNSt6chrono20__duration_cast_implINS_8durationIlSt5ratioILl1ELl1000EEEES2_ILl1000ELl1EElLb0ELb1EE6__castIlS2_ILl1ELl1EEEES4_RKNS1_IT_T0_EE
FNDA:644847,_ZNSt6chronoleIlSt5ratioILl1ELl1000EElS2_EEbRKNS_8durationIT_T0_EERKNS3_IT1_T2_EE
FNDA:644847,_ZNSt6chrono15duration_valuesIlE4zeroEv
FNDA:644847,_ZNSt6chrono13duration_castINS_8durationIlSt5ratioILl1ELl1EEEElS2_ILl1ELl1000EEEENSt9enable_ifIXsrNS_13__is_durationIT_EE5valueES8_E4typeERKNS1_IT0_T1_EE
FNDA:644847,_ZNSt6chrono8durationIlSt5ratioILl1ELl1000000000EEEC1IlvEERKT_
FNDA:644847,_ZNSt6chrono20__duration_cast_implINS_8durationIlSt5ratioILl1ELl1000000000EEEES2_ILl1000000ELl1EElLb0ELb1EE6__castIlS2_ILl1ELl1000EEEES4_RKNS1_IT_T0_EE
FNDA:644847,_ZNSt6chrono8durationIlSt5ratioILl1ELl1000EEEC2IlS1_ILl1ELl1EEvEERKNS0_IT_T0_EE
FNDA:644847,_ZNSt6chrono8durationIlSt5ratioILl1ELl1000EEE4zeroEv
FNDA:644847,_ZNSt6chrono8durationIlSt5ratioILl1ELl1EEEC1IlvEERKT_
FNDA:4513929,_ZNKSt6chrono8durationIlSt5ratioILl1ELl1000EEE5countEv
FNF:19
FNH:19
DA:223,644847
DA:226,1289694
DA:227,644847
DA:236,1289694
DA:239,2579388
DA:240,1289694
DA:267,1934541
DA:276,1934541
DA:432,644847
DA:433,644847
DA:521,3869082
DA:522,3869082
DA:529,644847
DA:530,644847
DA:537,6448470
DA:538,6448470
DA:623,644847
DA:624,644847
DA:660,644847
DA:666,644847
DA:772,644847
DA:778,644847
DA:805,644847
DA:807,644847
LF:24
LH:24
end_of_record
TN:
SF:/usr/include/c++/11/condition_variable
FN:100,_ZNSt18condition_variable4waitIZN12ActiveObject3runEvEUlvE_EEvRSt11unique_lockISt5mutexET_
FN:100,_ZNSt18condition_variable4waitIZ14handleCommandsiRSt6vectorISt10unique_ptrI12ActiveObjectSt14default_deleteIS3_EESaIS6_EERS2_I5GraphS4_ISA_EER10MSTFactoryRS2_I4TreeS4_ISG_EEEUlvE7_EEvRSt11unique_lockISt5mutexET_
FN:100,_ZNSt18condition_variable4waitIZN13ThreadContext13conditionWaitERKSt6atomicIbEEUlvE_EEvRSt11unique_lockISt5mutexET_
FNDA:184,_ZNSt18condition_variable4waitIZN12ActiveObject3runEvEUlvE_EEvRSt11unique_lockISt5mutexET_
FNDA:58,_ZNSt18condition_variable4waitIZN13ThreadContext13conditionWaitERKSt6atomicIbEEUlvE_EEvRSt11unique_lockISt5mutexET_
FNDA:10,_ZNSt18condition_variable4waitIZ14handleCommandsiRSt6vectorISt10unique_ptrI12ActiveObjectSt14default_deleteIS3_EESaIS6_EERS2_I5GraphS4_ISA_EER10MSTFactoryRS2_I4TreeS4_ISG_EEEUlvE7_EEvRSt11unique_lockISt5mutexET_
FNF:3
FNH:3
DA:100,252
DA:102,472
DA:103,220
DA:104,252
LF:4
LH:4
end_of_record
TN:
SF:/usr/include/c++/11/ext/aligned_buffer.h
FN:64,_ZN9__gnu_cxx16__aligned_membufISt4pairIKiSt8functionIFvvEEEE7_M_addrEv
FN:68,_ZNK9__gnu_cxx16__aligned_membufISt4pairIKiSt8functionIFvvEEEE7_M_addrEv
FN:72,_ZN9__gnu_cxx16__aligned_membufISt4pairIKiSt8functionIFvvEEEE6_M_ptrEv
FN:76,_ZNK9__gnu_cxx16__aligned_membufISt4pairIKiSt8functionIFvvEEEE6_M_ptrEv
FN:102,_ZN9__gnu_cxx16__aligned_bufferI13ThreadContextE7_M_addrEv
FN:114,_ZN9__gnu_cxx16__aligned_bufferI13ThreadContextE6_M_ptrEv
FNDA:31,_ZN9__gnu_cxx16__aligned_membufISt4pairIKiSt8functionIFvvEEEE7_M_addrEv
FNDA:150,_ZN9__gnu_cxx16__aligned_bufferI13ThreadContextE6_M_ptrEv
FNDA:150,_ZN9__gnu_cxx16__aligned_bufferI13ThreadContextE7_M_addrEv
FNDA:29,_ZNK9__gnu_cxx16__aligned_membufISt4pairIKiSt8functionIFvvEEEE7_M_addrEv
FNDA:31,_ZN9__gnu_cxx16__aligned_membufISt4pairIKiSt8functionIFvvEEEE6_M_ptrEv
FNDA:29,_ZNK9__gnu_cxx16__aligned_membufISt4pairIKiSt8functionIFvvEEEE6_M_ptrEv
FNF:6
FNH:6
DA:64,31
DA:65,31
DA:68,29
DA:69,29
DA:72,31
DA:73,31
DA:76,29
DA:77,29
DA:102,150
DA:104,150
DA:114,150
DA:115,150
LF:12
LH:12
end_of_record
TN:
SF:/usr/include/c++/11/ext/alloc_traits.h
FN:97,_ZN9__gnu_cxx14__alloc_traitsISaI4EdgeES1_E17_S_select_on_copyERKS2_
FN:97,_ZN9__gnu_cxx14__alloc_traitsISaIcEcE17_S_select_on_copyERKS1_
FN:97,_ZN9__gnu_cxx14__alloc_traitsISaIiEiE17_S_select_on_copyERKS1_
FN:97,_ZN9__gnu_cxx14__alloc_traitsISaImEmE17_S_select_on_copyERKS1_
FN:100,_ZN9__gnu_cxx14__alloc_traitsISaISt10unique_ptrI12ActiveObjectSt14default_deleteIS2_EEES5_E10_S_on_swapERS6_S8_
FN:100,_ZN9__gnu_cxx14__alloc_traitsISaImEmE10_S_on_swapERS1_S3_
FN:103,_ZN9__gnu_cxx14__alloc_traitsISaIiEiE27_S_propagate_on_copy_assignEv
FN:112,_ZN9__gnu_cxx14__alloc_traitsISaIiEiE15_S_always_equalEv
FNDA:44,_ZN9__gnu_cxx14__alloc_traitsISaImEmE17_S_select_on_copyERKS1_
FNDA:120,_ZN9__gnu_cxx14__alloc_traitsISaIiEiE17_S_select_on_copyERKS1_
FNDA:4,_ZN9__gnu_cxx14__alloc_traitsISaImEmE10_S_on_swapERS1_S3_
FNDA:26,_ZN9__gnu_cxx14__alloc_traitsISaIcEcE17_S_select_on_copyERKS1_
FNDA:6,_ZN9__gnu_cxx14__alloc_traitsISaISt10unique_ptrI12ActiveObjectSt14default_deleteIS2_EEES5_E10_S_on_swapERS6_S8_
FNDA:0,_ZN9__gnu_cxx14__alloc_traitsISaIiEiE27_S_propagate_on_copy_assignEv
FNDA:48,_ZN9__gnu_cxx14__alloc_traitsISaI4EdgeES1_E17_S_select_on_copyERKS2_
FNDA:0,_ZN9__gnu_cxx14__alloc_traitsISaIiEiE15_S_always_equalEv
FNF:8
FNH:6
DA:97,238
DA:98,238
DA:100,10
DA:101,10
DA:103,0
DA:104,0
DA:112,0
DA:113,0
LF:8
LH:4
end_of_record
TN:
SF:/usr/include/c++/11/ext/atomicity.h
FNF:0
FNH:0
DA:52,142
DA:66,121
DA:71,21
DA:84,0
DA:85,0
DA:86,0
DA:92,0
DA:98,121
DA:99,0
DA:101,121
DA:108,21
DA:112,21
LF:12
LH:7
end_of_record
TN:
SF:/usr/include/c++/11/ext/new_allocator.h
FN:79,_ZN9__gnu_cxx13new_allocatorISt6threadEC2Ev
FN:79,_ZN9__gnu_cxx13new_allocatorI13ThreadContextEC2Ev
FN:79,_ZN9__gnu_cxx13new_allocatorISt13_Rb_tree_nodeISt4pairIKiSt8functionIFvvEEEEEC2Ev
FN:79,_ZN9__gnu_cxx13new_allocatorIcEC2Ev
FN:79,_ZN9__gnu_cxx13new_allocatorISt4pairIiiEEC2Ev
FN:79,_ZN9__gnu_cxx13new_allocatorISt10shared_ptrI13ThreadContextEEC2Ev
FN:79,_ZN9__gnu_cxx13new_allocatorISt8functionIFvvEEEC2Ev
FN:79,_ZN9__gnu_cxx13new_allocatorISt6vectorIiSaIiEEEC2Ev
FN:79,_ZN9__gnu_cxx13new_allocatorISt23_Sp_counted_ptr_inplaceI13ThreadContextSaIS2_ELNS_12_Lock_policyE2EEEC2Ev
FN:79,_ZN9__gnu_cxx13new_allocatorIPSt8functionIFvvEEEC2Ev
FN:79,_ZN9__gnu_cxx13new_allocatorImEC2Ev
FN:79,_ZN9__gnu_cxx13new_allocatorIbEC2Ev
FN:79,_ZN9__gnu_cxx13new_allocatorISt6vectorI4EdgeSaIS2_EEEC2Ev
FN:79,_ZN9__gnu_cxx13new_allocatorI4EdgeEC2Ev
FN:79,_ZN9__gnu_cxx13new_allocatorIiEC2Ev
FN:79,_ZN9__gnu_cxx13new_allocatorISt10unique_ptrI12ActiveObjectSt14default_deleteIS2_EEEC2Ev
FN:82,_ZN9__gnu_cxx13new_allocatorISt10unique_ptrI12ActiveObjectSt14default_deleteIS2_EEEC2ERKS6_
FN:82,_ZN9__gnu_cxx13new_allocatorIcEC2ERKS1_
FN:82,_ZN9__gnu_cxx13new_allocatorImEC2ERKS1_
FN:82,_ZN9__gnu_cxx13new_allocatorI4EdgeEC2ERKS2_
FN:82,_ZN9__gnu_cxx13new_allocatorIiEC2ERKS1_
FN:82,_ZN9__gnu_cxx13new_allocatorISt10shared_ptrI13ThreadContextEEC2ERKS4_
FN:82,_ZN9__gnu_cxx13new_allocatorI13ThreadContextEC2ERKS2_
FN:89,_ZN9__gnu_cxx13new_allocatorIbED2Ev
FN:89,_ZN9__gnu_cxx13new_allocatorIPSt8functionIFvvEEED2Ev
FN:89,_ZN9__gnu_cxx13new_allocatorISt23_Sp_counted_ptr_inplaceI13ThreadContextSaIS2_ELNS_12_Lock_policyE2EEED2Ev
FN:89,_ZN9__gnu_cxx13new_allocatorISt4pairIiiEED2Ev
FN:89,_ZN9__gnu_cxx13new_allocatorI4EdgeED2Ev
FN:89,_ZN9__gnu_cxx13new_allocatorIiED2Ev
FN:89,_ZN9__gnu_cxx13new_allocatorISt6threadED2Ev
FN:89,_ZN9__gnu_cxx13new_allocatorISt13_Rb_tree_nodeISt4pairIKiSt8functionIFvvEEEEED2Ev
FN:89,_ZN9__gnu_cxx13new_allocatorI13ThreadContextED2Ev
FN:89,_ZN9__gnu_cxx13new_allocatorISt10shared_ptrI13ThreadContextEED2Ev
FN:89,_ZN9__gnu_cxx13new_allocatorISt6vectorI4EdgeSaIS2_EEED2Ev
FN:89,_ZN9__gnu_cxx13new_allocatorImED2Ev
FN:89,_ZN9__gnu_cxx13new_allocatorISt10unique_ptrI12ActiveObjectSt14default_deleteIS2_EEED2Ev
FN:89,_ZN9__gnu_cxx13new_allocatorISt6vectorIiSaIiEEED2Ev
FN:89,_ZN9__gnu_cxx13new_allocatorISt8functionIFvvEEED2Ev
FN:89,_ZN9__gnu_cxx13new_allocatorIcED2Ev
FN:103,_ZN9__gnu_cxx13new_allocatorISt8functionIFvvEEE8allocateEmPKv
FN:103,_ZN9__gnu_cxx13new_allocatorISt6vectorI4EdgeSaIS2_EEE8allocateEmPKv
FN:103,_ZN9__gnu_cxx13new_allocatorISt23_Sp_counted_ptr_inplaceI13ThreadContextSaIS2_ELNS_12_Lock_policyE2EEE8allocateEmPKv
FN:103,_ZN9__gnu_cxx13new_allocatorISt13_Rb_tree_nodeISt4pairIKiSt8functionIFvvEEEEE8allocateEmPKv
FN:103,_ZN9__gnu_cxx13new_allocatorISt10unique_ptrI12ActiveObjectSt14default_deleteIS2_EEE8allocateEmPKv
FN:103,_ZN9__gnu_cxx13new_allocatorIiE8allocateEmPKv
FN:103,_ZN9__gnu_cxx13new_allocatorISt6vectorIiSaIiEEE8allocateEmPKv
FN:103,_ZN9__gnu_cxx13new_allocatorImE8allocateEmPKv
FN:103,_ZN9__gnu_cxx13new_allocatorISt10shared_ptrI13ThreadContextEE8allocateEmPKv
FN:103,_ZN9__gnu_cxx13new_allocatorI4EdgeE8allocateEmPKv
FN:103,_ZN9__gnu_cxx13new_allocatorIPSt8functionIFvvEEE8allocateEmPKv
FN:103,_ZN9__gnu_cxx13new_allocatorISt4pairIiiEE8allocateEmPKv
FN:132,_ZN9__gnu_cxx13new_allocatorIiE10deallocateEPim
FN:132,_ZN9__gnu_cxx13new_allocatorISt10shared_ptrI13ThreadContextEE10deallocateEPS3_m
FN:132,_ZN9__gnu_cxx13new_allocatorISt23_Sp_counted_ptr_inplaceI13ThreadContextSaIS2_ELNS_12_Lock_policyE2EEE10deallocateEPS5_m
FN:132,_ZN9__gnu_cxx13new_allocatorIPSt8functionIFvvEEE10deallocateEPS4_m
FN:132,_ZN9__gnu_cxx13new_allocatorISt8functionIFvvEEE10deallocateEPS3_m
FN:132,_ZN9__gnu_cxx13new_allocatorISt13_Rb_tree_nodeISt4pairIKiSt8functionIFvvEEEEE10deallocateEPS8_m
FN:132,_ZN9__gnu_cxx13new_allocatorISt10unique_ptrI12ActiveObjectSt14default_deleteIS2_EEE10deallocateEPS5_m
FN:132,_ZN9__gnu_cxx13new_allocatorISt6vectorI4EdgeSaIS2_EEE10deallocateEPS4_m
FN:132,_ZN9__gnu_cxx13new_allocatorISt6threadE10deallocateEPS1_m
FN:132,_ZN9__gnu_cxx13new_allocatorI4EdgeE10deallocateEPS1_m
FN:132,_ZN9__gnu_cxx13new_allocatorImE10deallocateEPmm
FN:132,_ZN9__gnu_cxx13new_allocatorISt6vectorIiSaIiEEE10deallocateEPS3_m
FN:132,_ZN9__gnu_cxx13new_allocatorISt4pairIiiEE10deallocateEPS2_m
FN:154,_ZNK9__gnu_cxx13new_allocatorISt6vectorIiSaIiEEE8max_sizeEv
FN:154,_ZNK9__gnu_cxx13new_allocatorISt6vectorI4EdgeSaIS2_EEE8max_sizeEv
FN:154,_ZNK9__gnu_cxx13new_allocatorIiE8max_sizeEv
FN:154,_ZNK9__gnu_cxx13new_allocatorISt10shared_ptrI13ThreadContextEE8max_sizeEv
FN:154,_ZNK9__gnu_cxx13new_allocatorISt4pairIiiEE8max_sizeEv
FN:154,_ZNK9__gnu_cxx13new_allocatorI4EdgeE8max_sizeEv
FN:154,_ZNK9__gnu_cxx13new_allocatorISt8functionIFvvEEE8max_sizeEv
FN:154,_ZNK9__gnu_cxx13new_allocatorImE8max_sizeEv
FN:154,_ZNK9__gnu_cxx13new_allocatorISt10unique_ptrI12ActiveObjectSt14default_deleteIS2_EEE8max_sizeEv
FN:160,_ZN9__gnu_cxx13new_allocatorI4EdgeE9constructIS1_JRKS1_EEEvPT_DpOT0_
FN:160,_ZN9__gnu_cxx13new_allocatorImE9constructImJRKmEEEvPT_DpOT0_
FN:160,_ZN9__gnu_cxx13new_allocatorISt8functionIFvvEEE9constructIS3_JRZ14handleCommandsiRSt6vectorISt10unique_ptrI12ActiveObjectSt14default_deleteIS8_EESaISB_EERS7_I5GraphS9_ISF_EER10MSTFactoryRS7_I4TreeS9_ISL_EEEUlvE10_EEEvPT_DpOT0_
FN:160,_ZN9__gnu_cxx13new_allocatorISt8functionIFvvEEE9constructIS3_JRZ14handleCommandsiRSt6vectorISt10unique_ptrI12ActiveObjectSt14default_deleteIS8_EESaISB_EERS7_I5GraphS9_ISF_EER10MSTFactoryRS7_I4TreeS9_ISL_EEEUlvE8_EEEvPT_DpOT0_
FN:160,_ZN9__gnu_cxx13new_allocatorISt8functionIFvvEEE9constructIS3_JRZ14handleCommandsiRSt6vectorISt10unique_ptrI12ActiveObjectSt14default_deleteIS8_EESaISB_EERS7_I5GraphS9_ISF_EER10MSTFactoryRS7_I4TreeS9_ISL_EEEUlvE2_EEEvPT_DpOT0_
FN:160,_ZN9__gnu_cxx13new_allocatorISt8functionIFvvEEE9constructIS3_JRZ14handleCommandsiRSt6vectorISt10unique_ptrI12ActiveObjectSt14default_deleteIS8_EESaISB_EERS7_I5GraphS9_ISF_EER10MSTFactoryRS7_I4TreeS9_ISL_EEEUlvE3_EEEvPT_DpOT0_
FN:160,_ZN9__gnu_cxx13new_allocatorISt6vectorI4EdgeSaIS2_EEE9constructIS4_JS4_EEEvPT_DpOT0_
FN:160,_ZN9__gnu_cxx13new_allocatorISt8functionIFvvEEE9constructIS3_JRZZ14handleCommandsiRSt6vectorISt10unique_ptrI12ActiveObjectSt14default_deleteIS8_EESaISB_EERS7_I5GraphS9_ISF_EER10MSTFactoryRS7_I4TreeS9_ISL_EEENKUlvE3_clEvEUlvE_EEEvPT_DpOT0_
FN:160,_ZN9__gnu_cxx13new_allocatorISt8functionIFvvEEE9constructIS3_JRZ14handleCommandsiRSt6vectorISt10unique_ptrI12ActiveObjectSt14default_deleteIS8_EESaISB_EERS7_I5GraphS9_ISF_EER10MSTFactoryRS7_I4TreeS9_ISL_EEEUlvE0_EEEvPT_DpOT0_
FN:160,_ZN9__gnu_cxx13new_allocatorI13ThreadContextE9constructIS1_JEEEvPT_DpOT0_
FN:160,_ZN9__gnu_cxx13new_allocatorISt8functionIFvvEEE9constructIS3_JRZ14handleCommandsiRSt6vectorISt10unique_ptrI12ActiveObjectSt14default_deleteIS8_EESaISB_EERS7_I5GraphS9_ISF_EER10MSTFactoryRS7_I4TreeS9_ISL_EEEUlvE4_EEEvPT_DpOT0_
FN:160,_ZN9__gnu_cxx13new_allocatorISt8functionIFvvEEE9constructIS3_JRZ14handleCommandsiRSt6vectorISt10unique_ptrI12ActiveObjectSt14default_deleteIS8_EESaISB_EERS7_I5GraphS9_ISF_EER10MSTFactoryRS7_I4TreeS9_ISL_EEEUlvE6_EEEvPT_DpOT0_
FN:160,_ZN9__gnu_cxx13new_allocatorISt8functionIFvvEEE9constructIS3_JRZ14handleCommandsiRSt6vectorISt10unique_ptrI12ActiveObjectSt14default_deleteIS8_EESaISB_EERS7_I5GraphS9_ISF_EER10MSTFactoryRS7_I4TreeS9_ISL_EEEUlvE_EEEvPT_DpOT0_
FN:160,_ZN9__gnu_cxx13new_allocatorISt8functionIFvvEEE9constructIS3_JRZ14handleCommandsiRSt6vectorISt10unique_ptrI12ActiveObjectSt14default_deleteIS8_EESaISB_EERS7_I5GraphS9_ISF_EER10MSTFactoryRS7_I4TreeS9_ISL_EEEUlvE9_EEEvPT_DpOT0_
FN:160,_ZN9__gnu_cxx13new_allocatorISt6vectorIiSaIiEEE9constructIS3_JRKS3_EEEvPT_DpOT0_
FN:160,_ZN9__gnu_cxx13new_allocatorISt4pairIiiEE9constructIS2_JS2_EEEvPT_DpOT0_
FN:160,_ZN9__gnu_cxx13new_allocatorISt8functionIFvvEEE9constructIS3_JRZZZ14handleCommandsiRSt6vectorISt10unique_ptrI12ActiveObjectSt14default_deleteIS8_EESaISB_EERS7_I5GraphS9_ISF_EER10MSTFactoryRS7_I4TreeS9_ISL_EEENKUlvE3_clEvENKUlvE_clEvEUlvE_EEEvPT_DpOT0_
FN:160,_ZN9__gnu_cxx13new_allocatorISt8functionIFvvEEE9constructIS3_JRZ14handleCommandsiRSt6vectorISt10unique_ptrI12ActiveObjectSt14default_deleteIS8_EESaISB_EERS7_I5GraphS9_ISF_EER10MSTFactoryRS7_I4TreeS9_ISL_EEEUlvE1_EEEvPT_DpOT0_
FN:160,_ZN9__gnu_cxx13new_allocatorI4EdgeE9constructIS1_JS1_EEEvPT_DpOT0_
FN:160,_ZN9__gnu_cxx13new_allocatorISt8functionIFvvEEE9constructIS3_JRZZZZ14handleCommandsiRSt6vectorISt10unique_ptrI12ActiveObjectSt14default_deleteIS8_EESaISB_EERS7_I5GraphS9_ISF_EER10MSTFactoryRS7_I4TreeS9_ISL_EEENKUlvE3_clEvENKUlvE_clEvENKUlvE_clEvEUlvE_EEEvPT_DpOT0_
FN:160,_ZN9__gnu_cxx13new_allocatorISt8functionIFvvEEE9constructIS3_JRZ14handleCommandsiRSt6vectorISt10unique_ptrI12ActiveObjectSt14default_deleteIS8_EESaISB_EERS7_I5GraphS9_ISF_EER10MSTFactoryRS7_I4TreeS9_ISL_EEEUlvE5_EEEvPT_DpOT0_
FN:160,_ZN9__gnu_cxx13new_allocatorISt8functionIFvvEEE9constructIS3_JRZZZZZ14handleCommandsiRSt6vectorISt10unique_ptrI12ActiveObjectSt14default_deleteIS8_EESaISB_EERS7_I5GraphS9_ISF_EER10MSTFactoryRS7_I4TreeS9_ISL_EEENKUlvE3_clEvENKUlvE_clEvENKUlvE_clEvENKUlvE_clEvEUlvE_EEEvPT_DpOT0_
FN:160,_ZN9__gnu_cxx13new_allocatorIiE9constructIiJiEEEvPT_DpOT0_
FN:160,_ZN9__gnu_cxx13new_allocatorISt8functionIFvvEEE9constructIS3_JRZZZZZZ14handleCommandsiRSt6vectorISt10unique_ptrI12ActiveObjectSt14default_deleteIS8_EESaISB_EERS7_I5GraphS9_ISF_EER10MSTFactoryRS7_I4TreeS9_ISL_EEENKUlvE3_clEvENKUlvE_clEvENKUlvE_clEvENKUlvE_clEvENKUlvE_clEvEUlvE_EEEvPT_DpOT0_
FN:160,_ZN9__gnu_cxx13new_allocatorISt10unique_ptrI12ActiveObjectSt14default_deleteIS2_EEE9constructIS5_JS5_EEEvPT_DpOT0_
FN:160,_ZN9__gnu_cxx13new_allocatorISt13_Rb_tree_nodeISt4pairIKiSt8functionIFvvEEEEE9constructIS7_JRKSt21piecewise_construct_tSt5tupleIJRS3_EESE_IJEEEEEvPT_DpOT0_
FN:166,_ZN9__gnu_cxx13new_allocatorISt6vectorIiSaIiEEE7destroyIS3_EEvPT_
FN:166,_ZN9__gnu_cxx13new_allocatorISt4pairIiiEE7destroyIS2_EEvPT_
FN:166,_ZN9__gnu_cxx13new_allocatorISt6vectorI4EdgeSaIS2_EEE7destroyIS4_EEvPT_
FN:166,_ZN9__gnu_cxx13new_allocatorISt8functionIFvvEEE7destroyIS3_EEvPT_
FN:166,_ZN9__gnu_cxx13new_allocatorISt10unique_ptrI12ActiveObjectSt14default_deleteIS2_EEE7destroyIS5_EEvPT_
FN:166,_ZN9__gnu_cxx13new_allocatorI13ThreadContextE7destroyIS1_EEvPT_
FN:166,_ZN9__gnu_cxx13new_allocatorISt13_Rb_tree_nodeISt4pairIKiSt8functionIFvvEEEEE7destroyIS7_EEvPT_
FN:197,_ZNK9__gnu_cxx13new_allocatorISt6vectorIiSaIiEEE11_M_max_sizeEv
FN:197,_ZNK9__gnu_cxx13new_allocatorISt13_Rb_tree_nodeISt4pairIKiSt8functionIFvvEEEEE11_M_max_sizeEv
FN:197,_ZNK9__gnu_cxx13new_allocatorISt8functionIFvvEEE11_M_max_sizeEv
FN:197,_ZNK9__gnu_cxx13new_allocatorI4EdgeE11_M_max_sizeEv
FN:197,_ZNK9__gnu_cxx13new_allocatorISt6vectorI4EdgeSaIS2_EEE11_M_max_sizeEv
FN:197,_ZNK9__gnu_cxx13new_allocatorISt4pairIiiEE11_M_max_sizeEv
FN:197,_ZNK9__gnu_cxx13new_allocatorISt10unique_ptrI12ActiveObjectSt14default_deleteIS2_EEE11_M_max_sizeEv
FN:197,_ZNK9__gnu_cxx13new_allocatorISt23_Sp_counted_ptr_inplaceI13ThreadContextSaIS2_ELNS_12_Lock_policyE2EEE11_M_max_sizeEv
FN:197,_ZNK9__gnu_cxx13new_allocatorISt10shared_ptrI13ThreadContextEE11_M_max_sizeEv
FN:197,_ZNK9__gnu_cxx13new_allocatorIiE11_M_max_sizeEv
FN:197,_ZNK9__gnu_cxx13new_allocatorImE11_M_max_sizeEv
FN:197,_ZNK9__gnu_cxx13new_allocatorIPSt8functionIFvvEEE11_M_max_sizeEv
FNDA:50,_ZN9__gnu_cxx13new_allocatorI13ThreadContextE7destroyIS1_EEvPT_
FNDA:176,_ZN9__gnu_cxx13new_allocatorIiEC2Ev
FNDA:4,_ZN9__gnu_cxx13new_allocatorISt8functionIFvvEEE9constructIS3_JRZ14handleCommandsiRSt6vectorISt10unique_ptrI12ActiveObjectSt14default_deleteIS8_EESaISB_EERS7_I5GraphS9_ISF_EER10MSTFactoryRS7_I4TreeS9_ISL_EEEUlvE5_EEEvPT_DpOT0_
FNDA:18,_ZN9__gnu_cxx13new_allocatorISt10unique_ptrI12ActiveObjectSt14default_deleteIS2_EEED2Ev
FNDA:566,_ZNK9__gnu_cxx13new_allocatorIiE11_M_max_sizeEv
FNDA:836,_ZNK9__gnu_cxx13new_allocatorI4EdgeE8max_sizeEv
FNDA:216,_ZN9__gnu_cxx13new_allocatorImED2Ev
FNDA:235,_ZN9__gnu_cxx13new_allocatorI4EdgeEC2Ev
FNDA:90,_ZN9__gnu_cxx13new_allocatorImE10deallocateEPmm
FNDA:4,_ZN9__gnu_cxx13new_allocatorISt8functionIFvvEEE9constructIS3_JRZZZZ14handleCommandsiRSt6vectorISt10unique_ptrI12ActiveObjectSt14default_deleteIS8_EESaISB_EERS7_I5GraphS9_ISF_EER10MSTFactoryRS7_I4TreeS9_ISL_EEENKUlvE3_clEvENKUlvE_clEvENKUlvE_clEvEUlvE_EEEvPT_DpOT0_
FNDA:42,_ZN9__gnu_cxx13new_allocatorISt6vectorI4EdgeSaIS2_EEED2Ev
FNDA:42,_ZN9__gnu_cxx13new_allocatorISt6vectorI4EdgeSaIS2_EEEC2Ev
FNDA:26,_ZN9__gnu_cxx13new_allocatorISt4pairIiiEE8allocateEmPKv
FNDA:42,_ZN9__gnu_cxx13new_allocatorIPSt8functionIFvvEEE8allocateEmPKv
FNDA:466,_ZN9__gnu_cxx13new_allocatorI4EdgeE8allocateEmPKv
FNDA:346,_ZN9__gnu_cxx13new_allocatorI4EdgeE9constructIS1_JS1_EEEvPT_DpOT0_
FNDA:15,_ZN9__gnu_cxx13new_allocatorISt10shared_ptrI13ThreadContextEED2Ev
FNDA:5,_ZN9__gnu_cxx13new_allocatorISt13_Rb_tree_nodeISt4pairIKiSt8functionIFvvEEEEE9constructIS7_JRKSt21piecewise_construct_tSt5tupleIJRS3_EESE_IJEEEEEvPT_DpOT0_
FNDA:6,_ZN9__gnu_cxx13new_allocatorISt10unique_ptrI12ActiveObjectSt14default_deleteIS2_EEEC2Ev
FNDA:42,_ZNK9__gnu_cxx13new_allocatorIPSt8functionIFvvEEE11_M_max_sizeEv
FNDA:54,_ZNK9__gnu_cxx13new_allocatorISt10unique_ptrI12ActiveObjectSt14default_deleteIS2_EEE8max_sizeEv
FNDA:84,_ZN9__gnu_cxx13new_allocatorISt10unique_ptrI12ActiveObjectSt14default_deleteIS2_EEE9constructIS5_JS5_EEEvPT_DpOT0_
FNDA:4,_ZN9__gnu_cxx13new_allocatorISt8functionIFvvEEE9constructIS3_JRZZZZZZ14handleCommandsiRSt6vectorISt10unique_ptrI12ActiveObjectSt14default_deleteIS8_EESaISB_EERS7_I5GraphS9_ISF_EER10MSTFactoryRS7_I4TreeS9_ISL_EEENKUlvE3_clEvENKUlvE_clEvENKUlvE_clEvENKUlvE_clEvENKUlvE_clEvEUlvE_EEEvPT_DpOT0_
FNDA:50,_ZN9__gnu_cxx13new_allocatorIiE9constructIiJiEEEvPT_DpOT0_
FNDA:24,_ZNK9__gnu_cxx13new_allocatorImE8max_sizeEv
FNDA:5,_ZN9__gnu_cxx13new_allocatorISt13_Rb_tree_nodeISt4pairIKiSt8functionIFvvEEEEE7destroyIS7_EEvPT_
FNDA:2,_ZNK9__gnu_cxx13new_allocatorISt8functionIFvvEEE8max_sizeEv
FNDA:26,_ZN9__gnu_cxx13new_allocatorISt4pairIiiEE10deallocateEPS2_m
FNDA:16,_ZN9__gnu_cxx13new_allocatorISt6vectorIiSaIiEEE10deallocateEPS3_m
FNDA:0,_ZN9__gnu_cxx13new_allocatorIcED2Ev
FNDA:4,_ZN9__gnu_cxx13new_allocatorISt8functionIFvvEEE9constructIS3_JRZZZZZ14handleCommandsiRSt6vectorISt10unique_ptrI12ActiveObjectSt14default_deleteIS8_EESaISB_EERS7_I5GraphS9_ISF_EER10MSTFactoryRS7_I4TreeS9_ISL_EEENKUlvE3_clEvENKUlvE_clEvENKUlvE_clEvENKUlvE_clEvEUlvE_EEEvPT_DpOT0_
FNDA:114,_ZNK9__gnu_cxx13new_allocatorImE11_M_max_sizeEv
FNDA:24,_ZN9__gnu_cxx13new_allocatorISt6vectorIiSaIiEEED2Ev
FNDA:42,_ZN9__gnu_cxx13new_allocatorISt8functionIFvvEEED2Ev
FNDA:0,_ZN9__gnu_cxx13new_allocatorISt6vectorI4EdgeSaIS2_EEE7destroyIS4_EEvPT_
FNDA:0,_ZN9__gnu_cxx13new_allocatorISt6vectorIiSaIiEEE9constructIS3_JRKS3_EEEvPT_DpOT0_
FNDA:4,_ZN9__gnu_cxx13new_allocatorISt8functionIFvvEEE9constructIS3_JRZ14handleCommandsiRSt6vectorISt10unique_ptrI12ActiveObjectSt14default_deleteIS8_EESaISB_EERS7_I5GraphS9_ISF_EER10MSTFactoryRS7_I4TreeS9_ISL_EEEUlvE9_EEEvPT_DpOT0_
FNDA:16,_ZN9__gnu_cxx13new_allocatorISt8functionIFvvEEE9constructIS3_JRZ14handleCommandsiRSt6vectorISt10unique_ptrI12ActiveObjectSt14default_deleteIS8_EESaISB_EERS7_I5GraphS9_ISF_EER10MSTFactoryRS7_I4TreeS9_ISL_EEEUlvE_EEEvPT_DpOT0_
FNDA:16,_ZN9__gnu_cxx13new_allocatorISt6vectorIiSaIiEEE8allocateEmPKv
FNDA:322,_ZN9__gnu_cxx13new_allocatorIiE8allocateEmPKv
FNDA:10,_ZN9__gnu_cxx13new_allocatorISt8functionIFvvEEE9constructIS3_JRZ14handleCommandsiRSt6vectorISt10unique_ptrI12ActiveObjectSt14default_deleteIS8_EESaISB_EERS7_I5GraphS9_ISF_EER10MSTFactoryRS7_I4TreeS9_ISL_EEEUlvE6_EEEvPT_DpOT0_
FNDA:560,_ZN9__gnu_cxx13new_allocatorIiEC2ERKS1_
FNDA:50,_ZNK9__gnu_cxx13new_allocatorISt23_Sp_counted_ptr_inplaceI13ThreadContextSaIS2_ELNS_12_Lock_policyE2EEE11_M_max_sizeEv
FNDA:78,_ZNK9__gnu_cxx13new_allocatorISt10unique_ptrI12ActiveObjectSt14default_deleteIS2_EEE11_M_max_sizeEv
FNDA:96,_ZN9__gnu_cxx13new_allocatorI4EdgeEC2ERKS2_
FNDA:52,_ZNK9__gnu_cxx13new_allocatorISt4pairIiiEE8max_sizeEv
FNDA:0,_ZN9__gnu_cxx13new_allocatorISt6threadE10deallocateEPS1_m
FNDA:42,_ZN9__gnu_cxx13new_allocatorISt6vectorI4EdgeSaIS2_EEE10deallocateEPS4_m
FNDA:24,_ZN9__gnu_cxx13new_allocatorISt10unique_ptrI12ActiveObjectSt14default_deleteIS2_EEE10deallocateEPS5_m
FNDA:12,_ZN9__gnu_cxx13new_allocatorISt8functionIFvvEEE9constructIS3_JRZ14handleCommandsiRSt6vectorISt10unique_ptrI12ActiveObjectSt14default_deleteIS8_EESaISB_EERS7_I5GraphS9_ISF_EER10MSTFactoryRS7_I4TreeS9_ISL_EEEUlvE1_EEEvPT_DpOT0_
FNDA:150,_ZN9__gnu_cxx13new_allocatorI13ThreadContextEC2ERKS2_
FNDA:5,_ZN9__gnu_cxx13new_allocatorISt10shared_ptrI13ThreadContextEE8allocateEmPKv
FNDA:80,_ZN9__gnu_cxx13new_allocatorIbEC2Ev
FNDA:86,_ZN9__gnu_cxx13new_allocatorImEC2Ev
FNDA:42,_ZN9__gnu_cxx13new_allocatorISt10unique_ptrI12ActiveObjectSt14default_deleteIS2_EEE7destroyIS5_EEvPT_
FNDA:200,_ZN9__gnu_cxx13new_allocatorI13ThreadContextED2Ev
FNDA:4,_ZN9__gnu_cxx13new_allocatorISt8functionIFvvEEE9constructIS3_JRZZZ14handleCommandsiRSt6vectorISt10unique_ptrI12ActiveObjectSt14default_deleteIS8_EESaISB_EERS7_I5GraphS9_ISF_EER10MSTFactoryRS7_I4TreeS9_ISL_EEENKUlvE3_clEvENKUlvE_clEvEUlvE_EEEvPT_DpOT0_
FNDA:10,_ZN9__gnu_cxx13new_allocatorISt10shared_ptrI13ThreadContextEEC2ERKS4_
FNDA:466,_ZN9__gnu_cxx13new_allocatorI4EdgeE10deallocateEPS1_m
FNDA:88,_ZN9__gnu_cxx13new_allocatorISt4pairIiiEE9constructIS2_JS2_EEEvPT_DpOT0_
FNDA:10,_ZNK9__gnu_cxx13new_allocatorISt10shared_ptrI13ThreadContextEE11_M_max_sizeEv
FNDA:142,_ZN9__gnu_cxx13new_allocatorISt8functionIFvvEEE7destroyIS3_EEvPT_
FNDA:90,_ZN9__gnu_cxx13new_allocatorImE8allocateEmPKv
FNDA:0,_ZN9__gnu_cxx13new_allocatorISt6threadED2Ev
FNDA:42,_ZN9__gnu_cxx13new_allocatorIPSt8functionIFvvEEE10deallocateEPS4_m
FNDA:0,_ZN9__gnu_cxx13new_allocatorIcEC2ERKS1_
FNDA:24,_ZN9__gnu_cxx13new_allocatorISt6vectorIiSaIiEEEC2Ev
FNDA:18,_ZN9__gnu_cxx13new_allocatorISt10unique_ptrI12ActiveObjectSt14default_deleteIS2_EEEC2ERKS6_
FNDA:88,_ZN9__gnu_cxx13new_allocatorISt4pairIiiEE7destroyIS2_EEvPT_
FNDA:736,_ZN9__gnu_cxx13new_allocatorIiED2Ev
FNDA:50,_ZN9__gnu_cxx13new_allocatorISt23_Sp_counted_ptr_inplaceI13ThreadContextSaIS2_ELNS_12_Lock_policyE2EEE10deallocateEPS5_m
FNDA:12,_ZN9__gnu_cxx13new_allocatorISt8functionIFvvEEE9constructIS3_JRZ14handleCommandsiRSt6vectorISt10unique_ptrI12ActiveObjectSt14default_deleteIS8_EESaISB_EERS7_I5GraphS9_ISF_EER10MSTFactoryRS7_I4TreeS9_ISL_EEEUlvE2_EEEvPT_DpOT0_
FNDA:6,_ZN9__gnu_cxx13new_allocatorISt8functionIFvvEEE9constructIS3_JRZ14handleCommandsiRSt6vectorISt10unique_ptrI12ActiveObjectSt14default_deleteIS8_EESaISB_EERS7_I5GraphS9_ISF_EER10MSTFactoryRS7_I4TreeS9_ISL_EEEUlvE8_EEEvPT_DpOT0_
FNDA:168,_ZNK9__gnu_cxx13new_allocatorISt6vectorI4EdgeSaIS2_EEE8max_sizeEv
FNDA:331,_ZN9__gnu_cxx13new_allocatorI4EdgeED2Ev
FNDA:42,_ZN9__gnu_cxx13new_allocatorISt8functionIFvvEEEC2Ev
FNDA:5,_ZN9__gnu_cxx13new_allocatorISt10shared_ptrI13ThreadContextEE10deallocateEPS3_m
FNDA:16,_ZN9__gnu_cxx13new_allocatorISt4pairIiiEED2Ev
FNDA:210,_ZNK9__gnu_cxx13new_allocatorISt6vectorI4EdgeSaIS2_EEE11_M_max_sizeEv
FNDA:5,_ZN9__gnu_cxx13new_allocatorISt10shared_ptrI13ThreadContextEEC2Ev
FNDA:78,_ZNK9__gnu_cxx13new_allocatorISt4pairIiiEE11_M_max_sizeEv
FNDA:4,_ZN9__gnu_cxx13new_allocatorISt8functionIFvvEEE9constructIS3_JRZ14handleCommandsiRSt6vectorISt10unique_ptrI12ActiveObjectSt14default_deleteIS8_EESaISB_EERS7_I5GraphS9_ISF_EER10MSTFactoryRS7_I4TreeS9_ISL_EEEUlvE4_EEEvPT_DpOT0_
FNDA:24,_ZN9__gnu_cxx13new_allocatorISt10unique_ptrI12ActiveObjectSt14default_deleteIS2_EEE8allocateEmPKv
FNDA:5,_ZNK9__gnu_cxx13new_allocatorISt10shared_ptrI13ThreadContextEE8max_sizeEv
FNDA:34,_ZN9__gnu_cxx13new_allocatorISt8functionIFvvEEE9constructIS3_JRZ14handleCommandsiRSt6vectorISt10unique_ptrI12ActiveObjectSt14default_deleteIS8_EESaISB_EERS7_I5GraphS9_ISF_EER10MSTFactoryRS7_I4TreeS9_ISL_EEEUlvE0_EEEvPT_DpOT0_
FNDA:50,_ZN9__gnu_cxx13new_allocatorI13ThreadContextE9constructIS1_JEEEvPT_DpOT0_
FNDA:100,_ZN9__gnu_cxx13new_allocatorISt23_Sp_counted_ptr_inplaceI13ThreadContextSaIS2_ELNS_12_Lock_policyE2EEEC2Ev
FNDA:84,_ZN9__gnu_cxx13new_allocatorIPSt8functionIFvvEEEC2Ev
FNDA:5,_ZN9__gnu_cxx13new_allocatorISt13_Rb_tree_nodeISt4pairIKiSt8functionIFvvEEEEE10deallocateEPS8_m
FNDA:244,_ZNK9__gnu_cxx13new_allocatorIiE8max_sizeEv
FNDA:136,_ZN9__gnu_cxx13new_allocatorImEC2ERKS1_
FNDA:4,_ZN9__gnu_cxx13new_allocatorISt8functionIFvvEEE9constructIS3_JRZZ14handleCommandsiRSt6vectorISt10unique_ptrI12ActiveObjectSt14default_deleteIS8_EESaISB_EERS7_I5GraphS9_ISF_EER10MSTFactoryRS7_I4TreeS9_ISL_EEENKUlvE3_clEvEUlvE_EEEvPT_DpOT0_
FNDA:0,_ZN9__gnu_cxx13new_allocatorISt6vectorI4EdgeSaIS2_EEE9constructIS4_JS4_EEEvPT_DpOT0_
FNDA:16,_ZN9__gnu_cxx13new_allocatorISt8functionIFvvEEE9constructIS3_JRZ14handleCommandsiRSt6vectorISt10unique_ptrI12ActiveObjectSt14default_deleteIS8_EESaISB_EERS7_I5GraphS9_ISF_EER10MSTFactoryRS7_I4TreeS9_ISL_EEEUlvE3_EEEvPT_DpOT0_
FNDA:44,_ZN9__gnu_cxx13new_allocatorISt8functionIFvvEEE10deallocateEPS3_m
FNDA:5,_ZN9__gnu_cxx13new_allocatorISt13_Rb_tree_nodeISt4pairIKiSt8functionIFvvEEEEED2Ev
FNDA:5,_ZNK9__gnu_cxx13new_allocatorISt13_Rb_tree_nodeISt4pairIKiSt8functionIFvvEEEEE11_M_max_sizeEv
FNDA:5,_ZN9__gnu_cxx13new_allocatorISt13_Rb_tree_nodeISt4pairIKiSt8functionIFvvEEEEEC2Ev
FNDA:48,_ZNK9__gnu_cxx13new_allocatorISt6vectorIiSaIiEEE11_M_max_sizeEv
FNDA:10,_ZN9__gnu_cxx13new_allocatorImE9constructImJRKmEEEvPT_DpOT0_
FNDA:50,_ZN9__gnu_cxx13new_allocatorI13ThreadContextEC2Ev
FNDA:0,_ZN9__gnu_cxx13new_allocatorISt6vectorIiSaIiEEE7destroyIS3_EEvPT_
FNDA:100,_ZN9__gnu_cxx13new_allocatorI4EdgeE9constructIS1_JRKS1_EEEvPT_DpOT0_
FNDA:6,_ZN9__gnu_cxx13new_allocatorISt6threadEC2Ev
FNDA:44,_ZN9__gnu_cxx13new_allocatorISt8functionIFvvEEE8allocateEmPKv
FNDA:4,_ZN9__gnu_cxx13new_allocatorISt8functionIFvvEEE9constructIS3_JRZ14handleCommandsiRSt6vectorISt10unique_ptrI12ActiveObjectSt14default_deleteIS8_EESaISB_EERS7_I5GraphS9_ISF_EER10MSTFactoryRS7_I4TreeS9_ISL_EEEUlvE10_EEEvPT_DpOT0_
FNDA:32,_ZNK9__gnu_cxx13new_allocatorISt6vectorIiSaIiEEE8max_sizeEv
FNDA:5,_ZN9__gnu_cxx13new_allocatorISt13_Rb_tree_nodeISt4pairIKiSt8functionIFvvEEEEE8allocateEmPKv
FNDA:16,_ZN9__gnu_cxx13new_allocatorISt4pairIiiEEC2Ev
FNDA:1302,_ZNK9__gnu_cxx13new_allocatorI4EdgeE11_M_max_sizeEv
FNDA:50,_ZN9__gnu_cxx13new_allocatorISt23_Sp_counted_ptr_inplaceI13ThreadContextSaIS2_ELNS_12_Lock_policyE2EEE8allocateEmPKv
FNDA:322,_ZN9__gnu_cxx13new_allocatorIiE10deallocateEPim
FNDA:100,_ZN9__gnu_cxx13new_allocatorISt23_Sp_counted_ptr_inplaceI13ThreadContextSaIS2_ELNS_12_Lock_policyE2EEED2Ev
FNDA:84,_ZN9__gnu_cxx13new_allocatorIPSt8functionIFvvEEED2Ev
FNDA:46,_ZNK9__gnu_cxx13new_allocatorISt8functionIFvvEEE11_M_max_sizeEv
FNDA:80,_ZN9__gnu_cxx13new_allocatorIbED2Ev
FNDA:0,_ZN9__gnu_cxx13new_allocatorIcEC2Ev
FNDA:42,_ZN9__gnu_cxx13new_allocatorISt6vectorI4EdgeSaIS2_EEE8allocateEmPKv
FNF:118
FNH:109
DA:79,957
DA:82,970
DA:89,1909
DA:103,1132
DA:111,1132
DA:115,0
DA:116,0
DA:117,0
DA:127,1132
DA:132,1132
DA:145,1132
DA:154,1417
DA:155,1417
DA:160,875
DA:162,875
DA:166,327
DA:168,327
DA:197,2549
DA:200,2549
LF:19
LH:16
end_of_record
TN:
SF:/usr/include/c++/11/ext/string_conversions.h
FN:99,_ZN9__gnu_cxx12__to_xstringINSt7__cxx1112basic_stringIcSt11char_traitsIcESaIcEEEcEET_PFiPT0_mPKS8_P13__va_list_tagEmSB_z
FNDA:16,_ZN9__gnu_cxx12__to_xstringINSt7__cxx1112basic_stringIcSt11char_traitsIcESaIcEEEcEET_PFiPT0_mPKS8_P13__va_list_tagEmSB_z
FNF:1
FNH:1
DA:99,16
DA:105,16
DA:109,16
DA:111,16
DA:113,16
DA:115,16
LF:6
LH:6
end_of_record
TN:
SF:/usr/include/c++/11/ext/type_traits.h
FN:152,_ZN9__gnu_cxx17__is_null_pointerIKcEEbPT_
FN:152,_ZN9__gnu_cxx17__is_null_pointerIcEEbPT_
FNDA:370,_ZN9__gnu_cxx17__is_null_pointerIKcEEbPT_
FNDA:142,_ZN9__gnu_cxx17__is_null_pointerIcEEbPT_
FNF:2
FNH:2
DA:152,512
DA:153,512
LF:2
LH:2
end_of_record
TN:
SF:/usr/include/c++/11/functional
FN:382,_ZNVKSt3_MuImLb0ELb0EEclIRmSt5tupleIJEEEEOT_S6_RT0_
FN:382,_ZNVKSt3_MuIP12LFThreadPoolLb0ELb0EEclIRS1_St5tupleIJEEEEOT_S8_RT0_
FN:418,_ZNSt5_BindIFM12LFThreadPoolFviEPS0_mEE6__callIvJEJLm0ELm1EEEET_OSt5tupleIJDpT0_EESt12_Index_tupleIJXspT1_EEE
FN:489,_ZNSt5_BindIFM12LFThreadPoolFviEPS0_mEEC2IJS3_RmEEEOS2_DpOT_
FN:494,_ZNSt5_BindIFM12LFThreadPoolFviEPS0_mEEC2EOS5_
FN:501,_ZNSt5_BindIFM12LFThreadPoolFviEPS0_mEEclIJEvEET0_DpOT_
FN:789,_ZSt4bindIM12LFThreadPoolFviEJPS0_RmEENSt12_Bind_helperIXsrSt5__or_IJSt11is_integralINSt5decayIT_E4typeEESt7is_enumISB_EEE5valueES9_JDpT0_EE4typeEOS9_DpOSG_
FNDA:50,_ZNSt5_BindIFM12LFThreadPoolFviEPS0_mEE6__callIvJEJLm0ELm1EEEET_OSt5tupleIJDpT0_EESt12_Index_tupleIJXspT1_EEE
FNDA:50,_ZSt4bindIM12LFThreadPoolFviEJPS0_RmEENSt12_Bind_helperIXsrSt5__or_IJSt11is_integralINSt5decayIT_E4typeEESt7is_enumISB_EEE5valueES9_JDpT0_EE4typeEOS9_DpOSG_
FNDA:50,_ZNVKSt3_MuImLb0ELb0EEclIRmSt5tupleIJEEEEOT_S6_RT0_
FNDA:50,_ZNSt5_BindIFM12LFThreadPoolFviEPS0_mEEC2EOS5_
FNDA:50,_ZNVKSt3_MuIP12LFThreadPoolLb0ELb0EEclIRS1_St5tupleIJEEEEOT_S8_RT0_
FNDA:50,_ZNSt5_BindIFM12LFThreadPoolFviEPS0_mEEC2IJS3_RmEEEOS2_DpOT_
FNDA:50,_ZNSt5_BindIFM12LFThreadPoolFviEPS0_mEEclIJEvEET0_DpOT_
FNF:7
FNH:7
DA:382,100
DA:383,100
DA:418,50
DA:420,100
DA:421,105
DA:422,45
DA:489,50
DA:490,50
DA:491,50
DA:494,50
DA:501,50
DA:503,50
DA:504,50
DA:505,45
DA:789,50
DA:793,50
LF:16
LH:16
end_of_record
TN:
SF:/usr/include/c++/11/new
FN:174,_ZnwmPv
FN:180,_ZdlPvS_
FNDA:0,_ZdlPvS_
FNDA:1255,_ZnwmPv
FNF:2
FNH:1
DA:174,1255
DA:175,1255
DA:180,0
LF:3
LH:2
end_of_record
TN:
SF:/usr/include/c++/11/thread
FN:92,_ZStlsIcSt11char_traitsIcEERSt13basic_ostreamIT_T0_ES6_NSt6thread2idE
FNDA:24,_ZStlsIcSt11char_traitsIcEERSt13basic_ostreamIT_T0_ES6_NSt6thread2idE
FNF:1
FNH:1
DA:92,24
DA:94,24
DA:95,0
DA:97,24
LF:4
LH:3
end_of_record
TN:
SF:/usr/include/c++/11/tuple
FN:80,_ZNSt10_Head_baseILm1ESt14default_deleteI12LFThreadPoolELb1EEC2Ev
FN:80,_ZNSt10_Head_baseILm1ESt14default_deleteI4TreeELb1EEC2Ev
FN:80,_ZNSt10_Head_baseILm1ESt14default_deleteINSt6thread6_StateEELb1EEC2Ev
FN:80,_ZNSt10_Head_baseILm1ESt14default_deleteI9functArgsELb1EEC2Ev
FN:80,_ZNSt10_Head_baseILm1ESt14default_deleteI12ActiveObjectELb1EEC2Ev
FN:80,_ZNSt10_Head_baseILm1ESt14default_deleteI11MSTStrategyELb1EEC2Ev
FN:80,_ZNSt10_Head_baseILm1ESt14default_deleteI7ReactorELb1EEC2Ev
FN:80,_ZNSt10_Head_baseILm1ESt14default_deleteI5GraphELb1EEC2Ev
FN:80,_ZNSt10_Head_baseILm1ESt14default_deleteISt8functionIFvvEEELb1EEC2Ev
FN:124,_ZNSt10_Head_baseILm1ESt14default_deleteISt8functionIFvvEEELb1EE7_M_headERS5_
FN:124,_ZNSt10_Head_baseILm1ESt14default_deleteI12LFThreadPoolELb1EE7_M_headERS3_
FN:124,_ZNSt10_Head_baseILm1ESt14default_deleteI9functArgsELb1EE7_M_headERS3_
FN:124,_ZNSt10_Head_baseILm1ESt14default_deleteINSt6thread6_StateEELb1EE7_M_headERS4_
FN:124,_ZNSt10_Head_baseILm1ESt14default_deleteI12ActiveObjectELb1EE7_M_headERS3_
FN:124,_ZNSt10_Head_baseILm1ESt14default_deleteI7ReactorELb1EE7_M_headERS3_
FN:124,_ZNSt10_Head_baseILm1ESt14default_deleteI5GraphELb1EE7_M_headERS3_
FN:124,_ZNSt10_Head_baseILm1ESt14default_deleteI4TreeELb1EE7_M_headERS3_
FN:124,_ZNSt10_Head_baseILm1ESt14default_deleteI11MSTStrategyELb1EE7_M_headERS3_
FN:189,_ZNSt10_Head_baseILm0EP9functArgsLb0EEC2Ev
FN:189,_ZNSt10_Head_baseILm0EPNSt6thread6_StateELb0EEC2Ev
FN:189,_ZNSt10_Head_baseILm0EPSt8functionIFvvEELb0EEC2Ev
FN:189,_ZNSt10_Head_baseILm0EP12LFThreadPoolLb0EEC2Ev
FN:189,_ZNSt10_Head_baseILm0EP4TreeLb0EEC2Ev
FN:189,_ZNSt10_Head_baseILm0EP12ActiveObjectLb0EEC2Ev
FN:189,_ZNSt10_Head_baseILm0EP5GraphLb0EEC2Ev
FN:189,_ZNSt10_Head_baseILm0EP7ReactorLb0EEC2Ev
FN:189,_ZNSt10_Head_baseILm0EP11MSTStrategyLb0EEC2Ev
FN:192,_ZNSt10_Head_baseILm0ERKiLb0EEC2ES1_
FN:199,_ZNSt10_Head_baseILm1EP12ActiveObjectLb0EEC2IS1_EEOT_
FN:199,_ZNSt10_Head_baseILm1EmLb0EEC2IRmEEOT_
FN:199,_ZNSt10_Head_baseILm0EP12LFThreadPoolLb0EEC2IS1_EEOT_
FN:199,_ZNSt10_Head_baseILm0EM12ActiveObjectFvvELb0EEC2IS2_EEOT_
FN:233,_ZNSt10_Head_baseILm0EP11MSTStrategyLb0EE7_M_headERS2_
FN:233,_ZNSt10_Head_baseILm0ERKiLb0EE7_M_headERS2_
FN:233,_ZNSt10_Head_baseILm0EP5GraphLb0EE7_M_headERS2_
FN:233,_ZNSt10_Head_baseILm0EP4TreeLb0EE7_M_headERS2_
FN:233,_ZNSt10_Head_baseILm0EP12LFThreadPoolLb0EE7_M_headERS2_
FN:233,_ZNSt10_Head_baseILm0EP12ActiveObjectLb0EE7_M_headERS2_
FN:233,_ZNSt10_Head_baseILm0EPSt8functionIFvvEELb0EE7_M_headERS4_
FN:233,_ZNSt10_Head_baseILm0EM12ActiveObjectFvvELb0EE7_M_headERS3_
FN:233,_ZNSt10_Head_baseILm0EPNSt6thread6_StateELb0EE7_M_headERS3_
FN:233,_ZNSt10_Head_baseILm1EP12ActiveObjectLb0EE7_M_headERS2_
FN:233,_ZNSt10_Head_baseILm0EP9functArgsLb0EE7_M_headERS2_
FN:233,_ZNSt10_Head_baseILm1EmLb0EE7_M_headERS0_
FN:233,_ZNSt10_Head_baseILm0EP7ReactorLb0EE7_M_headERS2_
FN:236,_ZNSt10_Head_baseILm0EP11MSTStrategyLb0EE7_M_headERKS2_
FN:236,_ZNSt10_Head_baseILm0EP7ReactorLb0EE7_M_headERKS2_
FN:236,_ZNSt10_Head_baseILm0EP12LFThreadPoolLb0EE7_M_headERKS2_
FN:236,_ZNSt10_Head_baseILm0EP12ActiveObjectLb0EE7_M_headERKS2_
FN:236,_ZNSt10_Head_baseILm0EPSt8functionIFvvEELb0EE7_M_headERKS4_
FN:236,_ZNSt10_Head_baseILm0EP4TreeLb0EE7_M_headERKS2_
FN:236,_ZNSt10_Head_baseILm0EP5GraphLb0EE7_M_headERKS2_
FN:236,_ZNSt10_Head_baseILm0EP9functArgsLb0EE7_M_headERKS2_
FN:268,_ZNSt11_Tuple_implILm0EJP4TreeSt14default_deleteIS0_EEE7_M_headERS4_
FN:268,_ZNSt11_Tuple_implILm0EJP5GraphSt14default_deleteIS0_EEE7_M_headERS4_
FN:268,_ZNSt11_Tuple_implILm0EJP9functArgsSt14default_deleteIS0_EEE7_M_headERS4_
FN:268,_ZNSt11_Tuple_implILm0EJM12ActiveObjectFvvEPS0_EE7_M_headERS4_
FN:268,_ZNSt11_Tuple_implILm0EJP11MSTStrategySt14default_deleteIS0_EEE7_M_headERS4_
FN:268,_ZNSt11_Tuple_implILm0EJP12LFThreadPoolSt14default_deleteIS0_EEE7_M_headERS4_
FN:268,_ZNSt11_Tuple_implILm0EJP7ReactorSt14default_deleteIS0_EEE7_M_headERS4_
FN:268,_ZNSt11_Tuple_implILm0EJP12ActiveObjectSt14default_deleteIS0_EEE7_M_headERS4_
FN:268,_ZNSt11_Tuple_implILm0EJPSt8functionIFvvEESt14default_deleteIS2_EEE7_M_headERS6_
FN:268,_ZNSt11_Tuple_implILm0EJPNSt6thread6_StateESt14default_deleteIS1_EEE7_M_headERS5_
FN:268,_ZNSt11_Tuple_implILm0EJP12LFThreadPoolmEE7_M_headERS2_
FN:271,_ZNSt11_Tuple_implILm0EJP12ActiveObjectSt14default_deleteIS0_EEE7_M_headERKS4_
FN:271,_ZNSt11_Tuple_implILm0EJP5GraphSt14default_deleteIS0_EEE7_M_headERKS4_
FN:271,_ZNSt11_Tuple_implILm0EJP11MSTStrategySt14default_deleteIS0_EEE7_M_headERKS4_
FN:271,_ZNSt11_Tuple_implILm0EJP9functArgsSt14default_deleteIS0_EEE7_M_headERKS4_
FN:271,_ZNSt11_Tuple_implILm0EJP12LFThreadPoolSt14default_deleteIS0_EEE7_M_headERKS4_
FN:271,_ZNSt11_Tuple_implILm0EJP7ReactorSt14default_deleteIS0_EEE7_M_headERKS4_
FN:271,_ZNSt11_Tuple_implILm0EJP4TreeSt14default_deleteIS0_EEE7_M_headERKS4_
FN:271,_ZNSt11_Tuple_implILm0EJPSt8functionIFvvEESt14default_deleteIS2_EEE7_M_headERKS6_
FN:279,_ZNSt11_Tuple_implILm0EJPSt8functionIFvvEESt14default_deleteIS2_EEEC2Ev
FN:279,_ZNSt11_Tuple_implILm0EJP7ReactorSt14default_deleteIS0_EEEC2Ev
FN:279,_ZNSt11_Tuple_implILm0EJPNSt6thread6_StateESt14default_deleteIS1_EEEC2Ev
FN:279,_ZNSt11_Tuple_implILm0EJP11MSTStrategySt14default_deleteIS0_EEEC2Ev
FN:279,_ZNSt11_Tuple_implILm0EJP12LFThreadPoolSt14default_deleteIS0_EEEC2Ev
FN:279,_ZNSt11_Tuple_implILm0EJP9functArgsSt14default_deleteIS0_EEEC2Ev
FN:279,_ZNSt11_Tuple_implILm0EJP4TreeSt14default_deleteIS0_EEEC2Ev
FN:279,_ZNSt11_Tuple_implILm0EJP12ActiveObjectSt14default_deleteIS0_EEEC2Ev
FN:279,_ZNSt11_Tuple_implILm0EJP5GraphSt14default_deleteIS0_EEEC2Ev
FN:290,_ZNSt11_Tuple_implILm0EJP12LFThreadPoolmEEC2IS1_JRmEvEEOT_DpOT0_
FN:290,_ZNSt11_Tuple_implILm0EJM12ActiveObjectFvvEPS0_EEC2IS2_JS3_EvEEOT_DpOT0_
FN:301,_ZNSt11_Tuple_implILm0EJP12LFThreadPoolmEEC2EOS2_
FN:301,_ZNSt11_Tuple_implILm0EJP12ActiveObjectSt14default_deleteIS0_EEEC2EOS4_
FN:424,_ZNSt11_Tuple_implILm1EJmEE7_M_headERS0_
FN:424,_ZNSt11_Tuple_implILm1EJSt14default_deleteI11MSTStrategyEEE7_M_headERS3_
FN:424,_ZNSt11_Tuple_implILm1EJSt14default_deleteI5GraphEEE7_M_headERS3_
FN:424,_ZNSt11_Tuple_implILm1EJSt14default_deleteI4TreeEEE7_M_headERS3_
FN:424,_ZNSt11_Tuple_implILm1EJSt14default_deleteI12LFThreadPoolEEE7_M_headERS3_
FN:424,_ZNSt11_Tuple_implILm1EJP12ActiveObjectEE7_M_headERS2_
FN:424,_ZNSt11_Tuple_implILm1EJSt14default_deleteISt8functionIFvvEEEEE7_M_headERS5_
FN:424,_ZNSt11_Tuple_implILm1EJSt14default_deleteI9functArgsEEE7_M_headERS3_
FN:424,_ZNSt11_Tuple_implILm1EJSt14default_deleteINSt6thread6_StateEEEE7_M_headERS4_
FN:424,_ZNSt11_Tuple_implILm1EJSt14default_deleteI12ActiveObjectEEE7_M_headERS3_
FN:424,_ZNSt11_Tuple_implILm0EJRKiEE7_M_headERS2_
FN:424,_ZNSt11_Tuple_implILm1EJSt14default_deleteI7ReactorEEE7_M_headERS3_
FN:430,_ZNSt11_Tuple_implILm1EJSt14default_deleteI4TreeEEEC2Ev
FN:430,_ZNSt11_Tuple_implILm1EJSt14default_deleteI9functArgsEEEC2Ev
FN:430,_ZNSt11_Tuple_implILm1EJSt14default_deleteISt8functionIFvvEEEEEC2Ev
FN:430,_ZNSt11_Tuple_implILm1EJSt14default_deleteI5GraphEEEC2Ev
FN:430,_ZNSt11_Tuple_implILm1EJSt14default_deleteI12LFThreadPoolEEEC2Ev
FN:430,_ZNSt11_Tuple_implILm1EJSt14default_deleteI7ReactorEEEC2Ev
FN:430,_ZNSt11_Tuple_implILm1EJSt14default_deleteI11MSTStrategyEEEC2Ev
FN:430,_ZNSt11_Tuple_implILm1EJSt14default_deleteI12ActiveObjectEEEC2Ev
FN:430,_ZNSt11_Tuple_implILm1EJSt14default_deleteINSt6thread6_StateEEEEC2Ev
FN:434,_ZNSt11_Tuple_implILm0EJRKiEEC2ES1_
FN:440,_ZNSt11_Tuple_implILm1EJmEEC2IRmEEOT_
FN:440,_ZNSt11_Tuple_implILm1EJP12ActiveObjectEEC2IS1_EEOT_
FN:454,_ZNSt11_Tuple_implILm1EJSt14default_deleteI12ActiveObjectEEEC2EOS3_
FN:454,_ZNSt11_Tuple_implILm0EJRKiEEC2EOS2_
FN:454,_ZNSt11_Tuple_implILm1EJmEEC2EOS0_
FN:727,_ZNSt5tupleIJRKiEEC2ILb1ELb1EEES1_
FN:756,_ZNSt5tupleIJRKiEEC2EOS2_
FN:1049,_ZNSt5tupleIJP11MSTStrategySt14default_deleteIS0_EEEC2ILb1ELb1EEEv
FN:1049,_ZNSt5tupleIJP5GraphSt14default_deleteIS0_EEEC1ILb1ELb1EEEv
FN:1049,_ZNSt5tupleIJPSt8functionIFvvEESt14default_deleteIS2_EEEC2ILb1ELb1EEEv
FN:1049,_ZNSt5tupleIJP7ReactorSt14default_deleteIS0_EEEC2ILb1ELb1EEEv
FN:1049,_ZNSt5tupleIJP12ActiveObjectSt14default_deleteIS0_EEEC2ILb1ELb1EEEv
FN:1049,_ZNSt5tupleIJP9functArgsSt14default_deleteIS0_EEEC1ILb1ELb1EEEv
FN:1049,_ZNSt5tupleIJPNSt6thread6_StateESt14default_deleteIS1_EEEC2ILb1ELb1EEEv
FN:1049,_ZNSt5tupleIJP12LFThreadPoolSt14default_deleteIS0_EEEC1ILb1ELb1EEEv
FN:1049,_ZNSt5tupleIJP4TreeSt14default_deleteIS0_EEEC2ILb1ELb1EEEv
FN:1077,_ZNSt5tupleIJP12LFThreadPoolmEEC2IS1_RmLb1EEEOT_OT0_
FN:1077,_ZNSt5tupleIJM12ActiveObjectFvvEPS0_EEC2IS2_S3_Lb1EEEOT_OT0_
FN:1090,_ZNSt5tupleIJP12ActiveObjectSt14default_deleteIS0_EEEC2EOS4_
FN:1090,_ZNSt5tupleIJP12LFThreadPoolmEEC2EOS2_
FN:1377,_ZSt12__get_helperILm1ESt14default_deleteI9functArgsEJEERT0_RSt11_Tuple_implIXT_EJS3_DpT1_EE
FN:1377,_ZSt12__get_helperILm1ESt14default_deleteI4TreeEJEERT0_RSt11_Tuple_implIXT_EJS3_DpT1_EE
FN:1377,_ZSt12__get_helperILm1ESt14default_deleteINSt6thread6_StateEEJEERT0_RSt11_Tuple_implIXT_EJS4_DpT1_EE
FN:1377,_ZSt12__get_helperILm0ERKiJEERT0_RSt11_Tuple_implIXT_EJS2_DpT1_EE
FN:1377,_ZSt12__get_helperILm0EP4TreeJSt14default_deleteIS0_EEERT0_RSt11_Tuple_implIXT_EJS4_DpT1_EE
FN:1377,_ZSt12__get_helperILm1ESt14default_deleteI12LFThreadPoolEJEERT0_RSt11_Tuple_implIXT_EJS3_DpT1_EE
FN:1377,_ZSt12__get_helperILm1EP12ActiveObjectJEERT0_RSt11_Tuple_implIXT_EJS2_DpT1_EE
FN:1377,_ZSt12__get_helperILm0EP7ReactorJSt14default_deleteIS0_EEERT0_RSt11_Tuple_implIXT_EJS4_DpT1_EE
FN:1377,_ZSt12__get_helperILm1ESt14default_deleteI12ActiveObjectEJEERT0_RSt11_Tuple_implIXT_EJS3_DpT1_EE
FN:1377,_ZSt12__get_helperILm1ESt14default_deleteI11MSTStrategyEJEERT0_RSt11_Tuple_implIXT_EJS3_DpT1_EE
FN:1377,_ZSt12__get_helperILm1ESt14default_deleteI7ReactorEJEERT0_RSt11_Tuple_implIXT_EJS3_DpT1_EE
FN:1377,_ZSt12__get_helperILm0EP5GraphJSt14default_deleteIS0_EEERT0_RSt11_Tuple_implIXT_EJS4_DpT1_EE
FN:1377,_ZSt12__get_helperILm1ESt14default_deleteI5GraphEJEERT0_RSt11_Tuple_implIXT_EJS3_DpT1_EE
FN:1377,_ZSt12__get_helperILm0EPNSt6thread6_StateEJSt14default_deleteIS1_EEERT0_RSt11_Tuple_implIXT_EJS5_DpT1_EE
FN:1377,_ZSt12__get_helperILm0EP11MSTStrategyJSt14default_deleteIS0_EEERT0_RSt11_Tuple_implIXT_EJS4_DpT1_EE
FN:1377,_ZSt12__get_helperILm0EM12ActiveObjectFvvEJPS0_EERT0_RSt11_Tuple_implIXT_EJS4_DpT1_EE
FN:1377,_ZSt12__get_helperILm1EmJEERT0_RSt11_Tuple_implIXT_EJS0_DpT1_EE
FN:1377,_ZSt12__get_helperILm0EP12ActiveObjectJSt14default_deleteIS0_EEERT0_RSt11_Tuple_implIXT_EJS4_DpT1_EE
FN:1377,_ZSt12__get_helperILm0EP12LFThreadPoolJmEERT0_RSt11_Tuple_implIXT_EJS2_DpT1_EE
FN:1377,_ZSt12__get_helperILm0EP9functArgsJSt14default_deleteIS0_EEERT0_RSt11_Tuple_implIXT_EJS4_DpT1_EE
FN:1377,_ZSt12__get_helperILm0EP12LFThreadPoolJSt14default_deleteIS0_EEERT0_RSt11_Tuple_implIXT_EJS4_DpT1_EE
FN:1377,_ZSt12__get_helperILm1ESt14default_deleteISt8functionIFvvEEEJEERT0_RSt11_Tuple_implIXT_EJS5_DpT1_EE
FN:1377,_ZSt12__get_helperILm0EPSt8functionIFvvEEJSt14default_deleteIS2_EEERT0_RSt11_Tuple_implIXT_EJS6_DpT1_EE
FN:1382,_ZSt12__get_helperILm0EP12ActiveObjectJSt14default_deleteIS0_EEERKT0_RKSt11_Tuple_implIXT_EJS4_DpT1_EE
FN:1382,_ZSt12__get_helperILm0EP7ReactorJSt14default_deleteIS0_EEERKT0_RKSt11_Tuple_implIXT_EJS4_DpT1_EE
FN:1382,_ZSt12__get_helperILm0EP11MSTStrategyJSt14default_deleteIS0_EEERKT0_RKSt11_Tuple_implIXT_EJS4_DpT1_EE
FN:1382,_ZSt12__get_helperILm0EP12LFThreadPoolJSt14default_deleteIS0_EEERKT0_RKSt11_Tuple_implIXT_EJS4_DpT1_EE
FN:1382,_ZSt12__get_helperILm0EPSt8functionIFvvEEJSt14default_deleteIS2_EEERKT0_RKSt11_Tuple_implIXT_EJS6_DpT1_EE
FN:1382,_ZSt12__get_helperILm0EP5GraphJSt14default_deleteIS0_EEERKT0_RKSt11_Tuple_implIXT_EJS4_DpT1_EE
FN:1382,_ZSt12__get_helperILm0EP4TreeJSt14default_deleteIS0_EEERKT0_RKSt11_Tuple_implIXT_EJS4_DpT1_EE
FN:1382,_ZSt12__get_helperILm0EP9functArgsJSt14default_deleteIS0_EEERKT0_RKSt11_Tuple_implIXT_EJS4_DpT1_EE
FN:1393,_ZSt3getILm1EJP11MSTStrategySt14default_deleteIS0_EEERNSt13tuple_elementIXT_ESt5tupleIJDpT0_EEE4typeERS8_
FN:1393,_ZSt3getILm0EJP12LFThreadPoolSt14default_deleteIS0_EEERNSt13tuple_elementIXT_ESt5tupleIJDpT0_EEE4typeERS8_
FN:1393,_ZSt3getILm0EJP5GraphSt14default_deleteIS0_EEERNSt13tuple_elementIXT_ESt5tupleIJDpT0_EEE4typeERS8_
FN:1393,_ZSt3getILm1EJP5GraphSt14default_deleteIS0_EEERNSt13tuple_elementIXT_ESt5tupleIJDpT0_EEE4typeERS8_
FN:1393,_ZSt3getILm1EJPNSt6thread6_StateESt14default_deleteIS1_EEERNSt13tuple_elementIXT_ESt5tupleIJDpT0_EEE4typeERS9_
FN:1393,_ZSt3getILm0EJP7ReactorSt14default_deleteIS0_EEERNSt13tuple_elementIXT_ESt5tupleIJDpT0_EEE4typeERS8_
FN:1393,_ZSt3getILm0EJP4TreeSt14default_deleteIS0_EEERNSt13tuple_elementIXT_ESt5tupleIJDpT0_EEE4typeERS8_
FN:1393,_ZSt3getILm0EJRKiEERNSt13tuple_elementIXT_ESt5tupleIJDpT0_EEE4typeERS6_
FN:1393,_ZSt3getILm1EJP4TreeSt14default_deleteIS0_EEERNSt13tuple_elementIXT_ESt5tupleIJDpT0_EEE4typeERS8_
FN:1393,_ZSt3getILm1EJP12LFThreadPoolmEERNSt13tuple_elementIXT_ESt5tupleIJDpT0_EEE4typeERS6_
FN:1393,_ZSt3getILm1EJP9functArgsSt14default_deleteIS0_EEERNSt13tuple_elementIXT_ESt5tupleIJDpT0_EEE4typeERS8_
FN:1393,_ZSt3getILm0EJP11MSTStrategySt14default_deleteIS0_EEERNSt13tuple_elementIXT_ESt5tupleIJDpT0_EEE4typeERS8_
FN:1393,_ZSt3getILm1EJP12LFThreadPoolSt14default_deleteIS0_EEERNSt13tuple_elementIXT_ESt5tupleIJDpT0_EEE4typeERS8_
FN:1393,_ZSt3getILm1EJP12ActiveObjectSt14default_deleteIS0_EEERNSt13tuple_elementIXT_ESt5tupleIJDpT0_EEE4typeERS8_
FN:1393,_ZSt3getILm0EJPNSt6thread6_StateESt14default_deleteIS1_EEERNSt13tuple_elementIXT_ESt5tupleIJDpT0_EEE4typeERS9_
FN:1393,_ZSt3getILm0EJP12LFThreadPoolmEERNSt13tuple_elementIXT_ESt5tupleIJDpT0_EEE4typeERS6_
FN:1393,_ZSt3getILm0EJPSt8functionIFvvEESt14default_deleteIS2_EEERNSt13tuple_elementIXT_ESt5tupleIJDpT0_EEE4typeERSA_
FN:1393,_ZSt3getILm1EJPSt8functionIFvvEESt14default_deleteIS2_EEERNSt13tuple_elementIXT_ESt5tupleIJDpT0_EEE4typeERSA_
FN:1393,_ZSt3getILm0EJP9functArgsSt14default_deleteIS0_EEERNSt13tuple_elementIXT_ESt5tupleIJDpT0_EEE4typeERS8_
FN:1393,_ZSt3getILm0EJP12ActiveObjectSt14default_deleteIS0_EEERNSt13tuple_elementIXT_ESt5tupleIJDpT0_EEE4typeERS8_
FN:1393,_ZSt3getILm1EJP7ReactorSt14default_deleteIS0_EEERNSt13tuple_elementIXT_ESt5tupleIJDpT0_EEE4typeERS8_
FN:1399,_ZSt3getILm0EJP5GraphSt14default_deleteIS0_EEERKNSt13tuple_elementIXT_ESt5tupleIJDpT0_EEE4typeERKS8_
FN:1399,_ZSt3getILm0EJPSt8functionIFvvEESt14default_deleteIS2_EEERKNSt13tuple_elementIXT_ESt5tupleIJDpT0_EEE4typeERKSA_
FN:1399,_ZSt3getILm0EJP9functArgsSt14default_deleteIS0_EEERKNSt13tuple_elementIXT_ESt5tupleIJDpT0_EEE4typeERKS8_
FN:1399,_ZSt3getILm0EJP12ActiveObjectSt14default_deleteIS0_EEERKNSt13tuple_elementIXT_ESt5tupleIJDpT0_EEE4typeERKS8_
FN:1399,_ZSt3getILm0EJP7ReactorSt14default_deleteIS0_EEERKNSt13tuple_elementIXT_ESt5tupleIJDpT0_EEE4typeERKS8_
FN:1399,_ZSt3getILm0EJP12LFThreadPoolSt14default_deleteIS0_EEERKNSt13tuple_elementIXT_ESt5tupleIJDpT0_EEE4typeERKS8_
FN:1399,_ZSt3getILm0EJP11MSTStrategySt14default_deleteIS0_EEERKNSt13tuple_elementIXT_ESt5tupleIJDpT0_EEE4typeERKS8_
FN:1399,_ZSt3getILm0EJP4TreeSt14default_deleteIS0_EEERKNSt13tuple_elementIXT_ESt5tupleIJDpT0_EEE4typeERKS8_
FN:1405,_ZSt3getILm0EJM12ActiveObjectFvvEPS0_EEONSt13tuple_elementIXT_ESt5tupleIJDpT0_EEE4typeEOS8_
FN:1405,_ZSt3getILm1EJM12ActiveObjectFvvEPS0_EEONSt13tuple_elementIXT_ESt5tupleIJDpT0_EEE4typeEOS8_
FN:1617,_ZSt16forward_as_tupleIJEESt5tupleIJDpOT_EES3_
FN:1804,_ZNSt4pairIKiSt8functionIFvvEEEC2IJRS0_EJEEESt21piecewise_construct_tSt5tupleIJDpT_EES8_IJDpT0_EE
FN:1816,_ZNSt4pairIKiSt8functionIFvvEEEC2IJRS0_EJLm0EEJEJEEERSt5tupleIJDpT_EERS7_IJDpT1_EESt12_Index_tupleIJXspT0_EEESG_IJXspT2_EEE
FNDA:42,_ZNSt5tupleIJM12ActiveObjectFvvEPS0_EEC2IS2_S3_Lb1EEEOT_OT0_
FNDA:5,_ZSt12__get_helperILm0ERKiJEERT0_RSt11_Tuple_implIXT_EJS2_DpT1_EE
FNDA:5,_ZNSt11_Tuple_implILm0EJP7ReactorSt14default_deleteIS0_EEEC2Ev
FNDA:24,_ZNSt11_Tuple_implILm1EJSt14default_deleteI4TreeEEEC2Ev
FNDA:10,_ZSt12__get_helperILm0EP7ReactorJSt14default_deleteIS0_EEERKT0_RKSt11_Tuple_implIXT_EJS4_DpT1_EE
FNDA:42,_ZNSt11_Tuple_implILm0EJM12ActiveObjectFvvEPS0_EE7_M_headERS4_
FNDA:72,_ZNSt11_Tuple_implILm0EJP9functArgsSt14default_deleteIS0_EEE7_M_headERS4_
FNDA:0,_ZSt3getILm1EJPNSt6thread6_StateESt14default_deleteIS1_EEERNSt13tuple_elementIXT_ESt5tupleIJDpT0_EEE4typeERS9_
FNDA:5,_ZNSt10_Head_baseILm0EP12LFThreadPoolLb0EEC2Ev
FNDA:0,_ZSt12__get_helperILm1ESt14default_deleteINSt6thread6_StateEEJEERT0_RSt11_Tuple_implIXT_EJS4_DpT1_EE
FNDA:24,_ZNSt10_Head_baseILm0EP4TreeLb0EEC2Ev
FNDA:15,_ZSt12__get_helperILm0EP7ReactorJSt14default_deleteIS0_EEERT0_RSt11_Tuple_implIXT_EJS4_DpT1_EE
FNDA:72,_ZNSt11_Tuple_implILm1EJSt14default_deleteI11MSTStrategyEEE7_M_headERS3_
FNDA:42,_ZSt12__get_helperILm1ESt14default_deleteI12ActiveObjectEJEERT0_RSt11_Tuple_implIXT_EJS3_DpT1_EE
FNDA:262,_ZSt3getILm0EJP4TreeSt14default_deleteIS0_EEERNSt13tuple_elementIXT_ESt5tupleIJDpT0_EEE4typeERS8_
FNDA:15,_ZSt12__get_helperILm1ESt14default_deleteI12LFThreadPoolEJEERT0_RSt11_Tuple_implIXT_EJS3_DpT1_EE
FNDA:42,_ZNSt10_Head_baseILm1ESt14default_deleteINSt6thread6_StateEELb1EEC2Ev
FNDA:42,_ZSt12__get_helperILm1EP12ActiveObjectJEERT0_RSt11_Tuple_implIXT_EJS2_DpT1_EE
FNDA:336,_ZNSt10_Head_baseILm0EP12ActiveObjectLb0EE7_M_headERS2_
FNDA:42,_ZNSt11_Tuple_implILm0EJPNSt6thread6_StateESt14default_deleteIS1_EEEC2Ev
FNDA:15,_ZNSt10_Head_baseILm1ESt14default_deleteI12LFThreadPoolELb1EE7_M_headERS3_
FNDA:10,_ZNSt11_Tuple_implILm1EJSt14default_deleteI9functArgsEEEC2Ev
FNDA:15,_ZSt3getILm0EJP7ReactorSt14default_deleteIS0_EEERNSt13tuple_elementIXT_ESt5tupleIJDpT0_EEE4typeERS8_
FNDA:262,_ZSt12__get_helperILm0EP4TreeJSt14default_deleteIS0_EEERT0_RSt11_Tuple_implIXT_EJS4_DpT1_EE
FNDA:90,_ZNSt10_Head_baseILm0EP12LFThreadPoolLb0EE7_M_headERS2_
FNDA:5,_ZNSt10_Head_baseILm1ESt14default_deleteI12LFThreadPoolELb1EEC2Ev
FNDA:100,_ZNSt11_Tuple_implILm0EJPSt8functionIFvvEESt14default_deleteIS2_EEEC2Ev
FNDA:84,_ZNSt5tupleIJP12ActiveObjectSt14default_deleteIS0_EEEC2EOS4_
FNDA:30,_ZSt12__get_helperILm1ESt14default_deleteI9functArgsEJEERT0_RSt11_Tuple_implIXT_EJS3_DpT1_EE
FNDA:5,_ZNSt10_Head_baseILm0ERKiLb0EE7_M_headERS2_
FNDA:142,_ZSt12__get_helperILm0EP12ActiveObjectJSt14default_deleteIS0_EEERKT0_RKSt11_Tuple_implIXT_EJS4_DpT1_EE
FNDA:42,_ZNSt10_Head_baseILm0EPNSt6thread6_StateELb0EEC2Ev
FNDA:40,_ZSt3getILm0EJP12LFThreadPoolSt14default_deleteIS0_EEERNSt13tuple_elementIXT_ESt5tupleIJDpT0_EEE4typeERS8_
FNDA:10,_ZNSt11_Tuple_implILm0EJP9functArgsSt14default_deleteIS0_EEE7_M_headERKS4_
FNDA:50,_ZNSt11_Tuple_implILm1EJmEEC2IRmEEOT_
FNDA:10,_ZNSt10_Head_baseILm0EP9functArgsLb0EEC2Ev
FNDA:262,_ZNSt11_Tuple_implILm0EJP4TreeSt14default_deleteIS0_EEE7_M_headERS4_
FNDA:260,_ZNSt11_Tuple_implILm0EJP5GraphSt14default_deleteIS0_EEE7_M_headERKS4_
FNDA:48,_ZNSt11_Tuple_implILm0EJP11MSTStrategySt14default_deleteIS0_EEE7_M_headERKS4_
FNDA:200,_ZNSt10_Head_baseILm0EP11MSTStrategyLb0EE7_M_headERS2_
FNDA:142,_ZNSt11_Tuple_implILm0EJP12ActiveObjectSt14default_deleteIS0_EEE7_M_headERKS4_
FNDA:72,_ZSt3getILm1EJP11MSTStrategySt14default_deleteIS0_EEERNSt13tuple_elementIXT_ESt5tupleIJDpT0_EEE4typeERS8_
FNDA:100,_ZNSt10_Head_baseILm0EPSt8functionIFvvEELb0EEC2Ev
FNDA:54,_ZSt3getILm1EJP5GraphSt14default_deleteIS0_EEERNSt13tuple_elementIXT_ESt5tupleIJDpT0_EEE4typeERS8_
FNDA:50,_ZNSt11_Tuple_implILm1EJmEE7_M_headERS0_
FNDA:42,_ZNSt10_Head_baseILm1EP12ActiveObjectLb0EEC2IS1_EEOT_
FNDA:24,_ZNSt10_Head_baseILm1ESt14default_deleteI4TreeELb1EEC2Ev
FNDA:262,_ZNSt10_Head_baseILm0EP4TreeLb0EE7_M_headERS2_
FNDA:174,_ZNSt11_Tuple_implILm0EJP5GraphSt14default_deleteIS0_EEE7_M_headERS4_
FNDA:174,_ZSt3getILm0EJP5GraphSt14default_deleteIS0_EEERNSt13tuple_elementIXT_ESt5tupleIJDpT0_EEE4typeERS8_
FNDA:150,_ZNSt10_Head_baseILm1ESt14default_deleteISt8functionIFvvEEELb1EE7_M_headERS5_
FNDA:174,_ZNSt10_Head_baseILm0EP5GraphLb0EE7_M_headERS2_
FNDA:50,_ZNSt5tupleIJP12LFThreadPoolmEEC2IS1_RmLb1EEEOT_OT0_
FNDA:72,_ZSt12__get_helperILm1ESt14default_deleteI4TreeEJEERT0_RSt11_Tuple_implIXT_EJS3_DpT1_EE
FNDA:5,_ZNSt5tupleIJP7ReactorSt14default_deleteIS0_EEEC2ILb1ELb1EEEv
FNDA:42,_ZSt12__get_helperILm0EM12ActiveObjectFvvEJPS0_EERT0_RSt11_Tuple_implIXT_EJS4_DpT1_EE
FNDA:50,_ZSt3getILm1EJP12LFThreadPoolmEERNSt13tuple_elementIXT_ESt5tupleIJDpT0_EEE4typeERS6_
FNDA:100,_ZNSt5tupleIJPSt8functionIFvvEESt14default_deleteIS2_EEEC2ILb1ELb1EEEv
FNDA:40,_ZNSt11_Tuple_implILm0EJP12LFThreadPoolSt14default_deleteIS0_EEE7_M_headERS4_
FNDA:200,_ZSt12__get_helperILm0EP11MSTStrategyJSt14default_deleteIS0_EEERT0_RSt11_Tuple_implIXT_EJS4_DpT1_EE
FNDA:15,_ZNSt11_Tuple_implILm0EJP7ReactorSt14default_deleteIS0_EEE7_M_headERS4_
FNDA:10,_ZNSt10_Head_baseILm1ESt14default_deleteI9functArgsELb1EEC2Ev
FNDA:72,_ZSt3getILm1EJP4TreeSt14default_deleteIS0_EEERNSt13tuple_elementIXT_ESt5tupleIJDpT0_EEE4typeERS8_
FNDA:30,_ZNSt10_Head_baseILm1ESt14default_deleteI9functArgsELb1EE7_M_headERS3_
FNDA:84,_ZNSt11_Tuple_implILm0EJP12ActiveObjectSt14default_deleteIS0_EEEC2EOS4_
FNDA:8,_ZSt12__get_helperILm0EP12LFThreadPoolJSt14default_deleteIS0_EEERKT0_RKSt11_Tuple_implIXT_EJS4_DpT1_EE
FNDA:42,_ZNSt10_Head_baseILm0EM12ActiveObjectFvvELb0EE7_M_headERS3_
FNDA:200,_ZNSt11_Tuple_implILm0EJP11MSTStrategySt14default_deleteIS0_EEE7_M_headERS4_
FNDA:50,_ZNSt11_Tuple_implILm0EJP12LFThreadPoolmEEC2EOS2_
FNDA:42,_ZNSt10_Head_baseILm1ESt14default_deleteI12ActiveObjectELb1EE7_M_headERS3_
FNDA:142,_ZSt3getILm0EJP12ActiveObjectSt14default_deleteIS0_EEERKNSt13tuple_elementIXT_ESt5tupleIJDpT0_EEE4typeERKS8_
FNDA:42,_ZNSt11_Tuple_implILm1EJP12ActiveObjectEE7_M_headERS2_
FNDA:8,_ZNSt10_Head_baseILm0EP12LFThreadPoolLb0EE7_M_headERKS2_
FNDA:0,_ZNSt10_Head_baseILm1ESt14default_deleteINSt6thread6_StateEELb1EE7_M_headERS4_
FNDA:150,_ZNSt11_Tuple_implILm1EJSt14default_deleteISt8functionIFvvEEEEE7_M_headERS5_
FNDA:5,_ZNSt5tupleIJRKiEEC2EOS2_
FNDA:50,_ZSt12__get_helperILm1EmJEERT0_RSt11_Tuple_implIXT_EJS0_DpT1_EE
FNDA:42,_ZNSt10_Head_baseILm1ESt14default_deleteI12ActiveObjectELb1EEC2Ev
FNDA:84,_ZNSt10_Head_baseILm0EPNSt6thread6_StateELb0EE7_M_headERS3_
FNDA:10,_ZSt3getILm0EJP9functArgsSt14default_deleteIS0_EEERKNSt13tuple_elementIXT_ESt5tupleIJDpT0_EEE4typeERKS8_
FNDA:10,_ZNSt10_Head_baseILm0EP7ReactorLb0EE7_M_headERKS2_
FNDA:18,_ZNSt5tupleIJP5GraphSt14default_deleteIS0_EEEC1ILb1ELb1EEEv
FNDA:18,_ZNSt11_Tuple_implILm1EJSt14default_deleteI5GraphEEEC2Ev
FNDA:48,_ZNSt10_Head_baseILm0EP11MSTStrategyLb0EE7_M_headERKS2_
FNDA:5,_ZNSt11_Tuple_implILm0EJRKiEEC2ES1_
FNDA:10,_ZNSt11_Tuple_implILm0EJP7ReactorSt14default_deleteIS0_EEE7_M_headERKS4_
FNDA:24,_ZNSt5tupleIJP11MSTStrategySt14default_deleteIS0_EEEC2ILb1ELb1EEEv
FNDA:72,_ZSt12__get_helperILm1ESt14default_deleteI11MSTStrategyEJEERT0_RSt11_Tuple_implIXT_EJS3_DpT1_EE
FNDA:72,_ZNSt11_Tuple_implILm1EJSt14default_deleteI4TreeEEE7_M_headERS3_
FNDA:8,_ZNSt11_Tuple_implILm0EJP12LFThreadPoolSt14default_deleteIS0_EEE7_M_headERKS4_
FNDA:100,_ZNSt11_Tuple_implILm1EJSt14default_deleteISt8functionIFvvEEEEEC2Ev
FNDA:54,_ZNSt11_Tuple_implILm1EJSt14default_deleteI5GraphEEE7_M_headERS3_
FNDA:260,_ZSt3getILm0EJP5GraphSt14default_deleteIS0_EEERKNSt13tuple_elementIXT_ESt5tupleIJDpT0_EEE4typeERKS8_
FNDA:15,_ZNSt11_Tuple_implILm1EJSt14default_deleteI12LFThreadPoolEEE7_M_headERS3_
FNDA:210,_ZNSt11_Tuple_implILm0EJP4TreeSt14default_deleteIS0_EEE7_M_headERKS4_
FNDA:50,_ZSt3getILm0EJPSt8functionIFvvEESt14default_deleteIS2_EEERKNSt13tuple_elementIXT_ESt5tupleIJDpT0_EEE4typeERKSA_
FNDA:48,_ZSt12__get_helperILm0EP11MSTStrategyJSt14default_deleteIS0_EEERKT0_RKSt11_Tuple_implIXT_EJS4_DpT1_EE
FNDA:84,_ZSt12__get_helperILm0EPNSt6thread6_StateEJSt14default_deleteIS1_EEERT0_RSt11_Tuple_implIXT_EJS5_DpT1_EE
FNDA:450,_ZNSt10_Head_baseILm0EPSt8functionIFvvEELb0EE7_M_headERS4_
FNDA:54,_ZSt12__get_helperILm1ESt14default_deleteI5GraphEJEERT0_RSt11_Tuple_implIXT_EJS3_DpT1_EE
FNDA:5,_ZSt3getILm0EJRKiEERNSt13tuple_elementIXT_ESt5tupleIJDpT0_EEE4typeERS6_
FNDA:5,_ZSt12__get_helperILm1ESt14default_deleteI7ReactorEJEERT0_RSt11_Tuple_implIXT_EJS3_DpT1_EE
FNDA:174,_ZSt12__get_helperILm0EP5GraphJSt14default_deleteIS0_EEERT0_RSt11_Tuple_implIXT_EJS4_DpT1_EE
FNDA:42,_ZSt3getILm1EJP12ActiveObjectSt14default_deleteIS0_EEERNSt13tuple_elementIXT_ESt5tupleIJDpT0_EEE4typeERS8_
FNDA:15,_ZSt3getILm1EJP12LFThreadPoolSt14default_deleteIS0_EEERNSt13tuple_elementIXT_ESt5tupleIJDpT0_EEE4typeERS8_
FNDA:5,_ZNSt10_Head_baseILm0EP7ReactorLb0EEC2Ev
FNDA:48,_ZSt3getILm0EJP11MSTStrategySt14default_deleteIS0_EEERKNSt13tuple_elementIXT_ESt5tupleIJDpT0_EEE4typeERKS8_
FNDA:50,_ZNSt11_Tuple_implILm0EJPSt8functionIFvvEESt14default_deleteIS2_EEE7_M_headERKS6_
FNDA:42,_ZSt3getILm1EJM12ActiveObjectFvvEPS0_EEONSt13tuple_elementIXT_ESt5tupleIJDpT0_EEE4typeEOS8_
FNDA:10,_ZNSt5tupleIJP9functArgsSt14default_deleteIS0_EEEC1ILb1ELb1EEEv
FNDA:50,_ZNSt10_Head_baseILm1EmLb0EE7_M_headERS0_
FNDA:50,_ZSt12__get_helperILm0EP12LFThreadPoolJmEERT0_RSt11_Tuple_implIXT_EJS2_DpT1_EE
FNDA:42,_ZNSt5tupleIJPNSt6thread6_StateESt14default_deleteIS1_EEEC2ILb1ELb1EEEv
FNDA:450,_ZNSt11_Tuple_implILm0EJPSt8functionIFvvEESt14default_deleteIS2_EEE7_M_headERS6_
FNDA:210,_ZSt12__get_helperILm0EP4TreeJSt14default_deleteIS0_EEERKT0_RKSt11_Tuple_implIXT_EJS4_DpT1_EE
FNDA:336,_ZSt12__get_helperILm0EP12ActiveObjectJSt14default_deleteIS0_EEERT0_RSt11_Tuple_implIXT_EJS4_DpT1_EE
FNDA:42,_ZNSt11_Tuple_implILm1EJSt14default_deleteI12ActiveObjectEEEC2Ev
FNDA:50,_ZNSt10_Head_baseILm0EPSt8functionIFvvEELb0EE7_M_headERKS4_
FNDA:84,_ZSt3getILm0EJPNSt6thread6_StateESt14default_deleteIS1_EEERNSt13tuple_elementIXT_ESt5tupleIJDpT0_EEE4typeERS9_
FNDA:5,_ZNSt11_Tuple_implILm0EJRKiEE7_M_headERS2_
FNDA:260,_ZSt12__get_helperILm0EP5GraphJSt14default_deleteIS0_EEERKT0_RKSt11_Tuple_implIXT_EJS4_DpT1_EE
FNDA:24,_ZNSt11_Tuple_implILm1EJSt14default_deleteI11MSTStrategyEEEC2Ev
FNDA:50,_ZSt12__get_helperILm0EPSt8functionIFvvEEJSt14default_deleteIS2_EEERKT0_RKSt11_Tuple_implIXT_EJS6_DpT1_EE
FNDA:42,_ZNSt11_Tuple_implILm1EJSt14default_deleteI12ActiveObjectEEE7_M_headERS3_
FNDA:42,_ZNSt11_Tuple_implILm0EJM12ActiveObjectFvvEPS0_EEC2IS2_JS3_EvEEOT_DpOT0_
FNDA:5,_ZNSt10_Head_baseILm1ESt14default_deleteI7ReactorELb1EEC2Ev
FNDA:5,_ZNSt5tupleIJRKiEEC2ILb1ELb1EEES1_
FNDA:42,_ZNSt11_Tuple_implILm1EJP12ActiveObjectEEC2IS1_EEOT_
FNDA:24,_ZNSt10_Head_baseILm1ESt14default_deleteI11MSTStrategyELb1EEC2Ev
FNDA:5,_ZNSt11_Tuple_implILm0EJP12LFThreadPoolSt14default_deleteIS0_EEEC2Ev
FNDA:5,_ZNSt10_Head_baseILm1ESt14default_deleteI7ReactorELb1EE7_M_headERS3_
FNDA:5,_ZNSt11_Tuple_implILm1EJSt14default_deleteI12LFThreadPoolEEEC2Ev
FNDA:24,_ZNSt11_Tuple_implILm0EJP11MSTStrategySt14default_deleteIS0_EEEC2Ev
FNDA:42,_ZSt3getILm0EJM12ActiveObjectFvvEPS0_EEONSt13tuple_elementIXT_ESt5tupleIJDpT0_EEE4typeEOS8_
FNDA:42,_ZNSt10_Head_baseILm1EP12ActiveObjectLb0EE7_M_headERS2_
FNDA:50,_ZSt16forward_as_tupleIJEESt5tupleIJDpOT_EES3_
FNDA:200,_ZSt3getILm0EJP11MSTStrategySt14default_deleteIS0_EEERNSt13tuple_elementIXT_ESt5tupleIJDpT0_EEE4typeERS8_
FNDA:5,_ZNSt4pairIKiSt8functionIFvvEEEC2IJRS0_EJEEESt21piecewise_construct_tSt5tupleIJDpT_EES8_IJDpT0_EE
FNDA:0,_ZNSt11_Tuple_implILm1EJSt14default_deleteINSt6thread6_StateEEEE7_M_headERS4_
FNDA:42,_ZNSt5tupleIJP12ActiveObjectSt14default_deleteIS0_EEEC2ILb1ELb1EEEv
FNDA:18,_ZNSt10_Head_baseILm0EP5GraphLb0EEC2Ev
FNDA:50,_ZNSt11_Tuple_implILm0EJP12LFThreadPoolmEEC2IS1_JRmEvEEOT_DpOT0_
FNDA:54,_ZNSt10_Head_baseILm1ESt14default_deleteI5GraphELb1EE7_M_headERS3_
FNDA:10,_ZNSt11_Tuple_implILm0EJP9functArgsSt14default_deleteIS0_EEEC2Ev
FNDA:72,_ZNSt10_Head_baseILm0EP9functArgsLb0EE7_M_headERS2_
FNDA:5,_ZNSt11_Tuple_implILm1EJSt14default_deleteI7ReactorEEEC2Ev
FNDA:30,_ZNSt11_Tuple_implILm1EJSt14default_deleteI9functArgsEEE7_M_headERS3_
FNDA:10,_ZSt3getILm0EJP7ReactorSt14default_deleteIS0_EEERKNSt13tuple_elementIXT_ESt5tupleIJDpT0_EEE4typeERKS8_
FNDA:30,_ZSt3getILm1EJP9functArgsSt14default_deleteIS0_EEERNSt13tuple_elementIXT_ESt5tupleIJDpT0_EEE4typeERS8_
FNDA:142,_ZNSt10_Head_baseILm0EP12ActiveObjectLb0EE7_M_headERKS2_
FNDA:8,_ZSt3getILm0EJP12LFThreadPoolSt14default_deleteIS0_EEERKNSt13tuple_elementIXT_ESt5tupleIJDpT0_EEE4typeERKS8_
FNDA:42,_ZNSt10_Head_baseILm0EP12ActiveObjectLb0EEC2Ev
FNDA:336,_ZNSt11_Tuple_implILm0EJP12ActiveObjectSt14default_deleteIS0_EEE7_M_headERS4_
FNDA:450,_ZSt12__get_helperILm0EPSt8functionIFvvEEJSt14default_deleteIS2_EEERT0_RSt11_Tuple_implIXT_EJS6_DpT1_EE
FNDA:18,_ZNSt10_Head_baseILm1ESt14default_deleteI5GraphELb1EEC2Ev
FNDA:18,_ZNSt11_Tuple_implILm0EJP5GraphSt14default_deleteIS0_EEEC2Ev
FNDA:42,_ZNSt10_Head_baseILm0EM12ActiveObjectFvvELb0EEC2IS2_EEOT_
FNDA:42,_ZNSt11_Tuple_implILm0EJP12ActiveObjectSt14default_deleteIS0_EEEC2Ev
FNDA:336,_ZSt3getILm0EJP12ActiveObjectSt14default_deleteIS0_EEERNSt13tuple_elementIXT_ESt5tupleIJDpT0_EEE4typeERS8_
FNDA:5,_ZNSt11_Tuple_implILm1EJSt14default_deleteI7ReactorEEE7_M_headERS3_
FNDA:5,_ZSt3getILm1EJP7ReactorSt14default_deleteIS0_EEERNSt13tuple_elementIXT_ESt5tupleIJDpT0_EEE4typeERS8_
FNDA:84,_ZNSt11_Tuple_implILm1EJSt14default_deleteI12ActiveObjectEEEC2EOS3_
FNDA:15,_ZNSt10_Head_baseILm0EP7ReactorLb0EE7_M_headERS2_
FNDA:72,_ZNSt10_Head_baseILm1ESt14default_deleteI11MSTStrategyELb1EE7_M_headERS3_
FNDA:5,_ZNSt5tupleIJP12LFThreadPoolSt14default_deleteIS0_EEEC1ILb1ELb1EEEv
FNDA:72,_ZSt3getILm0EJP9functArgsSt14default_deleteIS0_EEERNSt13tuple_elementIXT_ESt5tupleIJDpT0_EEE4typeERS8_
FNDA:72,_ZNSt10_Head_baseILm1ESt14default_deleteI4TreeELb1EE7_M_headERS3_
FNDA:24,_ZNSt5tupleIJP4TreeSt14default_deleteIS0_EEEC2ILb1ELb1EEEv
FNDA:50,_ZNSt11_Tuple_implILm1EJmEEC2EOS0_
FNDA:5,_ZNSt11_Tuple_implILm0EJRKiEEC2EOS2_
FNDA:5,_ZNSt10_Head_baseILm0ERKiLb0EEC2ES1_
FNDA:210,_ZSt3getILm0EJP4TreeSt14default_deleteIS0_EEERKNSt13tuple_elementIXT_ESt5tupleIJDpT0_EEE4typeERKS8_
FNDA:100,_ZNSt10_Head_baseILm1ESt14default_deleteISt8functionIFvvEEELb1EEC2Ev
FNDA:5,_ZNSt4pairIKiSt8functionIFvvEEEC2IJRS0_EJLm0EEJEJEEERSt5tupleIJDpT_EERS7_IJDpT1_EESt12_Index_tupleIJXspT0_EEESG_IJXspT2_EEE
FNDA:72,_ZSt12__get_helperILm0EP9functArgsJSt14default_deleteIS0_EEERT0_RSt11_Tuple_implIXT_EJS4_DpT1_EE
FNDA:50,_ZNSt10_Head_baseILm0EP12LFThreadPoolLb0EEC2IS1_EEOT_
FNDA:210,_ZNSt10_Head_baseILm0EP4TreeLb0EE7_M_headERKS2_
FNDA:260,_ZNSt10_Head_baseILm0EP5GraphLb0EE7_M_headERKS2_
FNDA:42,_ZNSt11_Tuple_implILm1EJSt14default_deleteINSt6thread6_StateEEEEC2Ev
FNDA:50,_ZNSt10_Head_baseILm1EmLb0EEC2IRmEEOT_
FNDA:50,_ZNSt11_Tuple_implILm0EJP12LFThreadPoolmEE7_M_headERS2_
FNDA:150,_ZSt3getILm1EJPSt8functionIFvvEESt14default_deleteIS2_EEERNSt13tuple_elementIXT_ESt5tupleIJDpT0_EEE4typeERSA_
FNDA:150,_ZSt12__get_helperILm1ESt14default_deleteISt8functionIFvvEEEJEERT0_RSt11_Tuple_implIXT_EJS5_DpT1_EE
FNDA:50,_ZNSt5tupleIJP12LFThreadPoolmEEC2EOS2_
FNDA:84,_ZNSt11_Tuple_implILm0EJPNSt6thread6_StateESt14default_deleteIS1_EEE7_M_headERS5_
FNDA:24,_ZNSt11_Tuple_implILm0EJP4TreeSt14default_deleteIS0_EEEC2Ev
FNDA:10,_ZSt12__get_helperILm0EP9functArgsJSt14default_deleteIS0_EEERKT0_RKSt11_Tuple_implIXT_EJS4_DpT1_EE
FNDA:450,_ZSt3getILm0EJPSt8functionIFvvEESt14default_deleteIS2_EEERNSt13tuple_elementIXT_ESt5tupleIJDpT0_EEE4typeERSA_
FNDA:40,_ZSt12__get_helperILm0EP12LFThreadPoolJSt14default_deleteIS0_EEERT0_RSt11_Tuple_implIXT_EJS4_DpT1_EE
FNDA:50,_ZSt3getILm0EJP12LFThreadPoolmEERNSt13tuple_elementIXT_ESt5tupleIJDpT0_EEE4typeERS6_
FNDA:10,_ZNSt10_Head_baseILm0EP9functArgsLb0EE7_M_headERKS2_
FNDA:24,_ZNSt10_Head_baseILm0EP11MSTStrategyLb0EEC2Ev
FNF:192
FNH:188
DA:80,270
DA:81,270
DA:124,440
DA:189,270
DA:190,270
DA:192,5
DA:193,5
DA:199,184
DA:200,184
DA:233,1822
DA:236,738
DA:268,1725
DA:271,738
DA:279,270
DA:280,270
DA:290,92
DA:292,92
DA:293,92
DA:301,134
DA:424,537
DA:430,270
DA:431,270
DA:434,5
DA:435,5
DA:436,5
DA:440,92
DA:441,92
DA:442,92
DA:454,139
DA:456,55
DA:457,139
DA:727,5
DA:729,5
DA:756,5
DA:1049,270
DA:1051,270
DA:1077,92
DA:1079,92
DA:1090,134
DA:1377,2262
DA:1378,2262
DA:1382,738
DA:1383,738
DA:1393,2178
DA:1394,2178
DA:1399,738
DA:1400,738
DA:1405,84
DA:1408,84
DA:1617,50
DA:1618,50
DA:1804,5
DA:1809,5
DA:1810,5
DA:1816,5
DA:1819,5
DA:1820,5
DA:1821,5
LF:58
LH:58
end_of_record
TN:
SF:/usr/include/c++/11/typeinfo
FN:120,_ZNKSt9type_infoeqERKS_
FNDA:0,_ZNKSt9type_infoeqERKS_
FNF:1
FNH:0
DA:120,0
DA:122,0
DA:123,0
DA:124,0
LF:4
LH:0
end_of_record
TN:
SF:/usr/include/c++/11/utility
FN:183,_ZNSt10__pair_getILm0EE10__move_getIiiEEOT_OSt4pairIS2_T0_E
FN:207,_ZNSt10__pair_getILm1EE10__move_getIiiEEOT0_OSt4pairIT_S2_E
FN:228,_ZSt3getILm1EiiEONSt13tuple_elementIXT_ESt4pairIT0_T1_EE4typeEOS4_
FN:228,_ZSt3getILm0EiiEONSt13tuple_elementIXT_ESt4pairIT0_T1_EE4typeEOS4_
FNDA:32,_ZSt3getILm1EiiEONSt13tuple_elementIXT_ESt4pairIT0_T1_EE4typeEOS4_
FNDA:32,_ZNSt10__pair_getILm1EE10__move_getIiiEEOT0_OSt4pairIT_S2_E
FNDA:32,_ZNSt10__pair_getILm0EE10__move_getIiiEEOT_OSt4pairIS2_T0_E
FNDA:32,_ZSt3getILm0EiiEONSt13tuple_elementIXT_ESt4pairIT0_T1_EE4typeEOS4_
FNF:4
FNH:4
DA:183,32
DA:184,32
DA:207,32
DA:208,32
DA:228,64
DA:229,64
LF:6
LH:6
end_of_record
TN:
SF:/usr/include/x86_64-linux-gnu/c++/11/bits/gthr-default.h
FN:300,_ZL18__gthread_active_pv
FN:746,_ZL20__gthread_mutex_lockP15pthread_mutex_t
FN:755,_ZL23__gthread_mutex_trylockP15pthread_mutex_t
FN:776,_ZL22__gthread_mutex_unlockP15pthread_mutex_t
FNDA:1420,_ZL22__gthread_mutex_unlockP15pthread_mutex_t
FNDA:2859,_ZL18__gthread_active_pv
FNDA:85,_ZL23__gthread_mutex_trylockP15pthread_mutex_t
FNDA:1354,_ZL20__gthread_mutex_lockP15pthread_mutex_t
FNF:4
FNH:4
DA:300,2859
DA:302,2859
DA:746,1354
DA:748,1354
DA:749,1354
DA:751,0
DA:755,85
DA:757,85
DA:758,85
DA:760,0
DA:776,1420
DA:778,1420
DA:779,1420
DA:781,0
LF:14
LH:11
end_of_record
