TN:
SF:/usr/include/c++/11/ext/aligned_buffer.h
FN:64,_ZN9__gnu_cxx16__aligned_membufISt4pairIKiSt8functionIFvvEEEE7_M_addrEv
FNDA:10,_ZN9__gnu_cxx16__aligned_membufISt4pairIKiSt8functionIFvvEEEE7_M_addrEv
FN:72,_ZN9__gnu_cxx16__aligned_membufISt4pairIKiSt8functionIFvvEEEE6_M_ptrEv
FNDA:10,_ZN9__gnu_cxx16__aligned_membufISt4pairIKiSt8functionIFvvEEEE6_M_ptrEv
DA:64,10
DA:65,10
DA:72,10
DA:73,10
end_of_record
SF:/usr/include/c++/11/bits/stl_vector.h
FN:97,_ZNSt12_Vector_baseISt6vectorI4EdgeSaIS1_EESaIS3_EE17_Vector_impl_dataC2Ev
FNDA:6,_ZNSt12_Vector_baseISt6vectorI4EdgeSaIS1_EESaIS3_EE17_Vector_impl_dataC2Ev
FN:97,_ZNSt12_Vector_baseI4EdgeSaIS0_EE17_Vector_impl_dataC2Ev
FNDA:43,_ZNSt12_Vector_baseI4EdgeSaIS0_EE17_Vector_impl_dataC2Ev
FN:102,_ZNSt12_Vector_baseI4EdgeSaIS0_EE17_Vector_impl_dataC2EOS3_
FNDA:0,_ZNSt12_Vector_baseI4EdgeSaIS0_EE17_Vector_impl_dataC2EOS3_
FN:131,_ZNSt12_Vector_baseISt6vectorI4EdgeSaIS1_EESaIS3_EE12_Vector_implC2Ev
FNDA:6,_ZNSt12_Vector_baseISt6vectorI4EdgeSaIS1_EESaIS3_EE12_Vector_implC2Ev
FN:131,_ZNSt12_Vector_baseI4EdgeSaIS0_EE12_Vector_implC2Ev
FNDA:35,_ZNSt12_Vector_baseI4EdgeSaIS0_EE12_Vector_implC2Ev
FN:143,_ZNSt12_Vector_baseI4EdgeSaIS0_EE12_Vector_implC2EOS3_
FNDA:0,_ZNSt12_Vector_baseI4EdgeSaIS0_EE12_Vector_implC2EOS3_
FN:276,_ZNSt12_Vector_baseISt6vectorI4EdgeSaIS1_EESaIS3_EE19_M_get_Tp_allocatorEv
FNDA:18,_ZNSt12_Vector_baseISt6vectorI4EdgeSaIS1_EESaIS3_EE19_M_get_Tp_allocatorEv
FN:276,_ZNSt12_Vector_baseI4EdgeSaIS0_EE19_M_get_Tp_allocatorEv
FNDA:185,_ZNSt12_Vector_baseI4EdgeSaIS0_EE19_M_get_Tp_allocatorEv
FN:280,_ZNKSt12_Vector_baseISt6vectorI4EdgeSaIS1_EESaIS3_EE19_M_get_Tp_allocatorEv
FNDA:24,_ZNKSt12_Vector_baseISt6vectorI4EdgeSaIS1_EESaIS3_EE19_M_get_Tp_allocatorEv
FN:288,_ZNSt12_Vector_baseISt6vectorI4EdgeSaIS1_EESaIS3_EEC2Ev
FNDA:6,_ZNSt12_Vector_baseISt6vectorI4EdgeSaIS1_EESaIS3_EEC2Ev
FN:288,_ZNSt12_Vector_baseI4EdgeSaIS0_EEC2Ev
FNDA:35,_ZNSt12_Vector_baseI4EdgeSaIS0_EEC2Ev
FN:308,_ZNSt12_Vector_baseI4EdgeSaIS0_EEC2EOS2_
FNDA:0,_ZNSt12_Vector_baseI4EdgeSaIS0_EEC2EOS2_
FN:333,_ZNSt12_Vector_baseISt6vectorI4EdgeSaIS1_EESaIS3_EED2Ev
FNDA:6,_ZNSt12_Vector_baseISt6vectorI4EdgeSaIS1_EESaIS3_EED2Ev
FN:333,_ZNSt12_Vector_baseI4EdgeSaIS0_EED2Ev
FNDA:43,_ZNSt12_Vector_baseI4EdgeSaIS0_EED2Ev
FN:343,_ZNSt12_Vector_baseISt6vectorI4EdgeSaIS1_EESaIS3_EE11_M_allocateEm
FNDA:6,_ZNSt12_Vector_baseISt6vectorI4EdgeSaIS1_EESaIS3_EE11_M_allocateEm
FN:350,_ZNSt12_Vector_baseI4EdgeSaIS0_EE13_M_deallocateEPS0_m
FNDA:109,_ZNSt12_Vector_baseI4EdgeSaIS0_EE13_M_deallocateEPS0_m
FN:350,_ZNSt12_Vector_baseISt6vectorI4EdgeSaIS1_EESaIS3_EE13_M_deallocateEPS3_m
FNDA:12,_ZNSt12_Vector_baseISt6vectorI4EdgeSaIS1_EESaIS3_EE13_M_deallocateEPS3_m
FN:453,_ZNSt6vectorIS_I4EdgeSaIS0_EESaIS2_EE14_S_do_relocateEPS2_S5_S5_RS3_St17integral_constantIbLb1EE
FNDA:6,_ZNSt6vectorIS_I4EdgeSaIS0_EESaIS2_EE14_S_do_relocateEPS2_S5_S5_RS3_St17integral_constantIbLb1EE
FN:465,_ZNSt6vectorIS_I4EdgeSaIS0_EESaIS2_EE11_S_relocateEPS2_S5_S5_RS3_
FNDA:6,_ZNSt6vectorIS_I4EdgeSaIS0_EESaIS2_EE11_S_relocateEPS2_S5_S5_RS3_
FN:487,_ZNSt6vectorIS_I4EdgeSaIS0_EESaIS2_EEC2Ev
FNDA:6,_ZNSt6vectorIS_I4EdgeSaIS0_EESaIS2_EEC2Ev
FN:487,_ZNSt6vectorI4EdgeSaIS0_EEC2Ev
FNDA:35,_ZNSt6vectorI4EdgeSaIS0_EEC2Ev
FN:572,_ZNSt6vectorI4EdgeSaIS0_EEC2EOS2_
FNDA:0,_ZNSt6vectorI4EdgeSaIS0_EEC2EOS2_
FN:678,_ZNSt6vectorI4EdgeSaIS0_EED2Ev
FNDA:43,_ZNSt6vectorI4EdgeSaIS0_EED2Ev
FN:678,_ZNSt6vectorIS_I4EdgeSaIS0_EESaIS2_EED2Ev
FNDA:6,_ZNSt6vectorIS_I4EdgeSaIS0_EESaIS2_EED2Ev
FN:820,_ZNKSt6vectorIS_I4EdgeSaIS0_EESaIS2_EE5beginEv
FNDA:14,_ZNKSt6vectorIS_I4EdgeSaIS0_EESaIS2_EE5beginEv
FN:838,_ZNKSt6vectorIS_I4EdgeSaIS0_EESaIS2_EE3endEv
FNDA:14,_ZNKSt6vectorIS_I4EdgeSaIS0_EESaIS2_EE3endEv
FN:918,_ZNKSt6vectorIS_I4EdgeSaIS0_EESaIS2_EE4sizeEv
FNDA:42,_ZNKSt6vectorIS_I4EdgeSaIS0_EESaIS2_EE4sizeEv
FN:923,_ZNKSt6vectorIS_I4EdgeSaIS0_EESaIS2_EE8max_sizeEv
FNDA:24,_ZNKSt6vectorIS_I4EdgeSaIS0_EESaIS2_EE8max_sizeEv
FN:937,_ZNSt6vectorIS_I4EdgeSaIS0_EESaIS2_EE6resizeEm
FNDA:6,_ZNSt6vectorIS_I4EdgeSaIS0_EESaIS2_EE6resizeEm
FN:1007,_ZNKSt6vectorIS_I4EdgeSaIS0_EESaIS2_EE5emptyEv
FNDA:14,_ZNKSt6vectorIS_I4EdgeSaIS0_EESaIS2_EE5emptyEv
FN:1756,_ZNKSt6vectorIS_I4EdgeSaIS0_EESaIS2_EE12_M_check_lenEmPKc
FNDA:6,_ZNKSt6vectorIS_I4EdgeSaIS0_EESaIS2_EE12_M_check_lenEmPKc
FN:1776,_ZNSt6vectorIS_I4EdgeSaIS0_EESaIS2_EE11_S_max_sizeERKS3_
FNDA:24,_ZNSt6vectorIS_I4EdgeSaIS0_EESaIS2_EE11_S_max_sizeERKS3_
FN:1792,_ZNSt6vectorIS_I4EdgeSaIS0_EESaIS2_EE15_M_erase_at_endEPS2_
FNDA:0,_ZNSt6vectorIS_I4EdgeSaIS0_EESaIS2_EE15_M_erase_at_endEPS2_
DA:97,43
DA:98,43
DA:99,43
DA:97,6
DA:98,6
DA:99,6
DA:102,0
DA:103,0
DA:104,0
DA:105,0
DA:131,35
DA:133,35
DA:134,35
DA:131,6
DA:133,6
DA:134,6
DA:143,0
DA:144,0
DA:145,0
DA:276,185
DA:277,185
DA:276,18
DA:277,18
DA:280,24
DA:281,24
DA:288,35
DA:288,6
DA:308,0
DA:333,43
DA:335,43
DA:336,43
DA:337,43
DA:333,6
DA:335,6
DA:336,6
DA:337,6
DA:343,6
DA:346,6
DA:350,109
DA:353,109
DA:354,74
DA:355,109
DA:350,12
DA:353,12
DA:354,6
DA:355,12
DA:453,6
DA:456,6
DA:465,6
DA:469,6
DA:487,35
DA:487,6
DA:572,0
DA:678,43
DA:680,43
DA:681,43
DA:683,43
DA:678,6
DA:680,6
DA:681,6
DA:683,6
DA:820,14
DA:821,14
DA:838,14
DA:839,14
DA:918,42
DA:919,42
DA:923,24
DA:924,24
DA:937,6
DA:939,6
DA:940,6
DA:941,0
DA:942,0
DA:943,6
DA:1007,14
DA:1008,14
DA:1756,6
DA:1758,6
DA:1759,0
DA:1761,6
DA:1762,6
DA:1776,24
DA:1781,24
DA:1783,24
DA:1784,24
DA:1792,0
DA:1794,0
DA:1796,0
DA:1797,0
DA:1798,0
DA:1801,0
end_of_record
SF:/usr/include/c++/11/bits/stl_uninitialized.h
FN:573,_ZNSt27__uninitialized_default_n_1ILb0EE18__uninit_default_nIPSt6vectorI4EdgeSaIS3_EEmEET_S7_T0_
FNDA:6,_ZNSt27__uninitialized_default_n_1ILb0EE18__uninit_default_nIPSt6vectorI4EdgeSaIS3_EEmEET_S7_T0_
FN:630,_ZSt25__uninitialized_default_nIPSt6vectorI4EdgeSaIS1_EEmET_S5_T0_
FNDA:6,_ZSt25__uninitialized_default_nIPSt6vectorI4EdgeSaIS1_EEmET_S5_T0_
FN:702,_ZSt27__uninitialized_default_n_aIPSt6vectorI4EdgeSaIS1_EEmS3_ET_S5_T0_RSaIT1_E
FNDA:6,_ZSt27__uninitialized_default_n_aIPSt6vectorI4EdgeSaIS1_EEmS3_ET_S5_T0_RSaIT1_E
FN:986,_ZSt19__relocate_object_aISt6vectorI4EdgeSaIS1_EES3_SaIS3_EEvPT_PT0_RT1_
FNDA:0,_ZSt19__relocate_object_aISt6vectorI4EdgeSaIS1_EES3_SaIS3_EEvPT_PT0_RT1_
FN:1018,_ZSt14__relocate_a_1IPSt6vectorI4EdgeSaIS1_EES4_SaIS3_EET0_T_S7_S6_RT1_
FNDA:6,_ZSt14__relocate_a_1IPSt6vectorI4EdgeSaIS1_EES4_SaIS3_EET0_T_S7_S6_RT1_
FN:1040,_ZSt12__relocate_aIPSt6vectorI4EdgeSaIS1_EES4_SaIS3_EET0_T_S7_S6_RT1_
FNDA:6,_ZSt12__relocate_aIPSt6vectorI4EdgeSaIS1_EES4_SaIS3_EET0_T_S7_S6_RT1_
DA:573,6
DA:575,6
DA:578,35
DA:579,29
DA:580,6
DA:630,6
DA:635,6
DA:640,6
DA:702,6
DA:704,6
DA:986,0
DA:994,0
DA:995,0
DA:996,0
DA:1018,6
DA:1030,6
DA:1031,6
DA:1032,0
DA:1034,6
DA:1040,6
DA:1046,6
DA:1048,6
end_of_record
SF:/usr/include/x86_64-linux-gnu/c++/11/bits/gthr-default.h
FN:300,_ZL18__gthread_active_pv
FNDA:319,_ZL18__gthread_active_pv
FN:746,_ZL20__gthread_mutex_lockP15pthread_mutex_t
FNDA:135,_ZL20__gthread_mutex_lockP15pthread_mutex_t
FN:755,_ZL23__gthread_mutex_trylockP15pthread_mutex_t
FNDA:27,_ZL23__gthread_mutex_trylockP15pthread_mutex_t
FN:776,_ZL22__gthread_mutex_unlockP15pthread_mutex_t
FNDA:157,_ZL22__gthread_mutex_unlockP15pthread_mutex_t
DA:300,319
DA:302,319
DA:746,135
DA:748,135
DA:749,135
DA:751,0
DA:755,27
DA:757,27
DA:758,27
DA:760,0
DA:776,157
DA:778,157
DA:779,157
DA:781,0
end_of_record
SF:/home/eladubuntu/Git Projects/OS_2024-FINAL_PROJECT_MST/LFServer.cpp
FN:31,_Z13signalHandleri
FNDA:2,_Z13signalHandleri
FN:48,_Z12sendResponseiRKNSt7__cxx1112basic_stringIcSt11char_traitsIcESaIcEEE
FNDA:33,_Z12sendResponseiRKNSt7__cxx1112basic_stringIcSt11char_traitsIcESaIcEEE
FN:66,_Z9scanGraphiRiS_RNSt7__cxx1118basic_stringstreamIcSt11char_traitsIcESaIcEEERSt10unique_ptrI5GraphSt14default_deleteIS8_EE
FNDA:4,_Z9scanGraphiRiS_RNSt7__cxx1118basic_stringstreamIcSt11char_traitsIcESaIcEEERSt10unique_ptrI5GraphSt14default_deleteIS8_EE
FN:89,_Z14handleCommandsiRSt10unique_ptrI5GraphSt14default_deleteIS0_EER10MSTFactoryRS_I4TreeS1_IS7_EE
FNDA:2,_Z14handleCommandsiRSt10unique_ptrI5GraphSt14default_deleteIS0_EER10MSTFactoryRS_I4TreeS1_IS7_EE
FN:355,_Z16acceptConnectioniRSt10unique_ptrI5GraphSt14default_deleteIS0_EER10MSTFactoryRS_I4TreeS1_IS7_EERS_I12LFThreadPoolS1_ISB_EE
FNDA:2,_Z16acceptConnectioniRSt10unique_ptrI5GraphSt14default_deleteIS0_EER10MSTFactoryRS_I4TreeS1_IS7_EERS_I12LFThreadPoolS1_ISB_EE
FN:378,_ZZ16acceptConnectioniRSt10unique_ptrI5GraphSt14default_deleteIS0_EER10MSTFactoryRS_I4TreeS1_IS7_EERS_I12LFThreadPoolS1_ISB_EEENKUlvE_clEv
FNDA:2,_ZZ16acceptConnectioniRSt10unique_ptrI5GraphSt14default_deleteIS0_EER10MSTFactoryRS_I4TreeS1_IS7_EERS_I12LFThreadPoolS1_ISB_EEENKUlvE_clEv
FN:397,main
FNDA:2,main
FN:407,_ZZ4mainENKUliE_clEi
FNDA:2,_ZZ4mainENKUliE_clEi
FN:460,_ZZ4mainENKUlvE0_clEv
FNDA:2,_ZZ4mainENKUlvE0_clEv
DA:31,2
DA:34,2
DA:35,2
DA:36,2
DA:38,2
DA:39,2
DA:48,33
DA:50,33
DA:52,0
DA:54,33
DA:66,4
DA:68,4
DA:70,2
DA:71,2
DA:74,2
DA:75,2
DA:89,31
DA:96,31
DA:97,31
DA:99,1
DA:100,1
DA:103,1
DA:104,1
DA:105,1
DA:106,1
DA:110,0
DA:111,11
DA:114,30
DA:115,30
DA:116,30
DA:118,30
DA:119,30
DA:120,30
DA:121,30
DA:123,30
DA:125,5
DA:126,5
DA:128,1
DA:129,1
DA:132,4
DA:134,1
DA:135,1
DA:137,4
DA:139,1
DA:140,1
DA:143,4
DA:144,4
DA:146,2
DA:147,2
DA:151,14
DA:153,13
DA:156,13
DA:158,13
DA:159,13
DA:160,13
DA:161,13
DA:163,13
DA:165,1
DA:166,1
DA:168,1
DA:169,1
DA:170,1
DA:171,1
DA:174,0
DA:175,0
DA:179,12
DA:181,12
DA:183,2
DA:184,2
DA:185,6
DA:189,10
DA:191,4
DA:192,4
DA:193,4
DA:196,6
DA:198,2
DA:199,5
DA:200,25
DA:202,8
DA:203,8
DA:205,2
DA:206,2
DA:207,2
DA:210,6
DA:212,2
DA:213,2
DA:216,4
DA:218,3
DA:219,3
DA:222,4
DA:224,2
DA:226,2
DA:228,2
DA:233,0
DA:234,0
DA:237,4
DA:238,4
DA:239,4
DA:242,4
DA:243,4
DA:244,4
DA:246,4
DA:248,8
DA:249,17
DA:251,8
DA:252,8
DA:254,1
DA:255,1
DA:256,1
DA:259,7
DA:261,1
DA:262,1
DA:263,1
DA:266,6
DA:267,6
DA:268,6
DA:270,2
DA:274,4
DA:276,4
DA:278,3
DA:282,1
DA:285,8
DA:287,9
DA:289,6
DA:290,6
DA:292,1
DA:293,1
DA:294,1
DA:297,5
DA:299,1
DA:300,1
DA:301,1
DA:304,4
DA:305,4
DA:306,4
DA:308,2
DA:312,2
DA:314,1
DA:318,1
DA:320,6
DA:322,3
DA:324,1
DA:326,1
DA:327,1
DA:328,1
DA:329,1
DA:330,1
DA:331,1
DA:335,2
DA:338,18
DA:339,95
DA:340,2
DA:341,2
DA:355,2
DA:358,2
DA:359,2
DA:360,2
DA:363,2
DA:364,2
DA:365,2
DA:367,0
DA:368,0
DA:370,2
DA:372,2
DA:374,2
DA:375,2
DA:376,2
DA:377,2
DA:378,2
DA:380,2
DA:381,2
DA:382,2
DA:384,2
DA:385,2
DA:386,2
DA:387,2
DA:397,2
DA:399,2
DA:400,2
DA:401,2
DA:402,2
DA:403,2
DA:404,2
DA:407,2
DA:410,2
DA:411,2
DA:412,2
DA:413,2
DA:414,2
DA:415,2
DA:416,2
DA:417,2
DA:418,2
DA:419,4
DA:422,2
DA:424,2
DA:426,0
DA:427,0
DA:430,2
DA:432,0
DA:433,0
DA:436,2
DA:437,2
DA:438,2
DA:439,2
DA:441,2
DA:443,0
DA:444,0
DA:447,2
DA:449,0
DA:450,0
DA:454,2
DA:455,2
DA:456,2
DA:457,2
DA:459,2
DA:460,2
DA:461,2
DA:463,2
DA:464,2
DA:465,2
DA:468,195621
DA:471,0
end_of_record
SF:/usr/include/c++/11/bits/move.h
FN:49,_ZSt11__addressofISt5mutexEPT_RS1_
FNDA:162,_ZSt11__addressofISt5mutexEPT_RS1_
FN:49,_ZSt11__addressofISt6vectorI4EdgeSaIS1_EEEPT_RS4_
FNDA:58,_ZSt11__addressofISt6vectorI4EdgeSaIS1_EEEPT_RS4_
FN:77,_ZSt7forwardIZ4mainEUlvE0_EOT_RNSt16remove_referenceIS1_E4typeE
FNDA:6,_ZSt7forwardIZ4mainEUlvE0_EOT_RNSt16remove_referenceIS1_E4typeE
FN:77,_ZSt7forwardIiEOT_RNSt16remove_referenceIS0_E4typeE
FNDA:182,_ZSt7forwardIiEOT_RNSt16remove_referenceIS0_E4typeE
FN:77,_ZSt7forwardIRiEOT_RNSt16remove_referenceIS1_E4typeE
FNDA:40,_ZSt7forwardIRiEOT_RNSt16remove_referenceIS1_E4typeE
FN:77,_ZSt7forwardISt14default_deleteI5GraphEEOT_RNSt16remove_referenceIS3_E4typeE
FNDA:2,_ZSt7forwardISt14default_deleteI5GraphEEOT_RNSt16remove_referenceIS3_E4typeE
FN:77,_ZSt7forwardISt14default_deleteI4TreeEEOT_RNSt16remove_referenceIS3_E4typeE
FNDA:4,_ZSt7forwardISt14default_deleteI4TreeEEOT_RNSt16remove_referenceIS3_E4typeE
FN:77,_ZSt7forwardIZ16acceptConnectioniRSt10unique_ptrI5GraphSt14default_deleteIS1_EER10MSTFactoryRS0_I4TreeS2_IS8_EERS0_I12LFThreadPoolS2_ISC_EEEUlvE_EOT_RNSt16remove_referenceISH_E4typeE
FNDA:6,_ZSt7forwardIZ16acceptConnectioniRSt10unique_ptrI5GraphSt14default_deleteIS1_EER10MSTFactoryRS0_I4TreeS2_IS8_EERS0_I12LFThreadPoolS2_ISC_EEEUlvE_EOT_RNSt16remove_referenceISH_E4typeE
FN:77,_ZSt7forwardIZ4mainEUliE_EOT_RNSt16remove_referenceIS1_E4typeE
FNDA:8,_ZSt7forwardIZ4mainEUliE_EOT_RNSt16remove_referenceIS1_E4typeE
FN:77,_ZSt7forwardIR7ReactorEOT_RNSt16remove_referenceIS2_E4typeE
FNDA:2,_ZSt7forwardIR7ReactorEOT_RNSt16remove_referenceIS2_E4typeE
FN:77,_ZSt7forwardISt14default_deleteI12LFThreadPoolEEOT_RNSt16remove_referenceIS3_E4typeE
FNDA:2,_ZSt7forwardISt14default_deleteI12LFThreadPoolEEOT_RNSt16remove_referenceIS3_E4typeE
FN:77,_ZSt7forwardIRKZ16acceptConnectioniRSt10unique_ptrI5GraphSt14default_deleteIS1_EER10MSTFactoryRS0_I4TreeS2_IS8_EERS0_I12LFThreadPoolS2_ISC_EEEUlvE_EOT_RNSt16remove_referenceISJ_E4typeE
FNDA:12,_ZSt7forwardIRKZ16acceptConnectioniRSt10unique_ptrI5GraphSt14default_deleteIS1_EER10MSTFactoryRS0_I4TreeS2_IS8_EERS0_I12LFThreadPoolS2_ISC_EEEUlvE_EOT_RNSt16remove_referenceISJ_E4typeE
FN:77,_ZSt7forwardISt6vectorI4EdgeSaIS1_EEEOT_RNSt16remove_referenceIS4_E4typeE
FNDA:0,_ZSt7forwardISt6vectorI4EdgeSaIS1_EEEOT_RNSt16remove_referenceIS4_E4typeE
FN:77,_ZSt7forwardIRKZ4mainEUliE_EOT_RNSt16remove_referenceIS3_E4typeE
FNDA:0,_ZSt7forwardIRKZ4mainEUliE_EOT_RNSt16remove_referenceIS3_E4typeE
FN:77,_ZSt7forwardIRKZ4mainEUlvE0_EOT_RNSt16remove_referenceIS3_E4typeE
FNDA:4,_ZSt7forwardIRKZ4mainEUlvE0_EOT_RNSt16remove_referenceIS3_E4typeE
FN:77,_ZSt7forwardIRZ4mainEUliE_EOT_RNSt16remove_referenceIS2_E4typeE
FNDA:4,_ZSt7forwardIRZ4mainEUliE_EOT_RNSt16remove_referenceIS2_E4typeE
FN:77,_ZSt7forwardIRZ4mainEUlvE0_EOT_RNSt16remove_referenceIS2_E4typeE
FNDA:4,_ZSt7forwardIRZ4mainEUlvE0_EOT_RNSt16remove_referenceIS2_E4typeE
FN:77,_ZSt7forwardIRZ16acceptConnectioniRSt10unique_ptrI5GraphSt14default_deleteIS1_EER10MSTFactoryRS0_I4TreeS2_IS8_EERS0_I12LFThreadPoolS2_ISC_EEEUlvE_EOT_RNSt16remove_referenceISI_E4typeE
FNDA:4,_ZSt7forwardIRZ16acceptConnectioniRSt10unique_ptrI5GraphSt14default_deleteIS1_EER10MSTFactoryRS0_I4TreeS2_IS8_EERS0_I12LFThreadPoolS2_ISC_EEEUlvE_EOT_RNSt16remove_referenceISI_E4typeE
FN:104,_ZSt4moveIRNSt12_Vector_baseI4EdgeSaIS1_EE12_Vector_implEEONSt16remove_referenceIT_E4typeEOS7_
FNDA:0,_ZSt4moveIRNSt12_Vector_baseI4EdgeSaIS1_EE12_Vector_implEEONSt16remove_referenceIT_E4typeEOS7_
FN:104,_ZSt4moveIRP12LFThreadPoolEONSt16remove_referenceIT_E4typeEOS4_
FNDA:2,_ZSt4moveIRP12LFThreadPoolEONSt16remove_referenceIT_E4typeEOS4_
FN:104,_ZSt4moveIRP7ReactorEONSt16remove_referenceIT_E4typeEOS4_
FNDA:2,_ZSt4moveIRP7ReactorEONSt16remove_referenceIT_E4typeEOS4_
FN:104,_ZSt4moveIRPFvRKSt9_Any_dataOiEEONSt16remove_referenceIT_E4typeEOS8_
FNDA:6,_ZSt4moveIRPFvRKSt9_Any_dataOiEEONSt16remove_referenceIT_E4typeEOS8_
FN:104,_ZSt4moveIRSt9_Any_dataEONSt16remove_referenceIT_E4typeEOS3_
FNDA:18,_ZSt4moveIRSt9_Any_dataEONSt16remove_referenceIT_E4typeEOS3_
FN:104,_ZSt4moveIRP4TreeEONSt16remove_referenceIT_E4typeEOS4_
FNDA:10,_ZSt4moveIRP4TreeEONSt16remove_referenceIT_E4typeEOS4_
FN:104,_ZSt4moveIRP5GraphEONSt16remove_referenceIT_E4typeEOS4_
FNDA:4,_ZSt4moveIRP5GraphEONSt16remove_referenceIT_E4typeEOS4_
FN:104,_ZSt4moveIRPFbRSt9_Any_dataRKS0_St18_Manager_operationEEONSt16remove_referenceIT_E4typeEOS9_
FNDA:18,_ZSt4moveIRPFbRSt9_Any_dataRKS0_St18_Manager_operationEEONSt16remove_referenceIT_E4typeEOS9_
FN:104,_ZSt4moveIRSt6vectorI4EdgeSaIS1_EEEONSt16remove_referenceIT_E4typeEOS6_
FNDA:0,_ZSt4moveIRSt6vectorI4EdgeSaIS1_EEEONSt16remove_referenceIT_E4typeEOS6_
FN:104,_ZSt4moveIRP11MSTStrategyEONSt16remove_referenceIT_E4typeEOS4_
FNDA:5,_ZSt4moveIRP11MSTStrategyEONSt16remove_referenceIT_E4typeEOS4_
FN:104,_ZSt4moveIRNSt7__cxx1112basic_stringIcSt11char_traitsIcESaIcEEEEONSt16remove_referenceIT_E4typeEOS8_
FNDA:176,_ZSt4moveIRNSt7__cxx1112basic_stringIcSt11char_traitsIcESaIcEEEEONSt16remove_referenceIT_E4typeEOS8_
FN:104,_ZSt4moveIRSaIcEEONSt16remove_referenceIT_E4typeEOS3_
FNDA:0,_ZSt4moveIRSaIcEEONSt16remove_referenceIT_E4typeEOS3_
FN:196,_ZSt4swapIPFvRKSt9_Any_dataOiEENSt9enable_ifIXsrSt6__and_IJSt6__not_ISt15__is_tuple_likeIT_EESt21is_move_constructibleISA_ESt18is_move_assignableISA_EEE5valueEvE4typeERSA_SK_
FNDA:2,_ZSt4swapIPFvRKSt9_Any_dataOiEENSt9enable_ifIXsrSt6__and_IJSt6__not_ISt15__is_tuple_likeIT_EESt21is_move_constructibleISA_ESt18is_move_assignableISA_EEE5valueEvE4typeERSA_SK_
FN:196,_ZSt4swapISt9_Any_dataENSt9enable_ifIXsrSt6__and_IJSt6__not_ISt15__is_tuple_likeIT_EESt21is_move_constructibleIS5_ESt18is_move_assignableIS5_EEE5valueEvE4typeERS5_SF_
FNDA:6,_ZSt4swapISt9_Any_dataENSt9enable_ifIXsrSt6__and_IJSt6__not_ISt15__is_tuple_likeIT_EESt21is_move_constructibleIS5_ESt18is_move_assignableIS5_EEE5valueEvE4typeERS5_SF_
FN:196,_ZSt4swapIPFbRSt9_Any_dataRKS0_St18_Manager_operationEENSt9enable_ifIXsrSt6__and_IJSt6__not_ISt15__is_tuple_likeIT_EESt21is_move_constructibleISB_ESt18is_move_assignableISB_EEE5valueEvE4typeERSB_SL_
FNDA:6,_ZSt4swapIPFbRSt9_Any_dataRKS0_St18_Manager_operationEENSt9enable_ifIXsrSt6__and_IJSt6__not_ISt15__is_tuple_likeIT_EESt21is_move_constructibleISB_ESt18is_move_assignableISB_EEE5valueEvE4typeERSB_SL_
DA:49,58
DA:50,58
DA:49,162
DA:50,162
DA:77,0
DA:78,0
DA:77,0
DA:78,0
DA:77,4
DA:78,4
DA:77,4
DA:78,4
DA:77,12
DA:78,12
DA:77,4
DA:78,4
DA:77,4
DA:78,4
DA:77,6
DA:78,6
DA:77,2
DA:78,2
DA:77,2
DA:78,2
DA:77,8
DA:78,8
DA:77,6
DA:78,6
DA:77,4
DA:78,4
DA:77,2
DA:78,2
DA:77,40
DA:78,40
DA:77,182
DA:78,182
DA:104,0
DA:105,0
DA:104,0
DA:105,0
DA:104,6
DA:105,6
DA:104,18
DA:105,18
DA:104,18
DA:105,18
DA:104,2
DA:105,2
DA:104,2
DA:105,2
DA:104,10
DA:105,10
DA:104,4
DA:105,4
DA:104,5
DA:105,5
DA:104,176
DA:105,176
DA:104,0
DA:105,0
DA:196,2
DA:204,2
DA:205,2
DA:206,2
DA:207,2
DA:196,6
DA:204,6
DA:205,6
DA:206,6
DA:207,6
DA:196,6
DA:204,6
DA:205,6
DA:206,6
DA:207,6
end_of_record
SF:/usr/include/c++/11/bits/invoke.h
FN:60,_ZSt13__invoke_implIvRZ4mainEUliE_JiEET_St14__invoke_otherOT0_DpOT1_
FNDA:2,_ZSt13__invoke_implIvRZ4mainEUliE_JiEET_St14__invoke_otherOT0_DpOT1_
FN:60,_ZSt13__invoke_implIvRZ4mainEUlvE0_JEET_St14__invoke_otherOT0_DpOT1_
FNDA:2,_ZSt13__invoke_implIvRZ4mainEUlvE0_JEET_St14__invoke_otherOT0_DpOT1_
FN:60,_ZSt13__invoke_implIvRZ16acceptConnectioniRSt10unique_ptrI5GraphSt14default_deleteIS1_EER10MSTFactoryRS0_I4TreeS2_IS8_EERS0_I12LFThreadPoolS2_ISC_EEEUlvE_JEET_St14__invoke_otherOT0_DpOT1_
FNDA:2,_ZSt13__invoke_implIvRZ16acceptConnectioniRSt10unique_ptrI5GraphSt14default_deleteIS1_EER10MSTFactoryRS0_I4TreeS2_IS8_EERS0_I12LFThreadPoolS2_ISC_EEEUlvE_JEET_St14__invoke_otherOT0_DpOT1_
FN:104,_ZSt10__invoke_rIvRZ4mainEUliE_JiEENSt9enable_ifIX16is_invocable_r_vIT_T0_DpT1_EES3_E4typeEOS4_DpOS5_
FNDA:2,_ZSt10__invoke_rIvRZ4mainEUliE_JiEENSt9enable_ifIX16is_invocable_r_vIT_T0_DpT1_EES3_E4typeEOS4_DpOS5_
FN:104,_ZSt10__invoke_rIvRZ4mainEUlvE0_JEENSt9enable_ifIX16is_invocable_r_vIT_T0_DpT1_EES3_E4typeEOS4_DpOS5_
FNDA:2,_ZSt10__invoke_rIvRZ4mainEUlvE0_JEENSt9enable_ifIX16is_invocable_r_vIT_T0_DpT1_EES3_E4typeEOS4_DpOS5_
FN:104,_ZSt10__invoke_rIvRZ16acceptConnectioniRSt10unique_ptrI5GraphSt14default_deleteIS1_EER10MSTFactoryRS0_I4TreeS2_IS8_EERS0_I12LFThreadPoolS2_ISC_EEEUlvE_JEENSt9enable_ifIX16is_invocable_r_vIT_T0_DpT1_EESJ_E4typeEOSK_DpOSL_
FNDA:2,_ZSt10__invoke_rIvRZ16acceptConnectioniRSt10unique_ptrI5GraphSt14default_deleteIS1_EER10MSTFactoryRS0_I4TreeS2_IS8_EERS0_I12LFThreadPoolS2_ISC_EEEUlvE_JEENSt9enable_ifIX16is_invocable_r_vIT_T0_DpT1_EESJ_E4typeEOSK_DpOSL_
DA:60,2
DA:61,2
DA:60,2
DA:61,2
DA:60,2
DA:61,2
DA:104,2
DA:111,2
DA:117,2
DA:104,2
DA:111,2
DA:117,2
DA:104,2
DA:111,2
DA:117,2
end_of_record
SF:/usr/include/c++/11/bits/atomic_base.h
FN:104,_ZStanSt12memory_orderSt23__memory_order_modifier
FNDA:129,_ZStanSt12memory_orderSt23__memory_order_modifier
FN:347,_ZNKSt13__atomic_baseIiEcviEv
FNDA:2,_ZNKSt13__atomic_baseIiEcviEv
DA:104,129
DA:106,129
DA:347,2
DA:348,2
DA:459,5
DA:464,5
DA:465,5
DA:484,7
DA:488,7
end_of_record
SF:/usr/include/c++/11/iostream
end_of_record
SF:/home/eladubuntu/Git Projects/OS_2024-FINAL_PROJECT_MST/LFThreadPool.hpp
FN:116,_ZN12LFThreadPool11getOutputMxEv
FNDA:2,_ZN12LFThreadPool11getOutputMxEv
DA:116,2
end_of_record
SF:/usr/include/c++/11/bits/basic_string.tcc
FN:206,_ZNSt7__cxx1112basic_stringIcSt11char_traitsIcESaIcEE12_M_constructIPcEEvT_S7_St20forward_iterator_tag
FNDA:20,_ZNSt7__cxx1112basic_stringIcSt11char_traitsIcESaIcEE12_M_constructIPcEEvT_S7_St20forward_iterator_tag
FN:206,_ZNSt7__cxx1112basic_stringIcSt11char_traitsIcESaIcEE12_M_constructIPKcEEvT_S8_St20forward_iterator_tag
FNDA:52,_ZNSt7__cxx1112basic_stringIcSt11char_traitsIcESaIcEE12_M_constructIPKcEEvT_S8_St20forward_iterator_tag
FN:1169,_ZStplIcSt11char_traitsIcESaIcEENSt7__cxx1112basic_stringIT_T0_T1_EEPKS5_RKS8_
FNDA:8,_ZStplIcSt11char_traitsIcESaIcEENSt7__cxx1112basic_stringIT_T0_T1_EEPKS5_RKS8_
DA:206,20
DA:211,20
DA:212,0
DA:215,20
DA:217,20
DA:219,0
DA:220,0
DA:225,20
DA:226,0
DA:228,0
DA:229,0
DA:232,20
DA:233,20
DA:206,52
DA:211,52
DA:212,0
DA:215,52
DA:217,52
DA:219,9
DA:220,9
DA:225,52
DA:226,0
DA:228,0
DA:229,0
DA:232,52
DA:233,52
DA:1169,8
DA:1178,8
DA:1179,16
DA:1181,8
DA:1182,8
DA:1183,8
DA:1184,8
DA:1185,0
end_of_record
SF:/home/eladubuntu/Git Projects/OS_2024-FINAL_PROJECT_MST/Reactor.hpp
FN:44,_ZN7ReactorC2Ev
FNDA:2,_ZN7ReactorC2Ev
DA:44,2
DA:46,34
DA:47,34
DA:48,2
end_of_record
SF:/usr/include/c++/11/bits/vector.tcc
FN:611,_ZNSt6vectorIS_I4EdgeSaIS0_EESaIS2_EE17_M_default_appendEm
FNDA:6,_ZNSt6vectorIS_I4EdgeSaIS0_EESaIS2_EE17_M_default_appendEm
DA:611,6
DA:614,6
DA:616,6
DA:617,6
DA:618,6
DA:620,6
DA:621,0
DA:623,6
DA:626,0
DA:627,0
DA:628,0
DA:634,6
DA:635,6
DA:640,6
DA:641,6
DA:643,0
DA:645,0
DA:646,0
DA:648,6
DA:649,6
DA:675,6
DA:676,6
DA:677,6
DA:678,6
DA:679,6
DA:680,6
DA:683,6
end_of_record
SF:/usr/include/c++/11/bits/stl_iterator_base_funcs.h
FN:98,_ZSt10__distanceIPcENSt15iterator_traitsIT_E15difference_typeES2_S2_St26random_access_iterator_tag
FNDA:20,_ZSt10__distanceIPcENSt15iterator_traitsIT_E15difference_typeES2_S2_St26random_access_iterator_tag
FN:98,_ZSt10__distanceIPKcENSt15iterator_traitsIT_E15difference_typeES3_S3_St26random_access_iterator_tag
FNDA:52,_ZSt10__distanceIPKcENSt15iterator_traitsIT_E15difference_typeES3_S3_St26random_access_iterator_tag
FN:138,_ZSt8distanceIPcENSt15iterator_traitsIT_E15difference_typeES2_S2_
FNDA:20,_ZSt8distanceIPcENSt15iterator_traitsIT_E15difference_typeES2_S2_
FN:138,_ZSt8distanceIPKcENSt15iterator_traitsIT_E15difference_typeES3_S3_
FNDA:52,_ZSt8distanceIPKcENSt15iterator_traitsIT_E15difference_typeES3_S3_
DA:98,20
DA:104,20
DA:98,52
DA:104,52
DA:138,20
DA:141,20
DA:142,40
DA:138,52
DA:141,52
DA:142,104
end_of_record
SF:/usr/include/c++/11/chrono
FN:223,_ZNSt6chrono20__duration_cast_implINS_8durationIlSt5ratioILl1ELl1EEEES2_ILl1ELl1000EElLb1ELb0EE6__castIlS5_EES4_RKNS1_IT_T0_EE
FNDA:195621,_ZNSt6chrono20__duration_cast_implINS_8durationIlSt5ratioILl1ELl1EEEES2_ILl1ELl1000EElLb1ELb0EE6__castIlS5_EES4_RKNS1_IT_T0_EE
FN:236,_ZNSt6chrono20__duration_cast_implINS_8durationIlSt5ratioILl1ELl1000EEEES2_ILl1000ELl1EElLb0ELb1EE6__castIlS2_ILl1ELl1EEEES4_RKNS1_IT_T0_EE
FNDA:195621,_ZNSt6chrono20__duration_cast_implINS_8durationIlSt5ratioILl1ELl1000EEEES2_ILl1000ELl1EElLb0ELb1EE6__castIlS2_ILl1ELl1EEEES4_RKNS1_IT_T0_EE
FN:236,_ZNSt6chrono20__duration_cast_implINS_8durationIlSt5ratioILl1ELl1000000000EEEES2_ILl1000000ELl1EElLb0ELb1EE6__castIlS2_ILl1ELl1000EEEES4_RKNS1_IT_T0_EE
FNDA:195621,_ZNSt6chrono20__duration_cast_implINS_8durationIlSt5ratioILl1ELl1000000000EEEES2_ILl1000000ELl1EElLb0ELb1EE6__castIlS2_ILl1ELl1000EEEES4_RKNS1_IT_T0_EE
FN:267,_ZNSt6chrono13duration_castINS_8durationIlSt5ratioILl1ELl1000EEEElS2_ILl1ELl1EEEENSt9enable_ifIXsrNS_13__is_durationIT_EE5valueES8_E4typeERKNS1_IT0_T1_EE
FNDA:195621,_ZNSt6chrono13duration_castINS_8durationIlSt5ratioILl1ELl1000EEEElS2_ILl1ELl1EEEENSt9enable_ifIXsrNS_13__is_durationIT_EE5valueES8_E4typeERKNS1_IT0_T1_EE
FN:267,_ZNSt6chrono13duration_castINS_8durationIlSt5ratioILl1ELl1EEEElS2_ILl1ELl1000EEEENSt9enable_ifIXsrNS_13__is_durationIT_EE5valueES8_E4typeERKNS1_IT0_T1_EE
FNDA:195621,_ZNSt6chrono13duration_castINS_8durationIlSt5ratioILl1ELl1EEEElS2_ILl1ELl1000EEEENSt9enable_ifIXsrNS_13__is_durationIT_EE5valueES8_E4typeERKNS1_IT0_T1_EE
FN:267,_ZNSt6chrono13duration_castINS_8durationIlSt5ratioILl1ELl1000000000EEEElS2_ILl1ELl1000EEEENSt9enable_ifIXsrNS_13__is_durationIT_EE5valueES8_E4typeERKNS1_IT0_T1_EE
FNDA:195621,_ZNSt6chrono13duration_castINS_8durationIlSt5ratioILl1ELl1000000000EEEElS2_ILl1ELl1000EEEENSt9enable_ifIXsrNS_13__is_durationIT_EE5valueES8_E4typeERKNS1_IT0_T1_EE
FN:432,_ZNSt6chrono15duration_valuesIlE4zeroEv
FNDA:195621,_ZNSt6chrono15duration_valuesIlE4zeroEv
FN:521,_ZNSt6chrono8durationIlSt5ratioILl1ELl1000EEEC2IlvEERKT_
FNDA:586863,_ZNSt6chrono8durationIlSt5ratioILl1ELl1000EEEC2IlvEERKT_
FN:521,_ZNSt6chrono8durationIlSt5ratioILl1ELl1000EEEC2IivEERKT_
FNDA:195621,_ZNSt6chrono8durationIlSt5ratioILl1ELl1000EEEC2IivEERKT_
FN:521,_ZNSt6chrono8durationIlSt5ratioILl1ELl1EEEC1IlvEERKT_
FNDA:195621,_ZNSt6chrono8durationIlSt5ratioILl1ELl1EEEC1IlvEERKT_
FN:521,_ZNSt6chrono8durationIlSt5ratioILl1ELl1000000000EEEC1IlvEERKT_
FNDA:195621,_ZNSt6chrono8durationIlSt5ratioILl1ELl1000000000EEEC1IlvEERKT_
FN:529,_ZNSt6chrono8durationIlSt5ratioILl1ELl1000EEEC2IlS1_ILl1ELl1EEvEERKNS0_IT_T0_EE
FNDA:195621,_ZNSt6chrono8durationIlSt5ratioILl1ELl1000EEEC2IlS1_ILl1ELl1EEvEERKNS0_IT_T0_EE
FN:537,_ZNKSt6chrono8durationIlSt5ratioILl1ELl1000EEE5countEv
FNDA:1369347,_ZNKSt6chrono8durationIlSt5ratioILl1ELl1000EEE5countEv
FN:537,_ZNKSt6chrono8durationIlSt5ratioILl1ELl1EEE5countEv
FNDA:391242,_ZNKSt6chrono8durationIlSt5ratioILl1ELl1EEE5countEv
FN:537,_ZNKSt6chrono8durationIlSt5ratioILl1ELl1000000000EEE5countEv
FNDA:195621,_ZNKSt6chrono8durationIlSt5ratioILl1ELl1000000000EEE5countEv
FN:623,_ZNSt6chrono8durationIlSt5ratioILl1ELl1000EEE4zeroEv
FNDA:195621,_ZNSt6chrono8durationIlSt5ratioILl1ELl1000EEE4zeroEv
FN:660,_ZNSt6chronomiIlSt5ratioILl1ELl1000EElS1_ILl1ELl1EEEENSt11common_typeIJNS_8durationIT_T0_EENS5_IT1_T2_EEEE4typeERKS8_RKSB_
FNDA:195621,_ZNSt6chronomiIlSt5ratioILl1ELl1000EElS1_ILl1ELl1EEEENSt11common_typeIJNS_8durationIT_T0_EENS5_IT1_T2_EEEE4typeERKS8_RKSB_
FN:772,_ZNSt6chronoltIlSt5ratioILl1ELl1000EElS2_EEbRKNS_8durationIT_T0_EERKNS3_IT1_T2_EE
FNDA:195621,_ZNSt6chronoltIlSt5ratioILl1ELl1000EElS2_EEbRKNS_8durationIT_T0_EERKNS3_IT1_T2_EE
FN:805,_ZNSt6chronoleIlSt5ratioILl1ELl1000EElS2_EEbRKNS_8durationIT_T0_EERKNS3_IT1_T2_EE
FNDA:195621,_ZNSt6chronoleIlSt5ratioILl1ELl1000EElS2_EEbRKNS_8durationIT_T0_EERKNS3_IT1_T2_EE
DA:223,195621
DA:226,391242
DA:227,195621
DA:236,195621
DA:239,391242
DA:240,195621
DA:236,195621
DA:239,391242
DA:240,195621
DA:267,195621
DA:276,195621
DA:267,195621
DA:276,195621
DA:267,195621
DA:276,195621
DA:432,195621
DA:433,195621
DA:521,586863
DA:522,586863
DA:521,195621
DA:522,195621
DA:521,195621
DA:522,195621
DA:521,195621
DA:522,195621
DA:529,195621
DA:530,195621
DA:537,1369347
DA:538,1369347
DA:537,391242
DA:538,391242
DA:537,195621
DA:538,195621
DA:623,195621
DA:624,195621
DA:660,195621
DA:666,195621
DA:772,195621
DA:778,195621
DA:805,195621
DA:807,195621
end_of_record
SF:/usr/include/c++/11/new
FN:174,_ZnwmPv
FNDA:221,_ZnwmPv
DA:174,221
DA:175,221
end_of_record
SF:/usr/include/c++/11/bits/charconv.h
FN:47,_ZNSt8__detail14__to_chars_lenIjEEjT_i
FNDA:82,_ZNSt8__detail14__to_chars_lenIjEEjT_i
FN:72,_ZNSt8__detail18__to_chars_10_implIjEEvPcjT_
FNDA:82,_ZNSt8__detail18__to_chars_10_implIjEEvPcjT_
DA:47,82
DA:52,82
DA:53,82
DA:54,82
DA:55,82
DA:58,82
DA:59,29
DA:60,0
DA:61,0
DA:62,0
DA:63,0
DA:72,82
DA:83,82
DA:84,82
DA:86,0
DA:87,0
DA:88,0
DA:89,0
DA:90,0
DA:92,82
DA:94,29
DA:95,29
DA:96,29
DA:99,53
DA:100,82
end_of_record
SF:/usr/include/c++/11/bits/alloc_traits.h
FN:463,_ZNSt16allocator_traitsISaISt6vectorI4EdgeSaIS1_EEEE8allocateERS4_m
FNDA:6,_ZNSt16allocator_traitsISaISt6vectorI4EdgeSaIS1_EEEE8allocateERS4_m
FN:495,_ZNSt16allocator_traitsISaISt13_Rb_tree_nodeISt4pairIKiSt8functionIFvvEEEEEE10deallocateERS8_PS7_m
FNDA:2,_ZNSt16allocator_traitsISaISt13_Rb_tree_nodeISt4pairIKiSt8functionIFvvEEEEEE10deallocateERS8_PS7_m
FN:495,_ZNSt16allocator_traitsISaI4EdgeEE10deallocateERS1_PS0_m
FNDA:74,_ZNSt16allocator_traitsISaI4EdgeEE10deallocateERS1_PS0_m
FN:495,_ZNSt16allocator_traitsISaISt6vectorI4EdgeSaIS1_EEEE10deallocateERS4_PS3_m
FNDA:6,_ZNSt16allocator_traitsISaISt6vectorI4EdgeSaIS1_EEEE10deallocateERS4_PS3_m
FN:511,_ZNSt16allocator_traitsISaISt6vectorI4EdgeSaIS1_EEEE9constructIS3_JS3_EEEvRS4_PT_DpOT0_
FNDA:0,_ZNSt16allocator_traitsISaISt6vectorI4EdgeSaIS1_EEEE9constructIS3_JS3_EEEvRS4_PT_DpOT0_
FN:531,_ZNSt16allocator_traitsISaISt6vectorI4EdgeSaIS1_EEEE7destroyIS3_EEvRS4_PT_
FNDA:0,_ZNSt16allocator_traitsISaISt6vectorI4EdgeSaIS1_EEEE7destroyIS3_EEvRS4_PT_
FN:531,_ZNSt16allocator_traitsISaISt13_Rb_tree_nodeISt4pairIKiSt8functionIFvvEEEEEE7destroyIS6_EEvRS8_PT_
FNDA:2,_ZNSt16allocator_traitsISaISt13_Rb_tree_nodeISt4pairIKiSt8functionIFvvEEEEEE7destroyIS6_EEvRS8_PT_
FN:547,_ZNSt16allocator_traitsISaISt6vectorI4EdgeSaIS1_EEEE8max_sizeERKS4_
FNDA:24,_ZNSt16allocator_traitsISaISt6vectorI4EdgeSaIS1_EEEE8max_sizeERKS4_
FN:562,_ZNSt16allocator_traitsISaIcEE37select_on_container_copy_constructionERKS0_
FNDA:8,_ZNSt16allocator_traitsISaIcEE37select_on_container_copy_constructionERKS0_
FN:845,_ZSt8_DestroyIP4EdgeS0_EvT_S2_RSaIT0_E
FNDA:45,_ZSt8_DestroyIP4EdgeS0_EvT_S2_RSaIT0_E
FN:845,_ZSt8_DestroyIPSt6vectorI4EdgeSaIS1_EES3_EvT_S5_RSaIT0_E
FNDA:6,_ZSt8_DestroyIPSt6vectorI4EdgeSaIS1_EES3_EvT_S5_RSaIT0_E
DA:463,6
DA:464,6
DA:495,2
DA:496,2
DA:495,74
DA:496,74
DA:495,6
DA:496,6
DA:511,0
DA:516,0
DA:520,0
DA:531,0
DA:535,0
DA:539,0
DA:531,2
DA:535,2
DA:539,2
DA:547,24
DA:550,24
DA:562,8
DA:563,8
DA:845,45
DA:848,45
DA:849,45
DA:845,6
DA:848,6
DA:849,6
end_of_record
SF:/home/eladubuntu/Git Projects/OS_2024-FINAL_PROJECT_MST/MSTFactory.hpp
FN:25,_ZN10MSTFactory15destroyStrategyEv
FNDA:2,_ZN10MSTFactory15destroyStrategyEv
DA:25,2
end_of_record
SF:/usr/include/c++/11/bits/stl_construct.h
FN:109,_ZSt10_ConstructISt6vectorI4EdgeSaIS1_EEJEEvPT_DpOT0_
FNDA:29,_ZSt10_ConstructISt6vectorI4EdgeSaIS1_EEJEEvPT_DpOT0_
FN:146,_ZSt8_DestroyISt6vectorI4EdgeSaIS1_EEEvPT_
FNDA:29,_ZSt8_DestroyISt6vectorI4EdgeSaIS1_EEEvPT_
FN:160,_ZNSt12_Destroy_auxILb0EE9__destroyIPSt6vectorI4EdgeSaIS3_EEEEvT_S7_
FNDA:6,_ZNSt12_Destroy_auxILb0EE9__destroyIPSt6vectorI4EdgeSaIS3_EEEEvT_S7_
FN:172,_ZNSt12_Destroy_auxILb1EE9__destroyIP4EdgeEEvT_S4_
FNDA:45,_ZNSt12_Destroy_auxILb1EE9__destroyIP4EdgeEEvT_S4_
FN:182,_ZSt8_DestroyIP4EdgeEvT_S2_
FNDA:45,_ZSt8_DestroyIP4EdgeEvT_S2_
FN:182,_ZSt8_DestroyIPSt6vectorI4EdgeSaIS1_EEEvT_S5_
FNDA:6,_ZSt8_DestroyIPSt6vectorI4EdgeSaIS1_EEEvT_S5_
DA:109,29
DA:119,29
DA:120,29
DA:146,29
DA:151,29
DA:153,29
DA:160,6
DA:162,35
DA:163,29
DA:164,6
DA:172,45
DA:182,45
DA:196,45
DA:197,45
DA:182,6
DA:196,6
DA:197,6
end_of_record
SF:/usr/include/c++/11/bits/stl_iterator.h
FN:1027,_ZN9__gnu_cxx17__normal_iteratorIPKSt6vectorI4EdgeSaIS2_EES1_IS4_SaIS4_EEEC2ERKS6_
FNDA:28,_ZN9__gnu_cxx17__normal_iteratorIPKSt6vectorI4EdgeSaIS2_EES1_IS4_SaIS4_EEEC2ERKS6_
FN:1105,_ZNK9__gnu_cxx17__normal_iteratorIPKSt6vectorI4EdgeSaIS2_EES1_IS4_SaIS4_EEE4baseEv
FNDA:28,_ZNK9__gnu_cxx17__normal_iteratorIPKSt6vectorI4EdgeSaIS2_EES1_IS4_SaIS4_EEE4baseEv
FN:1163,_ZN9__gnu_cxxeqIPKSt6vectorI4EdgeSaIS2_EES1_IS4_SaIS4_EEEEbRKNS_17__normal_iteratorIT_T0_EESE_
FNDA:14,_ZN9__gnu_cxxeqIPKSt6vectorI4EdgeSaIS2_EES1_IS4_SaIS4_EEEEbRKNS_17__normal_iteratorIT_T0_EESE_
DA:1027,28
DA:1028,28
DA:1105,28
DA:1106,28
DA:1163,14
DA:1166,14
end_of_record
SF:/usr/include/c++/11/bits/std_mutex.h
FN:98,_ZNSt5mutex4lockEv
FNDA:135,_ZNSt5mutex4lockEv
FN:108,_ZNSt5mutex8try_lockEv
FNDA:27,_ZNSt5mutex8try_lockEv
FN:115,_ZNSt5mutex6unlockEv
FNDA:157,_ZNSt5mutex6unlockEv
DA:98,135
DA:100,135
DA:103,135
DA:104,0
DA:105,135
DA:108,27
DA:111,27
DA:115,157
DA:118,157
DA:119,157
end_of_record
SF:/usr/include/c++/11/ext/new_allocator.h
FN:79,_ZN9__gnu_cxx13new_allocatorIcEC2Ev
FNDA:0,_ZN9__gnu_cxx13new_allocatorIcEC2Ev
FN:79,_ZN9__gnu_cxx13new_allocatorI4EdgeEC2Ev
FNDA:35,_ZN9__gnu_cxx13new_allocatorI4EdgeEC2Ev
FN:79,_ZN9__gnu_cxx13new_allocatorISt13_Rb_tree_nodeISt4pairIKiSt8functionIFvvEEEEEC2Ev
FNDA:2,_ZN9__gnu_cxx13new_allocatorISt13_Rb_tree_nodeISt4pairIKiSt8functionIFvvEEEEEC2Ev
FN:79,_ZN9__gnu_cxx13new_allocatorISt6vectorI4EdgeSaIS2_EEEC2Ev
FNDA:6,_ZN9__gnu_cxx13new_allocatorISt6vectorI4EdgeSaIS2_EEEC2Ev
FN:82,_ZN9__gnu_cxx13new_allocatorI4EdgeEC2ERKS2_
FNDA:16,_ZN9__gnu_cxx13new_allocatorI4EdgeEC2ERKS2_
FN:82,_ZN9__gnu_cxx13new_allocatorIcEC2ERKS1_
FNDA:0,_ZN9__gnu_cxx13new_allocatorIcEC2ERKS1_
FN:89,_ZN9__gnu_cxx13new_allocatorIcED2Ev
FNDA:0,_ZN9__gnu_cxx13new_allocatorIcED2Ev
FN:89,_ZN9__gnu_cxx13new_allocatorISt6vectorI4EdgeSaIS2_EEED2Ev
FNDA:6,_ZN9__gnu_cxx13new_allocatorISt6vectorI4EdgeSaIS2_EEED2Ev
FN:89,_ZN9__gnu_cxx13new_allocatorI4EdgeED2Ev
FNDA:51,_ZN9__gnu_cxx13new_allocatorI4EdgeED2Ev
FN:89,_ZN9__gnu_cxx13new_allocatorISt13_Rb_tree_nodeISt4pairIKiSt8functionIFvvEEEEED2Ev
FNDA:2,_ZN9__gnu_cxx13new_allocatorISt13_Rb_tree_nodeISt4pairIKiSt8functionIFvvEEEEED2Ev
FN:103,_ZN9__gnu_cxx13new_allocatorISt6vectorI4EdgeSaIS2_EEE8allocateEmPKv
FNDA:6,_ZN9__gnu_cxx13new_allocatorISt6vectorI4EdgeSaIS2_EEE8allocateEmPKv
FN:132,_ZN9__gnu_cxx13new_allocatorISt13_Rb_tree_nodeISt4pairIKiSt8functionIFvvEEEEE10deallocateEPS8_m
FNDA:2,_ZN9__gnu_cxx13new_allocatorISt13_Rb_tree_nodeISt4pairIKiSt8functionIFvvEEEEE10deallocateEPS8_m
FN:132,_ZN9__gnu_cxx13new_allocatorI4EdgeE10deallocateEPS1_m
FNDA:74,_ZN9__gnu_cxx13new_allocatorI4EdgeE10deallocateEPS1_m
FN:132,_ZN9__gnu_cxx13new_allocatorISt6vectorI4EdgeSaIS2_EEE10deallocateEPS4_m
FNDA:6,_ZN9__gnu_cxx13new_allocatorISt6vectorI4EdgeSaIS2_EEE10deallocateEPS4_m
FN:154,_ZNK9__gnu_cxx13new_allocatorISt6vectorI4EdgeSaIS2_EEE8max_sizeEv
FNDA:24,_ZNK9__gnu_cxx13new_allocatorISt6vectorI4EdgeSaIS2_EEE8max_sizeEv
FN:160,_ZN9__gnu_cxx13new_allocatorISt6vectorI4EdgeSaIS2_EEE9constructIS4_JS4_EEEvPT_DpOT0_
FNDA:0,_ZN9__gnu_cxx13new_allocatorISt6vectorI4EdgeSaIS2_EEE9constructIS4_JS4_EEEvPT_DpOT0_
FN:166,_ZN9__gnu_cxx13new_allocatorISt13_Rb_tree_nodeISt4pairIKiSt8functionIFvvEEEEE7destroyIS7_EEvPT_
FNDA:2,_ZN9__gnu_cxx13new_allocatorISt13_Rb_tree_nodeISt4pairIKiSt8functionIFvvEEEEE7destroyIS7_EEvPT_
FN:166,_ZN9__gnu_cxx13new_allocatorISt6vectorI4EdgeSaIS2_EEE7destroyIS4_EEvPT_
FNDA:0,_ZN9__gnu_cxx13new_allocatorISt6vectorI4EdgeSaIS2_EEE7destroyIS4_EEvPT_
FN:197,_ZNK9__gnu_cxx13new_allocatorISt6vectorI4EdgeSaIS2_EEE11_M_max_sizeEv
FNDA:30,_ZNK9__gnu_cxx13new_allocatorISt6vectorI4EdgeSaIS2_EEE11_M_max_sizeEv
DA:79,35
DA:79,2
DA:79,6
DA:79,0
DA:82,16
DA:82,0
DA:89,51
DA:89,2
DA:89,6
DA:89,0
DA:103,6
DA:111,6
DA:115,0
DA:116,0
DA:117,0
DA:127,6
DA:132,2
DA:145,2
DA:132,74
DA:145,74
DA:132,6
DA:145,6
DA:154,24
DA:155,24
DA:160,0
DA:162,0
DA:166,0
DA:168,0
DA:166,2
DA:168,2
DA:197,30
DA:200,30
end_of_record
SF:/usr/include/c++/11/thread
FN:92,_ZStlsIcSt11char_traitsIcEERSt13basic_ostreamIT_T0_ES6_NSt6thread2idE
FNDA:7,_ZStlsIcSt11char_traitsIcEERSt13basic_ostreamIT_T0_ES6_NSt6thread2idE
DA:92,7
DA:94,7
DA:95,0
DA:97,7
end_of_record
SF:/usr/include/c++/11/bits/stl_map.h
FN:185,_ZNSt3mapIiSt8functionIFvvEESt4lessIiESaISt4pairIKiS2_EEEC2Ev
FNDA:2,_ZNSt3mapIiSt8functionIFvvEESt4lessIiESaISt4pairIKiS2_EEEC2Ev
FN:302,_ZNSt3mapIiSt8functionIFvvEESt4lessIiESaISt4pairIKiS2_EEED2Ev
FNDA:2,_ZNSt3mapIiSt8functionIFvvEESt4lessIiESaISt4pairIKiS2_EEED2Ev
DA:185,2
DA:302,2
end_of_record
SF:/usr/include/c++/11/bits/std_thread.h
FN:86,_ZNSt6thread2idC2Ev
FNDA:7,_ZNSt6thread2idC2Ev
FN:89,_ZNSt6thread2idC2Em
FNDA:7,_ZNSt6thread2idC2Em
FN:287,_ZSteqNSt6thread2idES0_
FNDA:7,_ZSteqNSt6thread2idES0_
FN:313,_ZNSt11this_thread6get_idEv
FNDA:7,_ZNSt11this_thread6get_idEv
DA:86,7
DA:89,7
DA:287,7
DA:293,7
DA:313,7
DA:318,7
end_of_record
SF:/usr/include/c++/11/ext/string_conversions.h
FN:99,_ZN9__gnu_cxx12__to_xstringINSt7__cxx1112basic_stringIcSt11char_traitsIcESaIcEEEcEET_PFiPT0_mPKS8_P13__va_list_tagEmSB_z
FNDA:4,_ZN9__gnu_cxx12__to_xstringINSt7__cxx1112basic_stringIcSt11char_traitsIcESaIcEEEcEET_PFiPT0_mPKS8_P13__va_list_tagEmSB_z
DA:99,4
DA:105,4
DA:109,4
DA:111,4
DA:113,4
DA:115,4
end_of_record
SF:/usr/include/c++/11/bits/allocator.h
FN:156,_ZNSaI4EdgeEC2Ev
FNDA:35,_ZNSaI4EdgeEC2Ev
FN:156,_ZNSaISt13_Rb_tree_nodeISt4pairIKiSt8functionIFvvEEEEEC2Ev
FNDA:2,_ZNSaISt13_Rb_tree_nodeISt4pairIKiSt8functionIFvvEEEEEC2Ev
FN:156,_ZNSaISt6vectorI4EdgeSaIS0_EEEC2Ev
FNDA:6,_ZNSaISt6vectorI4EdgeSaIS0_EEEC2Ev
FN:159,_ZNSaI4EdgeEC2ERKS0_
FNDA:16,_ZNSaI4EdgeEC2ERKS0_
FN:174,_ZNSaI4EdgeED2Ev
FNDA:51,_ZNSaI4EdgeED2Ev
FN:174,_ZNSaISt13_Rb_tree_nodeISt4pairIKiSt8functionIFvvEEEEED2Ev
FNDA:2,_ZNSaISt13_Rb_tree_nodeISt4pairIKiSt8functionIFvvEEEEED2Ev
FN:174,_ZNSaISt6vectorI4EdgeSaIS0_EEED2Ev
FNDA:6,_ZNSaISt6vectorI4EdgeSaIS0_EEED2Ev
DA:156,35
DA:156,2
DA:156,6
DA:159,16
DA:160,16
DA:174,51
DA:174,2
DA:174,6
end_of_record
SF:/home/eladubuntu/Git Projects/OS_2024-FINAL_PROJECT_MST/MSTStrategy.hpp
end_of_record
SF:/usr/include/c++/11/bits/ios_base.h
FN:129,_ZStorSt13_Ios_OpenmodeS_
FNDA:30,_ZStorSt13_Ios_OpenmodeS_
DA:129,30
DA:130,30
end_of_record
SF:/usr/include/c++/11/bits/stl_tree.h
FN:146,_ZNSt20_Rb_tree_key_compareISt4lessIiEEC2Ev
FNDA:2,_ZNSt20_Rb_tree_key_compareISt4lessIiEEC2Ev
FN:173,_ZNSt15_Rb_tree_headerC2Ev
FNDA:2,_ZNSt15_Rb_tree_headerC2Ev
FN:206,_ZNSt15_Rb_tree_header8_M_resetEv
FNDA:2,_ZNSt15_Rb_tree_header8_M_resetEv
FN:234,_ZNSt13_Rb_tree_nodeISt4pairIKiSt8functionIFvvEEEE9_M_valptrEv
FNDA:10,_ZNSt13_Rb_tree_nodeISt4pairIKiSt8functionIFvvEEEE9_M_valptrEv
FN:547,_ZNSt8_Rb_treeIiSt4pairIKiSt8functionIFvvEEESt10_Select1stIS5_ESt4lessIiESaIS5_EE21_M_get_Node_allocatorEv
FNDA:8,_ZNSt8_Rb_treeIiSt4pairIKiSt8functionIFvvEEESt10_Select1stIS5_ESt4lessIiESaIS5_EE21_M_get_Node_allocatorEv
FN:564,_ZNSt8_Rb_treeIiSt4pairIKiSt8functionIFvvEEESt10_Select1stIS5_ESt4lessIiESaIS5_EE11_M_put_nodeEPSt13_Rb_tree_nodeIS5_E
FNDA:2,_ZNSt8_Rb_treeIiSt4pairIKiSt8functionIFvvEEESt10_Select1stIS5_ESt4lessIiESaIS5_EE11_M_put_nodeEPSt13_Rb_tree_nodeIS5_E
FN:618,_ZNSt8_Rb_treeIiSt4pairIKiSt8functionIFvvEEESt10_Select1stIS5_ESt4lessIiESaIS5_EE15_M_destroy_nodeEPSt13_Rb_tree_nodeIS5_E
FNDA:2,_ZNSt8_Rb_treeIiSt4pairIKiSt8functionIFvvEEESt10_Select1stIS5_ESt4lessIiESaIS5_EE15_M_destroy_nodeEPSt13_Rb_tree_nodeIS5_E
FN:629,_ZNSt8_Rb_treeIiSt4pairIKiSt8functionIFvvEEESt10_Select1stIS5_ESt4lessIiESaIS5_EE12_M_drop_nodeEPSt13_Rb_tree_nodeIS5_E
FNDA:2,_ZNSt8_Rb_treeIiSt4pairIKiSt8functionIFvvEEESt10_Select1stIS5_ESt4lessIiESaIS5_EE12_M_drop_nodeEPSt13_Rb_tree_nodeIS5_E
FN:667,_ZNSt8_Rb_treeIiSt4pairIKiSt8functionIFvvEEESt10_Select1stIS5_ESt4lessIiESaIS5_EE13_Rb_tree_implIS9_Lb1EEC2Ev
FNDA:2,_ZNSt8_Rb_treeIiSt4pairIKiSt8functionIFvvEEESt10_Select1stIS5_ESt4lessIiESaIS5_EE13_Rb_tree_implIS9_Lb1EEC2Ev
FN:734,_ZNKSt8_Rb_treeIiSt4pairIKiSt8functionIFvvEEESt10_Select1stIS5_ESt4lessIiESaIS5_EE9_M_mbeginEv
FNDA:10,_ZNKSt8_Rb_treeIiSt4pairIKiSt8functionIFvvEEESt10_Select1stIS5_ESt4lessIiESaIS5_EE9_M_mbeginEv
FN:738,_ZNSt8_Rb_treeIiSt4pairIKiSt8functionIFvvEEESt10_Select1stIS5_ESt4lessIiESaIS5_EE8_M_beginEv
FNDA:10,_ZNSt8_Rb_treeIiSt4pairIKiSt8functionIFvvEEESt10_Select1stIS5_ESt4lessIiESaIS5_EE8_M_beginEv
FN:779,_ZNSt8_Rb_treeIiSt4pairIKiSt8functionIFvvEEESt10_Select1stIS5_ESt4lessIiESaIS5_EE7_S_leftEPSt18_Rb_tree_node_base
FNDA:6,_ZNSt8_Rb_treeIiSt4pairIKiSt8functionIFvvEEESt10_Select1stIS5_ESt4lessIiESaIS5_EE7_S_leftEPSt18_Rb_tree_node_base
FN:787,_ZNSt8_Rb_treeIiSt4pairIKiSt8functionIFvvEEESt10_Select1stIS5_ESt4lessIiESaIS5_EE8_S_rightEPSt18_Rb_tree_node_base
FNDA:2,_ZNSt8_Rb_treeIiSt4pairIKiSt8functionIFvvEEESt10_Select1stIS5_ESt4lessIiESaIS5_EE8_S_rightEPSt18_Rb_tree_node_base
FN:928,_ZNSt8_Rb_treeIiSt4pairIKiSt8functionIFvvEEESt10_Select1stIS5_ESt4lessIiESaIS5_EEC2Ev
FNDA:2,_ZNSt8_Rb_treeIiSt4pairIKiSt8functionIFvvEEESt10_Select1stIS5_ESt4lessIiESaIS5_EEC2Ev
FN:983,_ZNSt8_Rb_treeIiSt4pairIKiSt8functionIFvvEEESt10_Select1stIS5_ESt4lessIiESaIS5_EED2Ev
FNDA:2,_ZNSt8_Rb_treeIiSt4pairIKiSt8functionIFvvEEESt10_Select1stIS5_ESt4lessIiESaIS5_EED2Ev
FN:1883,_ZNSt8_Rb_treeIiSt4pairIKiSt8functionIFvvEEESt10_Select1stIS5_ESt4lessIiESaIS5_EE8_M_eraseEPSt13_Rb_tree_nodeIS5_E
FNDA:4,_ZNSt8_Rb_treeIiSt4pairIKiSt8functionIFvvEEESt10_Select1stIS5_ESt4lessIiESaIS5_EE8_M_eraseEPSt13_Rb_tree_nodeIS5_E
DA:146,2
DA:150,2
DA:173,2
DA:174,2
DA:175,2
DA:176,2
DA:177,2
DA:206,2
DA:208,2
DA:209,2
DA:210,2
DA:211,2
DA:212,2
DA:234,10
DA:235,10
DA:547,8
DA:548,8
DA:564,2
DA:565,2
DA:618,2
DA:623,2
DA:624,2
DA:626,2
DA:629,2
DA:631,2
DA:632,2
DA:633,2
DA:667,2
DA:671,2
DA:672,2
DA:734,10
DA:735,10
DA:738,10
DA:739,10
DA:779,6
DA:780,6
DA:787,2
DA:788,2
DA:928,2
DA:983,2
DA:984,2
DA:1883,4
DA:1887,6
DA:1889,2
DA:1890,2
DA:1891,2
DA:1892,2
DA:1894,4
end_of_record
SF:/usr/include/c++/11/bits/std_function.h
FN:85,_ZNSt9_Any_data9_M_accessEv
FNDA:108,_ZNSt9_Any_data9_M_accessEv
FN:86,_ZNKSt9_Any_data9_M_accessEv
FNDA:54,_ZNKSt9_Any_data9_M_accessEv
FN:90,_ZNSt9_Any_data9_M_accessIPZ16acceptConnectioniRSt10unique_ptrI5GraphSt14default_deleteIS2_EER10MSTFactoryRS1_I4TreeS3_IS9_EERS1_I12LFThreadPoolS3_ISD_EEEUlvE_EERT_v
FNDA:16,_ZNSt9_Any_data9_M_accessIPZ16acceptConnectioniRSt10unique_ptrI5GraphSt14default_deleteIS2_EER10MSTFactoryRS1_I4TreeS3_IS9_EERS1_I12LFThreadPoolS3_ISD_EEEUlvE_EERT_v
FN:90,_ZNSt9_Any_data9_M_accessIPKSt9type_infoEERT_v
FNDA:0,_ZNSt9_Any_data9_M_accessIPKSt9type_infoEERT_v
FN:90,_ZNSt9_Any_data9_M_accessIPZ4mainEUlvE0_EERT_v
FNDA:8,_ZNSt9_Any_data9_M_accessIPZ4mainEUlvE0_EERT_v
FN:90,_ZNSt9_Any_data9_M_accessIPZ4mainEUliE_EERT_v
FNDA:4,_ZNSt9_Any_data9_M_accessIPZ4mainEUliE_EERT_v
FN:95,_ZNKSt9_Any_data9_M_accessIPZ4mainEUlvE0_EERKT_v
FNDA:4,_ZNKSt9_Any_data9_M_accessIPZ4mainEUlvE0_EERKT_v
FN:95,_ZNKSt9_Any_data9_M_accessIPZ4mainEUliE_EERKT_v
FNDA:2,_ZNKSt9_Any_data9_M_accessIPZ4mainEUliE_EERKT_v
FN:95,_ZNKSt9_Any_data9_M_accessIPZ16acceptConnectioniRSt10unique_ptrI5GraphSt14default_deleteIS2_EER10MSTFactoryRS1_I4TreeS3_IS9_EERS1_I12LFThreadPoolS3_ISD_EEEUlvE_EERKT_v
FNDA:8,_ZNKSt9_Any_data9_M_accessIPZ16acceptConnectioniRSt10unique_ptrI5GraphSt14default_deleteIS2_EER10MSTFactoryRS1_I4TreeS3_IS9_EERS1_I12LFThreadPoolS3_ISD_EEEUlvE_EERKT_v
FN:134,_ZNSt14_Function_base13_Base_managerIZ16acceptConnectioniRSt10unique_ptrI5GraphSt14default_deleteIS2_EER10MSTFactoryRS1_I4TreeS3_IS9_EERS1_I12LFThreadPoolS3_ISD_EEEUlvE_E14_M_get_pointerERKSt9_Any_data
FNDA:8,_ZNSt14_Function_base13_Base_managerIZ16acceptConnectioniRSt10unique_ptrI5GraphSt14default_deleteIS2_EER10MSTFactoryRS1_I4TreeS3_IS9_EERS1_I12LFThreadPoolS3_ISD_EEEUlvE_E14_M_get_pointerERKSt9_Any_data
FN:134,_ZNSt14_Function_base13_Base_managerIZ4mainEUliE_E14_M_get_pointerERKSt9_Any_data
FNDA:2,_ZNSt14_Function_base13_Base_managerIZ4mainEUliE_E14_M_get_pointerERKSt9_Any_data
FN:134,_ZNSt14_Function_base13_Base_managerIZ4mainEUlvE0_E14_M_get_pointerERKSt9_Any_data
FNDA:4,_ZNSt14_Function_base13_Base_managerIZ4mainEUlvE0_E14_M_get_pointerERKSt9_Any_data
FN:158,_ZNSt14_Function_base13_Base_managerIZ16acceptConnectioniRSt10unique_ptrI5GraphSt14default_deleteIS2_EER10MSTFactoryRS1_I4TreeS3_IS9_EERS1_I12LFThreadPoolS3_ISD_EEEUlvE_E9_M_createISH_EEvRSt9_Any_dataOT_St17integral_constantIbLb0EE
FNDA:2,_ZNSt14_Function_base13_Base_managerIZ16acceptConnectioniRSt10unique_ptrI5GraphSt14default_deleteIS2_EER10MSTFactoryRS1_I4TreeS3_IS9_EERS1_I12LFThreadPoolS3_ISD_EEEUlvE_E9_M_createISH_EEvRSt9_Any_dataOT_St17integral_constantIbLb0EE
FN:158,_ZNSt14_Function_base13_Base_managerIZ4mainEUlvE0_E9_M_createIRKS1_EEvRSt9_Any_dataOT_St17integral_constantIbLb0EE
FNDA:2,_ZNSt14_Function_base13_Base_managerIZ4mainEUlvE0_E9_M_createIRKS1_EEvRSt9_Any_dataOT_St17integral_constantIbLb0EE
FN:158,_ZNSt14_Function_base13_Base_managerIZ4mainEUliE_E9_M_createIRKS1_EEvRSt9_Any_dataOT_St17integral_constantIbLb0EE
FNDA:0,_ZNSt14_Function_base13_Base_managerIZ4mainEUliE_E9_M_createIRKS1_EEvRSt9_Any_dataOT_St17integral_constantIbLb0EE
FN:158,_ZNSt14_Function_base13_Base_managerIZ4mainEUlvE0_E9_M_createIS1_EEvRSt9_Any_dataOT_St17integral_constantIbLb0EE
FNDA:2,_ZNSt14_Function_base13_Base_managerIZ4mainEUlvE0_E9_M_createIS1_EEvRSt9_Any_dataOT_St17integral_constantIbLb0EE
FN:158,_ZNSt14_Function_base13_Base_managerIZ4mainEUliE_E9_M_createIS1_EEvRSt9_Any_dataOT_St17integral_constantIbLb0EE
FNDA:2,_ZNSt14_Function_base13_Base_managerIZ4mainEUliE_E9_M_createIS1_EEvRSt9_Any_dataOT_St17integral_constantIbLb0EE
FN:158,_ZNSt14_Function_base13_Base_managerIZ16acceptConnectioniRSt10unique_ptrI5GraphSt14default_deleteIS2_EER10MSTFactoryRS1_I4TreeS3_IS9_EERS1_I12LFThreadPoolS3_ISD_EEEUlvE_E9_M_createIRKSH_EEvRSt9_Any_dataOT_St17integral_constantIbLb0EE
FNDA:6,_ZNSt14_Function_base13_Base_managerIZ16acceptConnectioniRSt10unique_ptrI5GraphSt14default_deleteIS2_EER10MSTFactoryRS1_I4TreeS3_IS9_EERS1_I12LFThreadPoolS3_ISD_EEEUlvE_E9_M_createIRKSH_EEvRSt9_Any_dataOT_St17integral_constantIbLb0EE
FN:173,_ZNSt14_Function_base13_Base_managerIZ16acceptConnectioniRSt10unique_ptrI5GraphSt14default_deleteIS2_EER10MSTFactoryRS1_I4TreeS3_IS9_EERS1_I12LFThreadPoolS3_ISD_EEEUlvE_E10_M_destroyERSt9_Any_dataSt17integral_constantIbLb0EE
FNDA:8,_ZNSt14_Function_base13_Base_managerIZ16acceptConnectioniRSt10unique_ptrI5GraphSt14default_deleteIS2_EER10MSTFactoryRS1_I4TreeS3_IS9_EERS1_I12LFThreadPoolS3_ISD_EEEUlvE_E10_M_destroyERSt9_Any_dataSt17integral_constantIbLb0EE
FN:173,_ZNSt14_Function_base13_Base_managerIZ4mainEUliE_E10_M_destroyERSt9_Any_dataSt17integral_constantIbLb0EE
FNDA:2,_ZNSt14_Function_base13_Base_managerIZ4mainEUliE_E10_M_destroyERSt9_Any_dataSt17integral_constantIbLb0EE
FN:173,_ZNSt14_Function_base13_Base_managerIZ4mainEUlvE0_E10_M_destroyERSt9_Any_dataSt17integral_constantIbLb0EE
FNDA:4,_ZNSt14_Function_base13_Base_managerIZ4mainEUlvE0_E10_M_destroyERSt9_Any_dataSt17integral_constantIbLb0EE
FN:180,_ZNSt14_Function_base13_Base_managerIZ4mainEUlvE0_E10_M_managerERSt9_Any_dataRKS3_St18_Manager_operation
FNDA:6,_ZNSt14_Function_base13_Base_managerIZ4mainEUlvE0_E10_M_managerERSt9_Any_dataRKS3_St18_Manager_operation
FN:180,_ZNSt14_Function_base13_Base_managerIZ16acceptConnectioniRSt10unique_ptrI5GraphSt14default_deleteIS2_EER10MSTFactoryRS1_I4TreeS3_IS9_EERS1_I12LFThreadPoolS3_ISD_EEEUlvE_E10_M_managerERSt9_Any_dataRKSJ_St18_Manager_operation
FNDA:14,_ZNSt14_Function_base13_Base_managerIZ16acceptConnectioniRSt10unique_ptrI5GraphSt14default_deleteIS2_EER10MSTFactoryRS1_I4TreeS3_IS9_EERS1_I12LFThreadPoolS3_ISD_EEEUlvE_E10_M_managerERSt9_Any_dataRKSJ_St18_Manager_operation
FN:180,_ZNSt14_Function_base13_Base_managerIZ4mainEUliE_E10_M_managerERSt9_Any_dataRKS3_St18_Manager_operation
FNDA:2,_ZNSt14_Function_base13_Base_managerIZ4mainEUliE_E10_M_managerERSt9_Any_dataRKS3_St18_Manager_operation
FN:211,_ZNSt14_Function_base13_Base_managerIZ16acceptConnectioniRSt10unique_ptrI5GraphSt14default_deleteIS2_EER10MSTFactoryRS1_I4TreeS3_IS9_EERS1_I12LFThreadPoolS3_ISD_EEEUlvE_E15_M_init_functorIRKSH_EEvRSt9_Any_dataOT_
FNDA:6,_ZNSt14_Function_base13_Base_managerIZ16acceptConnectioniRSt10unique_ptrI5GraphSt14default_deleteIS2_EER10MSTFactoryRS1_I4TreeS3_IS9_EERS1_I12LFThreadPoolS3_ISD_EEEUlvE_E15_M_init_functorIRKSH_EEvRSt9_Any_dataOT_
FN:211,_ZNSt14_Function_base13_Base_managerIZ4mainEUlvE0_E15_M_init_functorIRKS1_EEvRSt9_Any_dataOT_
FNDA:2,_ZNSt14_Function_base13_Base_managerIZ4mainEUlvE0_E15_M_init_functorIRKS1_EEvRSt9_Any_dataOT_
FN:211,_ZNSt14_Function_base13_Base_managerIZ16acceptConnectioniRSt10unique_ptrI5GraphSt14default_deleteIS2_EER10MSTFactoryRS1_I4TreeS3_IS9_EERS1_I12LFThreadPoolS3_ISD_EEEUlvE_E15_M_init_functorISH_EEvRSt9_Any_dataOT_
FNDA:2,_ZNSt14_Function_base13_Base_managerIZ16acceptConnectioniRSt10unique_ptrI5GraphSt14default_deleteIS2_EER10MSTFactoryRS1_I4TreeS3_IS9_EERS1_I12LFThreadPoolS3_ISD_EEEUlvE_E15_M_init_functorISH_EEvRSt9_Any_dataOT_
FN:211,_ZNSt14_Function_base13_Base_managerIZ4mainEUlvE0_E15_M_init_functorIS1_EEvRSt9_Any_dataOT_
FNDA:2,_ZNSt14_Function_base13_Base_managerIZ4mainEUlvE0_E15_M_init_functorIS1_EEvRSt9_Any_dataOT_
FN:211,_ZNSt14_Function_base13_Base_managerIZ4mainEUliE_E15_M_init_functorIRKS1_EEvRSt9_Any_dataOT_
FNDA:0,_ZNSt14_Function_base13_Base_managerIZ4mainEUliE_E15_M_init_functorIRKS1_EEvRSt9_Any_dataOT_
FN:211,_ZNSt14_Function_base13_Base_managerIZ4mainEUliE_E15_M_init_functorIS1_EEvRSt9_Any_dataOT_
FNDA:2,_ZNSt14_Function_base13_Base_managerIZ4mainEUliE_E15_M_init_functorIS1_EEvRSt9_Any_dataOT_
FN:235,_ZNSt14_Function_base13_Base_managerIZ4mainEUliE_E21_M_not_empty_functionIS1_EEbRKT_
FNDA:2,_ZNSt14_Function_base13_Base_managerIZ4mainEUliE_E21_M_not_empty_functionIS1_EEbRKT_
FN:235,_ZNSt14_Function_base13_Base_managerIZ4mainEUlvE0_E21_M_not_empty_functionIS1_EEbRKT_
FNDA:2,_ZNSt14_Function_base13_Base_managerIZ4mainEUlvE0_E21_M_not_empty_functionIS1_EEbRKT_
FN:235,_ZNSt14_Function_base13_Base_managerIZ16acceptConnectioniRSt10unique_ptrI5GraphSt14default_deleteIS2_EER10MSTFactoryRS1_I4TreeS3_IS9_EERS1_I12LFThreadPoolS3_ISD_EEEUlvE_E21_M_not_empty_functionISH_EEbRKT_
FNDA:2,_ZNSt14_Function_base13_Base_managerIZ16acceptConnectioniRSt10unique_ptrI5GraphSt14default_deleteIS2_EER10MSTFactoryRS1_I4TreeS3_IS9_EERS1_I12LFThreadPoolS3_ISD_EEEUlvE_E21_M_not_empty_functionISH_EEbRKT_
FN:239,_ZNSt14_Function_baseC2Ev
FNDA:78,_ZNSt14_Function_baseC2Ev
FN:241,_ZNSt14_Function_baseD2Ev
FNDA:78,_ZNSt14_Function_baseD2Ev
FN:247,_ZNKSt14_Function_base8_M_emptyEv
FNDA:54,_ZNKSt14_Function_base8_M_emptyEv
FN:267,_ZNSt17_Function_handlerIFviEZ4mainEUliE_E10_M_managerERSt9_Any_dataRKS3_St18_Manager_operation
FNDA:2,_ZNSt17_Function_handlerIFviEZ4mainEUliE_E10_M_managerERSt9_Any_dataRKS3_St18_Manager_operation
FN:267,_ZNSt17_Function_handlerIFvvEZ16acceptConnectioniRSt10unique_ptrI5GraphSt14default_deleteIS2_EER10MSTFactoryRS1_I4TreeS3_IS9_EERS1_I12LFThreadPoolS3_ISD_EEEUlvE_E10_M_managerERSt9_Any_dataRKSJ_St18_Manager_operation
FNDA:14,_ZNSt17_Function_handlerIFvvEZ16acceptConnectioniRSt10unique_ptrI5GraphSt14default_deleteIS2_EER10MSTFactoryRS1_I4TreeS3_IS9_EERS1_I12LFThreadPoolS3_ISD_EEEUlvE_E10_M_managerERSt9_Any_dataRKSJ_St18_Manager_operation
FN:267,_ZNSt17_Function_handlerIFvvEZ4mainEUlvE0_E10_M_managerERSt9_Any_dataRKS3_St18_Manager_operation
FNDA:6,_ZNSt17_Function_handlerIFvvEZ4mainEUlvE0_E10_M_managerERSt9_Any_dataRKS3_St18_Manager_operation
FN:288,_ZNSt17_Function_handlerIFvvEZ16acceptConnectioniRSt10unique_ptrI5GraphSt14default_deleteIS2_EER10MSTFactoryRS1_I4TreeS3_IS9_EERS1_I12LFThreadPoolS3_ISD_EEEUlvE_E9_M_invokeERKSt9_Any_data
FNDA:2,_ZNSt17_Function_handlerIFvvEZ16acceptConnectioniRSt10unique_ptrI5GraphSt14default_deleteIS2_EER10MSTFactoryRS1_I4TreeS3_IS9_EERS1_I12LFThreadPoolS3_ISD_EEEUlvE_E9_M_invokeERKSt9_Any_data
FN:288,_ZNSt17_Function_handlerIFvvEZ4mainEUlvE0_E9_M_invokeERKSt9_Any_data
FNDA:2,_ZNSt17_Function_handlerIFvvEZ4mainEUlvE0_E9_M_invokeERKSt9_Any_data
FN:288,_ZNSt17_Function_handlerIFviEZ4mainEUliE_E9_M_invokeERKSt9_Any_dataOi
FNDA:2,_ZNSt17_Function_handlerIFviEZ4mainEUliE_E9_M_invokeERKSt9_Any_dataOi
FN:368,_ZNSt8functionIFviEEC2Ev
FNDA:2,_ZNSt8functionIFviEEC2Ev
FN:386,_ZNSt8functionIFvvEEC2ERKS1_
FNDA:28,_ZNSt8functionIFvvEEC2ERKS1_
FN:435,_ZNSt8functionIFvvEEC2IZ4mainEUlvE0_vEEOT_
FNDA:2,_ZNSt8functionIFvvEEC2IZ4mainEUlvE0_vEEOT_
FN:435,_ZNSt8functionIFvvEEC2IZ16acceptConnectioniRSt10unique_ptrI5GraphSt14default_deleteIS4_EER10MSTFactoryRS3_I4TreeS5_ISB_EERS3_I12LFThreadPoolS5_ISF_EEEUlvE_vEEOT_
FNDA:2,_ZNSt8functionIFvvEEC2IZ16acceptConnectioniRSt10unique_ptrI5GraphSt14default_deleteIS4_EER10MSTFactoryRS3_I4TreeS5_ISB_EERS3_I12LFThreadPoolS5_ISF_EEEUlvE_vEEOT_
FN:435,_ZNSt8functionIFviEEC2IZ4mainEUliE_vEEOT_
FNDA:2,_ZNSt8functionIFviEEC2IZ4mainEUliE_vEEOT_
FN:530,_ZNSt8functionIFviEEaSIZ4mainEUliE_EENSt9enable_ifIXsrNS1_9_CallableIT_NS4_IXntsrSt7is_sameINSt9remove_cvINSt16remove_referenceIS6_E4typeEE4typeES1_E5valueESt5decayIS6_EE4type4typeESt15__invoke_resultIRSJ_JiEEEE5valueERS1_E4typeEOS6_
FNDA:2,_ZNSt8functionIFviEEaSIZ4mainEUliE_EENSt9enable_ifIXsrNS1_9_CallableIT_NS4_IXntsrSt7is_sameINSt9remove_cvINSt16remove_referenceIS6_E4typeEE4typeES1_E5valueESt5decayIS6_EE4type4typeESt15__invoke_resultIRSJ_JiEEEE5valueERS1_E4typeEOS6_
FN:555,_ZNSt8functionIFviEE4swapERS1_
FNDA:2,_ZNSt8functionIFviEE4swapERS1_
FN:572,_ZNKSt8functionIFvvEEcvbEv
FNDA:28,_ZNKSt8functionIFvvEEcvbEv
FN:586,_ZNKSt8functionIFviEEclEi
FNDA:2,_ZNKSt8functionIFviEEclEi
DA:85,108
DA:86,54
DA:90,4
DA:91,4
DA:90,8
DA:91,8
DA:90,16
DA:91,16
DA:90,0
DA:91,0
DA:95,2
DA:96,2
DA:95,4
DA:96,4
DA:95,8
DA:96,8
DA:134,2
DA:142,2
DA:134,4
DA:142,4
DA:134,8
DA:142,8
DA:158,0
DA:160,0
DA:161,0
DA:162,0
DA:158,2
DA:160,2
DA:161,2
DA:162,2
DA:158,6
DA:160,6
DA:161,6
DA:162,6
DA:158,2
DA:160,2
DA:161,2
DA:162,2
DA:158,2
DA:160,2
DA:161,2
DA:162,2
DA:158,2
DA:160,2
DA:161,2
DA:162,2
DA:173,2
DA:175,2
DA:176,2
DA:173,4
DA:175,4
DA:176,4
DA:173,8
DA:175,8
DA:176,8
DA:180,2
DA:183,2
DA:185,0
DA:187,0
DA:191,0
DA:193,0
DA:194,0
DA:195,0
DA:197,0
DA:198,0
DA:199,0
DA:200,0
DA:202,2
DA:203,2
DA:204,2
DA:206,2
DA:180,6
DA:183,6
DA:185,0
DA:187,0
DA:191,0
DA:193,0
DA:194,0
DA:195,0
DA:197,2
DA:198,2
DA:199,2
DA:200,2
DA:202,4
DA:203,4
DA:204,4
DA:206,6
DA:180,14
DA:183,14
DA:185,0
DA:187,0
DA:191,0
DA:193,0
DA:194,0
DA:195,0
DA:197,6
DA:198,6
DA:199,6
DA:200,6
DA:202,8
DA:203,8
DA:204,8
DA:206,14
DA:211,0
DA:215,0
DA:216,0
DA:211,2
DA:215,2
DA:216,2
DA:211,6
DA:215,6
DA:216,6
DA:211,2
DA:215,2
DA:216,2
DA:211,2
DA:215,2
DA:216,2
DA:211,2
DA:215,2
DA:216,2
DA:235,2
DA:236,2
DA:235,2
DA:236,2
DA:235,2
DA:236,2
DA:239,78
DA:241,78
DA:243,78
DA:244,54
DA:245,78
DA:247,54
DA:267,2
DA:270,2
DA:273,0
DA:274,0
DA:275,0
DA:277,0
DA:278,0
DA:279,0
DA:281,2
DA:282,2
DA:284,2
DA:267,6
DA:270,6
DA:273,0
DA:274,0
DA:275,0
DA:277,0
DA:278,0
DA:279,0
DA:281,6
DA:282,6
DA:284,6
DA:267,14
DA:270,14
DA:273,0
DA:274,0
DA:275,0
DA:277,0
DA:278,0
DA:279,0
DA:281,14
DA:282,14
DA:284,14
DA:288,2
DA:290,2
DA:291,2
DA:288,2
DA:290,2
DA:291,2
DA:288,2
DA:290,2
DA:291,2
DA:368,2
DA:369,2
DA:386,28
DA:387,28
DA:389,28
DA:391,28
DA:392,28
DA:393,28
DA:395,28
DA:435,2
DA:437,2
DA:447,2
DA:449,2
DA:451,2
DA:452,2
DA:454,2
DA:435,2
DA:437,2
DA:447,2
DA:449,2
DA:451,2
DA:452,2
DA:454,2
DA:435,2
DA:437,2
DA:447,2
DA:449,2
DA:451,2
DA:452,2
DA:454,2
DA:530,2
DA:533,2
DA:534,2
DA:555,2
DA:557,2
DA:558,2
DA:559,2
DA:560,2
DA:572,28
DA:573,28
DA:586,2
DA:588,2
DA:589,0
DA:590,2
end_of_record
SF:/usr/include/c++/11/bits/stl_iterator_base_types.h
FN:238,_ZSt19__iterator_categoryIPcENSt15iterator_traitsIT_E17iterator_categoryERKS2_
FNDA:20,_ZSt19__iterator_categoryIPcENSt15iterator_traitsIT_E17iterator_categoryERKS2_
FN:238,_ZSt19__iterator_categoryIPKcENSt15iterator_traitsIT_E17iterator_categoryERKS3_
FNDA:52,_ZSt19__iterator_categoryIPKcENSt15iterator_traitsIT_E17iterator_categoryERKS3_
DA:238,20
DA:239,20
DA:238,52
DA:239,52
end_of_record
SF:/home/eladubuntu/Git Projects/OS_2024-FINAL_PROJECT_MST/Graph.hpp
FN:54,_ZN5GraphC2Eii
FNDA:2,_ZN5GraphC2Eii
FN:83,_ZNK5Graph17getVerticesNumberEv
FNDA:22,_ZNK5Graph17getVerticesNumberEv
FN:90,_ZNK5Graph6getAdjEv
FNDA:32,_ZNK5Graph6getAdjEv
DA:54,2
DA:83,22
DA:90,32
end_of_record
SF:/usr/include/c++/11/bits/this_thread_sleep.h
FN:70,_ZNSt11this_thread9sleep_forIlSt5ratioILl1ELl1000EEEEvRKNSt6chrono8durationIT_T0_EE
FNDA:195621,_ZNSt11this_thread9sleep_forIlSt5ratioILl1ELl1000EEEEvRKNSt6chrono8durationIT_T0_EE
DA:70,195621
DA:72,195621
DA:73,0
DA:74,195621
DA:75,195621
DA:77,391242
DA:79,195621
DA:80,195621
DA:82,195621
end_of_record
SF:/usr/include/c++/11/bits/unique_ptr.h
FN:79,_ZNKSt14default_deleteI4TreeEclEPS0_
FNDA:4,_ZNKSt14default_deleteI4TreeEclEPS0_
FN:79,_ZNKSt14default_deleteI5GraphEclEPS0_
FNDA:2,_ZNKSt14default_deleteI5GraphEclEPS0_
FN:79,_ZNKSt14default_deleteI12LFThreadPoolEclEPS0_
FNDA:2,_ZNKSt14default_deleteI12LFThreadPoolEclEPS0_
FN:79,_ZNKSt14default_deleteI11MSTStrategyEclEPS0_
FNDA:4,_ZNKSt14default_deleteI11MSTStrategyEclEPS0_
FN:79,_ZNKSt14default_deleteI7ReactorEclEPS0_
FNDA:2,_ZNKSt14default_deleteI7ReactorEclEPS0_
FN:155,_ZNSt15__uniq_ptr_implI5GraphSt14default_deleteIS0_EEC2EPS0_
FNDA:2,_ZNSt15__uniq_ptr_implI5GraphSt14default_deleteIS0_EEC2EPS0_
FN:155,_ZNSt15__uniq_ptr_implI12LFThreadPoolSt14default_deleteIS0_EEC2EPS0_
FNDA:2,_ZNSt15__uniq_ptr_implI12LFThreadPoolSt14default_deleteIS0_EEC2EPS0_
FN:155,_ZNSt15__uniq_ptr_implI7ReactorSt14default_deleteIS0_EEC2EPS0_
FNDA:2,_ZNSt15__uniq_ptr_implI7ReactorSt14default_deleteIS0_EEC2EPS0_
FN:165,_ZNSt15__uniq_ptr_implI5GraphSt14default_deleteIS0_EEaSEOS3_
FNDA:2,_ZNSt15__uniq_ptr_implI5GraphSt14default_deleteIS0_EEaSEOS3_
FN:165,_ZNSt15__uniq_ptr_implI4TreeSt14default_deleteIS0_EEaSEOS3_
FNDA:4,_ZNSt15__uniq_ptr_implI4TreeSt14default_deleteIS0_EEaSEOS3_
FN:165,_ZNSt15__uniq_ptr_implI12LFThreadPoolSt14default_deleteIS0_EEaSEOS3_
FNDA:2,_ZNSt15__uniq_ptr_implI12LFThreadPoolSt14default_deleteIS0_EEaSEOS3_
FN:172,_ZNSt15__uniq_ptr_implI7ReactorSt14default_deleteIS0_EE6_M_ptrEv
FNDA:6,_ZNSt15__uniq_ptr_implI7ReactorSt14default_deleteIS0_EE6_M_ptrEv
FN:172,_ZNSt15__uniq_ptr_implI11MSTStrategySt14default_deleteIS0_EE6_M_ptrEv
FNDA:34,_ZNSt15__uniq_ptr_implI11MSTStrategySt14default_deleteIS0_EE6_M_ptrEv
FN:172,_ZNSt15__uniq_ptr_implI12LFThreadPoolSt14default_deleteIS0_EE6_M_ptrEv
FNDA:16,_ZNSt15__uniq_ptr_implI12LFThreadPoolSt14default_deleteIS0_EE6_M_ptrEv
FN:172,_ZNSt15__uniq_ptr_implI5GraphSt14default_deleteIS0_EE6_M_ptrEv
FNDA:20,_ZNSt15__uniq_ptr_implI5GraphSt14default_deleteIS0_EE6_M_ptrEv
FN:172,_ZNSt15__uniq_ptr_implI4TreeSt14default_deleteIS0_EE6_M_ptrEv
FNDA:44,_ZNSt15__uniq_ptr_implI4TreeSt14default_deleteIS0_EE6_M_ptrEv
FN:173,_ZNKSt15__uniq_ptr_implI7ReactorSt14default_deleteIS0_EE6_M_ptrEv
FNDA:4,_ZNKSt15__uniq_ptr_implI7ReactorSt14default_deleteIS0_EE6_M_ptrEv
FN:173,_ZNKSt15__uniq_ptr_implI5GraphSt14default_deleteIS0_EE6_M_ptrEv
FNDA:70,_ZNKSt15__uniq_ptr_implI5GraphSt14default_deleteIS0_EE6_M_ptrEv
FN:173,_ZNKSt15__uniq_ptr_implI4TreeSt14default_deleteIS0_EE6_M_ptrEv
FNDA:28,_ZNKSt15__uniq_ptr_implI4TreeSt14default_deleteIS0_EE6_M_ptrEv
FN:173,_ZNKSt15__uniq_ptr_implI12LFThreadPoolSt14default_deleteIS0_EE6_M_ptrEv
FNDA:2,_ZNKSt15__uniq_ptr_implI12LFThreadPoolSt14default_deleteIS0_EE6_M_ptrEv
FN:174,_ZNSt15__uniq_ptr_implI12LFThreadPoolSt14default_deleteIS0_EE10_M_deleterEv
FNDA:6,_ZNSt15__uniq_ptr_implI12LFThreadPoolSt14default_deleteIS0_EE10_M_deleterEv
FN:174,_ZNSt15__uniq_ptr_implI11MSTStrategySt14default_deleteIS0_EE10_M_deleterEv
FNDA:12,_ZNSt15__uniq_ptr_implI11MSTStrategySt14default_deleteIS0_EE10_M_deleterEv
FN:174,_ZNSt15__uniq_ptr_implI5GraphSt14default_deleteIS0_EE10_M_deleterEv
FNDA:6,_ZNSt15__uniq_ptr_implI5GraphSt14default_deleteIS0_EE10_M_deleterEv
FN:174,_ZNSt15__uniq_ptr_implI7ReactorSt14default_deleteIS0_EE10_M_deleterEv
FNDA:2,_ZNSt15__uniq_ptr_implI7ReactorSt14default_deleteIS0_EE10_M_deleterEv
FN:174,_ZNSt15__uniq_ptr_implI4TreeSt14default_deleteIS0_EE10_M_deleterEv
FNDA:12,_ZNSt15__uniq_ptr_implI4TreeSt14default_deleteIS0_EE10_M_deleterEv
FN:177,_ZNSt15__uniq_ptr_implI11MSTStrategySt14default_deleteIS0_EE5resetEPS0_
FNDA:9,_ZNSt15__uniq_ptr_implI11MSTStrategySt14default_deleteIS0_EE5resetEPS0_
FN:177,_ZNSt15__uniq_ptr_implI4TreeSt14default_deleteIS0_EE5resetEPS0_
FNDA:14,_ZNSt15__uniq_ptr_implI4TreeSt14default_deleteIS0_EE5resetEPS0_
FN:177,_ZNSt15__uniq_ptr_implI5GraphSt14default_deleteIS0_EE5resetEPS0_
FNDA:6,_ZNSt15__uniq_ptr_implI5GraphSt14default_deleteIS0_EE5resetEPS0_
FN:177,_ZNSt15__uniq_ptr_implI7ReactorSt14default_deleteIS0_EE5resetEPS0_
FNDA:2,_ZNSt15__uniq_ptr_implI7ReactorSt14default_deleteIS0_EE5resetEPS0_
FN:177,_ZNSt15__uniq_ptr_implI12LFThreadPoolSt14default_deleteIS0_EE5resetEPS0_
FNDA:4,_ZNSt15__uniq_ptr_implI12LFThreadPoolSt14default_deleteIS0_EE5resetEPS0_
FN:185,_ZNSt15__uniq_ptr_implI12LFThreadPoolSt14default_deleteIS0_EE7releaseEv
FNDA:2,_ZNSt15__uniq_ptr_implI12LFThreadPoolSt14default_deleteIS0_EE7releaseEv
FN:185,_ZNSt15__uniq_ptr_implI5GraphSt14default_deleteIS0_EE7releaseEv
FNDA:2,_ZNSt15__uniq_ptr_implI5GraphSt14default_deleteIS0_EE7releaseEv
FN:185,_ZNSt15__uniq_ptr_implI4TreeSt14default_deleteIS0_EE7releaseEv
FNDA:4,_ZNSt15__uniq_ptr_implI4TreeSt14default_deleteIS0_EE7releaseEv
FN:212,_ZNSt15__uniq_ptr_dataI5GraphSt14default_deleteIS0_ELb1ELb1EEaSEOS3_
FNDA:2,_ZNSt15__uniq_ptr_dataI5GraphSt14default_deleteIS0_ELb1ELb1EEaSEOS3_
FN:212,_ZNSt15__uniq_ptr_dataI4TreeSt14default_deleteIS0_ELb1ELb1EEaSEOS3_
FNDA:4,_ZNSt15__uniq_ptr_dataI4TreeSt14default_deleteIS0_ELb1ELb1EEaSEOS3_
FN:212,_ZNSt15__uniq_ptr_dataI12LFThreadPoolSt14default_deleteIS0_ELb1ELb1EEaSEOS3_
FNDA:2,_ZNSt15__uniq_ptr_dataI12LFThreadPoolSt14default_deleteIS0_ELb1ELb1EEaSEOS3_
FN:281,_ZNSt10unique_ptrI7ReactorSt14default_deleteIS0_EEC2IS2_vEEPS0_
FNDA:2,_ZNSt10unique_ptrI7ReactorSt14default_deleteIS0_EEC2IS2_vEEPS0_
FN:281,_ZNSt10unique_ptrI12LFThreadPoolSt14default_deleteIS0_EEC2IS2_vEEPS0_
FNDA:2,_ZNSt10unique_ptrI12LFThreadPoolSt14default_deleteIS0_EEC2IS2_vEEPS0_
FN:281,_ZNSt10unique_ptrI5GraphSt14default_deleteIS0_EEC2IS2_vEEPS0_
FNDA:2,_ZNSt10unique_ptrI5GraphSt14default_deleteIS0_EEC2IS2_vEEPS0_
FN:355,_ZNSt10unique_ptrI7ReactorSt14default_deleteIS0_EED2Ev
FNDA:0,_ZNSt10unique_ptrI7ReactorSt14default_deleteIS0_EED2Ev
FN:355,_ZNSt10unique_ptrI5GraphSt14default_deleteIS0_EED2Ev
FNDA:2,_ZNSt10unique_ptrI5GraphSt14default_deleteIS0_EED2Ev
FN:355,_ZNSt10unique_ptrI4TreeSt14default_deleteIS0_EED2Ev
FNDA:4,_ZNSt10unique_ptrI4TreeSt14default_deleteIS0_EED2Ev
FN:355,_ZNSt10unique_ptrI11MSTStrategySt14default_deleteIS0_EED2Ev
FNDA:4,_ZNSt10unique_ptrI11MSTStrategySt14default_deleteIS0_EED2Ev
FN:355,_ZNSt10unique_ptrI12LFThreadPoolSt14default_deleteIS0_EED2Ev
FNDA:2,_ZNSt10unique_ptrI12LFThreadPoolSt14default_deleteIS0_EED2Ev
FN:371,_ZNSt10unique_ptrI5GraphSt14default_deleteIS0_EEaSEOS3_
FNDA:2,_ZNSt10unique_ptrI5GraphSt14default_deleteIS0_EEaSEOS3_
FN:371,_ZNSt10unique_ptrI4TreeSt14default_deleteIS0_EEaSEOS3_
FNDA:4,_ZNSt10unique_ptrI4TreeSt14default_deleteIS0_EEaSEOS3_
FN:371,_ZNSt10unique_ptrI12LFThreadPoolSt14default_deleteIS0_EEaSEOS3_
FNDA:2,_ZNSt10unique_ptrI12LFThreadPoolSt14default_deleteIS0_EEaSEOS3_
FN:395,_ZNSt10unique_ptrI5GraphSt14default_deleteIS0_EEaSEDn
FNDA:1,_ZNSt10unique_ptrI5GraphSt14default_deleteIS0_EEaSEDn
FN:395,_ZNSt10unique_ptrI4TreeSt14default_deleteIS0_EEaSEDn
FNDA:4,_ZNSt10unique_ptrI4TreeSt14default_deleteIS0_EEaSEDn
FN:405,_ZNKSt10unique_ptrI7ReactorSt14default_deleteIS0_EEdeEv
FNDA:2,_ZNKSt10unique_ptrI7ReactorSt14default_deleteIS0_EEdeEv
FN:413,_ZNKSt10unique_ptrI7ReactorSt14default_deleteIS0_EEptEv
FNDA:2,_ZNKSt10unique_ptrI7ReactorSt14default_deleteIS0_EEptEv
FN:413,_ZNKSt10unique_ptrI12LFThreadPoolSt14default_deleteIS0_EEptEv
FNDA:2,_ZNKSt10unique_ptrI12LFThreadPoolSt14default_deleteIS0_EEptEv
FN:413,_ZNKSt10unique_ptrI4TreeSt14default_deleteIS0_EEptEv
FNDA:20,_ZNKSt10unique_ptrI4TreeSt14default_deleteIS0_EEptEv
FN:413,_ZNKSt10unique_ptrI5GraphSt14default_deleteIS0_EEptEv
FNDA:44,_ZNKSt10unique_ptrI5GraphSt14default_deleteIS0_EEptEv
FN:421,_ZNKSt10unique_ptrI4TreeSt14default_deleteIS0_EE3getEv
FNDA:28,_ZNKSt10unique_ptrI4TreeSt14default_deleteIS0_EE3getEv
FN:421,_ZNKSt10unique_ptrI12LFThreadPoolSt14default_deleteIS0_EE3getEv
FNDA:2,_ZNKSt10unique_ptrI12LFThreadPoolSt14default_deleteIS0_EE3getEv
FN:421,_ZNKSt10unique_ptrI5GraphSt14default_deleteIS0_EE3getEv
FNDA:70,_ZNKSt10unique_ptrI5GraphSt14default_deleteIS0_EE3getEv
FN:421,_ZNKSt10unique_ptrI7ReactorSt14default_deleteIS0_EE3getEv
FNDA:4,_ZNKSt10unique_ptrI7ReactorSt14default_deleteIS0_EE3getEv
FN:426,_ZNSt10unique_ptrI7ReactorSt14default_deleteIS0_EE11get_deleterEv
FNDA:0,_ZNSt10unique_ptrI7ReactorSt14default_deleteIS0_EE11get_deleterEv
FN:426,_ZNSt10unique_ptrI4TreeSt14default_deleteIS0_EE11get_deleterEv
FNDA:0,_ZNSt10unique_ptrI4TreeSt14default_deleteIS0_EE11get_deleterEv
FN:426,_ZNSt10unique_ptrI5GraphSt14default_deleteIS0_EE11get_deleterEv
FNDA:0,_ZNSt10unique_ptrI5GraphSt14default_deleteIS0_EE11get_deleterEv
FN:426,_ZNSt10unique_ptrI12LFThreadPoolSt14default_deleteIS0_EE11get_deleterEv
FNDA:0,_ZNSt10unique_ptrI12LFThreadPoolSt14default_deleteIS0_EE11get_deleterEv
FN:426,_ZNSt10unique_ptrI11MSTStrategySt14default_deleteIS0_EE11get_deleterEv
FNDA:0,_ZNSt10unique_ptrI11MSTStrategySt14default_deleteIS0_EE11get_deleterEv
FN:435,_ZNKSt10unique_ptrI4TreeSt14default_deleteIS0_EEcvbEv
FNDA:8,_ZNKSt10unique_ptrI4TreeSt14default_deleteIS0_EEcvbEv
FN:435,_ZNKSt10unique_ptrI5GraphSt14default_deleteIS0_EEcvbEv
FNDA:22,_ZNKSt10unique_ptrI5GraphSt14default_deleteIS0_EEcvbEv
FN:452,_ZNSt10unique_ptrI5GraphSt14default_deleteIS0_EE5resetEPS0_
FNDA:4,_ZNSt10unique_ptrI5GraphSt14default_deleteIS0_EE5resetEPS0_
FN:452,_ZNSt10unique_ptrI11MSTStrategySt14default_deleteIS0_EE5resetEPS0_
FNDA:5,_ZNSt10unique_ptrI11MSTStrategySt14default_deleteIS0_EE5resetEPS0_
FN:452,_ZNSt10unique_ptrI4TreeSt14default_deleteIS0_EE5resetEPS0_
FNDA:10,_ZNSt10unique_ptrI4TreeSt14default_deleteIS0_EE5resetEPS0_
FN:452,_ZNSt10unique_ptrI7ReactorSt14default_deleteIS0_EE5resetEPS0_
FNDA:2,_ZNSt10unique_ptrI7ReactorSt14default_deleteIS0_EE5resetEPS0_
FN:452,_ZNSt10unique_ptrI12LFThreadPoolSt14default_deleteIS0_EE5resetEPS0_
FNDA:2,_ZNSt10unique_ptrI12LFThreadPoolSt14default_deleteIS0_EE5resetEPS0_
FN:760,_ZSteqI5GraphSt14default_deleteIS0_EEbRKSt10unique_ptrIT_T0_EDn
FNDA:18,_ZSteqI5GraphSt14default_deleteIS0_EEbRKSt10unique_ptrIT_T0_EDn
FN:781,_ZStneI5GraphSt14default_deleteIS0_EEbRKSt10unique_ptrIT_T0_EDn
FNDA:4,_ZStneI5GraphSt14default_deleteIS0_EEbRKSt10unique_ptrIT_T0_EDn
FN:781,_ZStneI4TreeSt14default_deleteIS0_EEbRKSt10unique_ptrIT_T0_EDn
FNDA:8,_ZStneI4TreeSt14default_deleteIS0_EEbRKSt10unique_ptrIT_T0_EDn
FN:961,_ZSt11make_uniqueI5GraphJRiS1_EENSt9_MakeUniqIT_E15__single_objectEDpOT0_
FNDA:2,_ZSt11make_uniqueI5GraphJRiS1_EENSt9_MakeUniqIT_E15__single_objectEDpOT0_
FN:961,_ZSt11make_uniqueI7ReactorJEENSt9_MakeUniqIT_E15__single_objectEDpOT0_
FNDA:2,_ZSt11make_uniqueI7ReactorJEENSt9_MakeUniqIT_E15__single_objectEDpOT0_
FN:961,_ZSt11make_uniqueI12LFThreadPoolJiR7ReactorEENSt9_MakeUniqIT_E15__single_objectEDpOT0_
FNDA:2,_ZSt11make_uniqueI12LFThreadPoolJiR7ReactorEENSt9_MakeUniqIT_E15__single_objectEDpOT0_
DA:79,2
DA:85,2
DA:86,2
DA:79,4
DA:85,4
DA:86,4
DA:79,2
DA:85,2
DA:86,2
DA:79,4
DA:85,4
DA:86,4
DA:79,2
DA:85,2
DA:86,2
DA:155,2
DA:155,2
DA:155,2
DA:165,2
DA:167,2
DA:168,2
DA:169,2
DA:165,4
DA:167,4
DA:168,4
DA:169,4
DA:165,2
DA:167,2
DA:168,2
DA:169,2
DA:172,16
DA:172,34
DA:172,6
DA:172,44
DA:172,20
DA:173,4
DA:173,2
DA:173,28
DA:173,70
DA:174,2
DA:174,12
DA:174,6
DA:174,12
DA:174,6
DA:177,4
DA:179,4
DA:180,4
DA:181,4
DA:182,2
DA:183,4
DA:177,2
DA:179,2
DA:180,2
DA:181,2
DA:182,2
DA:183,2
DA:177,14
DA:179,14
DA:180,14
DA:181,14
DA:182,4
DA:183,14
DA:177,6
DA:179,6
DA:180,6
DA:181,6
DA:182,2
DA:183,6
DA:177,9
DA:179,9
DA:180,9
DA:181,9
DA:182,4
DA:183,9
DA:185,2
DA:187,2
DA:188,2
DA:189,2
DA:185,4
DA:187,4
DA:188,4
DA:189,4
DA:185,2
DA:187,2
DA:188,2
DA:189,2
DA:212,2
DA:212,4
DA:212,2
DA:281,2
DA:282,2
DA:283,2
DA:281,2
DA:282,2
DA:283,2
DA:281,2
DA:282,2
DA:283,2
DA:355,2
DA:359,2
DA:360,2
DA:361,0
DA:362,2
DA:363,2
DA:355,4
DA:359,4
DA:360,4
DA:361,0
DA:362,4
DA:363,4
DA:355,0
DA:359,0
DA:360,0
DA:361,0
DA:362,0
DA:363,0
DA:355,4
DA:359,4
DA:360,4
DA:361,0
DA:362,4
DA:363,4
DA:355,2
DA:359,2
DA:360,2
DA:361,0
DA:362,2
DA:363,2
DA:371,2
DA:371,4
DA:371,2
DA:395,4
DA:397,4
DA:398,4
DA:395,1
DA:397,1
DA:398,1
DA:405,2
DA:407,2
DA:408,2
DA:413,2
DA:416,2
DA:413,2
DA:416,2
DA:413,20
DA:416,20
DA:413,44
DA:416,44
DA:421,4
DA:422,4
DA:421,2
DA:422,2
DA:421,28
DA:422,28
DA:421,70
DA:422,70
DA:426,0
DA:427,0
DA:426,0
DA:427,0
DA:426,0
DA:427,0
DA:426,0
DA:427,0
DA:426,0
DA:427,0
DA:435,8
DA:436,8
DA:435,22
DA:436,22
DA:452,2
DA:456,2
DA:457,2
DA:452,2
DA:456,2
DA:457,2
DA:452,10
DA:456,10
DA:457,10
DA:452,4
DA:456,4
DA:457,4
DA:452,5
DA:456,5
DA:457,5
DA:760,18
DA:761,18
DA:781,8
DA:782,8
DA:781,4
DA:782,4
DA:961,2
DA:962,2
DA:961,2
DA:962,2
DA:961,2
DA:962,2
end_of_record
SF:/usr/include/c++/11/bits/basic_string.h
FN:251,_ZNSt7__cxx1112basic_stringIcSt11char_traitsIcESaIcEE16_M_construct_auxIPcEEvT_S7_St12__false_type
FNDA:4,_ZNSt7__cxx1112basic_stringIcSt11char_traitsIcESaIcEE16_M_construct_auxIPcEEvT_S7_St12__false_type
FN:271,_ZNSt7__cxx1112basic_stringIcSt11char_traitsIcESaIcEE12_M_constructIPcEEvT_S7_
FNDA:4,_ZNSt7__cxx1112basic_stringIcSt11char_traitsIcESaIcEE12_M_constructIPcEEvT_S7_
FN:533,_ZNSt7__cxx1112basic_stringIcSt11char_traitsIcESaIcEEC2IS3_EEPKcRKS3_
FNDA:52,_ZNSt7__cxx1112basic_stringIcSt11char_traitsIcESaIcEEC2IS3_EEPKcRKS3_
FN:553,_ZNSt7__cxx1112basic_stringIcSt11char_traitsIcESaIcEEC2IS3_EEmcRKS3_
FNDA:98,_ZNSt7__cxx1112basic_stringIcSt11char_traitsIcESaIcEEC2IS3_EEmcRKS3_
FN:638,_ZNSt7__cxx1112basic_stringIcSt11char_traitsIcESaIcEEC2IPcvEET_S7_RKS3_
FNDA:4,_ZNSt7__cxx1112basic_stringIcSt11char_traitsIcESaIcEEC2IPcvEET_S7_RKS3_
FN:6172,_ZStplIcSt11char_traitsIcESaIcEENSt7__cxx1112basic_stringIT_T0_T1_EEOS8_S9_
FNDA:54,_ZStplIcSt11char_traitsIcESaIcEENSt7__cxx1112basic_stringIT_T0_T1_EEOS8_S9_
FN:6194,_ZStplIcSt11char_traitsIcESaIcEENSt7__cxx1112basic_stringIT_T0_T1_EEPKS5_OS8_
FNDA:28,_ZStplIcSt11char_traitsIcESaIcEENSt7__cxx1112basic_stringIT_T0_T1_EEPKS5_OS8_
FN:6206,_ZStplIcSt11char_traitsIcESaIcEENSt7__cxx1112basic_stringIT_T0_T1_EEOS8_PKS5_
FNDA:90,_ZStplIcSt11char_traitsIcESaIcEENSt7__cxx1112basic_stringIT_T0_T1_EEOS8_PKS5_
FN:6212,_ZStplIcSt11char_traitsIcESaIcEENSt7__cxx1112basic_stringIT_T0_T1_EEOS8_S5_
FNDA:4,_ZStplIcSt11char_traitsIcESaIcEENSt7__cxx1112basic_stringIT_T0_T1_EEOS8_S5_
FN:6248,_ZSteqIcSt11char_traitsIcESaIcEEbRKNSt7__cxx1112basic_stringIT_T0_T1_EEPKS5_
FNDA:111,_ZSteqIcSt11char_traitsIcESaIcEEbRKNSt7__cxx1112basic_stringIT_T0_T1_EEPKS5_
FN:6660,_ZNSt7__cxx119to_stringEi
FNDA:82,_ZNSt7__cxx119to_stringEi
FN:6721,_ZNSt7__cxx119to_stringEf
FNDA:4,_ZNSt7__cxx119to_stringEf
DA:251,4
DA:255,4
DA:256,4
DA:271,4
DA:274,4
DA:275,4
DA:533,52
DA:534,52
DA:536,52
DA:539,52
DA:540,52
DA:553,98
DA:554,98
DA:555,98
DA:638,4
DA:640,4
DA:641,4
DA:6172,54
DA:6177,54
DA:6179,54
DA:6182,54
DA:6185,54
DA:6186,54
DA:6187,0
DA:6189,54
DA:6194,28
DA:6196,28
DA:6206,90
DA:6208,90
DA:6212,4
DA:6214,4
DA:6248,111
DA:6250,111
DA:6660,82
DA:6662,82
DA:6663,82
DA:6664,82
DA:6665,82
DA:6666,82
DA:6667,82
DA:6668,0
DA:6721,4
DA:6723,4
DA:6726,4
end_of_record
SF:/usr/include/c++/11/bits/unique_lock.h
FN:66,_ZNSt11unique_lockISt5mutexEC2ERS0_
FNDA:135,_ZNSt11unique_lockISt5mutexEC2ERS0_
FN:77,_ZNSt11unique_lockISt5mutexEC2ERS0_St13try_to_lock_t
FNDA:27,_ZNSt11unique_lockISt5mutexEC2ERS0_St13try_to_lock_t
FN:101,_ZNSt11unique_lockISt5mutexED2Ev
FNDA:162,_ZNSt11unique_lockISt5mutexED2Ev
FN:131,_ZNSt11unique_lockISt5mutexE4lockEv
FNDA:135,_ZNSt11unique_lockISt5mutexE4lockEv
FN:189,_ZNSt11unique_lockISt5mutexE6unlockEv
FNDA:157,_ZNSt11unique_lockISt5mutexE6unlockEv
FN:217,_ZNKSt11unique_lockISt5mutexE9owns_lockEv
FNDA:27,_ZNKSt11unique_lockISt5mutexE9owns_lockEv
DA:66,135
DA:67,135
DA:69,135
DA:70,135
DA:71,135
DA:77,27
DA:78,27
DA:79,27
DA:101,162
DA:103,162
DA:104,157
DA:105,162
DA:131,135
DA:133,135
DA:134,0
DA:135,135
DA:136,0
DA:139,135
DA:140,135
DA:142,135
DA:189,157
DA:191,157
DA:192,0
DA:193,157
DA:195,157
DA:196,157
DA:198,157
DA:217,27
DA:218,27
end_of_record
SF:/usr/include/c++/11/bits/stl_pair.h
end_of_record
SF:/usr/include/c++/11/bits/stl_algobase.h
FN:230,_ZSt3minImERKT_S2_S2_
FNDA:238,_ZSt3minImERKT_S2_S2_
FN:254,_ZSt3maxImERKT_S2_S2_
FNDA:94,_ZSt3maxImERKT_S2_S2_
FN:313,_ZSt12__niter_baseIPSt6vectorI4EdgeSaIS1_EEET_S5_
FNDA:18,_ZSt12__niter_baseIPSt6vectorI4EdgeSaIS1_EEET_S5_
DA:230,238
DA:235,238
DA:236,0
DA:237,238
DA:254,94
DA:259,94
DA:260,51
DA:261,43
DA:313,18
DA:315,18
end_of_record
SF:/usr/include/c++/11/ext/alloc_traits.h
FN:97,_ZN9__gnu_cxx14__alloc_traitsISaIcEcE17_S_select_on_copyERKS1_
FNDA:8,_ZN9__gnu_cxx14__alloc_traitsISaIcEcE17_S_select_on_copyERKS1_
DA:97,8
DA:98,8
end_of_record
SF:/usr/include/c++/11/ext/type_traits.h
FN:152,_ZN9__gnu_cxx17__is_null_pointerIcEEbPT_
FNDA:20,_ZN9__gnu_cxx17__is_null_pointerIcEEbPT_
FN:152,_ZN9__gnu_cxx17__is_null_pointerIKcEEbPT_
FNDA:52,_ZN9__gnu_cxx17__is_null_pointerIKcEEbPT_
DA:152,20
DA:153,20
DA:152,52
DA:153,52
end_of_record
SF:/usr/include/c++/11/bits/char_traits.h
FN:106,_ZN9__gnu_cxx11char_traitsIcE2eqERKcS3_
FNDA:0,_ZN9__gnu_cxx11char_traitsIcE2eqERKcS3_
FN:167,_ZN9__gnu_cxx11char_traitsIcE6lengthEPKc
FNDA:0,_ZN9__gnu_cxx11char_traitsIcE6lengthEPKc
FN:393,_ZNSt11char_traitsIcE6lengthEPKc
FNDA:60,_ZNSt11char_traitsIcE6lengthEPKc
FN:429,_ZNSt11char_traitsIcE4copyEPcPKcm
FNDA:0,_ZNSt11char_traitsIcE4copyEPcPKcm
DA:106,0
DA:107,0
DA:167,0
DA:170,0
DA:171,0
DA:172,0
DA:173,0
DA:290,60
DA:393,60
DA:396,60
DA:397,0
DA:399,60
DA:429,0
DA:431,0
DA:432,0
DA:437,0
end_of_record
SF:/usr/include/c++/11/tuple
FN:80,_ZNSt10_Head_baseILm1ESt14default_deleteI12LFThreadPoolELb1EEC2Ev
FNDA:2,_ZNSt10_Head_baseILm1ESt14default_deleteI12LFThreadPoolELb1EEC2Ev
FN:80,_ZNSt10_Head_baseILm1ESt14default_deleteI7ReactorELb1EEC2Ev
FNDA:2,_ZNSt10_Head_baseILm1ESt14default_deleteI7ReactorELb1EEC2Ev
FN:80,_ZNSt10_Head_baseILm1ESt14default_deleteI5GraphELb1EEC2Ev
FNDA:2,_ZNSt10_Head_baseILm1ESt14default_deleteI5GraphELb1EEC2Ev
FN:124,_ZNSt10_Head_baseILm1ESt14default_deleteI7ReactorELb1EE7_M_headERS3_
FNDA:2,_ZNSt10_Head_baseILm1ESt14default_deleteI7ReactorELb1EE7_M_headERS3_
FN:124,_ZNSt10_Head_baseILm1ESt14default_deleteI5GraphELb1EE7_M_headERS3_
FNDA:6,_ZNSt10_Head_baseILm1ESt14default_deleteI5GraphELb1EE7_M_headERS3_
FN:124,_ZNSt10_Head_baseILm1ESt14default_deleteI4TreeELb1EE7_M_headERS3_
FNDA:12,_ZNSt10_Head_baseILm1ESt14default_deleteI4TreeELb1EE7_M_headERS3_
FN:124,_ZNSt10_Head_baseILm1ESt14default_deleteI12LFThreadPoolELb1EE7_M_headERS3_
FNDA:6,_ZNSt10_Head_baseILm1ESt14default_deleteI12LFThreadPoolELb1EE7_M_headERS3_
FN:124,_ZNSt10_Head_baseILm1ESt14default_deleteI11MSTStrategyELb1EE7_M_headERS3_
FNDA:12,_ZNSt10_Head_baseILm1ESt14default_deleteI11MSTStrategyELb1EE7_M_headERS3_
FN:189,_ZNSt10_Head_baseILm0EP5GraphLb0EEC2Ev
FNDA:2,_ZNSt10_Head_baseILm0EP5GraphLb0EEC2Ev
FN:189,_ZNSt10_Head_baseILm0EP7ReactorLb0EEC2Ev
FNDA:2,_ZNSt10_Head_baseILm0EP7ReactorLb0EEC2Ev
FN:189,_ZNSt10_Head_baseILm0EP12LFThreadPoolLb0EEC2Ev
FNDA:2,_ZNSt10_Head_baseILm0EP12LFThreadPoolLb0EEC2Ev
FN:233,_ZNSt10_Head_baseILm0EP12LFThreadPoolLb0EE7_M_headERS2_
FNDA:36,_ZNSt10_Head_baseILm0EP12LFThreadPoolLb0EE7_M_headERS2_
FN:233,_ZNSt10_Head_baseILm0EP11MSTStrategyLb0EE7_M_headERS2_
FNDA:34,_ZNSt10_Head_baseILm0EP11MSTStrategyLb0EE7_M_headERS2_
FN:233,_ZNSt10_Head_baseILm0EP7ReactorLb0EE7_M_headERS2_
FNDA:6,_ZNSt10_Head_baseILm0EP7ReactorLb0EE7_M_headERS2_
FN:233,_ZNSt10_Head_baseILm0EP5GraphLb0EE7_M_headERS2_
FNDA:20,_ZNSt10_Head_baseILm0EP5GraphLb0EE7_M_headERS2_
FN:233,_ZNSt10_Head_baseILm0EP4TreeLb0EE7_M_headERS2_
FNDA:44,_ZNSt10_Head_baseILm0EP4TreeLb0EE7_M_headERS2_
FN:236,_ZNSt10_Head_baseILm0EP7ReactorLb0EE7_M_headERKS2_
FNDA:4,_ZNSt10_Head_baseILm0EP7ReactorLb0EE7_M_headERKS2_
FN:236,_ZNSt10_Head_baseILm0EP12LFThreadPoolLb0EE7_M_headERKS2_
FNDA:2,_ZNSt10_Head_baseILm0EP12LFThreadPoolLb0EE7_M_headERKS2_
FN:236,_ZNSt10_Head_baseILm0EP4TreeLb0EE7_M_headERKS2_
FNDA:28,_ZNSt10_Head_baseILm0EP4TreeLb0EE7_M_headERKS2_
FN:236,_ZNSt10_Head_baseILm0EP5GraphLb0EE7_M_headERKS2_
FNDA:70,_ZNSt10_Head_baseILm0EP5GraphLb0EE7_M_headERKS2_
FN:268,_ZNSt11_Tuple_implILm0EJP11MSTStrategySt14default_deleteIS0_EEE7_M_headERS4_
FNDA:34,_ZNSt11_Tuple_implILm0EJP11MSTStrategySt14default_deleteIS0_EEE7_M_headERS4_
FN:268,_ZNSt11_Tuple_implILm0EJP7ReactorSt14default_deleteIS0_EEE7_M_headERS4_
FNDA:6,_ZNSt11_Tuple_implILm0EJP7ReactorSt14default_deleteIS0_EEE7_M_headERS4_
FN:268,_ZNSt11_Tuple_implILm0EJP5GraphSt14default_deleteIS0_EEE7_M_headERS4_
FNDA:20,_ZNSt11_Tuple_implILm0EJP5GraphSt14default_deleteIS0_EEE7_M_headERS4_
FN:268,_ZNSt11_Tuple_implILm0EJP12LFThreadPoolSt14default_deleteIS0_EEE7_M_headERS4_
FNDA:16,_ZNSt11_Tuple_implILm0EJP12LFThreadPoolSt14default_deleteIS0_EEE7_M_headERS4_
FN:268,_ZNSt11_Tuple_implILm0EJP4TreeSt14default_deleteIS0_EEE7_M_headERS4_
FNDA:44,_ZNSt11_Tuple_implILm0EJP4TreeSt14default_deleteIS0_EEE7_M_headERS4_
FN:271,_ZNSt11_Tuple_implILm0EJP5GraphSt14default_deleteIS0_EEE7_M_headERKS4_
FNDA:70,_ZNSt11_Tuple_implILm0EJP5GraphSt14default_deleteIS0_EEE7_M_headERKS4_
FN:271,_ZNSt11_Tuple_implILm0EJP4TreeSt14default_deleteIS0_EEE7_M_headERKS4_
FNDA:28,_ZNSt11_Tuple_implILm0EJP4TreeSt14default_deleteIS0_EEE7_M_headERKS4_
FN:271,_ZNSt11_Tuple_implILm0EJP12LFThreadPoolSt14default_deleteIS0_EEE7_M_headERKS4_
FNDA:2,_ZNSt11_Tuple_implILm0EJP12LFThreadPoolSt14default_deleteIS0_EEE7_M_headERKS4_
FN:271,_ZNSt11_Tuple_implILm0EJP7ReactorSt14default_deleteIS0_EEE7_M_headERKS4_
FNDA:4,_ZNSt11_Tuple_implILm0EJP7ReactorSt14default_deleteIS0_EEE7_M_headERKS4_
FN:279,_ZNSt11_Tuple_implILm0EJP12LFThreadPoolSt14default_deleteIS0_EEEC2Ev
FNDA:2,_ZNSt11_Tuple_implILm0EJP12LFThreadPoolSt14default_deleteIS0_EEEC2Ev
FN:279,_ZNSt11_Tuple_implILm0EJP7ReactorSt14default_deleteIS0_EEEC2Ev
FNDA:2,_ZNSt11_Tuple_implILm0EJP7ReactorSt14default_deleteIS0_EEEC2Ev
FN:279,_ZNSt11_Tuple_implILm0EJP5GraphSt14default_deleteIS0_EEEC2Ev
FNDA:2,_ZNSt11_Tuple_implILm0EJP5GraphSt14default_deleteIS0_EEEC2Ev
FN:424,_ZNSt11_Tuple_implILm1EJSt14default_deleteI5GraphEEE7_M_headERS3_
FNDA:6,_ZNSt11_Tuple_implILm1EJSt14default_deleteI5GraphEEE7_M_headERS3_
FN:424,_ZNSt11_Tuple_implILm1EJSt14default_deleteI4TreeEEE7_M_headERS3_
FNDA:12,_ZNSt11_Tuple_implILm1EJSt14default_deleteI4TreeEEE7_M_headERS3_
FN:424,_ZNSt11_Tuple_implILm1EJSt14default_deleteI7ReactorEEE7_M_headERS3_
FNDA:2,_ZNSt11_Tuple_implILm1EJSt14default_deleteI7ReactorEEE7_M_headERS3_
FN:424,_ZNSt11_Tuple_implILm1EJSt14default_deleteI12LFThreadPoolEEE7_M_headERS3_
FNDA:6,_ZNSt11_Tuple_implILm1EJSt14default_deleteI12LFThreadPoolEEE7_M_headERS3_
FN:424,_ZNSt11_Tuple_implILm1EJSt14default_deleteI11MSTStrategyEEE7_M_headERS3_
FNDA:12,_ZNSt11_Tuple_implILm1EJSt14default_deleteI11MSTStrategyEEE7_M_headERS3_
FN:430,_ZNSt11_Tuple_implILm1EJSt14default_deleteI12LFThreadPoolEEEC2Ev
FNDA:2,_ZNSt11_Tuple_implILm1EJSt14default_deleteI12LFThreadPoolEEEC2Ev
FN:430,_ZNSt11_Tuple_implILm1EJSt14default_deleteI5GraphEEEC2Ev
FNDA:2,_ZNSt11_Tuple_implILm1EJSt14default_deleteI5GraphEEEC2Ev
FN:430,_ZNSt11_Tuple_implILm1EJSt14default_deleteI7ReactorEEEC2Ev
FNDA:2,_ZNSt11_Tuple_implILm1EJSt14default_deleteI7ReactorEEEC2Ev
FN:1049,_ZNSt5tupleIJP7ReactorSt14default_deleteIS0_EEEC2ILb1ELb1EEEv
FNDA:2,_ZNSt5tupleIJP7ReactorSt14default_deleteIS0_EEEC2ILb1ELb1EEEv
FN:1049,_ZNSt5tupleIJP12LFThreadPoolSt14default_deleteIS0_EEEC1ILb1ELb1EEEv
FNDA:2,_ZNSt5tupleIJP12LFThreadPoolSt14default_deleteIS0_EEEC1ILb1ELb1EEEv
FN:1049,_ZNSt5tupleIJP5GraphSt14default_deleteIS0_EEEC1ILb1ELb1EEEv
FNDA:2,_ZNSt5tupleIJP5GraphSt14default_deleteIS0_EEEC1ILb1ELb1EEEv
FN:1377,_ZSt12__get_helperILm0EP11MSTStrategyJSt14default_deleteIS0_EEERT0_RSt11_Tuple_implIXT_EJS4_DpT1_EE
FNDA:34,_ZSt12__get_helperILm0EP11MSTStrategyJSt14default_deleteIS0_EEERT0_RSt11_Tuple_implIXT_EJS4_DpT1_EE
FN:1377,_ZSt12__get_helperILm0EP7ReactorJSt14default_deleteIS0_EEERT0_RSt11_Tuple_implIXT_EJS4_DpT1_EE
FNDA:6,_ZSt12__get_helperILm0EP7ReactorJSt14default_deleteIS0_EEERT0_RSt11_Tuple_implIXT_EJS4_DpT1_EE
FN:1377,_ZSt12__get_helperILm0EP12LFThreadPoolJSt14default_deleteIS0_EEERT0_RSt11_Tuple_implIXT_EJS4_DpT1_EE
FNDA:16,_ZSt12__get_helperILm0EP12LFThreadPoolJSt14default_deleteIS0_EEERT0_RSt11_Tuple_implIXT_EJS4_DpT1_EE
FN:1377,_ZSt12__get_helperILm1ESt14default_deleteI12LFThreadPoolEJEERT0_RSt11_Tuple_implIXT_EJS3_DpT1_EE
FNDA:6,_ZSt12__get_helperILm1ESt14default_deleteI12LFThreadPoolEJEERT0_RSt11_Tuple_implIXT_EJS3_DpT1_EE
FN:1377,_ZSt12__get_helperILm1ESt14default_deleteI4TreeEJEERT0_RSt11_Tuple_implIXT_EJS3_DpT1_EE
FNDA:12,_ZSt12__get_helperILm1ESt14default_deleteI4TreeEJEERT0_RSt11_Tuple_implIXT_EJS3_DpT1_EE
FN:1377,_ZSt12__get_helperILm0EP4TreeJSt14default_deleteIS0_EEERT0_RSt11_Tuple_implIXT_EJS4_DpT1_EE
FNDA:44,_ZSt12__get_helperILm0EP4TreeJSt14default_deleteIS0_EEERT0_RSt11_Tuple_implIXT_EJS4_DpT1_EE
FN:1377,_ZSt12__get_helperILm1ESt14default_deleteI11MSTStrategyEJEERT0_RSt11_Tuple_implIXT_EJS3_DpT1_EE
FNDA:12,_ZSt12__get_helperILm1ESt14default_deleteI11MSTStrategyEJEERT0_RSt11_Tuple_implIXT_EJS3_DpT1_EE
FN:1377,_ZSt12__get_helperILm1ESt14default_deleteI5GraphEJEERT0_RSt11_Tuple_implIXT_EJS3_DpT1_EE
FNDA:6,_ZSt12__get_helperILm1ESt14default_deleteI5GraphEJEERT0_RSt11_Tuple_implIXT_EJS3_DpT1_EE
FN:1377,_ZSt12__get_helperILm0EP5GraphJSt14default_deleteIS0_EEERT0_RSt11_Tuple_implIXT_EJS4_DpT1_EE
FNDA:20,_ZSt12__get_helperILm0EP5GraphJSt14default_deleteIS0_EEERT0_RSt11_Tuple_implIXT_EJS4_DpT1_EE
FN:1377,_ZSt12__get_helperILm1ESt14default_deleteI7ReactorEJEERT0_RSt11_Tuple_implIXT_EJS3_DpT1_EE
FNDA:2,_ZSt12__get_helperILm1ESt14default_deleteI7ReactorEJEERT0_RSt11_Tuple_implIXT_EJS3_DpT1_EE
FN:1382,_ZSt12__get_helperILm0EP5GraphJSt14default_deleteIS0_EEERKT0_RKSt11_Tuple_implIXT_EJS4_DpT1_EE
FNDA:70,_ZSt12__get_helperILm0EP5GraphJSt14default_deleteIS0_EEERKT0_RKSt11_Tuple_implIXT_EJS4_DpT1_EE
FN:1382,_ZSt12__get_helperILm0EP7ReactorJSt14default_deleteIS0_EEERKT0_RKSt11_Tuple_implIXT_EJS4_DpT1_EE
FNDA:4,_ZSt12__get_helperILm0EP7ReactorJSt14default_deleteIS0_EEERKT0_RKSt11_Tuple_implIXT_EJS4_DpT1_EE
FN:1382,_ZSt12__get_helperILm0EP12LFThreadPoolJSt14default_deleteIS0_EEERKT0_RKSt11_Tuple_implIXT_EJS4_DpT1_EE
FNDA:2,_ZSt12__get_helperILm0EP12LFThreadPoolJSt14default_deleteIS0_EEERKT0_RKSt11_Tuple_implIXT_EJS4_DpT1_EE
FN:1382,_ZSt12__get_helperILm0EP4TreeJSt14default_deleteIS0_EEERKT0_RKSt11_Tuple_implIXT_EJS4_DpT1_EE
FNDA:28,_ZSt12__get_helperILm0EP4TreeJSt14default_deleteIS0_EEERKT0_RKSt11_Tuple_implIXT_EJS4_DpT1_EE
FN:1393,_ZSt3getILm0EJP11MSTStrategySt14default_deleteIS0_EEERNSt13tuple_elementIXT_ESt5tupleIJDpT0_EEE4typeERS8_
FNDA:34,_ZSt3getILm0EJP11MSTStrategySt14default_deleteIS0_EEERNSt13tuple_elementIXT_ESt5tupleIJDpT0_EEE4typeERS8_
FN:1393,_ZSt3getILm0EJP7ReactorSt14default_deleteIS0_EEERNSt13tuple_elementIXT_ESt5tupleIJDpT0_EEE4typeERS8_
FNDA:6,_ZSt3getILm0EJP7ReactorSt14default_deleteIS0_EEERNSt13tuple_elementIXT_ESt5tupleIJDpT0_EEE4typeERS8_
FN:1393,_ZSt3getILm1EJP4TreeSt14default_deleteIS0_EEERNSt13tuple_elementIXT_ESt5tupleIJDpT0_EEE4typeERS8_
FNDA:12,_ZSt3getILm1EJP4TreeSt14default_deleteIS0_EEERNSt13tuple_elementIXT_ESt5tupleIJDpT0_EEE4typeERS8_
FN:1393,_ZSt3getILm0EJP4TreeSt14default_deleteIS0_EEERNSt13tuple_elementIXT_ESt5tupleIJDpT0_EEE4typeERS8_
FNDA:44,_ZSt3getILm0EJP4TreeSt14default_deleteIS0_EEERNSt13tuple_elementIXT_ESt5tupleIJDpT0_EEE4typeERS8_
FN:1393,_ZSt3getILm1EJP5GraphSt14default_deleteIS0_EEERNSt13tuple_elementIXT_ESt5tupleIJDpT0_EEE4typeERS8_
FNDA:6,_ZSt3getILm1EJP5GraphSt14default_deleteIS0_EEERNSt13tuple_elementIXT_ESt5tupleIJDpT0_EEE4typeERS8_
FN:1393,_ZSt3getILm0EJP5GraphSt14default_deleteIS0_EEERNSt13tuple_elementIXT_ESt5tupleIJDpT0_EEE4typeERS8_
FNDA:20,_ZSt3getILm0EJP5GraphSt14default_deleteIS0_EEERNSt13tuple_elementIXT_ESt5tupleIJDpT0_EEE4typeERS8_
FN:1393,_ZSt3getILm0EJP12LFThreadPoolSt14default_deleteIS0_EEERNSt13tuple_elementIXT_ESt5tupleIJDpT0_EEE4typeERS8_
FNDA:16,_ZSt3getILm0EJP12LFThreadPoolSt14default_deleteIS0_EEERNSt13tuple_elementIXT_ESt5tupleIJDpT0_EEE4typeERS8_
FN:1393,_ZSt3getILm1EJP12LFThreadPoolSt14default_deleteIS0_EEERNSt13tuple_elementIXT_ESt5tupleIJDpT0_EEE4typeERS8_
FNDA:6,_ZSt3getILm1EJP12LFThreadPoolSt14default_deleteIS0_EEERNSt13tuple_elementIXT_ESt5tupleIJDpT0_EEE4typeERS8_
FN:1393,_ZSt3getILm1EJP11MSTStrategySt14default_deleteIS0_EEERNSt13tuple_elementIXT_ESt5tupleIJDpT0_EEE4typeERS8_
FNDA:12,_ZSt3getILm1EJP11MSTStrategySt14default_deleteIS0_EEERNSt13tuple_elementIXT_ESt5tupleIJDpT0_EEE4typeERS8_
FN:1393,_ZSt3getILm1EJP7ReactorSt14default_deleteIS0_EEERNSt13tuple_elementIXT_ESt5tupleIJDpT0_EEE4typeERS8_
FNDA:2,_ZSt3getILm1EJP7ReactorSt14default_deleteIS0_EEERNSt13tuple_elementIXT_ESt5tupleIJDpT0_EEE4typeERS8_
FN:1399,_ZSt3getILm0EJP5GraphSt14default_deleteIS0_EEERKNSt13tuple_elementIXT_ESt5tupleIJDpT0_EEE4typeERKS8_
FNDA:70,_ZSt3getILm0EJP5GraphSt14default_deleteIS0_EEERKNSt13tuple_elementIXT_ESt5tupleIJDpT0_EEE4typeERKS8_
FN:1399,_ZSt3getILm0EJP4TreeSt14default_deleteIS0_EEERKNSt13tuple_elementIXT_ESt5tupleIJDpT0_EEE4typeERKS8_
FNDA:28,_ZSt3getILm0EJP4TreeSt14default_deleteIS0_EEERKNSt13tuple_elementIXT_ESt5tupleIJDpT0_EEE4typeERKS8_
FN:1399,_ZSt3getILm0EJP12LFThreadPoolSt14default_deleteIS0_EEERKNSt13tuple_elementIXT_ESt5tupleIJDpT0_EEE4typeERKS8_
FNDA:2,_ZSt3getILm0EJP12LFThreadPoolSt14default_deleteIS0_EEERKNSt13tuple_elementIXT_ESt5tupleIJDpT0_EEE4typeERKS8_
FN:1399,_ZSt3getILm0EJP7ReactorSt14default_deleteIS0_EEERKNSt13tuple_elementIXT_ESt5tupleIJDpT0_EEE4typeERKS8_
FNDA:4,_ZSt3getILm0EJP7ReactorSt14default_deleteIS0_EEERKNSt13tuple_elementIXT_ESt5tupleIJDpT0_EEE4typeERKS8_
DA:80,2
DA:81,2
DA:80,2
DA:81,2
DA:80,2
DA:81,2
DA:124,2
DA:124,12
DA:124,6
DA:124,12
DA:124,6
DA:189,2
DA:190,2
DA:189,2
DA:190,2
DA:189,2
DA:190,2
DA:233,36
DA:233,34
DA:233,6
DA:233,44
DA:233,20
DA:236,4
DA:236,2
DA:236,28
DA:236,70
DA:268,16
DA:268,34
DA:268,6
DA:268,44
DA:268,20
DA:271,4
DA:271,2
DA:271,28
DA:271,70
DA:279,2
DA:280,2
DA:279,2
DA:280,2
DA:279,2
DA:280,2
DA:424,2
DA:424,12
DA:424,6
DA:424,12
DA:424,6
DA:430,2
DA:431,2
DA:430,2
DA:431,2
DA:430,2
DA:431,2
DA:1049,2
DA:1051,2
DA:1049,2
DA:1051,2
DA:1049,2
DA:1051,2
DA:1377,2
DA:1378,2
DA:1377,12
DA:1378,12
DA:1377,6
DA:1378,6
DA:1377,16
DA:1378,16
DA:1377,34
DA:1378,34
DA:1377,6
DA:1378,6
DA:1377,12
DA:1378,12
DA:1377,44
DA:1378,44
DA:1377,6
DA:1378,6
DA:1377,20
DA:1378,20
DA:1382,4
DA:1383,4
DA:1382,2
DA:1383,2
DA:1382,28
DA:1383,28
DA:1382,70
DA:1383,70
DA:1393,2
DA:1394,2
DA:1393,12
DA:1394,12
DA:1393,6
DA:1394,6
DA:1393,16
DA:1394,16
DA:1393,34
DA:1394,34
DA:1393,6
DA:1394,6
DA:1393,12
DA:1394,12
DA:1393,44
DA:1394,44
DA:1393,6
DA:1394,6
DA:1393,20
DA:1394,20
DA:1399,4
DA:1400,4
DA:1399,2
DA:1400,2
DA:1399,28
DA:1400,28
DA:1399,70
DA:1400,70
end_of_record
TN:
SF:/usr/include/c++/11/bits/allocator.h
FN:156,_ZNSaISt6vectorIiSaIiEEEC2Ev
FNDA:6,_ZNSaISt6vectorIiSaIiEEEC2Ev
FN:156,_ZNSaISt6vectorI4EdgeSaIS0_EEEC2Ev
FNDA:0,_ZNSaISt6vectorI4EdgeSaIS0_EEEC2Ev
FN:159,_ZNSaI4EdgeEC2ERKS0_
FNDA:0,_ZNSaI4EdgeEC2ERKS0_
FN:174,_ZNSaI4EdgeED2Ev
FNDA:0,_ZNSaI4EdgeED2Ev
FN:174,_ZNSaIiED2Ev
FNDA:0,_ZNSaIiED2Ev
FN:174,_ZNSaISt6vectorIiSaIiEEED2Ev
FNDA:0,_ZNSaISt6vectorIiSaIiEEED2Ev
FN:174,_ZNSaISt6vectorI4EdgeSaIS0_EEED2Ev
FNDA:0,_ZNSaISt6vectorI4EdgeSaIS0_EEED2Ev
DA:156,6
DA:156,0
DA:159,0
DA:160,0
DA:174,0
DA:174,0
DA:174,0
DA:174,0
end_of_record
SF:/usr/include/c++/11/bits/cpp_type_traits.h
FN:560,_ZSt12__miter_baseIN9__gnu_cxx17__normal_iteratorIPK4EdgeSt6vectorIS2_SaIS2_EEEEET_S9_
FNDA:24,_ZSt12__miter_baseIN9__gnu_cxx17__normal_iteratorIPK4EdgeSt6vectorIS2_SaIS2_EEEEET_S9_
DA:560,24
DA:561,24
end_of_record
SF:/home/eladubuntu/Git Projects/OS_2024-FINAL_PROJECT_MST/MSTFactory.cpp
FN:3,_ZN10MSTFactory11setStrategyEP11MSTStrategy
FNDA:6,_ZN10MSTFactory11setStrategyEP11MSTStrategy
FN:12,_ZN10MSTFactory9createMSTERSt10unique_ptrI5GraphSt14default_deleteIS1_EE
FNDA:6,_ZN10MSTFactory9createMSTERSt10unique_ptrI5GraphSt14default_deleteIS1_EE
DA:3,6
DA:5,6
DA:7,4
DA:9,6
DA:10,6
DA:12,6
DA:14,6
DA:15,12
DA:16,6
end_of_record
SF:/usr/include/c++/11/tuple
FN:80,_ZNSt10_Head_baseILm1ESt14default_deleteI11MSTStrategyELb1EEC2Ev
FNDA:6,_ZNSt10_Head_baseILm1ESt14default_deleteI11MSTStrategyELb1EEC2Ev
FN:80,_ZNSt10_Head_baseILm1ESt14default_deleteI4TreeELb1EEC2Ev
FNDA:6,_ZNSt10_Head_baseILm1ESt14default_deleteI4TreeELb1EEC2Ev
FN:124,_ZNSt10_Head_baseILm1ESt14default_deleteI11MSTStrategyELb1EE7_M_headERS3_
FNDA:0,_ZNSt10_Head_baseILm1ESt14default_deleteI11MSTStrategyELb1EE7_M_headERS3_
FN:189,_ZNSt10_Head_baseILm0EP4TreeLb0EEC2Ev
FNDA:6,_ZNSt10_Head_baseILm0EP4TreeLb0EEC2Ev
FN:189,_ZNSt10_Head_baseILm0EP11MSTStrategyLb0EEC2Ev
FNDA:6,_ZNSt10_Head_baseILm0EP11MSTStrategyLb0EEC2Ev
FN:233,_ZNSt10_Head_baseILm0EP4TreeLb0EE7_M_headERS2_
FNDA:0,_ZNSt10_Head_baseILm0EP4TreeLb0EE7_M_headERS2_
FN:233,_ZNSt10_Head_baseILm0EP11MSTStrategyLb0EE7_M_headERS2_
FNDA:0,_ZNSt10_Head_baseILm0EP11MSTStrategyLb0EE7_M_headERS2_
FN:236,_ZNSt10_Head_baseILm0EP5GraphLb0EE7_M_headERKS2_
FNDA:0,_ZNSt10_Head_baseILm0EP5GraphLb0EE7_M_headERKS2_
FN:236,_ZNSt10_Head_baseILm0EP11MSTStrategyLb0EE7_M_headERKS2_
FNDA:12,_ZNSt10_Head_baseILm0EP11MSTStrategyLb0EE7_M_headERKS2_
FN:268,_ZNSt11_Tuple_implILm0EJP4TreeSt14default_deleteIS0_EEE7_M_headERS4_
FNDA:0,_ZNSt11_Tuple_implILm0EJP4TreeSt14default_deleteIS0_EEE7_M_headERS4_
FN:268,_ZNSt11_Tuple_implILm0EJP11MSTStrategySt14default_deleteIS0_EEE7_M_headERS4_
FNDA:0,_ZNSt11_Tuple_implILm0EJP11MSTStrategySt14default_deleteIS0_EEE7_M_headERS4_
FN:271,_ZNSt11_Tuple_implILm0EJP5GraphSt14default_deleteIS0_EEE7_M_headERKS4_
FNDA:0,_ZNSt11_Tuple_implILm0EJP5GraphSt14default_deleteIS0_EEE7_M_headERKS4_
FN:271,_ZNSt11_Tuple_implILm0EJP11MSTStrategySt14default_deleteIS0_EEE7_M_headERKS4_
FNDA:12,_ZNSt11_Tuple_implILm0EJP11MSTStrategySt14default_deleteIS0_EEE7_M_headERKS4_
FN:279,_ZNSt11_Tuple_implILm0EJP11MSTStrategySt14default_deleteIS0_EEEC2Ev
FNDA:6,_ZNSt11_Tuple_implILm0EJP11MSTStrategySt14default_deleteIS0_EEEC2Ev
FN:279,_ZNSt11_Tuple_implILm0EJP4TreeSt14default_deleteIS0_EEEC2Ev
FNDA:6,_ZNSt11_Tuple_implILm0EJP4TreeSt14default_deleteIS0_EEEC2Ev
FN:424,_ZNSt11_Tuple_implILm1EJSt14default_deleteI11MSTStrategyEEE7_M_headERS3_
FNDA:0,_ZNSt11_Tuple_implILm1EJSt14default_deleteI11MSTStrategyEEE7_M_headERS3_
FN:430,_ZNSt11_Tuple_implILm1EJSt14default_deleteI11MSTStrategyEEEC2Ev
FNDA:6,_ZNSt11_Tuple_implILm1EJSt14default_deleteI11MSTStrategyEEEC2Ev
FN:430,_ZNSt11_Tuple_implILm1EJSt14default_deleteI4TreeEEEC2Ev
FNDA:6,_ZNSt11_Tuple_implILm1EJSt14default_deleteI4TreeEEEC2Ev
FN:1049,_ZNSt5tupleIJP4TreeSt14default_deleteIS0_EEEC2ILb1ELb1EEEv
FNDA:6,_ZNSt5tupleIJP4TreeSt14default_deleteIS0_EEEC2ILb1ELb1EEEv
FN:1049,_ZNSt5tupleIJP11MSTStrategySt14default_deleteIS0_EEEC2ILb1ELb1EEEv
FNDA:6,_ZNSt5tupleIJP11MSTStrategySt14default_deleteIS0_EEEC2ILb1ELb1EEEv
FN:1377,_ZSt12__get_helperILm0EP4TreeJSt14default_deleteIS0_EEERT0_RSt11_Tuple_implIXT_EJS4_DpT1_EE
FNDA:0,_ZSt12__get_helperILm0EP4TreeJSt14default_deleteIS0_EEERT0_RSt11_Tuple_implIXT_EJS4_DpT1_EE
FN:1377,_ZSt12__get_helperILm1ESt14default_deleteI11MSTStrategyEJEERT0_RSt11_Tuple_implIXT_EJS3_DpT1_EE
FNDA:0,_ZSt12__get_helperILm1ESt14default_deleteI11MSTStrategyEJEERT0_RSt11_Tuple_implIXT_EJS3_DpT1_EE
FN:1377,_ZSt12__get_helperILm0EP11MSTStrategyJSt14default_deleteIS0_EEERT0_RSt11_Tuple_implIXT_EJS4_DpT1_EE
FNDA:0,_ZSt12__get_helperILm0EP11MSTStrategyJSt14default_deleteIS0_EEERT0_RSt11_Tuple_implIXT_EJS4_DpT1_EE
FN:1382,_ZSt12__get_helperILm0EP11MSTStrategyJSt14default_deleteIS0_EEERKT0_RKSt11_Tuple_implIXT_EJS4_DpT1_EE
FNDA:12,_ZSt12__get_helperILm0EP11MSTStrategyJSt14default_deleteIS0_EEERKT0_RKSt11_Tuple_implIXT_EJS4_DpT1_EE
FN:1382,_ZSt12__get_helperILm0EP5GraphJSt14default_deleteIS0_EEERKT0_RKSt11_Tuple_implIXT_EJS4_DpT1_EE
FNDA:0,_ZSt12__get_helperILm0EP5GraphJSt14default_deleteIS0_EEERKT0_RKSt11_Tuple_implIXT_EJS4_DpT1_EE
FN:1393,_ZSt3getILm0EJP4TreeSt14default_deleteIS0_EEERNSt13tuple_elementIXT_ESt5tupleIJDpT0_EEE4typeERS8_
FNDA:0,_ZSt3getILm0EJP4TreeSt14default_deleteIS0_EEERNSt13tuple_elementIXT_ESt5tupleIJDpT0_EEE4typeERS8_
FN:1393,_ZSt3getILm1EJP11MSTStrategySt14default_deleteIS0_EEERNSt13tuple_elementIXT_ESt5tupleIJDpT0_EEE4typeERS8_
FNDA:0,_ZSt3getILm1EJP11MSTStrategySt14default_deleteIS0_EEERNSt13tuple_elementIXT_ESt5tupleIJDpT0_EEE4typeERS8_
FN:1393,_ZSt3getILm0EJP11MSTStrategySt14default_deleteIS0_EEERNSt13tuple_elementIXT_ESt5tupleIJDpT0_EEE4typeERS8_
FNDA:0,_ZSt3getILm0EJP11MSTStrategySt14default_deleteIS0_EEERNSt13tuple_elementIXT_ESt5tupleIJDpT0_EEE4typeERS8_
FN:1399,_ZSt3getILm0EJP5GraphSt14default_deleteIS0_EEERKNSt13tuple_elementIXT_ESt5tupleIJDpT0_EEE4typeERKS8_
FNDA:0,_ZSt3getILm0EJP5GraphSt14default_deleteIS0_EEERKNSt13tuple_elementIXT_ESt5tupleIJDpT0_EEE4typeERKS8_
FN:1399,_ZSt3getILm0EJP11MSTStrategySt14default_deleteIS0_EEERKNSt13tuple_elementIXT_ESt5tupleIJDpT0_EEE4typeERKS8_
FNDA:12,_ZSt3getILm0EJP11MSTStrategySt14default_deleteIS0_EEERKNSt13tuple_elementIXT_ESt5tupleIJDpT0_EEE4typeERKS8_
DA:80,6
DA:81,6
DA:80,6
DA:81,6
DA:124,0
DA:189,6
DA:190,6
DA:189,6
DA:190,6
DA:233,0
DA:233,0
DA:236,0
DA:236,12
DA:268,0
DA:268,0
DA:271,0
DA:271,12
DA:279,6
DA:280,6
DA:279,6
DA:280,6
DA:424,0
DA:430,6
DA:431,6
DA:430,6
DA:431,6
DA:1049,6
DA:1051,6
DA:1049,6
DA:1051,6
DA:1377,0
DA:1378,0
DA:1377,0
DA:1378,0
DA:1377,0
DA:1378,0
DA:1382,0
DA:1383,0
DA:1382,12
DA:1383,12
DA:1393,0
DA:1394,0
DA:1393,0
DA:1394,0
DA:1393,0
DA:1394,0
DA:1399,0
DA:1400,0
DA:1399,12
DA:1400,12
end_of_record
SF:/usr/include/c++/11/ext/alloc_traits.h
FN:97,_ZN9__gnu_cxx14__alloc_traitsISaI4EdgeES1_E17_S_select_on_copyERKS2_
FNDA:12,_ZN9__gnu_cxx14__alloc_traitsISaI4EdgeES1_E17_S_select_on_copyERKS2_
DA:97,12
DA:98,12
end_of_record
SF:/usr/include/c++/11/bits/stl_algobase.h
FN:313,_ZSt12__niter_baseIP4EdgeET_S2_
FNDA:0,_ZSt12__niter_baseIP4EdgeET_S2_
FN:335,_ZSt12__niter_wrapIP4EdgeET_RKS2_S2_
FNDA:12,_ZSt12__niter_wrapIP4EdgeET_RKS2_S2_
FN:420,_ZNSt11__copy_moveILb0ELb1ESt26random_access_iterator_tagE8__copy_mI4EdgeEEPT_PKS4_S7_S5_
FNDA:12,_ZNSt11__copy_moveILb0ELb1ESt26random_access_iterator_tagE8__copy_mI4EdgeEEPT_PKS4_S7_S5_
FN:486,_ZSt14__copy_move_a2ILb0EPK4EdgePS0_ET1_T0_S5_S4_
FNDA:12,_ZSt14__copy_move_a2ILb0EPK4EdgePS0_ET1_T0_S5_S4_
FN:521,_ZSt14__copy_move_a1ILb0EPK4EdgePS0_ET1_T0_S5_S4_
FNDA:12,_ZSt14__copy_move_a1ILb0EPK4EdgePS0_ET1_T0_S5_S4_
FN:527,_ZSt13__copy_move_aILb0EN9__gnu_cxx17__normal_iteratorIPK4EdgeSt6vectorIS2_SaIS2_EEEEPS2_ET1_T0_SB_SA_
FNDA:12,_ZSt13__copy_move_aILb0EN9__gnu_cxx17__normal_iteratorIPK4EdgeSt6vectorIS2_SaIS2_EEEEPS2_ET1_T0_SB_SA_
FN:611,_ZSt4copyIN9__gnu_cxx17__normal_iteratorIPK4EdgeSt6vectorIS2_SaIS2_EEEEPS2_ET0_T_SB_SA_
FNDA:12,_ZSt4copyIN9__gnu_cxx17__normal_iteratorIPK4EdgeSt6vectorIS2_SaIS2_EEEEPS2_ET0_T_SB_SA_
DA:313,0
DA:315,0
DA:335,12
DA:336,12
DA:420,12
DA:429,12
DA:430,12
DA:431,12
DA:432,12
DA:486,12
DA:495,12
DA:521,12
DA:522,12
DA:527,12
DA:529,12
DA:532,12
DA:611,12
DA:620,12
end_of_record
SF:/home/eladubuntu/Git Projects/OS_2024-FINAL_PROJECT_MST/Tree.hpp
FN:96,_ZN4TreeC2ESt6vectorI4EdgeSaIS1_EE
FNDA:6,_ZN4TreeC2ESt6vectorI4EdgeSaIS1_EE
DA:96,6
end_of_record
SF:/usr/include/c++/11/bits/unique_ptr.h
FN:79,_ZNKSt14default_deleteI11MSTStrategyEclEPS0_
FNDA:0,_ZNKSt14default_deleteI11MSTStrategyEclEPS0_
FN:155,_ZNSt15__uniq_ptr_implI4TreeSt14default_deleteIS0_EEC2EPS0_
FNDA:6,_ZNSt15__uniq_ptr_implI4TreeSt14default_deleteIS0_EEC2EPS0_
FN:155,_ZNSt15__uniq_ptr_implI11MSTStrategySt14default_deleteIS0_EEC2EPS0_
FNDA:6,_ZNSt15__uniq_ptr_implI11MSTStrategySt14default_deleteIS0_EEC2EPS0_
FN:165,_ZNSt15__uniq_ptr_implI11MSTStrategySt14default_deleteIS0_EEaSEOS3_
FNDA:6,_ZNSt15__uniq_ptr_implI11MSTStrategySt14default_deleteIS0_EEaSEOS3_
FN:172,_ZNSt15__uniq_ptr_implI4TreeSt14default_deleteIS0_EE6_M_ptrEv
FNDA:0,_ZNSt15__uniq_ptr_implI4TreeSt14default_deleteIS0_EE6_M_ptrEv
FN:172,_ZNSt15__uniq_ptr_implI11MSTStrategySt14default_deleteIS0_EE6_M_ptrEv
FNDA:0,_ZNSt15__uniq_ptr_implI11MSTStrategySt14default_deleteIS0_EE6_M_ptrEv
FN:173,_ZNKSt15__uniq_ptr_implI5GraphSt14default_deleteIS0_EE6_M_ptrEv
FNDA:0,_ZNKSt15__uniq_ptr_implI5GraphSt14default_deleteIS0_EE6_M_ptrEv
FN:173,_ZNKSt15__uniq_ptr_implI11MSTStrategySt14default_deleteIS0_EE6_M_ptrEv
FNDA:12,_ZNKSt15__uniq_ptr_implI11MSTStrategySt14default_deleteIS0_EE6_M_ptrEv
FN:174,_ZNSt15__uniq_ptr_implI11MSTStrategySt14default_deleteIS0_EE10_M_deleterEv
FNDA:0,_ZNSt15__uniq_ptr_implI11MSTStrategySt14default_deleteIS0_EE10_M_deleterEv
FN:177,_ZNSt15__uniq_ptr_implI11MSTStrategySt14default_deleteIS0_EE5resetEPS0_
FNDA:0,_ZNSt15__uniq_ptr_implI11MSTStrategySt14default_deleteIS0_EE5resetEPS0_
FN:185,_ZNSt15__uniq_ptr_implI11MSTStrategySt14default_deleteIS0_EE7releaseEv
FNDA:6,_ZNSt15__uniq_ptr_implI11MSTStrategySt14default_deleteIS0_EE7releaseEv
FN:212,_ZNSt15__uniq_ptr_dataI11MSTStrategySt14default_deleteIS0_ELb1ELb1EEaSEOS3_
FNDA:6,_ZNSt15__uniq_ptr_dataI11MSTStrategySt14default_deleteIS0_ELb1ELb1EEaSEOS3_
FN:281,_ZNSt10unique_ptrI4TreeSt14default_deleteIS0_EEC2IS2_vEEPS0_
FNDA:6,_ZNSt10unique_ptrI4TreeSt14default_deleteIS0_EEC2IS2_vEEPS0_
FN:281,_ZNSt10unique_ptrI11MSTStrategySt14default_deleteIS0_EEC2IS2_vEEPS0_
FNDA:6,_ZNSt10unique_ptrI11MSTStrategySt14default_deleteIS0_EEC2IS2_vEEPS0_
FN:355,_ZNSt10unique_ptrI11MSTStrategySt14default_deleteIS0_EED2Ev
FNDA:0,_ZNSt10unique_ptrI11MSTStrategySt14default_deleteIS0_EED2Ev
FN:371,_ZNSt10unique_ptrI11MSTStrategySt14default_deleteIS0_EEaSEOS3_
FNDA:6,_ZNSt10unique_ptrI11MSTStrategySt14default_deleteIS0_EEaSEOS3_
FN:405,_ZNKSt10unique_ptrI5GraphSt14default_deleteIS0_EEdeEv
FNDA:6,_ZNKSt10unique_ptrI5GraphSt14default_deleteIS0_EEdeEv
FN:413,_ZNKSt10unique_ptrI11MSTStrategySt14default_deleteIS0_EEptEv
FNDA:6,_ZNKSt10unique_ptrI11MSTStrategySt14default_deleteIS0_EEptEv
FN:421,_ZNKSt10unique_ptrI5GraphSt14default_deleteIS0_EE3getEv
FNDA:0,_ZNKSt10unique_ptrI5GraphSt14default_deleteIS0_EE3getEv
FN:421,_ZNKSt10unique_ptrI11MSTStrategySt14default_deleteIS0_EE3getEv
FNDA:12,_ZNKSt10unique_ptrI11MSTStrategySt14default_deleteIS0_EE3getEv
FN:426,_ZNSt10unique_ptrI11MSTStrategySt14default_deleteIS0_EE11get_deleterEv
FNDA:0,_ZNSt10unique_ptrI11MSTStrategySt14default_deleteIS0_EE11get_deleterEv
FN:435,_ZNKSt10unique_ptrI11MSTStrategySt14default_deleteIS0_EEcvbEv
FNDA:6,_ZNKSt10unique_ptrI11MSTStrategySt14default_deleteIS0_EEcvbEv
FN:452,_ZNSt10unique_ptrI11MSTStrategySt14default_deleteIS0_EE5resetEPS0_
FNDA:0,_ZNSt10unique_ptrI11MSTStrategySt14default_deleteIS0_EE5resetEPS0_
FN:781,_ZStneI11MSTStrategySt14default_deleteIS0_EEbRKSt10unique_ptrIT_T0_EDn
FNDA:6,_ZStneI11MSTStrategySt14default_deleteIS0_EEbRKSt10unique_ptrIT_T0_EDn
FN:961,_ZSt11make_uniqueI4TreeJRSt6vectorI4EdgeSaIS2_EEEENSt9_MakeUniqIT_E15__single_objectEDpOT0_
FNDA:6,_ZSt11make_uniqueI4TreeJRSt6vectorI4EdgeSaIS2_EEEENSt9_MakeUniqIT_E15__single_objectEDpOT0_
DA:79,0
DA:85,0
DA:86,0
DA:155,6
DA:155,6
DA:165,6
DA:167,6
DA:168,6
DA:169,6
DA:172,0
DA:172,0
DA:173,0
DA:173,12
DA:174,0
DA:177,0
DA:179,0
DA:180,0
DA:181,0
DA:182,0
DA:183,0
DA:185,6
DA:187,6
DA:188,6
DA:189,6
DA:212,6
DA:281,6
DA:282,6
DA:283,6
DA:281,6
DA:282,6
DA:283,6
DA:355,0
DA:359,0
DA:360,0
DA:361,0
DA:362,0
DA:363,0
DA:371,6
DA:405,6
DA:407,6
DA:408,6
DA:413,6
DA:416,6
DA:421,0
DA:422,0
DA:421,12
DA:422,12
DA:426,0
DA:427,0
DA:435,6
DA:436,6
DA:452,0
DA:456,0
DA:457,0
DA:781,6
DA:782,6
DA:961,6
DA:962,6
end_of_record
SF:/home/eladubuntu/Git Projects/OS_2024-FINAL_PROJECT_MST/Graph.hpp
FN:44,_ZN5GraphC2Ev
FNDA:6,_ZN5GraphC2Ev
FN:62,_ZN5GraphD0Ev
FNDA:0,_ZN5GraphD0Ev
FN:62,_ZN5GraphD2Ev
FNDA:0,_ZN5GraphD2Ev
DA:44,6
DA:62,0
DA:62,0
end_of_record
SF:/usr/include/c++/11/iostream
end_of_record
SF:/usr/include/c++/11/bits/move.h
FN:49,_ZSt11__addressofISt6vectorIiSaIiEEEPT_RS3_
FNDA:0,_ZSt11__addressofISt6vectorIiSaIiEEEPT_RS3_
FN:49,_ZSt11__addressofISt6vectorI4EdgeSaIS1_EEEPT_RS4_
FNDA:0,_ZSt11__addressofISt6vectorI4EdgeSaIS1_EEEPT_RS4_
FN:77,_ZSt7forwardIRSt6vectorI4EdgeSaIS1_EEEOT_RNSt16remove_referenceIS5_E4typeE
FNDA:6,_ZSt7forwardIRSt6vectorI4EdgeSaIS1_EEEOT_RNSt16remove_referenceIS5_E4typeE
FN:77,_ZSt7forwardISt14default_deleteI11MSTStrategyEEOT_RNSt16remove_referenceIS3_E4typeE
FNDA:6,_ZSt7forwardISt14default_deleteI11MSTStrategyEEOT_RNSt16remove_referenceIS3_E4typeE
FN:104,_ZSt4moveIRP11MSTStrategyEONSt16remove_referenceIT_E4typeEOS4_
FNDA:0,_ZSt4moveIRP11MSTStrategyEONSt16remove_referenceIT_E4typeEOS4_
DA:49,0
DA:50,0
DA:49,0
DA:50,0
DA:77,6
DA:78,6
DA:77,6
DA:78,6
DA:104,0
DA:105,0
end_of_record
SF:/usr/include/c++/11/bits/stl_uninitialized.h
FN:108,_ZNSt20__uninitialized_copyILb1EE13__uninit_copyIN9__gnu_cxx17__normal_iteratorIPK4EdgeSt6vectorIS4_SaIS4_EEEEPS4_EET0_T_SD_SC_
FNDA:12,_ZNSt20__uninitialized_copyILb1EE13__uninit_copyIN9__gnu_cxx17__normal_iteratorIPK4EdgeSt6vectorIS4_SaIS4_EEEEPS4_EET0_T_SD_SC_
FN:126,_ZSt18uninitialized_copyIN9__gnu_cxx17__normal_iteratorIPK4EdgeSt6vectorIS2_SaIS2_EEEEPS2_ET0_T_SB_SA_
FNDA:12,_ZSt18uninitialized_copyIN9__gnu_cxx17__normal_iteratorIPK4EdgeSt6vectorIS2_SaIS2_EEEEPS2_ET0_T_SB_SA_
FN:331,_ZSt22__uninitialized_copy_aIN9__gnu_cxx17__normal_iteratorIPK4EdgeSt6vectorIS2_SaIS2_EEEEPS2_S2_ET0_T_SB_SA_RSaIT1_E
FNDA:12,_ZSt22__uninitialized_copy_aIN9__gnu_cxx17__normal_iteratorIPK4EdgeSt6vectorIS2_SaIS2_EEEEPS2_S2_ET0_T_SB_SA_RSaIT1_E
DA:108,12
DA:110,12
DA:126,12
DA:145,12
DA:151,12
DA:331,12
DA:333,12
end_of_record
SF:/usr/include/c++/11/bits/stl_vector.h
FN:97,_ZNSt12_Vector_baseI4EdgeSaIS0_EE17_Vector_impl_dataC2Ev
FNDA:0,_ZNSt12_Vector_baseI4EdgeSaIS0_EE17_Vector_impl_dataC2Ev
FN:97,_ZNSt12_Vector_baseISt6vectorI4EdgeSaIS1_EESaIS3_EE17_Vector_impl_dataC2Ev
FNDA:0,_ZNSt12_Vector_baseISt6vectorI4EdgeSaIS1_EESaIS3_EE17_Vector_impl_dataC2Ev
FN:97,_ZNSt12_Vector_baseISt6vectorIiSaIiEESaIS2_EE17_Vector_impl_dataC2Ev
FNDA:6,_ZNSt12_Vector_baseISt6vectorIiSaIiEESaIS2_EE17_Vector_impl_dataC2Ev
FN:131,_ZNSt12_Vector_baseISt6vectorI4EdgeSaIS1_EESaIS3_EE12_Vector_implC2Ev
FNDA:0,_ZNSt12_Vector_baseISt6vectorI4EdgeSaIS1_EESaIS3_EE12_Vector_implC2Ev
FN:131,_ZNSt12_Vector_baseISt6vectorIiSaIiEESaIS2_EE12_Vector_implC2Ev
FNDA:6,_ZNSt12_Vector_baseISt6vectorIiSaIiEESaIS2_EE12_Vector_implC2Ev
FN:136,_ZNSt12_Vector_baseI4EdgeSaIS0_EE12_Vector_implC2ERKS1_
FNDA:12,_ZNSt12_Vector_baseI4EdgeSaIS0_EE12_Vector_implC2ERKS1_
FN:276,_ZNSt12_Vector_baseIiSaIiEE19_M_get_Tp_allocatorEv
FNDA:0,_ZNSt12_Vector_baseIiSaIiEE19_M_get_Tp_allocatorEv
FN:276,_ZNSt12_Vector_baseI4EdgeSaIS0_EE19_M_get_Tp_allocatorEv
FNDA:0,_ZNSt12_Vector_baseI4EdgeSaIS0_EE19_M_get_Tp_allocatorEv
FN:276,_ZNSt12_Vector_baseISt6vectorI4EdgeSaIS1_EESaIS3_EE19_M_get_Tp_allocatorEv
FNDA:0,_ZNSt12_Vector_baseISt6vectorI4EdgeSaIS1_EESaIS3_EE19_M_get_Tp_allocatorEv
FN:276,_ZNSt12_Vector_baseISt6vectorIiSaIiEESaIS2_EE19_M_get_Tp_allocatorEv
FNDA:0,_ZNSt12_Vector_baseISt6vectorIiSaIiEESaIS2_EE19_M_get_Tp_allocatorEv
FN:280,_ZNKSt12_Vector_baseI4EdgeSaIS0_EE19_M_get_Tp_allocatorEv
FNDA:0,_ZNKSt12_Vector_baseI4EdgeSaIS0_EE19_M_get_Tp_allocatorEv
FN:288,_ZNSt12_Vector_baseISt6vectorI4EdgeSaIS1_EESaIS3_EEC2Ev
FNDA:0,_ZNSt12_Vector_baseISt6vectorI4EdgeSaIS1_EESaIS3_EEC2Ev
FN:288,_ZNSt12_Vector_baseISt6vectorIiSaIiEESaIS2_EEC2Ev
FNDA:6,_ZNSt12_Vector_baseISt6vectorIiSaIiEESaIS2_EEC2Ev
FN:303,_ZNSt12_Vector_baseI4EdgeSaIS0_EEC2EmRKS1_
FNDA:12,_ZNSt12_Vector_baseI4EdgeSaIS0_EEC2EmRKS1_
FN:333,_ZNSt12_Vector_baseI4EdgeSaIS0_EED2Ev
FNDA:0,_ZNSt12_Vector_baseI4EdgeSaIS0_EED2Ev
FN:333,_ZNSt12_Vector_baseIiSaIiEED2Ev
FNDA:0,_ZNSt12_Vector_baseIiSaIiEED2Ev
FN:333,_ZNSt12_Vector_baseISt6vectorIiSaIiEESaIS2_EED2Ev
FNDA:0,_ZNSt12_Vector_baseISt6vectorIiSaIiEESaIS2_EED2Ev
FN:333,_ZNSt12_Vector_baseISt6vectorI4EdgeSaIS1_EESaIS3_EED2Ev
FNDA:0,_ZNSt12_Vector_baseISt6vectorI4EdgeSaIS1_EESaIS3_EED2Ev
FN:343,_ZNSt12_Vector_baseI4EdgeSaIS0_EE11_M_allocateEm
FNDA:0,_ZNSt12_Vector_baseI4EdgeSaIS0_EE11_M_allocateEm
FN:350,_ZNSt12_Vector_baseI4EdgeSaIS0_EE13_M_deallocateEPS0_m
FNDA:0,_ZNSt12_Vector_baseI4EdgeSaIS0_EE13_M_deallocateEPS0_m
FN:350,_ZNSt12_Vector_baseISt6vectorIiSaIiEESaIS2_EE13_M_deallocateEPS2_m
FNDA:0,_ZNSt12_Vector_baseISt6vectorIiSaIiEESaIS2_EE13_M_deallocateEPS2_m
FN:350,_ZNSt12_Vector_baseIiSaIiEE13_M_deallocateEPim
FNDA:0,_ZNSt12_Vector_baseIiSaIiEE13_M_deallocateEPim
FN:350,_ZNSt12_Vector_baseISt6vectorI4EdgeSaIS1_EESaIS3_EE13_M_deallocateEPS3_m
FNDA:0,_ZNSt12_Vector_baseISt6vectorI4EdgeSaIS1_EESaIS3_EE13_M_deallocateEPS3_m
FN:359,_ZNSt12_Vector_baseI4EdgeSaIS0_EE17_M_create_storageEm
FNDA:12,_ZNSt12_Vector_baseI4EdgeSaIS0_EE17_M_create_storageEm
FN:487,_ZNSt6vectorIS_I4EdgeSaIS0_EESaIS2_EEC2Ev
FNDA:0,_ZNSt6vectorIS_I4EdgeSaIS0_EESaIS2_EEC2Ev
FN:487,_ZNSt6vectorIS_IiSaIiEESaIS1_EEC2Ev
FNDA:6,_ZNSt6vectorIS_IiSaIiEESaIS1_EEC2Ev
FN:553,_ZNSt6vectorI4EdgeSaIS0_EEC2ERKS2_
FNDA:12,_ZNSt6vectorI4EdgeSaIS0_EEC2ERKS2_
FN:678,_ZNSt6vectorIS_I4EdgeSaIS0_EESaIS2_EED2Ev
FNDA:0,_ZNSt6vectorIS_I4EdgeSaIS0_EESaIS2_EED2Ev
FN:678,_ZNSt6vectorIS_IiSaIiEESaIS1_EED2Ev
FNDA:0,_ZNSt6vectorIS_IiSaIiEESaIS1_EED2Ev
FN:678,_ZNSt6vectorI4EdgeSaIS0_EED2Ev
FNDA:0,_ZNSt6vectorI4EdgeSaIS0_EED2Ev
FN:678,_ZNSt6vectorIiSaIiEED2Ev
FNDA:0,_ZNSt6vectorIiSaIiEED2Ev
FN:820,_ZNKSt6vectorI4EdgeSaIS0_EE5beginEv
FNDA:0,_ZNKSt6vectorI4EdgeSaIS0_EE5beginEv
FN:838,_ZNKSt6vectorI4EdgeSaIS0_EE3endEv
FNDA:0,_ZNKSt6vectorI4EdgeSaIS0_EE3endEv
FN:918,_ZNKSt6vectorI4EdgeSaIS0_EE4sizeEv
FNDA:0,_ZNKSt6vectorI4EdgeSaIS0_EE4sizeEv
DA:97,0
DA:98,0
DA:99,0
DA:97,6
DA:98,6
DA:99,6
DA:97,0
DA:98,0
DA:99,0
DA:131,6
DA:133,6
DA:134,6
DA:131,0
DA:133,0
DA:134,0
DA:136,12
DA:137,12
DA:138,12
DA:276,0
DA:277,0
DA:276,0
DA:277,0
DA:276,0
DA:277,0
DA:276,0
DA:277,0
DA:280,0
DA:281,0
DA:288,6
DA:288,0
DA:303,12
DA:304,12
DA:305,12
DA:333,0
DA:335,0
DA:336,0
DA:337,0
DA:333,0
DA:335,0
DA:336,0
DA:337,0
DA:333,0
DA:335,0
DA:336,0
DA:337,0
DA:333,0
DA:335,0
DA:336,0
DA:337,0
DA:343,0
DA:346,0
DA:350,0
DA:353,0
DA:354,0
DA:355,0
DA:350,0
DA:353,0
DA:354,0
DA:355,0
DA:350,0
DA:353,0
DA:354,0
DA:355,0
DA:350,0
DA:353,0
DA:354,0
DA:355,0
DA:359,12
DA:361,12
DA:362,12
DA:363,12
DA:364,12
DA:487,6
DA:487,0
DA:553,12
DA:555,12
DA:557,12
DA:558,12
DA:560,12
DA:561,12
DA:678,0
DA:680,0
DA:681,0
DA:683,0
DA:678,0
DA:680,0
DA:681,0
DA:683,0
DA:678,0
DA:680,0
DA:681,0
DA:683,0
DA:678,0
DA:680,0
DA:681,0
DA:683,0
DA:820,0
DA:821,0
DA:838,0
DA:839,0
DA:918,0
DA:919,0
end_of_record
SF:/usr/include/c++/11/ext/new_allocator.h
FN:79,_ZN9__gnu_cxx13new_allocatorISt6vectorIiSaIiEEEC2Ev
FNDA:6,_ZN9__gnu_cxx13new_allocatorISt6vectorIiSaIiEEEC2Ev
FN:79,_ZN9__gnu_cxx13new_allocatorISt6vectorI4EdgeSaIS2_EEEC2Ev
FNDA:0,_ZN9__gnu_cxx13new_allocatorISt6vectorI4EdgeSaIS2_EEEC2Ev
FN:82,_ZN9__gnu_cxx13new_allocatorI4EdgeEC2ERKS2_
FNDA:0,_ZN9__gnu_cxx13new_allocatorI4EdgeEC2ERKS2_
FN:89,_ZN9__gnu_cxx13new_allocatorI4EdgeED2Ev
FNDA:0,_ZN9__gnu_cxx13new_allocatorI4EdgeED2Ev
FN:89,_ZN9__gnu_cxx13new_allocatorIiED2Ev
FNDA:0,_ZN9__gnu_cxx13new_allocatorIiED2Ev
FN:89,_ZN9__gnu_cxx13new_allocatorISt6vectorIiSaIiEEED2Ev
FNDA:0,_ZN9__gnu_cxx13new_allocatorISt6vectorIiSaIiEEED2Ev
FN:89,_ZN9__gnu_cxx13new_allocatorISt6vectorI4EdgeSaIS2_EEED2Ev
FNDA:0,_ZN9__gnu_cxx13new_allocatorISt6vectorI4EdgeSaIS2_EEED2Ev
FN:103,_ZN9__gnu_cxx13new_allocatorI4EdgeE8allocateEmPKv
FNDA:0,_ZN9__gnu_cxx13new_allocatorI4EdgeE8allocateEmPKv
FN:132,_ZN9__gnu_cxx13new_allocatorIiE10deallocateEPim
FNDA:0,_ZN9__gnu_cxx13new_allocatorIiE10deallocateEPim
FN:132,_ZN9__gnu_cxx13new_allocatorI4EdgeE10deallocateEPS1_m
FNDA:0,_ZN9__gnu_cxx13new_allocatorI4EdgeE10deallocateEPS1_m
FN:132,_ZN9__gnu_cxx13new_allocatorISt6vectorIiSaIiEEE10deallocateEPS3_m
FNDA:0,_ZN9__gnu_cxx13new_allocatorISt6vectorIiSaIiEEE10deallocateEPS3_m
FN:132,_ZN9__gnu_cxx13new_allocatorISt6vectorI4EdgeSaIS2_EEE10deallocateEPS4_m
FNDA:0,_ZN9__gnu_cxx13new_allocatorISt6vectorI4EdgeSaIS2_EEE10deallocateEPS4_m
FN:197,_ZNK9__gnu_cxx13new_allocatorI4EdgeE11_M_max_sizeEv
FNDA:0,_ZNK9__gnu_cxx13new_allocatorI4EdgeE11_M_max_sizeEv
DA:79,6
DA:79,0
DA:82,0
DA:89,0
DA:89,0
DA:89,0
DA:89,0
DA:103,0
DA:111,0
DA:115,0
DA:116,0
DA:117,0
DA:127,0
DA:132,0
DA:145,0
DA:132,0
DA:145,0
DA:132,0
DA:145,0
DA:132,0
DA:145,0
DA:197,0
DA:200,0
end_of_record
SF:/usr/include/c++/11/bits/stl_iterator.h
FN:1027,_ZN9__gnu_cxx17__normal_iteratorIPK4EdgeSt6vectorIS1_SaIS1_EEEC2ERKS3_
FNDA:0,_ZN9__gnu_cxx17__normal_iteratorIPK4EdgeSt6vectorIS1_SaIS1_EEEC2ERKS3_
FN:1105,_ZNK9__gnu_cxx17__normal_iteratorIPK4EdgeSt6vectorIS1_SaIS1_EEE4baseEv
FNDA:0,_ZNK9__gnu_cxx17__normal_iteratorIPK4EdgeSt6vectorIS1_SaIS1_EEE4baseEv
FN:1291,_ZSt12__niter_baseIPK4EdgeSt6vectorIS0_SaIS0_EEET_N9__gnu_cxx17__normal_iteratorIS6_T0_EE
FNDA:24,_ZSt12__niter_baseIPK4EdgeSt6vectorIS0_SaIS0_EEET_N9__gnu_cxx17__normal_iteratorIS6_T0_EE
DA:1027,0
DA:1028,0
DA:1105,0
DA:1106,0
DA:1291,24
DA:1293,24
end_of_record
SF:/usr/include/c++/11/bits/alloc_traits.h
FN:463,_ZNSt16allocator_traitsISaI4EdgeEE8allocateERS1_m
FNDA:0,_ZNSt16allocator_traitsISaI4EdgeEE8allocateERS1_m
FN:495,_ZNSt16allocator_traitsISaIiEE10deallocateERS0_Pim
FNDA:0,_ZNSt16allocator_traitsISaIiEE10deallocateERS0_Pim
FN:495,_ZNSt16allocator_traitsISaI4EdgeEE10deallocateERS1_PS0_m
FNDA:0,_ZNSt16allocator_traitsISaI4EdgeEE10deallocateERS1_PS0_m
FN:495,_ZNSt16allocator_traitsISaISt6vectorIiSaIiEEEE10deallocateERS3_PS2_m
FNDA:0,_ZNSt16allocator_traitsISaISt6vectorIiSaIiEEEE10deallocateERS3_PS2_m
FN:495,_ZNSt16allocator_traitsISaISt6vectorI4EdgeSaIS1_EEEE10deallocateERS4_PS3_m
FNDA:0,_ZNSt16allocator_traitsISaISt6vectorI4EdgeSaIS1_EEEE10deallocateERS4_PS3_m
FN:562,_ZNSt16allocator_traitsISaI4EdgeEE37select_on_container_copy_constructionERKS1_
FNDA:12,_ZNSt16allocator_traitsISaI4EdgeEE37select_on_container_copy_constructionERKS1_
FN:845,_ZSt8_DestroyIPiiEvT_S1_RSaIT0_E
FNDA:0,_ZSt8_DestroyIPiiEvT_S1_RSaIT0_E
FN:845,_ZSt8_DestroyIP4EdgeS0_EvT_S2_RSaIT0_E
FNDA:0,_ZSt8_DestroyIP4EdgeS0_EvT_S2_RSaIT0_E
FN:845,_ZSt8_DestroyIPSt6vectorIiSaIiEES2_EvT_S4_RSaIT0_E
FNDA:0,_ZSt8_DestroyIPSt6vectorIiSaIiEES2_EvT_S4_RSaIT0_E
FN:845,_ZSt8_DestroyIPSt6vectorI4EdgeSaIS1_EES3_EvT_S5_RSaIT0_E
FNDA:0,_ZSt8_DestroyIPSt6vectorI4EdgeSaIS1_EES3_EvT_S5_RSaIT0_E
DA:463,0
DA:464,0
DA:495,0
DA:496,0
DA:495,0
DA:496,0
DA:495,0
DA:496,0
DA:495,0
DA:496,0
DA:562,12
DA:563,12
DA:845,0
DA:848,0
DA:849,0
DA:845,0
DA:848,0
DA:849,0
DA:845,0
DA:848,0
DA:849,0
DA:845,0
DA:848,0
DA:849,0
end_of_record
SF:/usr/include/c++/11/bits/stl_construct.h
FN:146,_ZSt8_DestroyISt6vectorIiSaIiEEEvPT_
FNDA:0,_ZSt8_DestroyISt6vectorIiSaIiEEEvPT_
FN:146,_ZSt8_DestroyISt6vectorI4EdgeSaIS1_EEEvPT_
FNDA:0,_ZSt8_DestroyISt6vectorI4EdgeSaIS1_EEEvPT_
FN:160,_ZNSt12_Destroy_auxILb0EE9__destroyIPSt6vectorIiSaIiEEEEvT_S6_
FNDA:0,_ZNSt12_Destroy_auxILb0EE9__destroyIPSt6vectorIiSaIiEEEEvT_S6_
FN:160,_ZNSt12_Destroy_auxILb0EE9__destroyIPSt6vectorI4EdgeSaIS3_EEEEvT_S7_
FNDA:0,_ZNSt12_Destroy_auxILb0EE9__destroyIPSt6vectorI4EdgeSaIS3_EEEEvT_S7_
FN:172,_ZNSt12_Destroy_auxILb1EE9__destroyIPiEEvT_S3_
FNDA:0,_ZNSt12_Destroy_auxILb1EE9__destroyIPiEEvT_S3_
FN:172,_ZNSt12_Destroy_auxILb1EE9__destroyIP4EdgeEEvT_S4_
FNDA:0,_ZNSt12_Destroy_auxILb1EE9__destroyIP4EdgeEEvT_S4_
FN:182,_ZSt8_DestroyIPiEvT_S1_
FNDA:0,_ZSt8_DestroyIPiEvT_S1_
FN:182,_ZSt8_DestroyIP4EdgeEvT_S2_
FNDA:0,_ZSt8_DestroyIP4EdgeEvT_S2_
FN:182,_ZSt8_DestroyIPSt6vectorIiSaIiEEEvT_S4_
FNDA:0,_ZSt8_DestroyIPSt6vectorIiSaIiEEEvT_S4_
FN:182,_ZSt8_DestroyIPSt6vectorI4EdgeSaIS1_EEEvT_S5_
FNDA:0,_ZSt8_DestroyIPSt6vectorI4EdgeSaIS1_EEEvT_S5_
DA:146,0
DA:151,0
DA:153,0
DA:146,0
DA:151,0
DA:153,0
DA:160,0
DA:162,0
DA:163,0
DA:164,0
DA:160,0
DA:162,0
DA:163,0
DA:164,0
DA:172,0
DA:172,0
DA:182,0
DA:196,0
DA:197,0
DA:182,0
DA:196,0
DA:197,0
DA:182,0
DA:196,0
DA:197,0
DA:182,0
DA:196,0
DA:197,0
end_of_record
TN:
SF:/usr/include/c++/11/bits/unique_lock.h
FN:66,_ZNSt11unique_lockISt5mutexEC2ERS0_
FNDA:0,_ZNSt11unique_lockISt5mutexEC2ERS0_
FN:101,_ZNSt11unique_lockISt5mutexED2Ev
FNDA:0,_ZNSt11unique_lockISt5mutexED2Ev
FN:131,_ZNSt11unique_lockISt5mutexE4lockEv
FNDA:0,_ZNSt11unique_lockISt5mutexE4lockEv
FN:189,_ZNSt11unique_lockISt5mutexE6unlockEv
FNDA:0,_ZNSt11unique_lockISt5mutexE6unlockEv
DA:66,0
DA:67,0
DA:69,0
DA:70,0
DA:71,0
DA:101,0
DA:103,0
DA:104,0
DA:105,0
DA:131,0
DA:133,0
DA:134,0
DA:135,0
DA:136,0
DA:139,0
DA:140,0
DA:142,0
DA:189,0
DA:191,0
DA:192,0
DA:193,0
DA:195,0
DA:196,0
DA:198,0
end_of_record
SF:/usr/include/c++/11/bits/stl_queue.h
FN:203,_ZNKSt5queueISt8functionIFvvEESt5dequeIS2_SaIS2_EEE5emptyEv
FNDA:93,_ZNKSt5queueISt8functionIFvvEESt5dequeIS2_SaIS2_EEE5emptyEv
FN:216,_ZNSt5queueISt8functionIFvvEESt5dequeIS2_SaIS2_EEE5frontEv
FNDA:35,_ZNSt5queueISt8functionIFvvEESt5dequeIS2_SaIS2_EEE5frontEv
FN:298,_ZNSt5queueISt8functionIFvvEESt5dequeIS2_SaIS2_EEE3popEv
FNDA:35,_ZNSt5queueISt8functionIFvvEESt5dequeIS2_SaIS2_EEE3popEv
DA:203,93
DA:204,93
DA:216,35
DA:219,35
DA:298,35
DA:301,35
DA:302,35
end_of_record
SF:/usr/include/c++/11/bits/std_thread.h
FN:86,_ZNSt6thread2idC2Ev
FNDA:0,_ZNSt6thread2idC2Ev
FN:149,_ZNSt6threadD2Ev
FNDA:0,_ZNSt6threadD2Ev
FN:175,_ZNKSt6thread8joinableEv
FNDA:0,_ZNKSt6thread8joinableEv
FN:287,_ZSteqNSt6thread2idES0_
FNDA:0,_ZSteqNSt6thread2idES0_
DA:86,0
DA:149,0
DA:151,0
DA:152,0
DA:153,0
DA:175,0
DA:176,0
DA:287,0
DA:293,0
end_of_record
SF:/usr/include/c++/11/bits/std_function.h
FN:239,_ZNSt14_Function_baseC2Ev
FNDA:0,_ZNSt14_Function_baseC2Ev
FN:241,_ZNSt14_Function_baseD2Ev
FNDA:0,_ZNSt14_Function_baseD2Ev
FN:247,_ZNKSt14_Function_base8_M_emptyEv
FNDA:0,_ZNKSt14_Function_base8_M_emptyEv
FN:368,_ZNSt8functionIFvvEEC2Ev
FNDA:49,_ZNSt8functionIFvvEEC2Ev
FN:404,_ZNSt8functionIFvvEEC2EOS1_
FNDA:35,_ZNSt8functionIFvvEEC2EOS1_
FN:487,_ZNSt8functionIFvvEEaSEOS1_
FNDA:35,_ZNSt8functionIFvvEEaSEOS1_
FN:555,_ZNSt8functionIFvvEE4swapERS1_
FNDA:35,_ZNSt8functionIFvvEE4swapERS1_
FN:572,_ZNKSt8functionIFvvEEcvbEv
FNDA:35,_ZNKSt8functionIFvvEEcvbEv
FN:586,_ZNKSt8functionIFvvEEclEv
FNDA:35,_ZNKSt8functionIFvvEEclEv
DA:239,0
DA:241,0
DA:243,0
DA:244,0
DA:245,0
DA:247,0
DA:368,49
DA:369,49
DA:404,35
DA:405,35
DA:407,35
DA:409,35
DA:410,35
DA:411,35
DA:412,35
DA:414,35
DA:487,35
DA:489,35
DA:490,35
DA:555,35
DA:557,35
DA:558,35
DA:559,35
DA:560,35
DA:572,35
DA:573,35
DA:586,35
DA:588,35
DA:589,0
DA:590,35
end_of_record
SF:/home/eladubuntu/Git Projects/OS_2024-FINAL_PROJECT_MST/ActiveObject.cpp
FN:4,_ZN12ActiveObjectD2Ev
FNDA:14,_ZN12ActiveObjectD2Ev
FN:17,_ZN12ActiveObject3runEv
FNDA:14,_ZN12ActiveObject3runEv
FN:25,_ZZN12ActiveObject3runEvENKUlvE_clEv
FNDA:93,_ZZN12ActiveObject3runEvENKUlvE_clEv
DA:4,14
DA:7,14
DA:10,14
DA:11,14
DA:12,14
DA:14,14
DA:15,14
DA:17,49
DA:22,49
DA:24,49
DA:25,142
DA:26,63
DA:27,35
DA:28,35
DA:29,49
DA:30,35
DA:32,84
end_of_record
SF:/usr/include/c++/11/bits/allocator.h
FN:169,_ZNSaIPSt8functionIFvvEEEC2IS1_EERKSaIT_E
FNDA:0,_ZNSaIPSt8functionIFvvEEEC2IS1_EERKSaIT_E
FN:174,_ZNSaIPSt8functionIFvvEEED2Ev
FNDA:0,_ZNSaIPSt8functionIFvvEEED2Ev
FN:174,_ZNSaISt8functionIFvvEEED2Ev
FNDA:0,_ZNSaISt8functionIFvvEEED2Ev
DA:169,0
DA:174,0
DA:174,0
end_of_record
SF:/usr/include/c++/11/bits/std_mutex.h
FN:98,_ZNSt5mutex4lockEv
FNDA:0,_ZNSt5mutex4lockEv
FN:115,_ZNSt5mutex6unlockEv
FNDA:0,_ZNSt5mutex6unlockEv
FN:228,_ZNSt10lock_guardISt5mutexEC2ERS0_
FNDA:14,_ZNSt10lock_guardISt5mutexEC2ERS0_
FN:234,_ZNSt10lock_guardISt5mutexED2Ev
FNDA:14,_ZNSt10lock_guardISt5mutexED2Ev
DA:98,0
DA:100,0
DA:103,0
DA:104,0
DA:105,0
DA:115,0
DA:118,0
DA:119,0
DA:228,14
DA:229,14
DA:234,14
DA:235,14
end_of_record
SF:/usr/include/c++/11/bits/stl_construct.h
FN:146,_ZSt8_DestroyISt8functionIFvvEEEvPT_
FNDA:0,_ZSt8_DestroyISt8functionIFvvEEEvPT_
FN:160,_ZNSt12_Destroy_auxILb0EE9__destroyIPSt8functionIFvvEEEEvT_S6_
FNDA:0,_ZNSt12_Destroy_auxILb0EE9__destroyIPSt8functionIFvvEEEEvT_S6_
FN:182,_ZSt8_DestroyIPSt8functionIFvvEEEvT_S4_
FNDA:0,_ZSt8_DestroyIPSt8functionIFvvEEEvT_S4_
DA:146,0
DA:151,0
DA:153,0
DA:160,0
DA:162,0
DA:163,0
DA:164,0
DA:182,0
DA:196,0
DA:197,0
end_of_record
SF:/usr/include/c++/11/bits/alloc_traits.h
FN:495,_ZNSt16allocator_traitsISaISt8functionIFvvEEEE10deallocateERS3_PS2_m
FNDA:0,_ZNSt16allocator_traitsISaISt8functionIFvvEEEE10deallocateERS3_PS2_m
FN:495,_ZNSt16allocator_traitsISaIPSt8functionIFvvEEEE10deallocateERS4_PS3_m
FNDA:0,_ZNSt16allocator_traitsISaIPSt8functionIFvvEEEE10deallocateERS4_PS3_m
FN:531,_ZNSt16allocator_traitsISaISt8functionIFvvEEEE7destroyIS2_EEvRS3_PT_
FNDA:35,_ZNSt16allocator_traitsISaISt8functionIFvvEEEE7destroyIS2_EEvRS3_PT_
FN:845,_ZSt8_DestroyIPSt8functionIFvvEES2_EvT_S4_RSaIT0_E
FNDA:0,_ZSt8_DestroyIPSt8functionIFvvEES2_EvT_S4_RSaIT0_E
DA:495,0
DA:496,0
DA:495,0
DA:496,0
DA:531,35
DA:535,35
DA:539,35
DA:845,0
DA:848,0
DA:849,0
end_of_record
SF:/usr/include/c++/11/atomic
FN:103,_ZNSt6atomicIbE5storeEbSt12memory_order
FNDA:0,_ZNSt6atomicIbE5storeEbSt12memory_order
FN:111,_ZNKSt6atomicIbE4loadESt12memory_order
FNDA:0,_ZNKSt6atomicIbE4loadESt12memory_order
DA:103,0
DA:104,0
DA:111,0
DA:112,0
end_of_record
SF:/usr/include/c++/11/ext/new_allocator.h
FN:79,_ZN9__gnu_cxx13new_allocatorIPSt8functionIFvvEEEC2Ev
FNDA:0,_ZN9__gnu_cxx13new_allocatorIPSt8functionIFvvEEEC2Ev
FN:89,_ZN9__gnu_cxx13new_allocatorIPSt8functionIFvvEEED2Ev
FNDA:0,_ZN9__gnu_cxx13new_allocatorIPSt8functionIFvvEEED2Ev
FN:89,_ZN9__gnu_cxx13new_allocatorISt8functionIFvvEEED2Ev
FNDA:0,_ZN9__gnu_cxx13new_allocatorISt8functionIFvvEEED2Ev
FN:132,_ZN9__gnu_cxx13new_allocatorISt8functionIFvvEEE10deallocateEPS3_m
FNDA:0,_ZN9__gnu_cxx13new_allocatorISt8functionIFvvEEE10deallocateEPS3_m
FN:132,_ZN9__gnu_cxx13new_allocatorIPSt8functionIFvvEEE10deallocateEPS4_m
FNDA:0,_ZN9__gnu_cxx13new_allocatorIPSt8functionIFvvEEE10deallocateEPS4_m
FN:166,_ZN9__gnu_cxx13new_allocatorISt8functionIFvvEEE7destroyIS3_EEvPT_
FNDA:35,_ZN9__gnu_cxx13new_allocatorISt8functionIFvvEEE7destroyIS3_EEvPT_
DA:79,0
DA:89,0
DA:89,0
DA:132,0
DA:145,0
DA:132,0
DA:145,0
DA:166,35
DA:168,35
end_of_record
SF:/usr/include/c++/11/bits/atomic_base.h
FN:104,_ZStanSt12memory_orderSt23__memory_order_modifier
FNDA:0,_ZStanSt12memory_orderSt23__memory_order_modifier
DA:104,0
DA:106,0
DA:459,0
DA:464,0
DA:465,0
DA:484,0
DA:488,0
end_of_record
SF:/usr/include/x86_64-linux-gnu/c++/11/bits/gthr-default.h
FN:300,_ZL18__gthread_active_pv
FNDA:0,_ZL18__gthread_active_pv
FN:746,_ZL20__gthread_mutex_lockP15pthread_mutex_t
FNDA:0,_ZL20__gthread_mutex_lockP15pthread_mutex_t
FN:776,_ZL22__gthread_mutex_unlockP15pthread_mutex_t
FNDA:0,_ZL22__gthread_mutex_unlockP15pthread_mutex_t
DA:300,0
DA:302,0
DA:746,0
DA:748,0
DA:749,0
DA:751,0
DA:776,0
DA:778,0
DA:779,0
DA:781,0
end_of_record
SF:/usr/include/c++/11/bits/move.h
FN:49,_ZSt11__addressofISt8functionIFvvEEEPT_RS3_
FNDA:0,_ZSt11__addressofISt8functionIFvvEEEPT_RS3_
FN:49,_ZSt11__addressofISt5mutexEPT_RS1_
FNDA:0,_ZSt11__addressofISt5mutexEPT_RS1_
FN:104,_ZSt4moveIRPFvRKSt9_Any_dataEEONSt16remove_referenceIT_E4typeEOS7_
FNDA:105,_ZSt4moveIRPFvRKSt9_Any_dataEEONSt16remove_referenceIT_E4typeEOS7_
FN:104,_ZSt4moveIRPFbRSt9_Any_dataRKS0_St18_Manager_operationEEONSt16remove_referenceIT_E4typeEOS9_
FNDA:0,_ZSt4moveIRPFbRSt9_Any_dataRKS0_St18_Manager_operationEEONSt16remove_referenceIT_E4typeEOS9_
FN:104,_ZSt4moveIRSt9_Any_dataEONSt16remove_referenceIT_E4typeEOS3_
FNDA:0,_ZSt4moveIRSt9_Any_dataEONSt16remove_referenceIT_E4typeEOS3_
FN:104,_ZSt4moveIRSt8functionIFvvEEEONSt16remove_referenceIT_E4typeEOS5_
FNDA:70,_ZSt4moveIRSt8functionIFvvEEEONSt16remove_referenceIT_E4typeEOS5_
FN:196,_ZSt4swapIPFvRKSt9_Any_dataEENSt9enable_ifIXsrSt6__and_IJSt6__not_ISt15__is_tuple_likeIT_EESt21is_move_constructibleIS9_ESt18is_move_assignableIS9_EEE5valueEvE4typeERS9_SJ_
FNDA:35,_ZSt4swapIPFvRKSt9_Any_dataEENSt9enable_ifIXsrSt6__and_IJSt6__not_ISt15__is_tuple_likeIT_EESt21is_move_constructibleIS9_ESt18is_move_assignableIS9_EEE5valueEvE4typeERS9_SJ_
FN:196,_ZSt4swapIPFbRSt9_Any_dataRKS0_St18_Manager_operationEENSt9enable_ifIXsrSt6__and_IJSt6__not_ISt15__is_tuple_likeIT_EESt21is_move_constructibleISB_ESt18is_move_assignableISB_EEE5valueEvE4typeERSB_SL_
FNDA:0,_ZSt4swapIPFbRSt9_Any_dataRKS0_St18_Manager_operationEENSt9enable_ifIXsrSt6__and_IJSt6__not_ISt15__is_tuple_likeIT_EESt21is_move_constructibleISB_ESt18is_move_assignableISB_EEE5valueEvE4typeERSB_SL_
FN:196,_ZSt4swapISt9_Any_dataENSt9enable_ifIXsrSt6__and_IJSt6__not_ISt15__is_tuple_likeIT_EESt21is_move_constructibleIS5_ESt18is_move_assignableIS5_EEE5valueEvE4typeERS5_SF_
FNDA:0,_ZSt4swapISt9_Any_dataENSt9enable_ifIXsrSt6__and_IJSt6__not_ISt15__is_tuple_likeIT_EESt21is_move_constructibleIS5_ESt18is_move_assignableIS5_EEE5valueEvE4typeERS5_SF_
DA:49,0
DA:50,0
DA:49,0
DA:50,0
DA:104,105
DA:105,105
DA:104,0
DA:105,0
DA:104,0
DA:105,0
DA:104,70
DA:105,70
DA:196,35
DA:204,35
DA:205,35
DA:206,35
DA:207,35
DA:196,0
DA:204,0
DA:205,0
DA:206,0
DA:207,0
DA:196,0
DA:204,0
DA:205,0
DA:206,0
DA:207,0
end_of_record
SF:/usr/include/c++/11/bits/stl_deque.h
FN:96,_ZSt16__deque_buf_sizem
FNDA:0,_ZSt16__deque_buf_sizem
FN:131,_ZNSt15_Deque_iteratorISt8functionIFvvEERS2_PS2_E14_S_buffer_sizeEv
FNDA:0,_ZNSt15_Deque_iteratorISt8functionIFvvEERS2_PS2_E14_S_buffer_sizeEv
FN:168,_ZNSt15_Deque_iteratorISt8functionIFvvEERS2_PS2_EC2ERKS5_
FNDA:0,_ZNSt15_Deque_iteratorISt8functionIFvvEERS2_PS2_EC2ERKS5_
FN:180,_ZNKSt15_Deque_iteratorISt8functionIFvvEERS2_PS2_EdeEv
FNDA:0,_ZNKSt15_Deque_iteratorISt8functionIFvvEERS2_PS2_EdeEv
FN:260,_ZNSt15_Deque_iteratorISt8functionIFvvEERS2_PS2_E11_M_set_nodeEPS4_
FNDA:0,_ZNSt15_Deque_iteratorISt8functionIFvvEERS2_PS2_E11_M_set_nodeEPS4_
FN:268,_ZSteqRKSt15_Deque_iteratorISt8functionIFvvEERS2_PS2_ES7_
FNDA:93,_ZSteqRKSt15_Deque_iteratorISt8functionIFvvEERS2_PS2_ES7_
FN:547,_ZNSt11_Deque_baseISt8functionIFvvEESaIS2_EE19_M_get_Tp_allocatorEv
FNDA:0,_ZNSt11_Deque_baseISt8functionIFvvEESaIS2_EE19_M_get_Tp_allocatorEv
FN:551,_ZNKSt11_Deque_baseISt8functionIFvvEESaIS2_EE19_M_get_Tp_allocatorEv
FNDA:0,_ZNKSt11_Deque_baseISt8functionIFvvEESaIS2_EE19_M_get_Tp_allocatorEv
FN:555,_ZNKSt11_Deque_baseISt8functionIFvvEESaIS2_EE20_M_get_map_allocatorEv
FNDA:0,_ZNKSt11_Deque_baseISt8functionIFvvEESaIS2_EE20_M_get_map_allocatorEv
FN:566,_ZNSt11_Deque_baseISt8functionIFvvEESaIS2_EE18_M_deallocate_nodeEPS2_
FNDA:0,_ZNSt11_Deque_baseISt8functionIFvvEESaIS2_EE18_M_deallocate_nodeEPS2_
FN:580,_ZNSt11_Deque_baseISt8functionIFvvEESaIS2_EE17_M_deallocate_mapEPPS2_m
FNDA:0,_ZNSt11_Deque_baseISt8functionIFvvEESaIS2_EE17_M_deallocate_mapEPPS2_m
FN:596,_ZNSt11_Deque_baseISt8functionIFvvEESaIS2_EED2Ev
FNDA:0,_ZNSt11_Deque_baseISt8functionIFvvEESaIS2_EED2Ev
FN:674,_ZNSt11_Deque_baseISt8functionIFvvEESaIS2_EE16_M_destroy_nodesEPPS2_S6_
FNDA:0,_ZNSt11_Deque_baseISt8functionIFvvEESaIS2_EE16_M_destroy_nodesEPPS2_S6_
FN:807,_ZNSt5dequeISt8functionIFvvEESaIS2_EE14_S_buffer_sizeEv
FNDA:0,_ZNSt5dequeISt8functionIFvvEESaIS2_EE14_S_buffer_sizeEv
FN:1006,_ZNSt5dequeISt8functionIFvvEESaIS2_EED2Ev
FNDA:0,_ZNSt5dequeISt8functionIFvvEESaIS2_EED2Ev
FN:1128,_ZNSt5dequeISt8functionIFvvEESaIS2_EE5beginEv
FNDA:0,_ZNSt5dequeISt8functionIFvvEESaIS2_EE5beginEv
FN:1145,_ZNSt5dequeISt8functionIFvvEESaIS2_EE3endEv
FNDA:0,_ZNSt5dequeISt8functionIFvvEESaIS2_EE3endEv
FN:1311,_ZNKSt5dequeISt8functionIFvvEESaIS2_EE5emptyEv
FNDA:93,_ZNKSt5dequeISt8functionIFvvEESaIS2_EE5emptyEv
FN:1405,_ZNSt5dequeISt8functionIFvvEESaIS2_EE5frontEv
FNDA:35,_ZNSt5dequeISt8functionIFvvEESaIS2_EE5frontEv
FN:1532,_ZNSt5dequeISt8functionIFvvEESaIS2_EE9pop_frontEv
FNDA:35,_ZNSt5dequeISt8functionIFvvEESaIS2_EE9pop_frontEv
FN:2045,_ZNSt5dequeISt8functionIFvvEESaIS2_EE15_M_destroy_dataESt15_Deque_iteratorIS2_RS2_PS2_ES8_RKS3_
FNDA:0,_ZNSt5dequeISt8functionIFvvEESaIS2_EE15_M_destroy_dataESt15_Deque_iteratorIS2_RS2_PS2_ES8_RKS3_
DA:96,0
DA:98,0
DA:131,0
DA:132,0
DA:168,0
DA:169,0
DA:170,0
DA:180,0
DA:181,0
DA:260,0
DA:262,0
DA:263,0
DA:264,0
DA:265,0
DA:268,93
DA:269,93
DA:547,0
DA:548,0
DA:551,0
DA:552,0
DA:555,0
DA:556,0
DA:566,0
DA:569,0
DA:570,0
DA:580,0
DA:582,0
DA:583,0
DA:584,0
DA:596,0
DA:599,0
DA:601,0
DA:602,0
DA:603,0
DA:605,0
DA:674,0
DA:678,0
DA:679,0
DA:680,0
DA:807,0
DA:808,0
DA:1006,0
DA:1007,0
DA:1128,0
DA:1129,0
DA:1145,0
DA:1146,0
DA:1311,93
DA:1312,93
DA:1405,35
DA:1408,35
DA:1532,35
DA:1535,35
DA:1536,35
DA:1538,34
DA:1540,34
DA:1543,1
DA:1544,35
DA:2045,0
DA:2049,0
DA:2050,0
end_of_record
SF:/usr/include/c++/11/bits/deque.tcc
FN:576,_ZNSt5dequeISt8functionIFvvEESaIS2_EE16_M_pop_front_auxEv
FNDA:1,_ZNSt5dequeISt8functionIFvvEESaIS2_EE16_M_pop_front_auxEv
FN:859,_ZNSt5dequeISt8functionIFvvEESaIS2_EE19_M_destroy_data_auxESt15_Deque_iteratorIS2_RS2_PS2_ES8_
FNDA:0,_ZNSt5dequeISt8functionIFvvEESaIS2_EE19_M_destroy_data_auxESt15_Deque_iteratorIS2_RS2_PS2_ES8_
DA:576,1
DA:579,1
DA:581,1
DA:582,1
DA:583,1
DA:584,1
DA:859,0
DA:862,0
DA:863,0
DA:864,0
DA:865,0
DA:867,0
DA:869,0
DA:870,0
DA:871,0
DA:872,0
DA:875,0
DA:876,0
DA:877,0
end_of_record
SF:/usr/include/c++/11/condition_variable
FN:100,_ZNSt18condition_variable4waitIZN12ActiveObject3runEvEUlvE_EEvRSt11unique_lockISt5mutexET_
FNDA:49,_ZNSt18condition_variable4waitIZN12ActiveObject3runEvEUlvE_EEvRSt11unique_lockISt5mutexET_
DA:100,49
DA:102,93
DA:103,44
DA:104,49
end_of_record
SF:/usr/include/c++/11/iostream
end_of_record
TN:
SF:/usr/include/c++/11/tuple
FN:192,_ZNSt10_Head_baseILm0ERKiLb0EEC2ES1_
FNDA:2,_ZNSt10_Head_baseILm0ERKiLb0EEC2ES1_
FN:233,_ZNSt10_Head_baseILm0ERKiLb0EE7_M_headERS2_
FNDA:2,_ZNSt10_Head_baseILm0ERKiLb0EE7_M_headERS2_
FN:424,_ZNSt11_Tuple_implILm0EJRKiEE7_M_headERS2_
FNDA:2,_ZNSt11_Tuple_implILm0EJRKiEE7_M_headERS2_
FN:434,_ZNSt11_Tuple_implILm0EJRKiEEC2ES1_
FNDA:2,_ZNSt11_Tuple_implILm0EJRKiEEC2ES1_
FN:454,_ZNSt11_Tuple_implILm0EJRKiEEC2EOS2_
FNDA:2,_ZNSt11_Tuple_implILm0EJRKiEEC2EOS2_
FN:727,_ZNSt5tupleIJRKiEEC2ILb1ELb1EEES1_
FNDA:2,_ZNSt5tupleIJRKiEEC2ILb1ELb1EEES1_
FN:756,_ZNSt5tupleIJRKiEEC2EOS2_
FNDA:2,_ZNSt5tupleIJRKiEEC2EOS2_
FN:1377,_ZSt12__get_helperILm0ERKiJEERT0_RSt11_Tuple_implIXT_EJS2_DpT1_EE
FNDA:2,_ZSt12__get_helperILm0ERKiJEERT0_RSt11_Tuple_implIXT_EJS2_DpT1_EE
FN:1393,_ZSt3getILm0EJRKiEERNSt13tuple_elementIXT_ESt5tupleIJDpT0_EEE4typeERS6_
FNDA:2,_ZSt3getILm0EJRKiEERNSt13tuple_elementIXT_ESt5tupleIJDpT0_EEE4typeERS6_
FN:1804,_ZNSt4pairIKiSt8functionIFvvEEEC2IJRS0_EJEEESt21piecewise_construct_tSt5tupleIJDpT_EES8_IJDpT0_EE
FNDA:2,_ZNSt4pairIKiSt8functionIFvvEEEC2IJRS0_EJEEESt21piecewise_construct_tSt5tupleIJDpT_EES8_IJDpT0_EE
FN:1816,_ZNSt4pairIKiSt8functionIFvvEEEC2IJRS0_EJLm0EEJEJEEERSt5tupleIJDpT_EERS7_IJDpT1_EESt12_Index_tupleIJXspT0_EEESG_IJXspT2_EEE
FNDA:2,_ZNSt4pairIKiSt8functionIFvvEEEC2IJRS0_EJLm0EEJEJEEERSt5tupleIJDpT_EERS7_IJDpT1_EESt12_Index_tupleIJXspT0_EEESG_IJXspT2_EEE
DA:192,2
DA:193,2
DA:233,2
DA:424,2
DA:434,2
DA:435,2
DA:436,2
DA:454,2
DA:456,2
DA:457,2
DA:727,2
DA:729,2
DA:756,2
DA:1377,2
DA:1378,2
DA:1393,2
DA:1394,2
DA:1804,2
DA:1809,2
DA:1810,2
DA:1816,2
DA:1819,2
DA:1820,2
DA:1821,2
end_of_record
SF:/usr/include/c++/11/bits/stl_pair.h
FN:322,_ZNSt4pairIPSt18_Rb_tree_node_baseS1_EC2IRS1_Lb1EEEOT_RKS1_
FNDA:0,_ZNSt4pairIPSt18_Rb_tree_node_baseS1_EC2IRS1_Lb1EEEOT_RKS1_
FN:336,_ZNSt4pairIPSt18_Rb_tree_node_baseS1_EC2IRS1_Lb1EEERKS1_OT_
FNDA:0,_ZNSt4pairIPSt18_Rb_tree_node_baseS1_EC2IRS1_Lb1EEERKS1_OT_
FN:352,_ZNSt4pairIPSt18_Rb_tree_node_baseS1_EC2IRPSt13_Rb_tree_nodeIS_IKiSt8functionIFvvEEEERS1_Lb1EEEOT_OT0_
FNDA:2,_ZNSt4pairIPSt18_Rb_tree_node_baseS1_EC2IRPSt13_Rb_tree_nodeIS_IKiSt8functionIFvvEEEERS1_Lb1EEEOT_OT0_
FN:352,_ZNSt4pairIPSt18_Rb_tree_node_baseS1_EC2IRS1_S4_Lb1EEEOT_OT0_
FNDA:0,_ZNSt4pairIPSt18_Rb_tree_node_baseS1_EC2IRS1_S4_Lb1EEEOT_OT0_
DA:322,0
DA:323,0
DA:336,0
DA:337,0
DA:352,2
DA:353,2
DA:352,0
DA:353,0
end_of_record
SF:/usr/include/c++/11/bits/stl_algobase.h
FN:254,_ZSt3maxIiERKT_S2_S2_
FNDA:2,_ZSt3maxIiERKT_S2_S2_
DA:254,2
DA:259,2
DA:260,2
DA:261,0
end_of_record
SF:/usr/include/c++/11/bits/stl_map.h
FN:374,_ZNSt3mapIiSt8functionIFvvEESt4lessIiESaISt4pairIKiS2_EEE3endEv
FNDA:6,_ZNSt3mapIiSt8functionIFvvEESt4lessIiESaISt4pairIKiS2_EEE3endEv
FN:492,_ZNSt3mapIiSt8functionIFvvEESt4lessIiESaISt4pairIKiS2_EEEixERS6_
FNDA:4,_ZNSt3mapIiSt8functionIFvvEESt4lessIiESaISt4pairIKiS2_EEEixERS6_
FN:1142,_ZNKSt3mapIiSt8functionIFvvEESt4lessIiESaISt4pairIKiS2_EEE8key_compEv
FNDA:2,_ZNKSt3mapIiSt8functionIFvvEESt4lessIiESaISt4pairIKiS2_EEE8key_compEv
FN:1169,_ZNSt3mapIiSt8functionIFvvEESt4lessIiESaISt4pairIKiS2_EEE4findERS6_
FNDA:2,_ZNSt3mapIiSt8functionIFvvEESt4lessIiESaISt4pairIKiS2_EEE4findERS6_
FN:1258,_ZNSt3mapIiSt8functionIFvvEESt4lessIiESaISt4pairIKiS2_EEE11lower_boundERS6_
FNDA:4,_ZNSt3mapIiSt8functionIFvvEESt4lessIiESaISt4pairIKiS2_EEE11lower_boundERS6_
DA:374,6
DA:375,6
DA:492,4
DA:497,4
DA:499,4
DA:501,2
DA:502,2
DA:503,2
DA:507,4
DA:1142,2
DA:1143,2
DA:1169,2
DA:1170,2
DA:1258,4
DA:1259,4
end_of_record
SF:/usr/include/c++/11/bits/std_function.h
FN:239,_ZNSt14_Function_baseC2Ev
FNDA:0,_ZNSt14_Function_baseC2Ev
FN:241,_ZNSt14_Function_baseD2Ev
FNDA:0,_ZNSt14_Function_baseD2Ev
FN:247,_ZNKSt14_Function_base8_M_emptyEv
FNDA:0,_ZNKSt14_Function_base8_M_emptyEv
FN:368,_ZNSt8functionIFvvEEC2Ev
FNDA:0,_ZNSt8functionIFvvEEC2Ev
FN:386,_ZNSt8functionIFvvEEC2ERKS1_
FNDA:0,_ZNSt8functionIFvvEEC2ERKS1_
FN:469,_ZNSt8functionIFvvEEaSERKS1_
FNDA:0,_ZNSt8functionIFvvEEaSERKS1_
FN:555,_ZNSt8functionIFvvEE4swapERS1_
FNDA:0,_ZNSt8functionIFvvEE4swapERS1_
FN:572,_ZNKSt8functionIFvvEEcvbEv
FNDA:0,_ZNKSt8functionIFvvEEcvbEv
FN:586,_ZNKSt8functionIFvvEEclEv
FNDA:0,_ZNKSt8functionIFvvEEclEv
DA:239,0
DA:241,0
DA:243,0
DA:244,0
DA:245,0
DA:247,0
DA:368,0
DA:369,0
DA:386,0
DA:387,0
DA:389,0
DA:391,0
DA:392,0
DA:393,0
DA:395,0
DA:469,0
DA:471,0
DA:472,0
DA:555,0
DA:557,0
DA:558,0
DA:559,0
DA:560,0
DA:572,0
DA:573,0
DA:586,0
DA:588,0
DA:589,0
DA:590,0
end_of_record
SF:/usr/include/c++/11/bits/stl_tree.h
FN:234,_ZNSt13_Rb_tree_nodeISt4pairIKiSt8functionIFvvEEEE9_M_valptrEv
FNDA:0,_ZNSt13_Rb_tree_nodeISt4pairIKiSt8functionIFvvEEEE9_M_valptrEv
FN:238,_ZNKSt13_Rb_tree_nodeISt4pairIKiSt8functionIFvvEEEE9_M_valptrEv
FNDA:8,_ZNKSt13_Rb_tree_nodeISt4pairIKiSt8functionIFvvEEEE9_M_valptrEv
FN:273,_ZNSt17_Rb_tree_iteratorISt4pairIKiSt8functionIFvvEEEEC2EPSt18_Rb_tree_node_base
FNDA:22,_ZNSt17_Rb_tree_iteratorISt4pairIKiSt8functionIFvvEEEEC2EPSt18_Rb_tree_node_base
FN:277,_ZNKSt17_Rb_tree_iteratorISt4pairIKiSt8functionIFvvEEEEdeEv
FNDA:6,_ZNKSt17_Rb_tree_iteratorISt4pairIKiSt8functionIFvvEEEEdeEv
FN:285,_ZNSt17_Rb_tree_iteratorISt4pairIKiSt8functionIFvvEEEEppEv
FNDA:0,_ZNSt17_Rb_tree_iteratorISt4pairIKiSt8functionIFvvEEEEppEv
FN:300,_ZNSt17_Rb_tree_iteratorISt4pairIKiSt8functionIFvvEEEEmmEv
FNDA:0,_ZNSt17_Rb_tree_iteratorISt4pairIKiSt8functionIFvvEEEEmmEv
FN:315,_ZSteqRKSt17_Rb_tree_iteratorISt4pairIKiSt8functionIFvvEEEES8_
FNDA:8,_ZSteqRKSt17_Rb_tree_iteratorISt4pairIKiSt8functionIFvvEEEES8_
FN:320,_ZStneRKSt17_Rb_tree_iteratorISt4pairIKiSt8functionIFvvEEEES8_
FNDA:2,_ZStneRKSt17_Rb_tree_iteratorISt4pairIKiSt8functionIFvvEEEES8_
FN:350,_ZNSt23_Rb_tree_const_iteratorISt4pairIKiSt8functionIFvvEEEEC2ERKSt17_Rb_tree_iteratorIS5_E
FNDA:2,_ZNSt23_Rb_tree_const_iteratorISt4pairIKiSt8functionIFvvEEEEC2ERKSt17_Rb_tree_iteratorIS5_E
FN:354,_ZNKSt23_Rb_tree_const_iteratorISt4pairIKiSt8functionIFvvEEEE13_M_const_castEv
FNDA:2,_ZNKSt23_Rb_tree_const_iteratorISt4pairIKiSt8functionIFvvEEEE13_M_const_castEv
FN:547,_ZNSt8_Rb_treeIiSt4pairIKiSt8functionIFvvEEESt10_Select1stIS5_ESt4lessIiESaIS5_EE21_M_get_Node_allocatorEv
FNDA:0,_ZNSt8_Rb_treeIiSt4pairIKiSt8functionIFvvEEESt10_Select1stIS5_ESt4lessIiESaIS5_EE21_M_get_Node_allocatorEv
FN:560,_ZNSt8_Rb_treeIiSt4pairIKiSt8functionIFvvEEESt10_Select1stIS5_ESt4lessIiESaIS5_EE11_M_get_nodeEv
FNDA:2,_ZNSt8_Rb_treeIiSt4pairIKiSt8functionIFvvEEESt10_Select1stIS5_ESt4lessIiESaIS5_EE11_M_get_nodeEv
FN:564,_ZNSt8_Rb_treeIiSt4pairIKiSt8functionIFvvEEESt10_Select1stIS5_ESt4lessIiESaIS5_EE11_M_put_nodeEPSt13_Rb_tree_nodeIS5_E
FNDA:0,_ZNSt8_Rb_treeIiSt4pairIKiSt8functionIFvvEEESt10_Select1stIS5_ESt4lessIiESaIS5_EE11_M_put_nodeEPSt13_Rb_tree_nodeIS5_E
FN:590,_ZNSt8_Rb_treeIiSt4pairIKiSt8functionIFvvEEESt10_Select1stIS5_ESt4lessIiESaIS5_EE17_M_construct_nodeIJRKSt21piecewise_construct_tSt5tupleIJRS1_EESG_IJEEEEEvPSt13_Rb_tree_nodeIS5_EDpOT_
FNDA:2,_ZNSt8_Rb_treeIiSt4pairIKiSt8functionIFvvEEESt10_Select1stIS5_ESt4lessIiESaIS5_EE17_M_construct_nodeIJRKSt21piecewise_construct_tSt5tupleIJRS1_EESG_IJEEEEEvPSt13_Rb_tree_nodeIS5_EDpOT_
FN:609,_ZNSt8_Rb_treeIiSt4pairIKiSt8functionIFvvEEESt10_Select1stIS5_ESt4lessIiESaIS5_EE14_M_create_nodeIJRKSt21piecewise_construct_tSt5tupleIJRS1_EESG_IJEEEEEPSt13_Rb_tree_nodeIS5_EDpOT_
FNDA:2,_ZNSt8_Rb_treeIiSt4pairIKiSt8functionIFvvEEESt10_Select1stIS5_ESt4lessIiESaIS5_EE14_M_create_nodeIJRKSt21piecewise_construct_tSt5tupleIJRS1_EESG_IJEEEEEPSt13_Rb_tree_nodeIS5_EDpOT_
FN:618,_ZNSt8_Rb_treeIiSt4pairIKiSt8functionIFvvEEESt10_Select1stIS5_ESt4lessIiESaIS5_EE15_M_destroy_nodeEPSt13_Rb_tree_nodeIS5_E
FNDA:0,_ZNSt8_Rb_treeIiSt4pairIKiSt8functionIFvvEEESt10_Select1stIS5_ESt4lessIiESaIS5_EE15_M_destroy_nodeEPSt13_Rb_tree_nodeIS5_E
FN:629,_ZNSt8_Rb_treeIiSt4pairIKiSt8functionIFvvEEESt10_Select1stIS5_ESt4lessIiESaIS5_EE12_M_drop_nodeEPSt13_Rb_tree_nodeIS5_E
FNDA:0,_ZNSt8_Rb_treeIiSt4pairIKiSt8functionIFvvEEESt10_Select1stIS5_ESt4lessIiESaIS5_EE12_M_drop_nodeEPSt13_Rb_tree_nodeIS5_E
FN:718,_ZNSt8_Rb_treeIiSt4pairIKiSt8functionIFvvEEESt10_Select1stIS5_ESt4lessIiESaIS5_EE11_M_leftmostEv
FNDA:0,_ZNSt8_Rb_treeIiSt4pairIKiSt8functionIFvvEEESt10_Select1stIS5_ESt4lessIiESaIS5_EE11_M_leftmostEv
FN:726,_ZNSt8_Rb_treeIiSt4pairIKiSt8functionIFvvEEESt10_Select1stIS5_ESt4lessIiESaIS5_EE12_M_rightmostEv
FNDA:0,_ZNSt8_Rb_treeIiSt4pairIKiSt8functionIFvvEEESt10_Select1stIS5_ESt4lessIiESaIS5_EE12_M_rightmostEv
FN:734,_ZNKSt8_Rb_treeIiSt4pairIKiSt8functionIFvvEEESt10_Select1stIS5_ESt4lessIiESaIS5_EE9_M_mbeginEv
FNDA:0,_ZNKSt8_Rb_treeIiSt4pairIKiSt8functionIFvvEEESt10_Select1stIS5_ESt4lessIiESaIS5_EE9_M_mbeginEv
FN:738,_ZNSt8_Rb_treeIiSt4pairIKiSt8functionIFvvEEESt10_Select1stIS5_ESt4lessIiESaIS5_EE8_M_beginEv
FNDA:0,_ZNSt8_Rb_treeIiSt4pairIKiSt8functionIFvvEEESt10_Select1stIS5_ESt4lessIiESaIS5_EE8_M_beginEv
FN:749,_ZNSt8_Rb_treeIiSt4pairIKiSt8functionIFvvEEESt10_Select1stIS5_ESt4lessIiESaIS5_EE6_M_endEv
FNDA:12,_ZNSt8_Rb_treeIiSt4pairIKiSt8functionIFvvEEESt10_Select1stIS5_ESt4lessIiESaIS5_EE6_M_endEv
FN:757,_ZNSt8_Rb_treeIiSt4pairIKiSt8functionIFvvEEESt10_Select1stIS5_ESt4lessIiESaIS5_EE6_S_keyEPKSt13_Rb_tree_nodeIS5_E
FNDA:8,_ZNSt8_Rb_treeIiSt4pairIKiSt8functionIFvvEEESt10_Select1stIS5_ESt4lessIiESaIS5_EE6_S_keyEPKSt13_Rb_tree_nodeIS5_E
FN:779,_ZNSt8_Rb_treeIiSt4pairIKiSt8functionIFvvEEESt10_Select1stIS5_ESt4lessIiESaIS5_EE7_S_leftEPSt18_Rb_tree_node_base
FNDA:0,_ZNSt8_Rb_treeIiSt4pairIKiSt8functionIFvvEEESt10_Select1stIS5_ESt4lessIiESaIS5_EE7_S_leftEPSt18_Rb_tree_node_base
FN:787,_ZNSt8_Rb_treeIiSt4pairIKiSt8functionIFvvEEESt10_Select1stIS5_ESt4lessIiESaIS5_EE8_S_rightEPSt18_Rb_tree_node_base
FNDA:0,_ZNSt8_Rb_treeIiSt4pairIKiSt8functionIFvvEEESt10_Select1stIS5_ESt4lessIiESaIS5_EE8_S_rightEPSt18_Rb_tree_node_base
FN:795,_ZNSt8_Rb_treeIiSt4pairIKiSt8functionIFvvEEESt10_Select1stIS5_ESt4lessIiESaIS5_EE6_S_keyEPKSt18_Rb_tree_node_base
FNDA:2,_ZNSt8_Rb_treeIiSt4pairIKiSt8functionIFvvEEESt10_Select1stIS5_ESt4lessIiESaIS5_EE6_S_keyEPKSt18_Rb_tree_node_base
FN:991,_ZNKSt8_Rb_treeIiSt4pairIKiSt8functionIFvvEEESt10_Select1stIS5_ESt4lessIiESaIS5_EE8key_compEv
FNDA:2,_ZNKSt8_Rb_treeIiSt4pairIKiSt8functionIFvvEEESt10_Select1stIS5_ESt4lessIiESaIS5_EE8key_compEv
FN:995,_ZNSt8_Rb_treeIiSt4pairIKiSt8functionIFvvEEESt10_Select1stIS5_ESt4lessIiESaIS5_EE5beginEv
FNDA:2,_ZNSt8_Rb_treeIiSt4pairIKiSt8functionIFvvEEESt10_Select1stIS5_ESt4lessIiESaIS5_EE5beginEv
FN:1003,_ZNSt8_Rb_treeIiSt4pairIKiSt8functionIFvvEEESt10_Select1stIS5_ESt4lessIiESaIS5_EE3endEv
FNDA:8,_ZNSt8_Rb_treeIiSt4pairIKiSt8functionIFvvEEESt10_Select1stIS5_ESt4lessIiESaIS5_EE3endEv
FN:1031,_ZNKSt8_Rb_treeIiSt4pairIKiSt8functionIFvvEEESt10_Select1stIS5_ESt4lessIiESaIS5_EE4sizeEv
FNDA:2,_ZNKSt8_Rb_treeIiSt4pairIKiSt8functionIFvvEEESt10_Select1stIS5_ESt4lessIiESaIS5_EE4sizeEv
FN:1269,_ZNSt8_Rb_treeIiSt4pairIKiSt8functionIFvvEEESt10_Select1stIS5_ESt4lessIiESaIS5_EE11lower_boundERS1_
FNDA:4,_ZNSt8_Rb_treeIiSt4pairIKiSt8functionIFvvEEESt10_Select1stIS5_ESt4lessIiESaIS5_EE11lower_boundERS1_
FN:1900,_ZNSt8_Rb_treeIiSt4pairIKiSt8functionIFvvEEESt10_Select1stIS5_ESt4lessIiESaIS5_EE14_M_lower_boundEPSt13_Rb_tree_nodeIS5_EPSt18_Rb_tree_node_baseRS1_
FNDA:6,_ZNSt8_Rb_treeIiSt4pairIKiSt8functionIFvvEEESt10_Select1stIS5_ESt4lessIiESaIS5_EE14_M_lower_boundEPSt13_Rb_tree_nodeIS5_EPSt18_Rb_tree_node_baseRS1_
FN:2061,_ZNSt8_Rb_treeIiSt4pairIKiSt8functionIFvvEEESt10_Select1stIS5_ESt4lessIiESaIS5_EE24_M_get_insert_unique_posERS1_
FNDA:2,_ZNSt8_Rb_treeIiSt4pairIKiSt8functionIFvvEEESt10_Select1stIS5_ESt4lessIiESaIS5_EE24_M_get_insert_unique_posERS1_
FN:2163,_ZNSt8_Rb_treeIiSt4pairIKiSt8functionIFvvEEESt10_Select1stIS5_ESt4lessIiESaIS5_EE29_M_get_insert_hint_unique_posESt23_Rb_tree_const_iteratorIS5_ERS1_
FNDA:2,_ZNSt8_Rb_treeIiSt4pairIKiSt8functionIFvvEEESt10_Select1stIS5_ESt4lessIiESaIS5_EE29_M_get_insert_hint_unique_posESt23_Rb_tree_const_iteratorIS5_ERS1_
FN:2330,_ZNSt8_Rb_treeIiSt4pairIKiSt8functionIFvvEEESt10_Select1stIS5_ESt4lessIiESaIS5_EE14_M_insert_nodeEPSt18_Rb_tree_node_baseSD_PSt13_Rb_tree_nodeIS5_E
FNDA:2,_ZNSt8_Rb_treeIiSt4pairIKiSt8functionIFvvEEESt10_Select1stIS5_ESt4lessIiESaIS5_EE14_M_insert_nodeEPSt18_Rb_tree_node_baseSD_PSt13_Rb_tree_nodeIS5_E
FN:2428,_ZNSt8_Rb_treeIiSt4pairIKiSt8functionIFvvEEESt10_Select1stIS5_ESt4lessIiESaIS5_EE22_M_emplace_hint_uniqueIJRKSt21piecewise_construct_tSt5tupleIJRS1_EESG_IJEEEEESt17_Rb_tree_iteratorIS5_ESt23_Rb_tree_const_iteratorIS5_EDpOT_
FNDA:2,_ZNSt8_Rb_treeIiSt4pairIKiSt8functionIFvvEEESt10_Select1stIS5_ESt4lessIiESaIS5_EE22_M_emplace_hint_uniqueIJRKSt21piecewise_construct_tSt5tupleIJRS1_EESG_IJEEEEESt17_Rb_tree_iteratorIS5_ESt23_Rb_tree_const_iteratorIS5_EDpOT_
FN:2520,_ZNSt8_Rb_treeIiSt4pairIKiSt8functionIFvvEEESt10_Select1stIS5_ESt4lessIiESaIS5_EE4findERS1_
FNDA:2,_ZNSt8_Rb_treeIiSt4pairIKiSt8functionIFvvEEESt10_Select1stIS5_ESt4lessIiESaIS5_EE4findERS1_
DA:234,0
DA:235,0
DA:238,8
DA:239,8
DA:273,22
DA:274,22
DA:277,6
DA:278,6
DA:285,0
DA:287,0
DA:288,0
DA:300,0
DA:302,0
DA:303,0
DA:315,8
DA:316,8
DA:320,2
DA:321,2
DA:350,2
DA:351,2
DA:354,2
DA:355,2
DA:547,0
DA:548,0
DA:560,2
DA:561,2
DA:564,0
DA:565,0
DA:590,2
DA:594,2
DA:595,2
DA:599,0
DA:601,0
DA:602,0
DA:603,0
DA:605,2
DA:609,2
DA:611,2
DA:612,2
DA:613,2
DA:618,0
DA:623,0
DA:624,0
DA:626,0
DA:629,0
DA:631,0
DA:632,0
DA:633,0
DA:718,0
DA:719,0
DA:726,0
DA:727,0
DA:734,0
DA:735,0
DA:738,0
DA:739,0
DA:749,12
DA:750,12
DA:757,8
DA:775,8
DA:779,0
DA:780,0
DA:787,0
DA:788,0
DA:795,2
DA:796,2
DA:991,2
DA:992,2
DA:995,2
DA:996,2
DA:1003,8
DA:1004,8
DA:1031,2
DA:1032,2
DA:1269,4
DA:1270,4
DA:1900,6
DA:1904,10
DA:1905,4
DA:1906,4
DA:1908,0
DA:1909,6
DA:2061,2
DA:2065,2
DA:2066,2
DA:2067,2
DA:2068,2
DA:2070,0
DA:2071,0
DA:2072,0
DA:2074,2
DA:2075,2
DA:2077,2
DA:2078,2
DA:2080,0
DA:2082,0
DA:2083,0
DA:2084,0
DA:2163,2
DA:2167,2
DA:2171,2
DA:2173,2
DA:2174,2
DA:2175,0
DA:2177,2
DA:2179,0
DA:2182,0
DA:2183,0
DA:2184,0
DA:2185,0
DA:2187,0
DA:2188,0
DA:2190,0
DA:2193,0
DA:2195,0
DA:2198,0
DA:2199,0
DA:2200,0
DA:2201,0
DA:2203,0
DA:2204,0
DA:2206,0
DA:2209,0
DA:2213,0
DA:2330,2
DA:2333,2
DA:2334,4
DA:2337,2
DA:2338,2
DA:2339,2
DA:2340,2
DA:2428,2
DA:2431,2
DA:2435,2
DA:2437,2
DA:2438,2
DA:2440,0
DA:2441,0
DA:2443,0
DA:2445,0
DA:2446,0
DA:2520,2
DA:2523,2
DA:2524,4
DA:2525,2
DA:2526,6
end_of_record
SF:/usr/include/c++/11/bits/stl_function.h
FN:399,_ZNKSt4lessIiEclERKiS2_
FNDA:8,_ZNKSt4lessIiEclERKiS2_
FN:1174,_ZNKSt10_Select1stISt4pairIKiSt8functionIFvvEEEEclERKS5_
FNDA:8,_ZNKSt10_Select1stISt4pairIKiSt8functionIFvvEEEEclERKS5_
DA:399,8
DA:400,8
DA:1174,8
DA:1175,8
end_of_record
SF:/home/eladubuntu/Git Projects/OS_2024-FINAL_PROJECT_MST/Reactor.cpp
FN:3,_ZN7Reactor9addHandleEiSt8functionIFvvEE
FNDA:2,_ZN7Reactor9addHandleEiSt8functionIFvvEE
FN:10,_ZN7Reactor12handleEventsEv
FNDA:4,_ZN7Reactor12handleEventsEv
DA:3,2
DA:5,2
DA:6,2
DA:7,2
DA:8,2
DA:10,4
DA:13,4
DA:15,4
DA:18,2
DA:20,0
DA:21,0
DA:25,10
DA:28,8
DA:30,2
DA:32,2
DA:37,2
end_of_record
SF:/usr/include/c++/11/bits/alloc_traits.h
FN:463,_ZNSt16allocator_traitsISaISt13_Rb_tree_nodeISt4pairIKiSt8functionIFvvEEEEEE8allocateERS8_m
FNDA:2,_ZNSt16allocator_traitsISaISt13_Rb_tree_nodeISt4pairIKiSt8functionIFvvEEEEEE8allocateERS8_m
FN:495,_ZNSt16allocator_traitsISaISt13_Rb_tree_nodeISt4pairIKiSt8functionIFvvEEEEEE10deallocateERS8_PS7_m
FNDA:0,_ZNSt16allocator_traitsISaISt13_Rb_tree_nodeISt4pairIKiSt8functionIFvvEEEEEE10deallocateERS8_PS7_m
FN:511,_ZNSt16allocator_traitsISaISt13_Rb_tree_nodeISt4pairIKiSt8functionIFvvEEEEEE9constructIS6_JRKSt21piecewise_construct_tSt5tupleIJRS2_EESE_IJEEEEEvRS8_PT_DpOT0_
FNDA:2,_ZNSt16allocator_traitsISaISt13_Rb_tree_nodeISt4pairIKiSt8functionIFvvEEEEEE9constructIS6_JRKSt21piecewise_construct_tSt5tupleIJRS2_EESE_IJEEEEEvRS8_PT_DpOT0_
FN:531,_ZNSt16allocator_traitsISaISt13_Rb_tree_nodeISt4pairIKiSt8functionIFvvEEEEEE7destroyIS6_EEvRS8_PT_
FNDA:0,_ZNSt16allocator_traitsISaISt13_Rb_tree_nodeISt4pairIKiSt8functionIFvvEEEEEE7destroyIS6_EEvRS8_PT_
DA:463,2
DA:464,2
DA:495,0
DA:496,0
DA:511,2
DA:516,2
DA:520,2
DA:531,0
DA:535,0
DA:539,0
end_of_record
SF:/usr/include/c++/11/ext/new_allocator.h
FN:103,_ZN9__gnu_cxx13new_allocatorISt13_Rb_tree_nodeISt4pairIKiSt8functionIFvvEEEEE8allocateEmPKv
FNDA:2,_ZN9__gnu_cxx13new_allocatorISt13_Rb_tree_nodeISt4pairIKiSt8functionIFvvEEEEE8allocateEmPKv
FN:132,_ZN9__gnu_cxx13new_allocatorISt13_Rb_tree_nodeISt4pairIKiSt8functionIFvvEEEEE10deallocateEPS8_m
FNDA:0,_ZN9__gnu_cxx13new_allocatorISt13_Rb_tree_nodeISt4pairIKiSt8functionIFvvEEEEE10deallocateEPS8_m
FN:160,_ZN9__gnu_cxx13new_allocatorISt13_Rb_tree_nodeISt4pairIKiSt8functionIFvvEEEEE9constructIS7_JRKSt21piecewise_construct_tSt5tupleIJRS3_EESE_IJEEEEEvPT_DpOT0_
FNDA:2,_ZN9__gnu_cxx13new_allocatorISt13_Rb_tree_nodeISt4pairIKiSt8functionIFvvEEEEE9constructIS7_JRKSt21piecewise_construct_tSt5tupleIJRS3_EESE_IJEEEEEvPT_DpOT0_
FN:166,_ZN9__gnu_cxx13new_allocatorISt13_Rb_tree_nodeISt4pairIKiSt8functionIFvvEEEEE7destroyIS7_EEvPT_
FNDA:0,_ZN9__gnu_cxx13new_allocatorISt13_Rb_tree_nodeISt4pairIKiSt8functionIFvvEEEEE7destroyIS7_EEvPT_
FN:197,_ZNK9__gnu_cxx13new_allocatorISt13_Rb_tree_nodeISt4pairIKiSt8functionIFvvEEEEE11_M_max_sizeEv
FNDA:2,_ZNK9__gnu_cxx13new_allocatorISt13_Rb_tree_nodeISt4pairIKiSt8functionIFvvEEEEE11_M_max_sizeEv
DA:103,2
DA:111,2
DA:115,0
DA:116,0
DA:117,0
DA:127,2
DA:132,0
DA:145,0
DA:160,2
DA:162,2
DA:166,0
DA:168,0
DA:197,2
DA:200,2
end_of_record
SF:/usr/include/c++/11/bits/move.h
FN:77,_ZSt7forwardIRKiEOT_RNSt16remove_referenceIS2_E4typeE
FNDA:2,_ZSt7forwardIRKiEOT_RNSt16remove_referenceIS2_E4typeE
FN:77,_ZSt7forwardIRPSt13_Rb_tree_nodeISt4pairIKiSt8functionIFvvEEEEEOT_RNSt16remove_referenceISA_E4typeE
FNDA:2,_ZSt7forwardIRPSt13_Rb_tree_nodeISt4pairIKiSt8functionIFvvEEEEEOT_RNSt16remove_referenceISA_E4typeE
FN:77,_ZSt7forwardIRPSt18_Rb_tree_node_baseEOT_RNSt16remove_referenceIS3_E4typeE
FNDA:2,_ZSt7forwardIRPSt18_Rb_tree_node_baseEOT_RNSt16remove_referenceIS3_E4typeE
FN:77,_ZSt7forwardISt5tupleIJEEEOT_RNSt16remove_referenceIS2_E4typeE
FNDA:10,_ZSt7forwardISt5tupleIJEEEOT_RNSt16remove_referenceIS2_E4typeE
FN:77,_ZSt7forwardISt5tupleIJRKiEEEOT_RNSt16remove_referenceIS4_E4typeE
FNDA:10,_ZSt7forwardISt5tupleIJRKiEEEOT_RNSt16remove_referenceIS4_E4typeE
FN:77,_ZSt7forwardIRKSt21piecewise_construct_tEOT_RNSt16remove_referenceIS3_E4typeE
FNDA:10,_ZSt7forwardIRKSt21piecewise_construct_tEOT_RNSt16remove_referenceIS3_E4typeE
FN:104,_ZSt4moveIRPFvRKSt9_Any_dataEEONSt16remove_referenceIT_E4typeEOS7_
FNDA:0,_ZSt4moveIRPFvRKSt9_Any_dataEEONSt16remove_referenceIT_E4typeEOS7_
FN:104,_ZSt4moveIRPFbRSt9_Any_dataRKS0_St18_Manager_operationEEONSt16remove_referenceIT_E4typeEOS9_
FNDA:0,_ZSt4moveIRPFbRSt9_Any_dataRKS0_St18_Manager_operationEEONSt16remove_referenceIT_E4typeEOS9_
FN:104,_ZSt4moveIRSt9_Any_dataEONSt16remove_referenceIT_E4typeEOS3_
FNDA:0,_ZSt4moveIRSt9_Any_dataEONSt16remove_referenceIT_E4typeEOS3_
FN:196,_ZSt4swapIPFvRKSt9_Any_dataEENSt9enable_ifIXsrSt6__and_IJSt6__not_ISt15__is_tuple_likeIT_EESt21is_move_constructibleIS9_ESt18is_move_assignableIS9_EEE5valueEvE4typeERS9_SJ_
FNDA:0,_ZSt4swapIPFvRKSt9_Any_dataEENSt9enable_ifIXsrSt6__and_IJSt6__not_ISt15__is_tuple_likeIT_EESt21is_move_constructibleIS9_ESt18is_move_assignableIS9_EEE5valueEvE4typeERS9_SJ_
FN:196,_ZSt4swapIPFbRSt9_Any_dataRKS0_St18_Manager_operationEENSt9enable_ifIXsrSt6__and_IJSt6__not_ISt15__is_tuple_likeIT_EESt21is_move_constructibleISB_ESt18is_move_assignableISB_EEE5valueEvE4typeERSB_SL_
FNDA:0,_ZSt4swapIPFbRSt9_Any_dataRKS0_St18_Manager_operationEENSt9enable_ifIXsrSt6__and_IJSt6__not_ISt15__is_tuple_likeIT_EESt21is_move_constructibleISB_ESt18is_move_assignableISB_EEE5valueEvE4typeERSB_SL_
FN:196,_ZSt4swapISt9_Any_dataENSt9enable_ifIXsrSt6__and_IJSt6__not_ISt15__is_tuple_likeIT_EESt21is_move_constructibleIS5_ESt18is_move_assignableIS5_EEE5valueEvE4typeERS5_SF_
FNDA:0,_ZSt4swapISt9_Any_dataENSt9enable_ifIXsrSt6__and_IJSt6__not_ISt15__is_tuple_likeIT_EESt21is_move_constructibleIS5_ESt18is_move_assignableIS5_EEE5valueEvE4typeERS5_SF_
DA:77,2
DA:78,2
DA:77,2
DA:78,2
DA:77,2
DA:78,2
DA:77,10
DA:78,10
DA:77,10
DA:78,10
DA:77,10
DA:78,10
DA:104,0
DA:105,0
DA:104,0
DA:105,0
DA:104,0
DA:105,0
DA:196,0
DA:204,0
DA:205,0
DA:206,0
DA:207,0
DA:196,0
DA:204,0
DA:205,0
DA:206,0
DA:207,0
DA:196,0
DA:204,0
DA:205,0
DA:206,0
DA:207,0
end_of_record
SF:/usr/include/c++/11/ext/aligned_buffer.h
FN:64,_ZN9__gnu_cxx16__aligned_membufISt4pairIKiSt8functionIFvvEEEE7_M_addrEv
FNDA:0,_ZN9__gnu_cxx16__aligned_membufISt4pairIKiSt8functionIFvvEEEE7_M_addrEv
FN:68,_ZNK9__gnu_cxx16__aligned_membufISt4pairIKiSt8functionIFvvEEEE7_M_addrEv
FNDA:8,_ZNK9__gnu_cxx16__aligned_membufISt4pairIKiSt8functionIFvvEEEE7_M_addrEv
FN:72,_ZN9__gnu_cxx16__aligned_membufISt4pairIKiSt8functionIFvvEEEE6_M_ptrEv
FNDA:0,_ZN9__gnu_cxx16__aligned_membufISt4pairIKiSt8functionIFvvEEEE6_M_ptrEv
FN:76,_ZNK9__gnu_cxx16__aligned_membufISt4pairIKiSt8functionIFvvEEEE6_M_ptrEv
FNDA:8,_ZNK9__gnu_cxx16__aligned_membufISt4pairIKiSt8functionIFvvEEEE6_M_ptrEv
DA:64,0
DA:65,0
DA:68,8
DA:69,8
DA:72,0
DA:73,0
DA:76,8
DA:77,8
end_of_record
SF:/usr/include/c++/11/new
FN:174,_ZnwmPv
FNDA:0,_ZnwmPv
FN:180,_ZdlPvS_
FNDA:0,_ZdlPvS_
DA:174,0
DA:175,0
DA:180,0
end_of_record
SF:/usr/include/c++/11/iostream
end_of_record
TN:
SF:/usr/include/c++/11/bits/cpp_type_traits.h
FN:560,_ZSt12__miter_baseIN9__gnu_cxx17__normal_iteratorIP4EdgeSt6vectorIS2_SaIS2_EEEEET_S8_
FNDA:10,_ZSt12__miter_baseIN9__gnu_cxx17__normal_iteratorIP4EdgeSt6vectorIS2_SaIS2_EEEEET_S8_
DA:560,10
DA:561,10
end_of_record
SF:/usr/include/c++/11/bits/allocator.h
FN:174,_ZNSaI4EdgeED2Ev
FNDA:0,_ZNSaI4EdgeED2Ev
FN:174,_ZNSaISt6vectorI4EdgeSaIS0_EEED2Ev
FNDA:0,_ZNSaISt6vectorI4EdgeSaIS0_EEED2Ev
DA:174,0
DA:174,0
end_of_record
SF:/usr/include/c++/11/bits/predefined_ops.h
FN:310,_ZN9__gnu_cxx5__ops10_Iter_predIZN5Graph10removeEdgeEiiEUlRK4EdgeE0_EC2ES6_
FNDA:2,_ZN9__gnu_cxx5__ops10_Iter_predIZN5Graph10removeEdgeEiiEUlRK4EdgeE0_EC2ES6_
FN:310,_ZN9__gnu_cxx5__ops10_Iter_predIZN5Graph10removeEdgeEiiEUlRK4EdgeE_EC2ES6_
FNDA:2,_ZN9__gnu_cxx5__ops10_Iter_predIZN5Graph10removeEdgeEiiEUlRK4EdgeE_EC2ES6_
FN:317,_ZN9__gnu_cxx5__ops10_Iter_predIZN5Graph10removeEdgeEiiEUlRK4EdgeE0_EclINS_17__normal_iteratorIPS3_St6vectorIS3_SaIS3_EEEEEEbT_
FNDA:5,_ZN9__gnu_cxx5__ops10_Iter_predIZN5Graph10removeEdgeEiiEUlRK4EdgeE0_EclINS_17__normal_iteratorIPS3_St6vectorIS3_SaIS3_EEEEEEbT_
FN:317,_ZN9__gnu_cxx5__ops10_Iter_predIZN5Graph10removeEdgeEiiEUlRK4EdgeE_EclINS_17__normal_iteratorIPS3_St6vectorIS3_SaIS3_EEEEEEbT_
FNDA:6,_ZN9__gnu_cxx5__ops10_Iter_predIZN5Graph10removeEdgeEiiEUlRK4EdgeE_EclINS_17__normal_iteratorIPS3_St6vectorIS3_SaIS3_EEEEEEbT_
FN:324,_ZN9__gnu_cxx5__ops11__pred_iterIZN5Graph10removeEdgeEiiEUlRK4EdgeE0_EENS0_10_Iter_predIT_EES8_
FNDA:2,_ZN9__gnu_cxx5__ops11__pred_iterIZN5Graph10removeEdgeEiiEUlRK4EdgeE0_EENS0_10_Iter_predIT_EES8_
FN:324,_ZN9__gnu_cxx5__ops11__pred_iterIZN5Graph10removeEdgeEiiEUlRK4EdgeE_EENS0_10_Iter_predIT_EES8_
FNDA:2,_ZN9__gnu_cxx5__ops11__pred_iterIZN5Graph10removeEdgeEiiEUlRK4EdgeE_EENS0_10_Iter_predIT_EES8_
DA:310,2
DA:311,2
DA:312,2
DA:310,2
DA:311,2
DA:312,2
DA:317,5
DA:318,5
DA:317,6
DA:318,6
DA:324,2
DA:325,2
DA:324,2
DA:325,2
end_of_record
SF:/usr/include/c++/11/bits/stl_iterator_base_types.h
FN:238,_ZSt19__iterator_categoryIN9__gnu_cxx17__normal_iteratorIP4EdgeSt6vectorIS2_SaIS2_EEEEENSt15iterator_traitsIT_E17iterator_categoryERKS9_
FNDA:4,_ZSt19__iterator_categoryIN9__gnu_cxx17__normal_iteratorIP4EdgeSt6vectorIS2_SaIS2_EEEEENSt15iterator_traitsIT_E17iterator_categoryERKS9_
DA:238,4
DA:239,4
end_of_record
SF:/home/eladubuntu/Git Projects/OS_2024-FINAL_PROJECT_MST/Graph.cpp
FN:4,_ZN5Graph7addEdgeEiii
FNDA:20,_ZN5Graph7addEdgeEiii
FN:25,_ZN5Graph10removeEdgeEii
FNDA:5,_ZN5Graph10removeEdgeEii
FN:37,_ZZN5Graph10removeEdgeEiiENKUlRK4EdgeE_clES2_
FNDA:6,_ZZN5Graph10removeEdgeEiiENKUlRK4EdgeE_clES2_
FN:42,_ZZN5Graph10removeEdgeEiiENKUlRK4EdgeE0_clES2_
FNDA:5,_ZZN5Graph10removeEdgeEiiENKUlRK4EdgeE0_clES2_
DA:4,20
DA:7,20
DA:8,4
DA:12,30
DA:13,15
DA:15,1
DA:20,15
DA:21,15
DA:22,15
DA:25,5
DA:28,5
DA:29,5
DA:31,5
DA:33,3
DA:37,4
DA:38,6
DA:39,2
DA:42,4
DA:43,5
DA:44,2
DA:47,2
DA:48,2
DA:51,2
DA:53,2
DA:54,2
DA:57,0
end_of_record
SF:/home/eladubuntu/Git Projects/OS_2024-FINAL_PROJECT_MST/Graph.hpp
FN:62,_ZN5GraphD0Ev
FNDA:4,_ZN5GraphD0Ev
FN:62,_ZN5GraphD2Ev
FNDA:10,_ZN5GraphD2Ev
DA:62,4
DA:62,10
end_of_record
SF:/usr/include/c++/11/bits/stl_algobase.h
FN:230,_ZSt3minImERKT_S2_S2_
FNDA:0,_ZSt3minImERKT_S2_S2_
FN:254,_ZSt3maxImERKT_S2_S2_
FNDA:0,_ZSt3maxImERKT_S2_S2_
FN:313,_ZSt12__niter_baseIP4EdgeET_S2_
FNDA:660,_ZSt12__niter_baseIP4EdgeET_S2_
FN:328,_ZSt12__niter_wrapIN9__gnu_cxx17__normal_iteratorIP4EdgeSt6vectorIS2_SaIS2_EEEES3_ET_S8_T0_
FNDA:5,_ZSt12__niter_wrapIN9__gnu_cxx17__normal_iteratorIP4EdgeSt6vectorIS2_SaIS2_EEEES3_ET_S8_T0_
FN:420,_ZNSt11__copy_moveILb1ELb1ESt26random_access_iterator_tagE8__copy_mI4EdgeEEPT_PKS4_S7_S5_
FNDA:0,_ZNSt11__copy_moveILb1ELb1ESt26random_access_iterator_tagE8__copy_mI4EdgeEEPT_PKS4_S7_S5_
FN:486,_ZSt14__copy_move_a2ILb1EP4EdgeS1_ET1_T0_S3_S2_
FNDA:0,_ZSt14__copy_move_a2ILb1EP4EdgeS1_ET1_T0_S3_S2_
FN:521,_ZSt14__copy_move_a1ILb1EP4EdgeS1_ET1_T0_S3_S2_
FNDA:0,_ZSt14__copy_move_a1ILb1EP4EdgeS1_ET1_T0_S3_S2_
FN:527,_ZSt13__copy_move_aILb1EN9__gnu_cxx17__normal_iteratorIP4EdgeSt6vectorIS2_SaIS2_EEEES7_ET1_T0_S9_S8_
FNDA:0,_ZSt13__copy_move_aILb1EN9__gnu_cxx17__normal_iteratorIP4EdgeSt6vectorIS2_SaIS2_EEEES7_ET1_T0_S9_S8_
FN:644,_ZSt4moveIN9__gnu_cxx17__normal_iteratorIP4EdgeSt6vectorIS2_SaIS2_EEEES7_ET0_T_S9_S8_
FNDA:0,_ZSt4moveIN9__gnu_cxx17__normal_iteratorIP4EdgeSt6vectorIS2_SaIS2_EEEES7_ET0_T_S9_S8_
FN:2061,_ZSt9__find_ifIN9__gnu_cxx17__normal_iteratorIP4EdgeSt6vectorIS2_SaIS2_EEEENS0_5__ops10_Iter_predIZN5Graph10removeEdgeEiiEUlRKS2_E0_EEET_SF_SF_T0_St26random_access_iterator_tag
FNDA:2,_ZSt9__find_ifIN9__gnu_cxx17__normal_iteratorIP4EdgeSt6vectorIS2_SaIS2_EEEENS0_5__ops10_Iter_predIZN5Graph10removeEdgeEiiEUlRKS2_E0_EEET_SF_SF_T0_St26random_access_iterator_tag
FN:2061,_ZSt9__find_ifIN9__gnu_cxx17__normal_iteratorIP4EdgeSt6vectorIS2_SaIS2_EEEENS0_5__ops10_Iter_predIZN5Graph10removeEdgeEiiEUlRKS2_E_EEET_SF_SF_T0_St26random_access_iterator_tag
FNDA:2,_ZSt9__find_ifIN9__gnu_cxx17__normal_iteratorIP4EdgeSt6vectorIS2_SaIS2_EEEENS0_5__ops10_Iter_predIZN5Graph10removeEdgeEiiEUlRKS2_E_EEET_SF_SF_T0_St26random_access_iterator_tag
FN:2112,_ZSt9__find_ifIN9__gnu_cxx17__normal_iteratorIP4EdgeSt6vectorIS2_SaIS2_EEEENS0_5__ops10_Iter_predIZN5Graph10removeEdgeEiiEUlRKS2_E0_EEET_SF_SF_T0_
FNDA:2,_ZSt9__find_ifIN9__gnu_cxx17__normal_iteratorIP4EdgeSt6vectorIS2_SaIS2_EEEENS0_5__ops10_Iter_predIZN5Graph10removeEdgeEiiEUlRKS2_E0_EEET_SF_SF_T0_
FN:2112,_ZSt9__find_ifIN9__gnu_cxx17__normal_iteratorIP4EdgeSt6vectorIS2_SaIS2_EEEENS0_5__ops10_Iter_predIZN5Graph10removeEdgeEiiEUlRKS2_E_EEET_SF_SF_T0_
FNDA:2,_ZSt9__find_ifIN9__gnu_cxx17__normal_iteratorIP4EdgeSt6vectorIS2_SaIS2_EEEENS0_5__ops10_Iter_predIZN5Graph10removeEdgeEiiEUlRKS2_E_EEET_SF_SF_T0_
DA:230,0
DA:235,0
DA:236,0
DA:237,0
DA:254,0
DA:259,0
DA:260,0
DA:261,0
DA:313,660
DA:315,660
DA:328,5
DA:329,5
DA:420,0
DA:429,0
DA:430,0
DA:431,0
DA:432,0
DA:486,0
DA:495,0
DA:521,0
DA:522,0
DA:527,0
DA:529,0
DA:532,0
DA:644,0
DA:652,0
DA:653,0
DA:2061,2
DA:2065,2
DA:2067,2
DA:2069,0
DA:2070,0
DA:2071,0
DA:2073,0
DA:2074,0
DA:2075,0
DA:2077,0
DA:2078,0
DA:2079,0
DA:2081,0
DA:2082,0
DA:2083,0
DA:2086,2
DA:2088,1
DA:2089,1
DA:2090,0
DA:2091,1
DA:2093,2
DA:2094,2
DA:2095,2
DA:2096,0
DA:2098,0
DA:2099,0
DA:2100,0
DA:2101,0
DA:2103,0
DA:2105,0
DA:2061,2
DA:2065,2
DA:2067,2
DA:2069,0
DA:2070,0
DA:2071,0
DA:2073,0
DA:2074,0
DA:2075,0
DA:2077,0
DA:2078,0
DA:2079,0
DA:2081,0
DA:2082,0
DA:2083,0
DA:2086,2
DA:2088,2
DA:2089,2
DA:2090,1
DA:2091,1
DA:2093,1
DA:2094,1
DA:2095,1
DA:2096,0
DA:2098,0
DA:2099,0
DA:2100,0
DA:2101,0
DA:2103,0
DA:2105,0
DA:2112,2
DA:2114,2
DA:2115,4
DA:2112,2
DA:2114,2
DA:2115,4
end_of_record
SF:/usr/include/c++/11/bits/stl_vector.h
FN:276,_ZNSt12_Vector_baseISt6vectorI4EdgeSaIS1_EESaIS3_EE19_M_get_Tp_allocatorEv
FNDA:0,_ZNSt12_Vector_baseISt6vectorI4EdgeSaIS1_EESaIS3_EE19_M_get_Tp_allocatorEv
FN:276,_ZNSt12_Vector_baseI4EdgeSaIS0_EE19_M_get_Tp_allocatorEv
FNDA:0,_ZNSt12_Vector_baseI4EdgeSaIS0_EE19_M_get_Tp_allocatorEv
FN:280,_ZNKSt12_Vector_baseI4EdgeSaIS0_EE19_M_get_Tp_allocatorEv
FNDA:228,_ZNKSt12_Vector_baseI4EdgeSaIS0_EE19_M_get_Tp_allocatorEv
FN:333,_ZNSt12_Vector_baseISt6vectorI4EdgeSaIS1_EESaIS3_EED2Ev
FNDA:0,_ZNSt12_Vector_baseISt6vectorI4EdgeSaIS1_EESaIS3_EED2Ev
FN:333,_ZNSt12_Vector_baseI4EdgeSaIS0_EED2Ev
FNDA:0,_ZNSt12_Vector_baseI4EdgeSaIS0_EED2Ev
FN:343,_ZNSt12_Vector_baseI4EdgeSaIS0_EE11_M_allocateEm
FNDA:120,_ZNSt12_Vector_baseI4EdgeSaIS0_EE11_M_allocateEm
FN:350,_ZNSt12_Vector_baseI4EdgeSaIS0_EE13_M_deallocateEPS0_m
FNDA:0,_ZNSt12_Vector_baseI4EdgeSaIS0_EE13_M_deallocateEPS0_m
FN:350,_ZNSt12_Vector_baseISt6vectorI4EdgeSaIS1_EESaIS3_EE13_M_deallocateEPS3_m
FNDA:0,_ZNSt12_Vector_baseISt6vectorI4EdgeSaIS1_EESaIS3_EE13_M_deallocateEPS3_m
FN:453,_ZNSt6vectorI4EdgeSaIS0_EE14_S_do_relocateEPS0_S3_S3_RS1_St17integral_constantIbLb1EE
FNDA:216,_ZNSt6vectorI4EdgeSaIS0_EE14_S_do_relocateEPS0_S3_S3_RS1_St17integral_constantIbLb1EE
FN:465,_ZNSt6vectorI4EdgeSaIS0_EE11_S_relocateEPS0_S3_S3_RS1_
FNDA:216,_ZNSt6vectorI4EdgeSaIS0_EE11_S_relocateEPS0_S3_S3_RS1_
FN:678,_ZNSt6vectorI4EdgeSaIS0_EED2Ev
FNDA:0,_ZNSt6vectorI4EdgeSaIS0_EED2Ev
FN:678,_ZNSt6vectorIS_I4EdgeSaIS0_EESaIS2_EED2Ev
FNDA:0,_ZNSt6vectorIS_I4EdgeSaIS0_EESaIS2_EED2Ev
FN:811,_ZNSt6vectorI4EdgeSaIS0_EE5beginEv
FNDA:351,_ZNSt6vectorI4EdgeSaIS0_EE5beginEv
FN:829,_ZNSt6vectorI4EdgeSaIS0_EE3endEv
FNDA:449,_ZNSt6vectorI4EdgeSaIS0_EE3endEv
FN:884,_ZNKSt6vectorI4EdgeSaIS0_EE6cbeginEv
FNDA:4,_ZNKSt6vectorI4EdgeSaIS0_EE6cbeginEv
FN:918,_ZNKSt6vectorI4EdgeSaIS0_EE4sizeEv
FNDA:476,_ZNKSt6vectorI4EdgeSaIS0_EE4sizeEv
FN:923,_ZNKSt6vectorI4EdgeSaIS0_EE8max_sizeEv
FNDA:216,_ZNKSt6vectorI4EdgeSaIS0_EE8max_sizeEv
FN:1043,_ZNSt6vectorIS_I4EdgeSaIS0_EESaIS2_EEixEm
FNDA:334,_ZNSt6vectorIS_I4EdgeSaIS0_EESaIS2_EEixEm
FN:1143,_ZNSt6vectorI4EdgeSaIS0_EE4backEv
FNDA:90,_ZNSt6vectorI4EdgeSaIS0_EE4backEv
FN:1203,_ZNSt6vectorI4EdgeSaIS0_EE9push_backEOS0_
FNDA:90,_ZNSt6vectorI4EdgeSaIS0_EE9push_backEOS0_
FN:1457,_ZNSt6vectorI4EdgeSaIS0_EE5eraseEN9__gnu_cxx17__normal_iteratorIPKS0_S2_EES7_
FNDA:4,_ZNSt6vectorI4EdgeSaIS0_EE5eraseEN9__gnu_cxx17__normal_iteratorIPKS0_S2_EES7_
FN:1756,_ZNKSt6vectorI4EdgeSaIS0_EE12_M_check_lenEmPKc
FNDA:108,_ZNKSt6vectorI4EdgeSaIS0_EE12_M_check_lenEmPKc
FN:1776,_ZNSt6vectorI4EdgeSaIS0_EE11_S_max_sizeERKS1_
FNDA:216,_ZNSt6vectorI4EdgeSaIS0_EE11_S_max_sizeERKS1_
FN:1792,_ZNSt6vectorI4EdgeSaIS0_EE15_M_erase_at_endEPS0_
FNDA:4,_ZNSt6vectorI4EdgeSaIS0_EE15_M_erase_at_endEPS0_
DA:276,0
DA:277,0
DA:276,0
DA:277,0
DA:280,228
DA:281,228
DA:333,0
DA:335,0
DA:336,0
DA:337,0
DA:333,0
DA:335,0
DA:336,0
DA:337,0
DA:343,120
DA:346,120
DA:350,0
DA:353,0
DA:354,0
DA:355,0
DA:350,0
DA:353,0
DA:354,0
DA:355,0
DA:453,216
DA:456,216
DA:465,216
DA:469,216
DA:678,0
DA:680,0
DA:681,0
DA:683,0
DA:678,0
DA:680,0
DA:681,0
DA:683,0
DA:811,351
DA:812,351
DA:829,449
DA:830,449
DA:884,4
DA:885,4
DA:918,476
DA:919,476
DA:923,216
DA:924,216
DA:1043,334
DA:1046,334
DA:1143,90
DA:1146,90
DA:1203,90
DA:1204,90
DA:1457,4
DA:1459,4
DA:1460,4
DA:1461,8
DA:1756,108
DA:1758,108
DA:1759,0
DA:1761,108
DA:1762,108
DA:1776,216
DA:1781,216
DA:1783,216
DA:1784,216
DA:1792,4
DA:1794,4
DA:1796,4
DA:1797,4
DA:1798,4
DA:1801,4
end_of_record
SF:/usr/include/c++/11/bits/stl_uninitialized.h
FN:1006,_ZSt14__relocate_a_1I4EdgeS0_ENSt9enable_ifIXsrSt24__is_bitwise_relocatableIT_vE5valueEPS3_E4typeES5_S5_S5_RSaIT0_E
FNDA:216,_ZSt14__relocate_a_1I4EdgeS0_ENSt9enable_ifIXsrSt24__is_bitwise_relocatableIT_vE5valueEPS3_E4typeES5_S5_S5_RSaIT0_E
FN:1040,_ZSt12__relocate_aIP4EdgeS1_SaIS0_EET0_T_S4_S3_RT1_
FNDA:216,_ZSt12__relocate_aIP4EdgeS1_SaIS0_EET0_T_S4_S3_RT1_
DA:1006,216
DA:1009,216
DA:1010,216
DA:1011,54
DA:1012,216
DA:1040,216
DA:1046,216
DA:1048,216
end_of_record
SF:/usr/include/c++/11/bits/move.h
FN:49,_ZSt11__addressofISt6vectorI4EdgeSaIS1_EEEPT_RS4_
FNDA:0,_ZSt11__addressofISt6vectorI4EdgeSaIS1_EEEPT_RS4_
FN:77,_ZSt7forwardI4EdgeEOT_RNSt16remove_referenceIS1_E4typeE
FNDA:357,_ZSt7forwardI4EdgeEOT_RNSt16remove_referenceIS1_E4typeE
FN:104,_ZSt4moveIRZN5Graph10removeEdgeEiiEUlRK4EdgeE0_EONSt16remove_referenceIT_E4typeEOS7_
FNDA:4,_ZSt4moveIRZN5Graph10removeEdgeEiiEUlRK4EdgeE0_EONSt16remove_referenceIT_E4typeEOS7_
FN:104,_ZSt4moveIRZN5Graph10removeEdgeEiiEUlRK4EdgeE_EONSt16remove_referenceIT_E4typeEOS7_
FNDA:4,_ZSt4moveIRZN5Graph10removeEdgeEiiEUlRK4EdgeE_EONSt16remove_referenceIT_E4typeEOS7_
FN:104,_ZSt4moveIR4EdgeEONSt16remove_referenceIT_E4typeEOS3_
FNDA:126,_ZSt4moveIR4EdgeEONSt16remove_referenceIT_E4typeEOS3_
DA:49,0
DA:50,0
DA:77,357
DA:78,357
DA:104,4
DA:105,4
DA:104,4
DA:105,4
DA:104,126
DA:105,126
end_of_record
SF:/usr/include/c++/11/bits/vector.tcc
FN:109,_ZNSt6vectorI4EdgeSaIS0_EE12emplace_backIJS0_EEERS0_DpOT_
FNDA:90,_ZNSt6vectorI4EdgeSaIS0_EE12emplace_backIJS0_EEERS0_DpOT_
FN:184,_ZNSt6vectorI4EdgeSaIS0_EE8_M_eraseEN9__gnu_cxx17__normal_iteratorIPS0_S2_EES6_
FNDA:4,_ZNSt6vectorI4EdgeSaIS0_EE8_M_eraseEN9__gnu_cxx17__normal_iteratorIPS0_S2_EES6_
FN:426,_ZNSt6vectorI4EdgeSaIS0_EE17_M_realloc_insertIJS0_EEEvN9__gnu_cxx17__normal_iteratorIPS0_S2_EEDpOT_
FNDA:87,_ZNSt6vectorI4EdgeSaIS0_EE17_M_realloc_insertIJS0_EEEvN9__gnu_cxx17__normal_iteratorIPS0_S2_EEDpOT_
DA:109,90
DA:112,90
DA:115,3
DA:117,3
DA:121,87
DA:123,90
DA:184,4
DA:187,4
DA:189,4
DA:190,0
DA:191,4
DA:193,4
DA:426,87
DA:436,87
DA:437,87
DA:438,87
DA:439,87
DA:440,87
DA:441,87
DA:449,87
DA:450,87
DA:456,87
DA:461,87
DA:462,87
DA:464,87
DA:466,87
DA:467,87
DA:500,87
DA:501,87
DA:502,87
DA:503,87
DA:504,87
DA:505,87
end_of_record
SF:/usr/include/c++/11/iostream
end_of_record
SF:/usr/include/c++/11/new
FN:174,_ZnwmPv
FNDA:0,_ZnwmPv
DA:174,0
DA:175,0
end_of_record
SF:/usr/include/c++/11/bits/stl_construct.h
FN:146,_ZSt8_DestroyISt6vectorI4EdgeSaIS1_EEEvPT_
FNDA:0,_ZSt8_DestroyISt6vectorI4EdgeSaIS1_EEEvPT_
FN:160,_ZNSt12_Destroy_auxILb0EE9__destroyIPSt6vectorI4EdgeSaIS3_EEEEvT_S7_
FNDA:0,_ZNSt12_Destroy_auxILb0EE9__destroyIPSt6vectorI4EdgeSaIS3_EEEEvT_S7_
FN:172,_ZNSt12_Destroy_auxILb1EE9__destroyIP4EdgeEEvT_S4_
FNDA:0,_ZNSt12_Destroy_auxILb1EE9__destroyIP4EdgeEEvT_S4_
FN:182,_ZSt8_DestroyIP4EdgeEvT_S2_
FNDA:0,_ZSt8_DestroyIP4EdgeEvT_S2_
FN:182,_ZSt8_DestroyIPSt6vectorI4EdgeSaIS1_EEEvT_S5_
FNDA:0,_ZSt8_DestroyIPSt6vectorI4EdgeSaIS1_EEEvT_S5_
DA:146,0
DA:151,0
DA:153,0
DA:160,0
DA:162,0
DA:163,0
DA:164,0
DA:172,0
DA:182,0
DA:196,0
DA:197,0
DA:182,0
DA:196,0
DA:197,0
end_of_record
SF:/usr/include/c++/11/bits/alloc_traits.h
FN:463,_ZNSt16allocator_traitsISaI4EdgeEE8allocateERS1_m
FNDA:120,_ZNSt16allocator_traitsISaI4EdgeEE8allocateERS1_m
FN:495,_ZNSt16allocator_traitsISaI4EdgeEE10deallocateERS1_PS0_m
FNDA:0,_ZNSt16allocator_traitsISaI4EdgeEE10deallocateERS1_PS0_m
FN:495,_ZNSt16allocator_traitsISaISt6vectorI4EdgeSaIS1_EEEE10deallocateERS4_PS3_m
FNDA:0,_ZNSt16allocator_traitsISaISt6vectorI4EdgeSaIS1_EEEE10deallocateERS4_PS3_m
FN:511,_ZNSt16allocator_traitsISaI4EdgeEE9constructIS0_JS0_EEEvRS1_PT_DpOT0_
FNDA:90,_ZNSt16allocator_traitsISaI4EdgeEE9constructIS0_JS0_EEEvRS1_PT_DpOT0_
FN:547,_ZNSt16allocator_traitsISaI4EdgeEE8max_sizeERKS1_
FNDA:216,_ZNSt16allocator_traitsISaI4EdgeEE8max_sizeERKS1_
FN:845,_ZSt8_DestroyIP4EdgeS0_EvT_S2_RSaIT0_E
FNDA:0,_ZSt8_DestroyIP4EdgeS0_EvT_S2_RSaIT0_E
FN:845,_ZSt8_DestroyIPSt6vectorI4EdgeSaIS1_EES3_EvT_S5_RSaIT0_E
FNDA:0,_ZSt8_DestroyIPSt6vectorI4EdgeSaIS1_EES3_EvT_S5_RSaIT0_E
DA:463,120
DA:464,120
DA:495,0
DA:496,0
DA:495,0
DA:496,0
DA:511,90
DA:516,90
DA:520,90
DA:547,216
DA:550,216
DA:845,0
DA:848,0
DA:849,0
DA:845,0
DA:848,0
DA:849,0
end_of_record
SF:/usr/include/c++/11/bits/stl_iterator.h
FN:1027,_ZN9__gnu_cxx17__normal_iteratorIPK4EdgeSt6vectorIS1_SaIS1_EEEC2ERKS3_
FNDA:82,_ZN9__gnu_cxx17__normal_iteratorIPK4EdgeSt6vectorIS1_SaIS1_EEEC2ERKS3_
FN:1027,_ZN9__gnu_cxx17__normal_iteratorIP4EdgeSt6vectorIS1_SaIS1_EEEC2ERKS2_
FNDA:911,_ZN9__gnu_cxx17__normal_iteratorIP4EdgeSt6vectorIS1_SaIS1_EEEC2ERKS2_
FN:1033,_ZN9__gnu_cxx17__normal_iteratorIPK4EdgeSt6vectorIS1_SaIS1_EEEC2IPS1_EERKNS0_IT_NS_11__enable_ifIXsrSt10__are_sameISA_S9_E7__valueES6_E6__typeEEE
FNDA:8,_ZN9__gnu_cxx17__normal_iteratorIPK4EdgeSt6vectorIS1_SaIS1_EEEC2IPS1_EERKNS0_IT_NS_11__enable_ifIXsrSt10__are_sameISA_S9_E7__valueES6_E6__typeEEE
FN:1042,_ZNK9__gnu_cxx17__normal_iteratorIP4EdgeSt6vectorIS1_SaIS1_EEEdeEv
FNDA:562,_ZNK9__gnu_cxx17__normal_iteratorIP4EdgeSt6vectorIS1_SaIS1_EEEdeEv
FN:1052,_ZN9__gnu_cxx17__normal_iteratorIP4EdgeSt6vectorIS1_SaIS1_EEEppEv
FNDA:402,_ZN9__gnu_cxx17__normal_iteratorIP4EdgeSt6vectorIS1_SaIS1_EEEppEv
FN:1090,_ZNK9__gnu_cxx17__normal_iteratorIP4EdgeSt6vectorIS1_SaIS1_EEEplEl
FNDA:21,_ZNK9__gnu_cxx17__normal_iteratorIP4EdgeSt6vectorIS1_SaIS1_EEEplEl
FN:1100,_ZNK9__gnu_cxx17__normal_iteratorIP4EdgeSt6vectorIS1_SaIS1_EEEmiEl
FNDA:90,_ZNK9__gnu_cxx17__normal_iteratorIP4EdgeSt6vectorIS1_SaIS1_EEEmiEl
FN:1105,_ZNK9__gnu_cxx17__normal_iteratorIPK4EdgeSt6vectorIS1_SaIS1_EEE4baseEv
FNDA:208,_ZNK9__gnu_cxx17__normal_iteratorIPK4EdgeSt6vectorIS1_SaIS1_EEE4baseEv
FN:1105,_ZNK9__gnu_cxx17__normal_iteratorIP4EdgeSt6vectorIS1_SaIS1_EEE4baseEv
FNDA:1802,_ZNK9__gnu_cxx17__normal_iteratorIP4EdgeSt6vectorIS1_SaIS1_EEE4baseEv
FN:1163,_ZN9__gnu_cxxeqIP4EdgeSt6vectorIS1_SaIS1_EEEEbRKNS_17__normal_iteratorIT_T0_EESB_
FNDA:7,_ZN9__gnu_cxxeqIP4EdgeSt6vectorIS1_SaIS1_EEEEbRKNS_17__normal_iteratorIT_T0_EESB_
FN:1179,_ZN9__gnu_cxxneIP4EdgeSt6vectorIS1_SaIS1_EEEEbRKNS_17__normal_iteratorIT_T0_EESB_
FNDA:641,_ZN9__gnu_cxxneIP4EdgeSt6vectorIS1_SaIS1_EEEEbRKNS_17__normal_iteratorIT_T0_EESB_
FN:1268,_ZN9__gnu_cxxmiIP4EdgeSt6vectorIS1_SaIS1_EEEENS_17__normal_iteratorIT_T0_E15difference_typeERKS9_SC_
FNDA:129,_ZN9__gnu_cxxmiIP4EdgeSt6vectorIS1_SaIS1_EEEENS_17__normal_iteratorIT_T0_E15difference_typeERKS9_SC_
FN:1268,_ZN9__gnu_cxxmiIPK4EdgeSt6vectorIS1_SaIS1_EEEENS_17__normal_iteratorIT_T0_E15difference_typeERKSA_SD_
FNDA:8,_ZN9__gnu_cxxmiIPK4EdgeSt6vectorIS1_SaIS1_EEEENS_17__normal_iteratorIT_T0_E15difference_typeERKSA_SD_
FN:1291,_ZSt12__niter_baseIP4EdgeSt6vectorIS0_SaIS0_EEET_N9__gnu_cxx17__normal_iteratorIS5_T0_EE
FNDA:20,_ZSt12__niter_baseIP4EdgeSt6vectorIS0_SaIS0_EEET_N9__gnu_cxx17__normal_iteratorIS5_T0_EE
DA:1027,82
DA:1028,82
DA:1027,911
DA:1028,911
DA:1033,8
DA:1037,8
DA:1042,562
DA:1043,562
DA:1052,402
DA:1054,402
DA:1055,402
DA:1090,21
DA:1091,21
DA:1100,90
DA:1101,90
DA:1105,208
DA:1106,208
DA:1105,1802
DA:1106,1802
DA:1163,7
DA:1166,7
DA:1179,641
DA:1182,641
DA:1268,129
DA:1271,129
DA:1268,8
DA:1271,8
DA:1291,20
DA:1293,20
end_of_record
SF:/usr/include/c++/11/bits/stl_algo.h
FN:813,_ZSt11__remove_ifIN9__gnu_cxx17__normal_iteratorIP4EdgeSt6vectorIS2_SaIS2_EEEENS0_5__ops10_Iter_predIZN5Graph10removeEdgeEiiEUlRKS2_E0_EEET_SF_SF_T0_
FNDA:2,_ZSt11__remove_ifIN9__gnu_cxx17__normal_iteratorIP4EdgeSt6vectorIS2_SaIS2_EEEENS0_5__ops10_Iter_predIZN5Graph10removeEdgeEiiEUlRKS2_E0_EEET_SF_SF_T0_
FN:813,_ZSt11__remove_ifIN9__gnu_cxx17__normal_iteratorIP4EdgeSt6vectorIS2_SaIS2_EEEENS0_5__ops10_Iter_predIZN5Graph10removeEdgeEiiEUlRKS2_E_EEET_SF_SF_T0_
FNDA:2,_ZSt11__remove_ifIN9__gnu_cxx17__normal_iteratorIP4EdgeSt6vectorIS2_SaIS2_EEEENS0_5__ops10_Iter_predIZN5Graph10removeEdgeEiiEUlRKS2_E_EEET_SF_SF_T0_
FN:884,_ZSt9remove_ifIN9__gnu_cxx17__normal_iteratorIP4EdgeSt6vectorIS2_SaIS2_EEEEZN5Graph10removeEdgeEiiEUlRKS2_E0_ET_SC_SC_T0_
FNDA:2,_ZSt9remove_ifIN9__gnu_cxx17__normal_iteratorIP4EdgeSt6vectorIS2_SaIS2_EEEEZN5Graph10removeEdgeEiiEUlRKS2_E0_ET_SC_SC_T0_
FN:884,_ZSt9remove_ifIN9__gnu_cxx17__normal_iteratorIP4EdgeSt6vectorIS2_SaIS2_EEEEZN5Graph10removeEdgeEiiEUlRKS2_E_ET_SC_SC_T0_
FNDA:2,_ZSt9remove_ifIN9__gnu_cxx17__normal_iteratorIP4EdgeSt6vectorIS2_SaIS2_EEEEZN5Graph10removeEdgeEiiEUlRKS2_E_ET_SC_SC_T0_
DA:813,2
DA:816,2
DA:817,2
DA:818,0
DA:819,2
DA:820,2
DA:821,4
DA:822,2
DA:824,2
DA:825,2
DA:827,2
DA:813,2
DA:816,2
DA:817,2
DA:818,0
DA:819,2
DA:820,2
DA:821,5
DA:822,3
DA:824,3
DA:825,3
DA:827,2
DA:884,2
DA:894,2
DA:895,2
DA:884,2
DA:894,2
DA:895,2
end_of_record
SF:/usr/include/c++/11/ext/new_allocator.h
FN:89,_ZN9__gnu_cxx13new_allocatorI4EdgeED2Ev
FNDA:0,_ZN9__gnu_cxx13new_allocatorI4EdgeED2Ev
FN:89,_ZN9__gnu_cxx13new_allocatorISt6vectorI4EdgeSaIS2_EEED2Ev
FNDA:0,_ZN9__gnu_cxx13new_allocatorISt6vectorI4EdgeSaIS2_EEED2Ev
FN:103,_ZN9__gnu_cxx13new_allocatorI4EdgeE8allocateEmPKv
FNDA:120,_ZN9__gnu_cxx13new_allocatorI4EdgeE8allocateEmPKv
FN:132,_ZN9__gnu_cxx13new_allocatorI4EdgeE10deallocateEPS1_m
FNDA:0,_ZN9__gnu_cxx13new_allocatorI4EdgeE10deallocateEPS1_m
FN:132,_ZN9__gnu_cxx13new_allocatorISt6vectorI4EdgeSaIS2_EEE10deallocateEPS4_m
FNDA:0,_ZN9__gnu_cxx13new_allocatorISt6vectorI4EdgeSaIS2_EEE10deallocateEPS4_m
FN:154,_ZNK9__gnu_cxx13new_allocatorI4EdgeE8max_sizeEv
FNDA:216,_ZNK9__gnu_cxx13new_allocatorI4EdgeE8max_sizeEv
FN:160,_ZN9__gnu_cxx13new_allocatorI4EdgeE9constructIS1_JS1_EEEvPT_DpOT0_
FNDA:90,_ZN9__gnu_cxx13new_allocatorI4EdgeE9constructIS1_JS1_EEEvPT_DpOT0_
FN:197,_ZNK9__gnu_cxx13new_allocatorI4EdgeE11_M_max_sizeEv
FNDA:336,_ZNK9__gnu_cxx13new_allocatorI4EdgeE11_M_max_sizeEv
DA:89,0
DA:89,0
DA:103,120
DA:111,120
DA:115,0
DA:116,0
DA:117,0
DA:127,120
DA:132,0
DA:145,0
DA:132,0
DA:145,0
DA:154,216
DA:155,216
DA:160,90
DA:162,90
DA:197,336
DA:200,336
end_of_record
TN:
SF:/home/eladubuntu/Git Projects/OS_2024-FINAL_PROJECT_MST/ThreadContext.cpp
FN:3,_ZN13ThreadContext12createThreadESt8functionIFvvEE
FNDA:20,_ZN13ThreadContext12createThreadESt8functionIFvvEE
FN:8,_ZZN13ThreadContext12createThreadESt8functionIFvvEEENKUlPvE_clES3_
FNDA:20,_ZZN13ThreadContext12createThreadESt8functionIFvvEEENKUlPvE_clES3_
FN:25,_ZN13ThreadContext6wakeUpEv
FNDA:4,_ZN13ThreadContext6wakeUpEv
FN:33,_ZN13ThreadContext5sleepEv
FNDA:2,_ZN13ThreadContext5sleepEv
FN:39,_ZN13ThreadContext13conditionWaitERKSt6atomicIbE
FNDA:22,_ZN13ThreadContext13conditionWaitERKSt6atomicIbE
FN:43,_ZZN13ThreadContext13conditionWaitERKSt6atomicIbEENKUlvE_clEv
FNDA:44,_ZZN13ThreadContext13conditionWaitERKSt6atomicIbEENKUlvE_clEv
DA:3,20
DA:6,20
DA:8,20
DA:10,20
DA:13,20
DA:15,18
DA:16,20
DA:18,20
DA:19,0
DA:22,20
DA:25,4
DA:27,4
DA:29,4
DA:30,4
DA:31,4
DA:33,2
DA:35,2
DA:36,2
DA:37,2
DA:39,22
DA:42,22
DA:43,66
DA:44,22
end_of_record
SF:/usr/include/c++/11/bits/std_function.h
FN:239,_ZNSt14_Function_baseC2Ev
FNDA:0,_ZNSt14_Function_baseC2Ev
FN:241,_ZNSt14_Function_baseD2Ev
FNDA:0,_ZNSt14_Function_baseD2Ev
FN:247,_ZNKSt14_Function_base8_M_emptyEv
FNDA:0,_ZNKSt14_Function_base8_M_emptyEv
FN:386,_ZNSt8functionIFvvEEC2ERKS1_
FNDA:0,_ZNSt8functionIFvvEEC2ERKS1_
FN:572,_ZNKSt8functionIFvvEEcvbEv
FNDA:0,_ZNKSt8functionIFvvEEcvbEv
FN:586,_ZNKSt8functionIFvvEEclEv
FNDA:0,_ZNKSt8functionIFvvEEclEv
DA:239,0
DA:241,0
DA:243,0
DA:244,0
DA:245,0
DA:247,0
DA:386,0
DA:387,0
DA:389,0
DA:391,0
DA:392,0
DA:393,0
DA:395,0
DA:572,0
DA:573,0
DA:586,0
DA:588,0
DA:589,0
DA:590,0
end_of_record
SF:/usr/include/c++/11/bits/unique_lock.h
FN:66,_ZNSt11unique_lockISt5mutexEC2ERS0_
FNDA:0,_ZNSt11unique_lockISt5mutexEC2ERS0_
FN:101,_ZNSt11unique_lockISt5mutexED2Ev
FNDA:0,_ZNSt11unique_lockISt5mutexED2Ev
FN:131,_ZNSt11unique_lockISt5mutexE4lockEv
FNDA:0,_ZNSt11unique_lockISt5mutexE4lockEv
FN:189,_ZNSt11unique_lockISt5mutexE6unlockEv
FNDA:0,_ZNSt11unique_lockISt5mutexE6unlockEv
DA:66,0
DA:67,0
DA:69,0
DA:70,0
DA:71,0
DA:101,0
DA:103,0
DA:104,0
DA:105,0
DA:131,0
DA:133,0
DA:134,0
DA:135,0
DA:136,0
DA:139,0
DA:140,0
DA:142,0
DA:189,0
DA:191,0
DA:192,0
DA:193,0
DA:195,0
DA:196,0
DA:198,0
end_of_record
SF:/usr/include/c++/11/bits/unique_ptr.h
FN:79,_ZNKSt14default_deleteISt8functionIFvvEEEclEPS2_
FNDA:0,_ZNKSt14default_deleteISt8functionIFvvEEEclEPS2_
FN:155,_ZNSt15__uniq_ptr_implISt8functionIFvvEESt14default_deleteIS2_EEC2EPS2_
FNDA:20,_ZNSt15__uniq_ptr_implISt8functionIFvvEESt14default_deleteIS2_EEC2EPS2_
FN:165,_ZNSt15__uniq_ptr_implISt8functionIFvvEESt14default_deleteIS2_EEaSEOS5_
FNDA:20,_ZNSt15__uniq_ptr_implISt8functionIFvvEESt14default_deleteIS2_EEaSEOS5_
FN:172,_ZNSt15__uniq_ptr_implISt8functionIFvvEESt14default_deleteIS2_EE6_M_ptrEv
FNDA:0,_ZNSt15__uniq_ptr_implISt8functionIFvvEESt14default_deleteIS2_EE6_M_ptrEv
FN:173,_ZNKSt15__uniq_ptr_implISt8functionIFvvEESt14default_deleteIS2_EE6_M_ptrEv
FNDA:20,_ZNKSt15__uniq_ptr_implISt8functionIFvvEESt14default_deleteIS2_EE6_M_ptrEv
FN:174,_ZNSt15__uniq_ptr_implISt8functionIFvvEESt14default_deleteIS2_EE10_M_deleterEv
FNDA:0,_ZNSt15__uniq_ptr_implISt8functionIFvvEESt14default_deleteIS2_EE10_M_deleterEv
FN:177,_ZNSt15__uniq_ptr_implISt8functionIFvvEESt14default_deleteIS2_EE5resetEPS2_
FNDA:0,_ZNSt15__uniq_ptr_implISt8functionIFvvEESt14default_deleteIS2_EE5resetEPS2_
FN:185,_ZNSt15__uniq_ptr_implISt8functionIFvvEESt14default_deleteIS2_EE7releaseEv
FNDA:20,_ZNSt15__uniq_ptr_implISt8functionIFvvEESt14default_deleteIS2_EE7releaseEv
FN:212,_ZNSt15__uniq_ptr_dataISt8functionIFvvEESt14default_deleteIS2_ELb1ELb1EEaSEOS5_
FNDA:20,_ZNSt15__uniq_ptr_dataISt8functionIFvvEESt14default_deleteIS2_ELb1ELb1EEaSEOS5_
FN:281,_ZNSt10unique_ptrISt8functionIFvvEESt14default_deleteIS2_EEC2IS4_vEEPS2_
FNDA:20,_ZNSt10unique_ptrISt8functionIFvvEESt14default_deleteIS2_EEC2IS4_vEEPS2_
FN:355,_ZNSt10unique_ptrISt8functionIFvvEESt14default_deleteIS2_EED2Ev
FNDA:0,_ZNSt10unique_ptrISt8functionIFvvEESt14default_deleteIS2_EED2Ev
FN:371,_ZNSt10unique_ptrISt8functionIFvvEESt14default_deleteIS2_EEaSEOS5_
FNDA:20,_ZNSt10unique_ptrISt8functionIFvvEESt14default_deleteIS2_EEaSEOS5_
FN:421,_ZNKSt10unique_ptrISt8functionIFvvEESt14default_deleteIS2_EE3getEv
FNDA:20,_ZNKSt10unique_ptrISt8functionIFvvEESt14default_deleteIS2_EE3getEv
FN:426,_ZNSt10unique_ptrISt8functionIFvvEESt14default_deleteIS2_EE11get_deleterEv
FNDA:0,_ZNSt10unique_ptrISt8functionIFvvEESt14default_deleteIS2_EE11get_deleterEv
FN:961,_ZSt11make_uniqueISt8functionIFvvEEJRS2_EENSt9_MakeUniqIT_E15__single_objectEDpOT0_
FNDA:20,_ZSt11make_uniqueISt8functionIFvvEEJRS2_EENSt9_MakeUniqIT_E15__single_objectEDpOT0_
DA:79,0
DA:85,0
DA:86,0
DA:155,20
DA:165,20
DA:167,20
DA:168,20
DA:169,20
DA:172,0
DA:173,20
DA:174,0
DA:177,0
DA:179,0
DA:180,0
DA:181,0
DA:182,0
DA:183,0
DA:185,20
DA:187,20
DA:188,20
DA:189,20
DA:212,20
DA:281,20
DA:282,20
DA:283,20
DA:355,0
DA:359,0
DA:360,0
DA:361,0
DA:362,0
DA:363,0
DA:371,20
DA:421,20
DA:422,20
DA:426,0
DA:427,0
DA:961,20
DA:962,20
end_of_record
SF:/usr/include/c++/11/tuple
FN:80,_ZNSt10_Head_baseILm1ESt14default_deleteISt8functionIFvvEEELb1EEC2Ev
FNDA:0,_ZNSt10_Head_baseILm1ESt14default_deleteISt8functionIFvvEEELb1EEC2Ev
FN:124,_ZNSt10_Head_baseILm1ESt14default_deleteISt8functionIFvvEEELb1EE7_M_headERS5_
FNDA:0,_ZNSt10_Head_baseILm1ESt14default_deleteISt8functionIFvvEEELb1EE7_M_headERS5_
FN:189,_ZNSt10_Head_baseILm0EPSt8functionIFvvEELb0EEC2Ev
FNDA:0,_ZNSt10_Head_baseILm0EPSt8functionIFvvEELb0EEC2Ev
FN:233,_ZNSt10_Head_baseILm0EPSt8functionIFvvEELb0EE7_M_headERS4_
FNDA:0,_ZNSt10_Head_baseILm0EPSt8functionIFvvEELb0EE7_M_headERS4_
FN:236,_ZNSt10_Head_baseILm0EPSt8functionIFvvEELb0EE7_M_headERKS4_
FNDA:20,_ZNSt10_Head_baseILm0EPSt8functionIFvvEELb0EE7_M_headERKS4_
FN:268,_ZNSt11_Tuple_implILm0EJPSt8functionIFvvEESt14default_deleteIS2_EEE7_M_headERS6_
FNDA:0,_ZNSt11_Tuple_implILm0EJPSt8functionIFvvEESt14default_deleteIS2_EEE7_M_headERS6_
FN:271,_ZNSt11_Tuple_implILm0EJPSt8functionIFvvEESt14default_deleteIS2_EEE7_M_headERKS6_
FNDA:20,_ZNSt11_Tuple_implILm0EJPSt8functionIFvvEESt14default_deleteIS2_EEE7_M_headERKS6_
FN:279,_ZNSt11_Tuple_implILm0EJPSt8functionIFvvEESt14default_deleteIS2_EEEC2Ev
FNDA:0,_ZNSt11_Tuple_implILm0EJPSt8functionIFvvEESt14default_deleteIS2_EEEC2Ev
FN:424,_ZNSt11_Tuple_implILm1EJSt14default_deleteISt8functionIFvvEEEEE7_M_headERS5_
FNDA:0,_ZNSt11_Tuple_implILm1EJSt14default_deleteISt8functionIFvvEEEEE7_M_headERS5_
FN:430,_ZNSt11_Tuple_implILm1EJSt14default_deleteISt8functionIFvvEEEEEC2Ev
FNDA:0,_ZNSt11_Tuple_implILm1EJSt14default_deleteISt8functionIFvvEEEEEC2Ev
FN:1049,_ZNSt5tupleIJPSt8functionIFvvEESt14default_deleteIS2_EEEC2ILb1ELb1EEEv
FNDA:0,_ZNSt5tupleIJPSt8functionIFvvEESt14default_deleteIS2_EEEC2ILb1ELb1EEEv
FN:1377,_ZSt12__get_helperILm0EPSt8functionIFvvEEJSt14default_deleteIS2_EEERT0_RSt11_Tuple_implIXT_EJS6_DpT1_EE
FNDA:0,_ZSt12__get_helperILm0EPSt8functionIFvvEEJSt14default_deleteIS2_EEERT0_RSt11_Tuple_implIXT_EJS6_DpT1_EE
FN:1377,_ZSt12__get_helperILm1ESt14default_deleteISt8functionIFvvEEEJEERT0_RSt11_Tuple_implIXT_EJS5_DpT1_EE
FNDA:0,_ZSt12__get_helperILm1ESt14default_deleteISt8functionIFvvEEEJEERT0_RSt11_Tuple_implIXT_EJS5_DpT1_EE
FN:1382,_ZSt12__get_helperILm0EPSt8functionIFvvEEJSt14default_deleteIS2_EEERKT0_RKSt11_Tuple_implIXT_EJS6_DpT1_EE
FNDA:20,_ZSt12__get_helperILm0EPSt8functionIFvvEEJSt14default_deleteIS2_EEERKT0_RKSt11_Tuple_implIXT_EJS6_DpT1_EE
FN:1393,_ZSt3getILm1EJPSt8functionIFvvEESt14default_deleteIS2_EEERNSt13tuple_elementIXT_ESt5tupleIJDpT0_EEE4typeERSA_
FNDA:0,_ZSt3getILm1EJPSt8functionIFvvEESt14default_deleteIS2_EEERNSt13tuple_elementIXT_ESt5tupleIJDpT0_EEE4typeERSA_
FN:1393,_ZSt3getILm0EJPSt8functionIFvvEESt14default_deleteIS2_EEERNSt13tuple_elementIXT_ESt5tupleIJDpT0_EEE4typeERSA_
FNDA:0,_ZSt3getILm0EJPSt8functionIFvvEESt14default_deleteIS2_EEERNSt13tuple_elementIXT_ESt5tupleIJDpT0_EEE4typeERSA_
FN:1399,_ZSt3getILm0EJPSt8functionIFvvEESt14default_deleteIS2_EEERKNSt13tuple_elementIXT_ESt5tupleIJDpT0_EEE4typeERKSA_
FNDA:20,_ZSt3getILm0EJPSt8functionIFvvEESt14default_deleteIS2_EEERKNSt13tuple_elementIXT_ESt5tupleIJDpT0_EEE4typeERKSA_
DA:80,0
DA:81,0
DA:124,0
DA:189,0
DA:190,0
DA:233,0
DA:236,20
DA:268,0
DA:271,20
DA:279,0
DA:280,0
DA:424,0
DA:430,0
DA:431,0
DA:1049,0
DA:1051,0
DA:1377,0
DA:1378,0
DA:1377,0
DA:1378,0
DA:1382,20
DA:1383,20
DA:1393,0
DA:1394,0
DA:1393,0
DA:1394,0
DA:1399,20
DA:1400,20
end_of_record
SF:/usr/include/c++/11/bits/atomic_base.h
FN:104,_ZStanSt12memory_orderSt23__memory_order_modifier
FNDA:0,_ZStanSt12memory_orderSt23__memory_order_modifier
DA:104,0
DA:106,0
DA:459,0
DA:464,0
DA:465,0
DA:484,0
DA:488,0
end_of_record
SF:/usr/include/x86_64-linux-gnu/c++/11/bits/gthr-default.h
FN:300,_ZL18__gthread_active_pv
FNDA:0,_ZL18__gthread_active_pv
FN:746,_ZL20__gthread_mutex_lockP15pthread_mutex_t
FNDA:0,_ZL20__gthread_mutex_lockP15pthread_mutex_t
FN:776,_ZL22__gthread_mutex_unlockP15pthread_mutex_t
FNDA:0,_ZL22__gthread_mutex_unlockP15pthread_mutex_t
DA:300,0
DA:302,0
DA:746,0
DA:748,0
DA:749,0
DA:751,0
DA:776,0
DA:778,0
DA:779,0
DA:781,0
end_of_record
SF:/usr/include/c++/11/bits/move.h
FN:49,_ZSt11__addressofISt5mutexEPT_RS1_
FNDA:0,_ZSt11__addressofISt5mutexEPT_RS1_
FN:77,_ZSt7forwardISt14default_deleteISt8functionIFvvEEEEOT_RNSt16remove_referenceIS5_E4typeE
FNDA:20,_ZSt7forwardISt14default_deleteISt8functionIFvvEEEEOT_RNSt16remove_referenceIS5_E4typeE
FN:77,_ZSt7forwardIRSt8functionIFvvEEEOT_RNSt16remove_referenceIS4_E4typeE
FNDA:20,_ZSt7forwardIRSt8functionIFvvEEEOT_RNSt16remove_referenceIS4_E4typeE
FN:104,_ZSt4moveIRPSt8functionIFvvEEEONSt16remove_referenceIT_E4typeEOS6_
FNDA:0,_ZSt4moveIRPSt8functionIFvvEEEONSt16remove_referenceIT_E4typeEOS6_
DA:49,0
DA:50,0
DA:77,20
DA:78,20
DA:77,20
DA:78,20
DA:104,0
DA:105,0
end_of_record
SF:/usr/include/c++/11/condition_variable
FN:100,_ZNSt18condition_variable4waitIZN13ThreadContext13conditionWaitERKSt6atomicIbEEUlvE_EEvRSt11unique_lockISt5mutexET_
FNDA:22,_ZNSt18condition_variable4waitIZN13ThreadContext13conditionWaitERKSt6atomicIbEEUlvE_EEvRSt11unique_lockISt5mutexET_
DA:100,22
DA:102,44
DA:103,22
DA:104,22
end_of_record
SF:/usr/include/c++/11/iostream
end_of_record
SF:/usr/include/c++/11/bits/std_mutex.h
FN:98,_ZNSt5mutex4lockEv
FNDA:0,_ZNSt5mutex4lockEv
FN:115,_ZNSt5mutex6unlockEv
FNDA:0,_ZNSt5mutex6unlockEv
DA:98,0
DA:100,0
DA:103,0
DA:104,0
DA:105,0
DA:115,0
DA:118,0
DA:119,0
end_of_record
SF:/usr/include/c++/11/atomic
FN:103,_ZNSt6atomicIbE5storeEbSt12memory_order
FNDA:0,_ZNSt6atomicIbE5storeEbSt12memory_order
FN:111,_ZNKSt6atomicIbE4loadESt12memory_order
FNDA:0,_ZNKSt6atomicIbE4loadESt12memory_order
DA:103,0
DA:104,0
DA:111,0
DA:112,0
end_of_record
TN:
SF:/usr/include/c++/11/bits/allocated_ptr.h
FN:53,_ZNSt15__allocated_ptrISaISt23_Sp_counted_ptr_inplaceI13ThreadContextSaIS1_ELN9__gnu_cxx12_Lock_policyE2EEEEC2ERS6_PS5_
FNDA:40,_ZNSt15__allocated_ptrISaISt23_Sp_counted_ptr_inplaceI13ThreadContextSaIS1_ELN9__gnu_cxx12_Lock_policyE2EEEEC2ERS6_PS5_
FN:71,_ZNSt15__allocated_ptrISaISt23_Sp_counted_ptr_inplaceI13ThreadContextSaIS1_ELN9__gnu_cxx12_Lock_policyE2EEEED2Ev
FNDA:40,_ZNSt15__allocated_ptrISaISt23_Sp_counted_ptr_inplaceI13ThreadContextSaIS1_ELN9__gnu_cxx12_Lock_policyE2EEEED2Ev
FN:79,_ZNSt15__allocated_ptrISaISt23_Sp_counted_ptr_inplaceI13ThreadContextSaIS1_ELN9__gnu_cxx12_Lock_policyE2EEEEaSEDn
FNDA:20,_ZNSt15__allocated_ptrISaISt23_Sp_counted_ptr_inplaceI13ThreadContextSaIS1_ELN9__gnu_cxx12_Lock_policyE2EEEEaSEDn
FN:86,_ZNSt15__allocated_ptrISaISt23_Sp_counted_ptr_inplaceI13ThreadContextSaIS1_ELN9__gnu_cxx12_Lock_policyE2EEEE3getEv
FNDA:20,_ZNSt15__allocated_ptrISaISt23_Sp_counted_ptr_inplaceI13ThreadContextSaIS1_ELN9__gnu_cxx12_Lock_policyE2EEEE3getEv
FN:96,_ZSt18__allocate_guardedISaISt23_Sp_counted_ptr_inplaceI13ThreadContextSaIS1_ELN9__gnu_cxx12_Lock_policyE2EEEESt15__allocated_ptrIT_ERS8_
FNDA:20,_ZSt18__allocate_guardedISaISt23_Sp_counted_ptr_inplaceI13ThreadContextSaIS1_ELN9__gnu_cxx12_Lock_policyE2EEEESt15__allocated_ptrIT_ERS8_
DA:53,40
DA:54,40
DA:55,40
DA:71,40
DA:73,40
DA:74,20
DA:75,40
DA:79,20
DA:81,20
DA:82,20
DA:86,20
DA:96,20
DA:98,20
end_of_record
SF:/usr/include/c++/11/ext/atomicity.h
DA:52,52
DA:66,46
DA:71,6
DA:84,0
DA:85,0
DA:86,0
DA:92,0
DA:98,46
DA:99,0
DA:101,46
DA:108,6
DA:112,6
end_of_record
SF:/usr/include/c++/11/bits/allocator.h
FN:156,_ZNSaI13ThreadContextEC2Ev
FNDA:20,_ZNSaI13ThreadContextEC2Ev
FN:156,_ZNSaISt10shared_ptrI13ThreadContextEEC2Ev
FNDA:2,_ZNSaISt10shared_ptrI13ThreadContextEEC2Ev
FN:159,_ZNSaI13ThreadContextEC2ERKS0_
FNDA:60,_ZNSaI13ThreadContextEC2ERKS0_
FN:159,_ZNSaISt10shared_ptrI13ThreadContextEEC2ERKS2_
FNDA:4,_ZNSaISt10shared_ptrI13ThreadContextEEC2ERKS2_
FN:169,_ZNSaISt23_Sp_counted_ptr_inplaceI13ThreadContextSaIS0_ELN9__gnu_cxx12_Lock_policyE2EEEC2IS0_EERKSaIT_E
FNDA:40,_ZNSaISt23_Sp_counted_ptr_inplaceI13ThreadContextSaIS0_ELN9__gnu_cxx12_Lock_policyE2EEEC2IS0_EERKSaIT_E
FN:174,_ZNSaISt23_Sp_counted_ptr_inplaceI13ThreadContextSaIS0_ELN9__gnu_cxx12_Lock_policyE2EEED2Ev
FNDA:40,_ZNSaISt23_Sp_counted_ptr_inplaceI13ThreadContextSaIS0_ELN9__gnu_cxx12_Lock_policyE2EEED2Ev
FN:174,_ZNSaI13ThreadContextED2Ev
FNDA:80,_ZNSaI13ThreadContextED2Ev
FN:174,_ZNSaISt10shared_ptrI13ThreadContextEED2Ev
FNDA:6,_ZNSaISt10shared_ptrI13ThreadContextEED2Ev
DA:156,20
DA:156,2
DA:159,60
DA:160,60
DA:159,4
DA:160,4
DA:169,40
DA:174,40
DA:174,80
DA:174,6
end_of_record
SF:/home/eladubuntu/Git Projects/OS_2024-FINAL_PROJECT_MST/ThreadContext.hpp
FN:39,_ZN13ThreadContextC2Ev
FNDA:20,_ZN13ThreadContextC2Ev
FN:44,_ZN13ThreadContextD2Ev
FNDA:20,_ZN13ThreadContextD2Ev
FN:58,_ZN13ThreadContext9addHandleEiSt8functionIFvvEE
FNDA:2,_ZN13ThreadContext9addHandleEiSt8functionIFvvEE
FN:64,_ZN13ThreadContext12executeEventEv
FNDA:2,_ZN13ThreadContext12executeEventEv
FN:66,_ZNK13ThreadContext5getIdEv
FNDA:68,_ZNK13ThreadContext5getIdEv
FN:71,_ZN13ThreadContextneERKS_
FNDA:5,_ZN13ThreadContextneERKS_
FN:85,_ZN13ThreadContext7isAwakeEv
FNDA:3,_ZN13ThreadContext7isAwakeEv
FN:100,_ZN13ThreadContext6notifyEv
FNDA:20,_ZN13ThreadContext6notifyEv
FN:103,_ZN13ThreadContext4joinEv
FNDA:20,_ZN13ThreadContext4joinEv
FN:104,_ZN13ThreadContext6cancelEv
FNDA:20,_ZN13ThreadContext6cancelEv
DA:39,20
DA:44,20
DA:58,2
DA:64,2
DA:66,68
DA:71,5
DA:85,3
DA:100,20
DA:103,20
DA:104,20
end_of_record
SF:/usr/include/c++/11/bits/std_function.h
FN:85,_ZNSt9_Any_data9_M_accessEv
FNDA:0,_ZNSt9_Any_data9_M_accessEv
FN:86,_ZNKSt9_Any_data9_M_accessEv
FNDA:0,_ZNKSt9_Any_data9_M_accessEv
FN:90,_ZNSt9_Any_data9_M_accessIPSt5_BindIFM12LFThreadPoolFviEPS2_mEEEERT_v
FNDA:80,_ZNSt9_Any_data9_M_accessIPSt5_BindIFM12LFThreadPoolFviEPS2_mEEEERT_v
FN:90,_ZNSt9_Any_data9_M_accessIPKSt9type_infoEERT_v
FNDA:0,_ZNSt9_Any_data9_M_accessIPKSt9type_infoEERT_v
FN:95,_ZNKSt9_Any_data9_M_accessIPSt5_BindIFM12LFThreadPoolFviEPS2_mEEEERKT_v
FNDA:40,_ZNKSt9_Any_data9_M_accessIPSt5_BindIFM12LFThreadPoolFviEPS2_mEEEERKT_v
FN:134,_ZNSt14_Function_base13_Base_managerISt5_BindIFM12LFThreadPoolFviEPS2_mEEE14_M_get_pointerERKSt9_Any_data
FNDA:40,_ZNSt14_Function_base13_Base_managerISt5_BindIFM12LFThreadPoolFviEPS2_mEEE14_M_get_pointerERKSt9_Any_data
FN:158,_ZNSt14_Function_base13_Base_managerISt5_BindIFM12LFThreadPoolFviEPS2_mEEE9_M_createIRKS7_EEvRSt9_Any_dataOT_St17integral_constantIbLb0EE
FNDA:20,_ZNSt14_Function_base13_Base_managerISt5_BindIFM12LFThreadPoolFviEPS2_mEEE9_M_createIRKS7_EEvRSt9_Any_dataOT_St17integral_constantIbLb0EE
FN:158,_ZNSt14_Function_base13_Base_managerISt5_BindIFM12LFThreadPoolFviEPS2_mEEE9_M_createIS7_EEvRSt9_Any_dataOT_St17integral_constantIbLb0EE
FNDA:20,_ZNSt14_Function_base13_Base_managerISt5_BindIFM12LFThreadPoolFviEPS2_mEEE9_M_createIS7_EEvRSt9_Any_dataOT_St17integral_constantIbLb0EE
FN:173,_ZNSt14_Function_base13_Base_managerISt5_BindIFM12LFThreadPoolFviEPS2_mEEE10_M_destroyERSt9_Any_dataSt17integral_constantIbLb0EE
FNDA:40,_ZNSt14_Function_base13_Base_managerISt5_BindIFM12LFThreadPoolFviEPS2_mEEE10_M_destroyERSt9_Any_dataSt17integral_constantIbLb0EE
FN:180,_ZNSt14_Function_base13_Base_managerISt5_BindIFM12LFThreadPoolFviEPS2_mEEE10_M_managerERSt9_Any_dataRKS9_St18_Manager_operation
FNDA:60,_ZNSt14_Function_base13_Base_managerISt5_BindIFM12LFThreadPoolFviEPS2_mEEE10_M_managerERSt9_Any_dataRKS9_St18_Manager_operation
FN:211,_ZNSt14_Function_base13_Base_managerISt5_BindIFM12LFThreadPoolFviEPS2_mEEE15_M_init_functorIS7_EEvRSt9_Any_dataOT_
FNDA:20,_ZNSt14_Function_base13_Base_managerISt5_BindIFM12LFThreadPoolFviEPS2_mEEE15_M_init_functorIS7_EEvRSt9_Any_dataOT_
FN:211,_ZNSt14_Function_base13_Base_managerISt5_BindIFM12LFThreadPoolFviEPS2_mEEE15_M_init_functorIRKS7_EEvRSt9_Any_dataOT_
FNDA:20,_ZNSt14_Function_base13_Base_managerISt5_BindIFM12LFThreadPoolFviEPS2_mEEE15_M_init_functorIRKS7_EEvRSt9_Any_dataOT_
FN:235,_ZNSt14_Function_base13_Base_managerISt5_BindIFM12LFThreadPoolFviEPS2_mEEE21_M_not_empty_functionIS7_EEbRKT_
FNDA:20,_ZNSt14_Function_base13_Base_managerISt5_BindIFM12LFThreadPoolFviEPS2_mEEE21_M_not_empty_functionIS7_EEbRKT_
FN:239,_ZNSt14_Function_baseC2Ev
FNDA:0,_ZNSt14_Function_baseC2Ev
FN:241,_ZNSt14_Function_baseD2Ev
FNDA:0,_ZNSt14_Function_baseD2Ev
FN:247,_ZNKSt14_Function_base8_M_emptyEv
FNDA:0,_ZNKSt14_Function_base8_M_emptyEv
FN:267,_ZNSt17_Function_handlerIFvvESt5_BindIFM12LFThreadPoolFviEPS2_mEEE10_M_managerERSt9_Any_dataRKS9_St18_Manager_operation
FNDA:60,_ZNSt17_Function_handlerIFvvESt5_BindIFM12LFThreadPoolFviEPS2_mEEE10_M_managerERSt9_Any_dataRKS9_St18_Manager_operation
FN:288,_ZNSt17_Function_handlerIFvvESt5_BindIFM12LFThreadPoolFviEPS2_mEEE9_M_invokeERKSt9_Any_data
FNDA:20,_ZNSt17_Function_handlerIFvvESt5_BindIFM12LFThreadPoolFviEPS2_mEEE9_M_invokeERKSt9_Any_data
FN:368,_ZNSt8functionIFvvEEC2Ev
FNDA:22,_ZNSt8functionIFvvEEC2Ev
FN:386,_ZNSt8functionIFvvEEC2ERKS1_
FNDA:0,_ZNSt8functionIFvvEEC2ERKS1_
FN:435,_ZNSt8functionIFvvEEC2ISt5_BindIFM12LFThreadPoolFviEPS4_mEEvEEOT_
FNDA:20,_ZNSt8functionIFvvEEC2ISt5_BindIFM12LFThreadPoolFviEPS4_mEEvEEOT_
FN:469,_ZNSt8functionIFvvEEaSERKS1_
FNDA:4,_ZNSt8functionIFvvEEaSERKS1_
FN:555,_ZNSt8functionIFvvEE4swapERS1_
FNDA:4,_ZNSt8functionIFvvEE4swapERS1_
FN:572,_ZNKSt8functionIFvvEEcvbEv
FNDA:0,_ZNKSt8functionIFvvEEcvbEv
FN:586,_ZNKSt8functionIFvvEEclEv
FNDA:24,_ZNKSt8functionIFvvEEclEv
DA:85,0
DA:86,0
DA:90,80
DA:91,80
DA:90,0
DA:91,0
DA:95,40
DA:96,40
DA:134,40
DA:142,40
DA:158,20
DA:160,20
DA:161,20
DA:162,20
DA:158,20
DA:160,20
DA:161,20
DA:162,20
DA:173,40
DA:175,40
DA:176,40
DA:180,60
DA:183,60
DA:185,0
DA:187,0
DA:191,0
DA:193,0
DA:194,0
DA:195,0
DA:197,20
DA:198,20
DA:199,20
DA:200,20
DA:202,40
DA:203,40
DA:204,40
DA:206,60
DA:211,20
DA:215,20
DA:216,20
DA:211,20
DA:215,20
DA:216,20
DA:235,20
DA:236,20
DA:239,0
DA:241,0
DA:243,0
DA:244,0
DA:245,0
DA:247,0
DA:267,60
DA:270,60
DA:273,0
DA:274,0
DA:275,0
DA:277,0
DA:278,0
DA:279,0
DA:281,60
DA:282,60
DA:284,60
DA:288,20
DA:290,20
DA:291,18
DA:368,22
DA:369,22
DA:386,0
DA:387,0
DA:389,0
DA:391,0
DA:392,0
DA:393,0
DA:395,0
DA:435,20
DA:437,20
DA:447,20
DA:449,20
DA:451,20
DA:452,20
DA:454,20
DA:469,4
DA:471,4
DA:472,4
DA:555,4
DA:557,4
DA:558,4
DA:559,4
DA:560,4
DA:572,0
DA:573,0
DA:586,24
DA:588,24
DA:589,0
DA:590,24
end_of_record
SF:/usr/include/c++/11/functional
FN:382,_ZNVKSt3_MuImLb0ELb0EEclIRmSt5tupleIJEEEEOT_S6_RT0_
FNDA:20,_ZNVKSt3_MuImLb0ELb0EEclIRmSt5tupleIJEEEEOT_S6_RT0_
FN:382,_ZNVKSt3_MuIP12LFThreadPoolLb0ELb0EEclIRS1_St5tupleIJEEEEOT_S8_RT0_
FNDA:20,_ZNVKSt3_MuIP12LFThreadPoolLb0ELb0EEclIRS1_St5tupleIJEEEEOT_S8_RT0_
FN:418,_ZNSt5_BindIFM12LFThreadPoolFviEPS0_mEE6__callIvJEJLm0ELm1EEEET_OSt5tupleIJDpT0_EESt12_Index_tupleIJXspT1_EEE
FNDA:20,_ZNSt5_BindIFM12LFThreadPoolFviEPS0_mEE6__callIvJEJLm0ELm1EEEET_OSt5tupleIJDpT0_EESt12_Index_tupleIJXspT1_EEE
FN:489,_ZNSt5_BindIFM12LFThreadPoolFviEPS0_mEEC2IJS3_RmEEEOS2_DpOT_
FNDA:20,_ZNSt5_BindIFM12LFThreadPoolFviEPS0_mEEC2IJS3_RmEEEOS2_DpOT_
FN:494,_ZNSt5_BindIFM12LFThreadPoolFviEPS0_mEEC2EOS5_
FNDA:20,_ZNSt5_BindIFM12LFThreadPoolFviEPS0_mEEC2EOS5_
FN:501,_ZNSt5_BindIFM12LFThreadPoolFviEPS0_mEEclIJEvEET0_DpOT_
FNDA:20,_ZNSt5_BindIFM12LFThreadPoolFviEPS0_mEEclIJEvEET0_DpOT_
FN:789,_ZSt4bindIM12LFThreadPoolFviEJPS0_RmEENSt12_Bind_helperIXsrSt5__or_IJSt11is_integralINSt5decayIT_E4typeEESt7is_enumISB_EEE5valueES9_JDpT0_EE4typeEOS9_DpOSG_
FNDA:20,_ZSt4bindIM12LFThreadPoolFviEJPS0_RmEENSt12_Bind_helperIXsrSt5__or_IJSt11is_integralINSt5decayIT_E4typeEESt7is_enumISB_EEE5valueES9_JDpT0_EE4typeEOS9_DpOSG_
DA:382,20
DA:383,20
DA:382,20
DA:383,20
DA:418,20
DA:420,40
DA:421,42
DA:422,18
DA:489,20
DA:490,20
DA:491,20
DA:494,20
DA:501,20
DA:503,20
DA:504,20
DA:505,18
DA:789,20
DA:793,20
end_of_record
SF:/usr/include/c++/11/bits/unique_ptr.h
FN:79,_ZNKSt14default_deleteISt8functionIFvvEEEclEPS2_
FNDA:20,_ZNKSt14default_deleteISt8functionIFvvEEEclEPS2_
FN:154,_ZNSt15__uniq_ptr_implISt8functionIFvvEESt14default_deleteIS2_EEC2Ev
FNDA:20,_ZNSt15__uniq_ptr_implISt8functionIFvvEESt14default_deleteIS2_EEC2Ev
FN:172,_ZNSt15__uniq_ptr_implISt8functionIFvvEESt14default_deleteIS2_EE6_M_ptrEv
FNDA:180,_ZNSt15__uniq_ptr_implISt8functionIFvvEESt14default_deleteIS2_EE6_M_ptrEv
FN:174,_ZNSt15__uniq_ptr_implISt8functionIFvvEESt14default_deleteIS2_EE10_M_deleterEv
FNDA:60,_ZNSt15__uniq_ptr_implISt8functionIFvvEESt14default_deleteIS2_EE10_M_deleterEv
FN:177,_ZNSt15__uniq_ptr_implISt8functionIFvvEESt14default_deleteIS2_EE5resetEPS2_
FNDA:40,_ZNSt15__uniq_ptr_implISt8functionIFvvEESt14default_deleteIS2_EE5resetEPS2_
FN:269,_ZNSt10unique_ptrISt8functionIFvvEESt14default_deleteIS2_EEC2IS4_vEEv
FNDA:20,_ZNSt10unique_ptrISt8functionIFvvEESt14default_deleteIS2_EEC2IS4_vEEv
FN:355,_ZNSt10unique_ptrISt8functionIFvvEESt14default_deleteIS2_EED2Ev
FNDA:40,_ZNSt10unique_ptrISt8functionIFvvEESt14default_deleteIS2_EED2Ev
FN:426,_ZNSt10unique_ptrISt8functionIFvvEESt14default_deleteIS2_EE11get_deleterEv
FNDA:0,_ZNSt10unique_ptrISt8functionIFvvEESt14default_deleteIS2_EE11get_deleterEv
FN:452,_ZNSt10unique_ptrISt8functionIFvvEESt14default_deleteIS2_EE5resetEPS2_
FNDA:20,_ZNSt10unique_ptrISt8functionIFvvEESt14default_deleteIS2_EE5resetEPS2_
DA:79,20
DA:85,20
DA:86,20
DA:154,20
DA:172,180
DA:174,60
DA:177,40
DA:179,40
DA:180,40
DA:181,40
DA:182,20
DA:183,40
DA:269,20
DA:270,20
DA:271,20
DA:355,40
DA:359,40
DA:360,40
DA:361,0
DA:362,40
DA:363,40
DA:426,0
DA:427,0
DA:452,20
DA:456,20
DA:457,20
end_of_record
SF:/usr/include/c++/11/bits/unique_lock.h
FN:66,_ZNSt11unique_lockISt5mutexEC2ERS0_
FNDA:0,_ZNSt11unique_lockISt5mutexEC2ERS0_
FN:101,_ZNSt11unique_lockISt5mutexED2Ev
FNDA:0,_ZNSt11unique_lockISt5mutexED2Ev
FN:131,_ZNSt11unique_lockISt5mutexE4lockEv
FNDA:0,_ZNSt11unique_lockISt5mutexE4lockEv
FN:189,_ZNSt11unique_lockISt5mutexE6unlockEv
FNDA:0,_ZNSt11unique_lockISt5mutexE6unlockEv
DA:66,0
DA:67,0
DA:69,0
DA:70,0
DA:71,0
DA:101,0
DA:103,0
DA:104,0
DA:105,0
DA:131,0
DA:133,0
DA:134,0
DA:135,0
DA:136,0
DA:139,0
DA:140,0
DA:142,0
DA:189,0
DA:191,0
DA:192,0
DA:193,0
DA:195,0
DA:196,0
DA:198,0
end_of_record
SF:/usr/include/c++/11/bits/stl_algobase.h
FN:230,_ZSt3minImERKT_S2_S2_
FNDA:0,_ZSt3minImERKT_S2_S2_
DA:230,0
DA:235,0
DA:236,0
DA:237,0
end_of_record
SF:/usr/include/c++/11/tuple
FN:80,_ZNSt10_Head_baseILm1ESt14default_deleteISt8functionIFvvEEELb1EEC2Ev
FNDA:40,_ZNSt10_Head_baseILm1ESt14default_deleteISt8functionIFvvEEELb1EEC2Ev
FN:124,_ZNSt10_Head_baseILm1ESt14default_deleteISt8functionIFvvEEELb1EE7_M_headERS5_
FNDA:60,_ZNSt10_Head_baseILm1ESt14default_deleteISt8functionIFvvEEELb1EE7_M_headERS5_
FN:189,_ZNSt10_Head_baseILm0EPSt8functionIFvvEELb0EEC2Ev
FNDA:40,_ZNSt10_Head_baseILm0EPSt8functionIFvvEELb0EEC2Ev
FN:199,_ZNSt10_Head_baseILm0EP12LFThreadPoolLb0EEC2IS1_EEOT_
FNDA:20,_ZNSt10_Head_baseILm0EP12LFThreadPoolLb0EEC2IS1_EEOT_
FN:199,_ZNSt10_Head_baseILm1EmLb0EEC2IRmEEOT_
FNDA:20,_ZNSt10_Head_baseILm1EmLb0EEC2IRmEEOT_
FN:233,_ZNSt10_Head_baseILm0EP12LFThreadPoolLb0EE7_M_headERS2_
FNDA:0,_ZNSt10_Head_baseILm0EP12LFThreadPoolLb0EE7_M_headERS2_
FN:233,_ZNSt10_Head_baseILm1EmLb0EE7_M_headERS0_
FNDA:20,_ZNSt10_Head_baseILm1EmLb0EE7_M_headERS0_
FN:233,_ZNSt10_Head_baseILm0EPSt8functionIFvvEELb0EE7_M_headERS4_
FNDA:180,_ZNSt10_Head_baseILm0EPSt8functionIFvvEELb0EE7_M_headERS4_
FN:268,_ZNSt11_Tuple_implILm0EJPSt8functionIFvvEESt14default_deleteIS2_EEE7_M_headERS6_
FNDA:180,_ZNSt11_Tuple_implILm0EJPSt8functionIFvvEESt14default_deleteIS2_EEE7_M_headERS6_
FN:268,_ZNSt11_Tuple_implILm0EJP12LFThreadPoolmEE7_M_headERS2_
FNDA:20,_ZNSt11_Tuple_implILm0EJP12LFThreadPoolmEE7_M_headERS2_
FN:279,_ZNSt11_Tuple_implILm0EJPSt8functionIFvvEESt14default_deleteIS2_EEEC2Ev
FNDA:40,_ZNSt11_Tuple_implILm0EJPSt8functionIFvvEESt14default_deleteIS2_EEEC2Ev
FN:290,_ZNSt11_Tuple_implILm0EJP12LFThreadPoolmEEC2IS1_JRmEvEEOT_DpOT0_
FNDA:20,_ZNSt11_Tuple_implILm0EJP12LFThreadPoolmEEC2IS1_JRmEvEEOT_DpOT0_
FN:301,_ZNSt11_Tuple_implILm0EJP12LFThreadPoolmEEC2EOS2_
FNDA:20,_ZNSt11_Tuple_implILm0EJP12LFThreadPoolmEEC2EOS2_
FN:424,_ZNSt11_Tuple_implILm1EJSt14default_deleteISt8functionIFvvEEEEE7_M_headERS5_
FNDA:60,_ZNSt11_Tuple_implILm1EJSt14default_deleteISt8functionIFvvEEEEE7_M_headERS5_
FN:424,_ZNSt11_Tuple_implILm1EJmEE7_M_headERS0_
FNDA:20,_ZNSt11_Tuple_implILm1EJmEE7_M_headERS0_
FN:430,_ZNSt11_Tuple_implILm1EJSt14default_deleteISt8functionIFvvEEEEEC2Ev
FNDA:40,_ZNSt11_Tuple_implILm1EJSt14default_deleteISt8functionIFvvEEEEEC2Ev
FN:440,_ZNSt11_Tuple_implILm1EJmEEC2IRmEEOT_
FNDA:20,_ZNSt11_Tuple_implILm1EJmEEC2IRmEEOT_
FN:454,_ZNSt11_Tuple_implILm1EJmEEC2EOS0_
FNDA:20,_ZNSt11_Tuple_implILm1EJmEEC2EOS0_
FN:1049,_ZNSt5tupleIJPSt8functionIFvvEESt14default_deleteIS2_EEEC2ILb1ELb1EEEv
FNDA:40,_ZNSt5tupleIJPSt8functionIFvvEESt14default_deleteIS2_EEEC2ILb1ELb1EEEv
FN:1077,_ZNSt5tupleIJP12LFThreadPoolmEEC2IS1_RmLb1EEEOT_OT0_
FNDA:20,_ZNSt5tupleIJP12LFThreadPoolmEEC2IS1_RmLb1EEEOT_OT0_
FN:1090,_ZNSt5tupleIJP12LFThreadPoolmEEC2EOS2_
FNDA:20,_ZNSt5tupleIJP12LFThreadPoolmEEC2EOS2_
FN:1377,_ZSt12__get_helperILm0EPSt8functionIFvvEEJSt14default_deleteIS2_EEERT0_RSt11_Tuple_implIXT_EJS6_DpT1_EE
FNDA:180,_ZSt12__get_helperILm0EPSt8functionIFvvEEJSt14default_deleteIS2_EEERT0_RSt11_Tuple_implIXT_EJS6_DpT1_EE
FN:1377,_ZSt12__get_helperILm1ESt14default_deleteISt8functionIFvvEEEJEERT0_RSt11_Tuple_implIXT_EJS5_DpT1_EE
FNDA:60,_ZSt12__get_helperILm1ESt14default_deleteISt8functionIFvvEEEJEERT0_RSt11_Tuple_implIXT_EJS5_DpT1_EE
FN:1377,_ZSt12__get_helperILm0EP12LFThreadPoolJmEERT0_RSt11_Tuple_implIXT_EJS2_DpT1_EE
FNDA:20,_ZSt12__get_helperILm0EP12LFThreadPoolJmEERT0_RSt11_Tuple_implIXT_EJS2_DpT1_EE
FN:1377,_ZSt12__get_helperILm1EmJEERT0_RSt11_Tuple_implIXT_EJS0_DpT1_EE
FNDA:20,_ZSt12__get_helperILm1EmJEERT0_RSt11_Tuple_implIXT_EJS0_DpT1_EE
FN:1393,_ZSt3getILm1EJPSt8functionIFvvEESt14default_deleteIS2_EEERNSt13tuple_elementIXT_ESt5tupleIJDpT0_EEE4typeERSA_
FNDA:60,_ZSt3getILm1EJPSt8functionIFvvEESt14default_deleteIS2_EEERNSt13tuple_elementIXT_ESt5tupleIJDpT0_EEE4typeERSA_
FN:1393,_ZSt3getILm0EJPSt8functionIFvvEESt14default_deleteIS2_EEERNSt13tuple_elementIXT_ESt5tupleIJDpT0_EEE4typeERSA_
FNDA:180,_ZSt3getILm0EJPSt8functionIFvvEESt14default_deleteIS2_EEERNSt13tuple_elementIXT_ESt5tupleIJDpT0_EEE4typeERSA_
FN:1393,_ZSt3getILm0EJP12LFThreadPoolmEERNSt13tuple_elementIXT_ESt5tupleIJDpT0_EEE4typeERS6_
FNDA:20,_ZSt3getILm0EJP12LFThreadPoolmEERNSt13tuple_elementIXT_ESt5tupleIJDpT0_EEE4typeERS6_
FN:1393,_ZSt3getILm1EJP12LFThreadPoolmEERNSt13tuple_elementIXT_ESt5tupleIJDpT0_EEE4typeERS6_
FNDA:20,_ZSt3getILm1EJP12LFThreadPoolmEERNSt13tuple_elementIXT_ESt5tupleIJDpT0_EEE4typeERS6_
FN:1617,_ZSt16forward_as_tupleIJEESt5tupleIJDpOT_EES3_
FNDA:20,_ZSt16forward_as_tupleIJEESt5tupleIJDpOT_EES3_
DA:80,40
DA:81,40
DA:124,60
DA:189,40
DA:190,40
DA:199,20
DA:200,20
DA:199,20
DA:200,20
DA:233,20
DA:233,0
DA:233,180
DA:268,20
DA:268,180
DA:279,40
DA:280,40
DA:290,20
DA:292,20
DA:293,20
DA:301,20
DA:424,20
DA:424,60
DA:430,40
DA:431,40
DA:440,20
DA:441,20
DA:442,20
DA:454,20
DA:456,20
DA:457,20
DA:1049,40
DA:1051,40
DA:1077,20
DA:1079,20
DA:1090,20
DA:1377,20
DA:1378,20
DA:1377,20
DA:1378,20
DA:1377,60
DA:1378,60
DA:1377,180
DA:1378,180
DA:1393,20
DA:1394,20
DA:1393,20
DA:1394,20
DA:1393,60
DA:1394,60
DA:1393,180
DA:1394,180
DA:1617,20
DA:1618,20
end_of_record
SF:/usr/include/c++/11/ext/aligned_buffer.h
FN:102,_ZN9__gnu_cxx16__aligned_bufferI13ThreadContextE7_M_addrEv
FNDA:60,_ZN9__gnu_cxx16__aligned_bufferI13ThreadContextE7_M_addrEv
FN:114,_ZN9__gnu_cxx16__aligned_bufferI13ThreadContextE6_M_ptrEv
FNDA:60,_ZN9__gnu_cxx16__aligned_bufferI13ThreadContextE6_M_ptrEv
DA:102,60
DA:104,60
DA:114,60
DA:115,60
end_of_record
SF:/usr/include/c++/11/bits/stl_uninitialized.h
FN:573,_ZNSt27__uninitialized_default_n_1ILb0EE18__uninit_default_nIPSt10shared_ptrI13ThreadContextEmEET_S6_T0_
FNDA:2,_ZNSt27__uninitialized_default_n_1ILb0EE18__uninit_default_nIPSt10shared_ptrI13ThreadContextEmEET_S6_T0_
FN:630,_ZSt25__uninitialized_default_nIPSt10shared_ptrI13ThreadContextEmET_S4_T0_
FNDA:2,_ZSt25__uninitialized_default_nIPSt10shared_ptrI13ThreadContextEmET_S4_T0_
FN:702,_ZSt27__uninitialized_default_n_aIPSt10shared_ptrI13ThreadContextEmS2_ET_S4_T0_RSaIT1_E
FNDA:2,_ZSt27__uninitialized_default_n_aIPSt10shared_ptrI13ThreadContextEmS2_ET_S4_T0_RSaIT1_E
DA:573,2
DA:575,2
DA:578,22
DA:579,20
DA:580,2
DA:630,2
DA:635,2
DA:640,2
DA:702,2
DA:704,2
end_of_record
SF:/usr/include/c++/11/bits/stl_vector.h
FN:97,_ZNSt12_Vector_baseISt10shared_ptrI13ThreadContextESaIS2_EE17_Vector_impl_dataC2Ev
FNDA:2,_ZNSt12_Vector_baseISt10shared_ptrI13ThreadContextESaIS2_EE17_Vector_impl_dataC2Ev
FN:136,_ZNSt12_Vector_baseISt10shared_ptrI13ThreadContextESaIS2_EE12_Vector_implC2ERKS3_
FNDA:2,_ZNSt12_Vector_baseISt10shared_ptrI13ThreadContextESaIS2_EE12_Vector_implC2ERKS3_
FN:276,_ZNSt12_Vector_baseISt10shared_ptrI13ThreadContextESaIS2_EE19_M_get_Tp_allocatorEv
FNDA:6,_ZNSt12_Vector_baseISt10shared_ptrI13ThreadContextESaIS2_EE19_M_get_Tp_allocatorEv
FN:303,_ZNSt12_Vector_baseISt10shared_ptrI13ThreadContextESaIS2_EEC2EmRKS3_
FNDA:2,_ZNSt12_Vector_baseISt10shared_ptrI13ThreadContextESaIS2_EEC2EmRKS3_
FN:333,_ZNSt12_Vector_baseISt10shared_ptrI13ThreadContextESaIS2_EED2Ev
FNDA:2,_ZNSt12_Vector_baseISt10shared_ptrI13ThreadContextESaIS2_EED2Ev
FN:343,_ZNSt12_Vector_baseISt10shared_ptrI13ThreadContextESaIS2_EE11_M_allocateEm
FNDA:2,_ZNSt12_Vector_baseISt10shared_ptrI13ThreadContextESaIS2_EE11_M_allocateEm
FN:350,_ZNSt12_Vector_baseISt10shared_ptrI13ThreadContextESaIS2_EE13_M_deallocateEPS2_m
FNDA:2,_ZNSt12_Vector_baseISt10shared_ptrI13ThreadContextESaIS2_EE13_M_deallocateEPS2_m
FN:359,_ZNSt12_Vector_baseISt10shared_ptrI13ThreadContextESaIS2_EE17_M_create_storageEm
FNDA:2,_ZNSt12_Vector_baseISt10shared_ptrI13ThreadContextESaIS2_EE17_M_create_storageEm
FN:510,_ZNSt6vectorISt10shared_ptrI13ThreadContextESaIS2_EEC2EmRKS3_
FNDA:2,_ZNSt6vectorISt10shared_ptrI13ThreadContextESaIS2_EEC2EmRKS3_
FN:678,_ZNSt6vectorISt10shared_ptrI13ThreadContextESaIS2_EED2Ev
FNDA:2,_ZNSt6vectorISt10shared_ptrI13ThreadContextESaIS2_EED2Ev
FN:811,_ZNSt6vectorISt10shared_ptrI13ThreadContextESaIS2_EE5beginEv
FNDA:10,_ZNSt6vectorISt10shared_ptrI13ThreadContextESaIS2_EE5beginEv
FN:829,_ZNSt6vectorISt10shared_ptrI13ThreadContextESaIS2_EE3endEv
FNDA:6,_ZNSt6vectorISt10shared_ptrI13ThreadContextESaIS2_EE3endEv
FN:1043,_ZNSt6vectorISt10shared_ptrI13ThreadContextESaIS2_EEixEm
FNDA:104,_ZNSt6vectorISt10shared_ptrI13ThreadContextESaIS2_EEixEm
FN:1498,_ZNSt6vectorISt10shared_ptrI13ThreadContextESaIS2_EE5clearEv
FNDA:2,_ZNSt6vectorISt10shared_ptrI13ThreadContextESaIS2_EE5clearEv
FN:1603,_ZNSt6vectorISt10shared_ptrI13ThreadContextESaIS2_EE21_M_default_initializeEm
FNDA:2,_ZNSt6vectorISt10shared_ptrI13ThreadContextESaIS2_EE21_M_default_initializeEm
FN:1767,_ZNSt6vectorISt10shared_ptrI13ThreadContextESaIS2_EE17_S_check_init_lenEmRKS3_
FNDA:2,_ZNSt6vectorISt10shared_ptrI13ThreadContextESaIS2_EE17_S_check_init_lenEmRKS3_
FN:1776,_ZNSt6vectorISt10shared_ptrI13ThreadContextESaIS2_EE11_S_max_sizeERKS3_
FNDA:2,_ZNSt6vectorISt10shared_ptrI13ThreadContextESaIS2_EE11_S_max_sizeERKS3_
FN:1792,_ZNSt6vectorISt10shared_ptrI13ThreadContextESaIS2_EE15_M_erase_at_endEPS2_
FNDA:2,_ZNSt6vectorISt10shared_ptrI13ThreadContextESaIS2_EE15_M_erase_at_endEPS2_
DA:97,2
DA:98,2
DA:99,2
DA:136,2
DA:137,2
DA:138,2
DA:276,6
DA:277,6
DA:303,2
DA:304,2
DA:305,2
DA:333,2
DA:335,2
DA:336,2
DA:337,2
DA:343,2
DA:346,2
DA:350,2
DA:353,2
DA:354,2
DA:355,2
DA:359,2
DA:361,2
DA:362,2
DA:363,2
DA:364,2
DA:510,2
DA:511,2
DA:512,2
DA:678,2
DA:680,2
DA:681,2
DA:683,2
DA:811,10
DA:812,10
DA:829,6
DA:830,6
DA:1043,104
DA:1046,104
DA:1498,2
DA:1499,2
DA:1603,2
DA:1605,2
DA:1606,2
DA:1607,2
DA:1608,2
DA:1767,2
DA:1769,2
DA:1770,0
DA:1772,2
DA:1776,2
DA:1781,2
DA:1783,2
DA:1784,2
DA:1792,2
DA:1794,2
DA:1796,2
DA:1797,2
DA:1798,2
DA:1801,2
end_of_record
SF:/usr/include/c++/11/typeinfo
FN:120,_ZNKSt9type_infoeqERKS_
FNDA:0,_ZNKSt9type_infoeqERKS_
DA:120,0
DA:122,0
DA:123,0
DA:124,0
end_of_record
SF:/usr/include/c++/11/bits/move.h
FN:49,_ZSt11__addressofISaISt23_Sp_counted_ptr_inplaceI13ThreadContextSaIS1_ELN9__gnu_cxx12_Lock_policyE2EEEEPT_RS7_
FNDA:40,_ZSt11__addressofISaISt23_Sp_counted_ptr_inplaceI13ThreadContextSaIS1_ELN9__gnu_cxx12_Lock_policyE2EEEEPT_RS7_
FN:49,_ZSt11__addressofISt10shared_ptrI13ThreadContextEEPT_RS3_
FNDA:40,_ZSt11__addressofISt10shared_ptrI13ThreadContextEEPT_RS3_
FN:49,_ZSt11__addressofISt5mutexEPT_RS1_
FNDA:0,_ZSt11__addressofISt5mutexEPT_RS1_
FN:77,_ZSt7forwardIRP12LFThreadPoolEOT_RNSt16remove_referenceIS3_E4typeE
FNDA:60,_ZSt7forwardIRP12LFThreadPoolEOT_RNSt16remove_referenceIS3_E4typeE
FN:77,_ZSt7forwardIRKSt5_BindIFM12LFThreadPoolFviEPS1_mEEEOT_RNSt16remove_referenceIS9_E4typeE
FNDA:40,_ZSt7forwardIRKSt5_BindIFM12LFThreadPoolFviEPS1_mEEEOT_RNSt16remove_referenceIS9_E4typeE
FN:77,_ZSt7forwardIRSt5_BindIFM12LFThreadPoolFviEPS1_mEEEOT_RNSt16remove_referenceIS8_E4typeE
FNDA:40,_ZSt7forwardIRSt5_BindIFM12LFThreadPoolFviEPS1_mEEEOT_RNSt16remove_referenceIS8_E4typeE
FN:77,_ZSt7forwardIRM12LFThreadPoolFviEEOT_RNSt16remove_referenceIS4_E4typeE
FNDA:20,_ZSt7forwardIRM12LFThreadPoolFviEEOT_RNSt16remove_referenceIS4_E4typeE
FN:77,_ZSt7forwardIM12LFThreadPoolFviEEOT_RNSt16remove_referenceIS3_E4typeE
FNDA:20,_ZSt7forwardIM12LFThreadPoolFviEEOT_RNSt16remove_referenceIS3_E4typeE
FN:77,_ZSt7forwardIP12LFThreadPoolEOT_RNSt16remove_referenceIS2_E4typeE
FNDA:100,_ZSt7forwardIP12LFThreadPoolEOT_RNSt16remove_referenceIS2_E4typeE
FN:77,_ZSt7forwardIRmEOT_RNSt16remove_referenceIS1_E4typeE
FNDA:180,_ZSt7forwardIRmEOT_RNSt16remove_referenceIS1_E4typeE
FN:77,_ZSt7forwardISt5_BindIFM12LFThreadPoolFviEPS1_mEEEOT_RNSt16remove_referenceIS7_E4typeE
FNDA:60,_ZSt7forwardISt5_BindIFM12LFThreadPoolFviEPS1_mEEEOT_RNSt16remove_referenceIS7_E4typeE
FN:104,_ZSt4moveIRPSt8functionIFvvEEEONSt16remove_referenceIT_E4typeEOS6_
FNDA:20,_ZSt4moveIRPSt8functionIFvvEEEONSt16remove_referenceIT_E4typeEOS6_
FN:104,_ZSt4moveIRSt10shared_ptrI13ThreadContextEEONSt16remove_referenceIT_E4typeEOS5_
FNDA:20,_ZSt4moveIRSt10shared_ptrI13ThreadContextEEONSt16remove_referenceIT_E4typeEOS5_
FN:104,_ZSt4moveIRSt9_Any_dataEONSt16remove_referenceIT_E4typeEOS3_
FNDA:0,_ZSt4moveIRSt9_Any_dataEONSt16remove_referenceIT_E4typeEOS3_
FN:104,_ZSt4moveIRPFbRSt9_Any_dataRKS0_St18_Manager_operationEEONSt16remove_referenceIT_E4typeEOS9_
FNDA:0,_ZSt4moveIRPFbRSt9_Any_dataRKS0_St18_Manager_operationEEONSt16remove_referenceIT_E4typeEOS9_
FN:104,_ZSt4moveIRPFvRKSt9_Any_dataEEONSt16remove_referenceIT_E4typeEOS7_
FNDA:12,_ZSt4moveIRPFvRKSt9_Any_dataEEONSt16remove_referenceIT_E4typeEOS7_
FN:104,_ZSt4moveIRSt12__shared_ptrI13ThreadContextLN9__gnu_cxx12_Lock_policyE2EEEONSt16remove_referenceIT_E4typeEOS7_
FNDA:20,_ZSt4moveIRSt12__shared_ptrI13ThreadContextLN9__gnu_cxx12_Lock_policyE2EEEONSt16remove_referenceIT_E4typeEOS7_
FN:104,_ZSt4moveIRM12LFThreadPoolFviEEONSt16remove_referenceIT_E4typeEOS5_
FNDA:20,_ZSt4moveIRM12LFThreadPoolFviEEONSt16remove_referenceIT_E4typeEOS5_
FN:104,_ZSt4moveIRP13ThreadContextEONSt16remove_referenceIT_E4typeEOS4_
FNDA:126,_ZSt4moveIRP13ThreadContextEONSt16remove_referenceIT_E4typeEOS4_
FN:196,_ZSt4swapISt9_Any_dataENSt9enable_ifIXsrSt6__and_IJSt6__not_ISt15__is_tuple_likeIT_EESt21is_move_constructibleIS5_ESt18is_move_assignableIS5_EEE5valueEvE4typeERS5_SF_
FNDA:0,_ZSt4swapISt9_Any_dataENSt9enable_ifIXsrSt6__and_IJSt6__not_ISt15__is_tuple_likeIT_EESt21is_move_constructibleIS5_ESt18is_move_assignableIS5_EEE5valueEvE4typeERS5_SF_
FN:196,_ZSt4swapIPFbRSt9_Any_dataRKS0_St18_Manager_operationEENSt9enable_ifIXsrSt6__and_IJSt6__not_ISt15__is_tuple_likeIT_EESt21is_move_constructibleISB_ESt18is_move_assignableISB_EEE5valueEvE4typeERSB_SL_
FNDA:0,_ZSt4swapIPFbRSt9_Any_dataRKS0_St18_Manager_operationEENSt9enable_ifIXsrSt6__and_IJSt6__not_ISt15__is_tuple_likeIT_EESt21is_move_constructibleISB_ESt18is_move_assignableISB_EEE5valueEvE4typeERSB_SL_
FN:196,_ZSt4swapIPFvRKSt9_Any_dataEENSt9enable_ifIXsrSt6__and_IJSt6__not_ISt15__is_tuple_likeIT_EESt21is_move_constructibleIS9_ESt18is_move_assignableIS9_EEE5valueEvE4typeERS9_SJ_
FNDA:4,_ZSt4swapIPFvRKSt9_Any_dataEENSt9enable_ifIXsrSt6__and_IJSt6__not_ISt15__is_tuple_likeIT_EESt21is_move_constructibleIS9_ESt18is_move_assignableIS9_EEE5valueEvE4typeERS9_SJ_
FN:196,_ZSt4swapIP13ThreadContextENSt9enable_ifIXsrSt6__and_IJSt6__not_ISt15__is_tuple_likeIT_EESt21is_move_constructibleIS6_ESt18is_move_assignableIS6_EEE5valueEvE4typeERS6_SG_
FNDA:42,_ZSt4swapIP13ThreadContextENSt9enable_ifIXsrSt6__and_IJSt6__not_ISt15__is_tuple_likeIT_EESt21is_move_constructibleIS6_ESt18is_move_assignableIS6_EEE5valueEvE4typeERS6_SG_
DA:49,40
DA:50,40
DA:49,40
DA:50,40
DA:49,0
DA:50,0
DA:77,20
DA:78,20
DA:77,60
DA:78,60
DA:77,40
DA:78,40
DA:77,40
DA:78,40
DA:77,60
DA:78,60
DA:77,180
DA:78,180
DA:77,100
DA:78,100
DA:77,20
DA:78,20
DA:104,126
DA:105,126
DA:104,20
DA:105,20
DA:104,20
DA:105,20
DA:104,12
DA:105,12
DA:104,0
DA:105,0
DA:104,0
DA:105,0
DA:104,20
DA:105,20
DA:104,20
DA:105,20
DA:196,42
DA:204,42
DA:205,42
DA:206,42
DA:207,42
DA:196,4
DA:204,4
DA:205,4
DA:206,4
DA:207,4
DA:196,0
DA:204,0
DA:205,0
DA:206,0
DA:207,0
DA:196,0
DA:204,0
DA:205,0
DA:206,0
DA:207,0
end_of_record
SF:/usr/include/x86_64-linux-gnu/c++/11/bits/gthr-default.h
FN:300,_ZL18__gthread_active_pv
FNDA:0,_ZL18__gthread_active_pv
FN:746,_ZL20__gthread_mutex_lockP15pthread_mutex_t
FNDA:0,_ZL20__gthread_mutex_lockP15pthread_mutex_t
FN:776,_ZL22__gthread_mutex_unlockP15pthread_mutex_t
FNDA:0,_ZL22__gthread_mutex_unlockP15pthread_mutex_t
DA:300,0
DA:302,0
DA:746,0
DA:748,0
DA:749,0
DA:751,0
DA:776,0
DA:778,0
DA:779,0
DA:781,0
end_of_record
SF:/usr/include/c++/11/bits/invoke.h
FN:60,_ZSt13__invoke_implIvRSt5_BindIFM12LFThreadPoolFviEPS1_mEEJEET_St14__invoke_otherOT0_DpOT1_
FNDA:20,_ZSt13__invoke_implIvRSt5_BindIFM12LFThreadPoolFviEPS1_mEEJEET_St14__invoke_otherOT0_DpOT1_
FN:71,_ZSt13__invoke_implIvRM12LFThreadPoolFviERPS0_JRmEET_St21__invoke_memfun_derefOT0_OT1_DpOT2_
FNDA:20,_ZSt13__invoke_implIvRM12LFThreadPoolFviERPS0_JRmEET_St21__invoke_memfun_derefOT0_OT1_DpOT2_
FN:90,_ZSt8__invokeIRM12LFThreadPoolFviEJRPS0_RmEENSt15__invoke_resultIT_JDpT0_EE4typeEOS8_DpOS9_
FNDA:20,_ZSt8__invokeIRM12LFThreadPoolFviEJRPS0_RmEENSt15__invoke_resultIT_JDpT0_EE4typeEOS8_DpOS9_
FN:104,_ZSt10__invoke_rIvRSt5_BindIFM12LFThreadPoolFviEPS1_mEEJEENSt9enable_ifIX16is_invocable_r_vIT_T0_DpT1_EES9_E4typeEOSA_DpOSB_
FNDA:20,_ZSt10__invoke_rIvRSt5_BindIFM12LFThreadPoolFviEPS1_mEEJEENSt9enable_ifIX16is_invocable_r_vIT_T0_DpT1_EES9_E4typeEOSA_DpOSB_
DA:60,20
DA:61,20
DA:71,20
DA:74,20
DA:90,20
DA:96,20
DA:97,18
DA:104,20
DA:111,20
DA:117,18
end_of_record
SF:/usr/include/c++/11/bits/atomic_base.h
FN:104,_ZStanSt12memory_orderSt23__memory_order_modifier
FNDA:0,_ZStanSt12memory_orderSt23__memory_order_modifier
FN:345,_ZNSt13__atomic_baseIbEC1Eb
FNDA:24,_ZNSt13__atomic_baseIbEC1Eb
DA:104,0
DA:106,0
DA:345,24
DA:459,8
DA:464,8
DA:465,8
DA:484,109
DA:488,109
end_of_record
SF:/usr/include/c++/11/iostream
end_of_record
SF:/usr/include/c++/11/bits/shared_ptr.h
FN:148,_ZNSt10shared_ptrI13ThreadContextEC2Ev
FNDA:22,_ZNSt10shared_ptrI13ThreadContextEC2Ev
FN:150,_ZNSt10shared_ptrI13ThreadContextEC2ERKS1_
FNDA:2,_ZNSt10shared_ptrI13ThreadContextEC2ERKS1_
FN:359,_ZNSt10shared_ptrI13ThreadContextEaSERKS1_
FNDA:4,_ZNSt10shared_ptrI13ThreadContextEaSERKS1_
FN:383,_ZNSt10shared_ptrI13ThreadContextEaSEOS1_
FNDA:20,_ZNSt10shared_ptrI13ThreadContextEaSEOS1_
FN:408,_ZNSt10shared_ptrI13ThreadContextEC2ISaIS0_EJEEESt20_Sp_alloc_shared_tagIT_EDpOT0_
FNDA:20,_ZNSt10shared_ptrI13ThreadContextEC2ISaIS0_EJEEESt20_Sp_alloc_shared_tagIT_EDpOT0_
FN:443,_ZSteqI13ThreadContextEbRKSt10shared_ptrIT_EDn
FNDA:4,_ZSteqI13ThreadContextEbRKSt10shared_ptrIT_EDn
FN:858,_ZSt15allocate_sharedI13ThreadContextSaIS0_EJEESt10shared_ptrIT_ERKT0_DpOT1_
FNDA:20,_ZSt15allocate_sharedI13ThreadContextSaIS0_EJEESt10shared_ptrIT_ERKT0_DpOT1_
FN:875,_ZSt11make_sharedI13ThreadContextJEESt10shared_ptrIT_EDpOT0_
FNDA:20,_ZSt11make_sharedI13ThreadContextJEESt10shared_ptrIT_EDpOT0_
DA:148,22
DA:150,2
DA:359,4
DA:383,20
DA:385,20
DA:386,20
DA:408,20
DA:409,20
DA:410,20
DA:443,4
DA:444,4
DA:858,20
DA:863,20
DA:875,20
DA:878,40
DA:879,40
end_of_record
SF:/usr/include/c++/11/new
FN:174,_ZnwmPv
FNDA:0,_ZnwmPv
FN:180,_ZdlPvS_
FNDA:0,_ZdlPvS_
DA:174,0
DA:175,0
DA:180,0
end_of_record
SF:/usr/include/c++/11/bits/alloc_traits.h
FN:463,_ZNSt16allocator_traitsISaISt23_Sp_counted_ptr_inplaceI13ThreadContextSaIS1_ELN9__gnu_cxx12_Lock_policyE2EEEE8allocateERS6_m
FNDA:20,_ZNSt16allocator_traitsISaISt23_Sp_counted_ptr_inplaceI13ThreadContextSaIS1_ELN9__gnu_cxx12_Lock_policyE2EEEE8allocateERS6_m
FN:463,_ZNSt16allocator_traitsISaISt10shared_ptrI13ThreadContextEEE8allocateERS3_m
FNDA:2,_ZNSt16allocator_traitsISaISt10shared_ptrI13ThreadContextEEE8allocateERS3_m
FN:495,_ZNSt16allocator_traitsISaISt23_Sp_counted_ptr_inplaceI13ThreadContextSaIS1_ELN9__gnu_cxx12_Lock_policyE2EEEE10deallocateERS6_PS5_m
FNDA:20,_ZNSt16allocator_traitsISaISt23_Sp_counted_ptr_inplaceI13ThreadContextSaIS1_ELN9__gnu_cxx12_Lock_policyE2EEEE10deallocateERS6_PS5_m
FN:495,_ZNSt16allocator_traitsISaISt10shared_ptrI13ThreadContextEEE10deallocateERS3_PS2_m
FNDA:2,_ZNSt16allocator_traitsISaISt10shared_ptrI13ThreadContextEEE10deallocateERS3_PS2_m
FN:511,_ZNSt16allocator_traitsISaI13ThreadContextEE9constructIS0_JEEEvRS1_PT_DpOT0_
FNDA:20,_ZNSt16allocator_traitsISaI13ThreadContextEE9constructIS0_JEEEvRS1_PT_DpOT0_
FN:531,_ZNSt16allocator_traitsISaI13ThreadContextEE7destroyIS0_EEvRS1_PT_
FNDA:20,_ZNSt16allocator_traitsISaI13ThreadContextEE7destroyIS0_EEvRS1_PT_
FN:547,_ZNSt16allocator_traitsISaISt10shared_ptrI13ThreadContextEEE8max_sizeERKS3_
FNDA:2,_ZNSt16allocator_traitsISaISt10shared_ptrI13ThreadContextEEE8max_sizeERKS3_
FN:845,_ZSt8_DestroyIPSt10shared_ptrI13ThreadContextES2_EvT_S4_RSaIT0_E
FNDA:4,_ZSt8_DestroyIPSt10shared_ptrI13ThreadContextES2_EvT_S4_RSaIT0_E
DA:463,20
DA:464,20
DA:463,2
DA:464,2
DA:495,20
DA:496,20
DA:495,2
DA:496,2
DA:511,20
DA:516,20
DA:520,20
DA:531,20
DA:535,20
DA:539,20
DA:547,2
DA:550,2
DA:845,4
DA:848,4
DA:849,4
end_of_record
SF:/usr/include/c++/11/bits/stl_construct.h
FN:109,_ZSt10_ConstructISt10shared_ptrI13ThreadContextEJEEvPT_DpOT0_
FNDA:20,_ZSt10_ConstructISt10shared_ptrI13ThreadContextEJEEvPT_DpOT0_
FN:146,_ZSt8_DestroyISt10shared_ptrI13ThreadContextEEvPT_
FNDA:20,_ZSt8_DestroyISt10shared_ptrI13ThreadContextEEvPT_
FN:160,_ZNSt12_Destroy_auxILb0EE9__destroyIPSt10shared_ptrI13ThreadContextEEEvT_S6_
FNDA:4,_ZNSt12_Destroy_auxILb0EE9__destroyIPSt10shared_ptrI13ThreadContextEEEvT_S6_
FN:182,_ZSt8_DestroyIPSt10shared_ptrI13ThreadContextEEvT_S4_
FNDA:4,_ZSt8_DestroyIPSt10shared_ptrI13ThreadContextEEvT_S4_
DA:109,20
DA:119,20
DA:120,20
DA:146,20
DA:151,20
DA:153,20
DA:160,4
DA:162,24
DA:163,20
DA:164,4
DA:182,4
DA:196,4
DA:197,4
end_of_record
SF:/usr/include/c++/11/bits/std_mutex.h
FN:65,_ZNSt12__mutex_baseC2Ev
FNDA:22,_ZNSt12__mutex_baseC2Ev
FN:91,_ZNSt5mutexC2Ev
FNDA:22,_ZNSt5mutexC2Ev
FN:98,_ZNSt5mutex4lockEv
FNDA:0,_ZNSt5mutex4lockEv
FN:115,_ZNSt5mutex6unlockEv
FNDA:0,_ZNSt5mutex6unlockEv
DA:65,22
DA:91,22
DA:98,0
DA:100,0
DA:103,0
DA:104,0
DA:105,0
DA:115,0
DA:118,0
DA:119,0
end_of_record
SF:/usr/include/c++/11/bits/stl_iterator.h
FN:1027,_ZN9__gnu_cxx17__normal_iteratorIPSt10shared_ptrI13ThreadContextESt6vectorIS3_SaIS3_EEEC2ERKS4_
FNDA:16,_ZN9__gnu_cxx17__normal_iteratorIPSt10shared_ptrI13ThreadContextESt6vectorIS3_SaIS3_EEEC2ERKS4_
FN:1042,_ZNK9__gnu_cxx17__normal_iteratorIPSt10shared_ptrI13ThreadContextESt6vectorIS3_SaIS3_EEEdeEv
FNDA:47,_ZNK9__gnu_cxx17__normal_iteratorIPSt10shared_ptrI13ThreadContextESt6vectorIS3_SaIS3_EEEdeEv
FN:1047,_ZNK9__gnu_cxx17__normal_iteratorIPSt10shared_ptrI13ThreadContextESt6vectorIS3_SaIS3_EEEptEv
FNDA:2,_ZNK9__gnu_cxx17__normal_iteratorIPSt10shared_ptrI13ThreadContextESt6vectorIS3_SaIS3_EEEptEv
FN:1052,_ZN9__gnu_cxx17__normal_iteratorIPSt10shared_ptrI13ThreadContextESt6vectorIS3_SaIS3_EEEppEv
FNDA:43,_ZN9__gnu_cxx17__normal_iteratorIPSt10shared_ptrI13ThreadContextESt6vectorIS3_SaIS3_EEEppEv
FN:1105,_ZNK9__gnu_cxx17__normal_iteratorIPSt10shared_ptrI13ThreadContextESt6vectorIS3_SaIS3_EEE4baseEv
FNDA:98,_ZNK9__gnu_cxx17__normal_iteratorIPSt10shared_ptrI13ThreadContextESt6vectorIS3_SaIS3_EEE4baseEv
FN:1179,_ZN9__gnu_cxxneIPSt10shared_ptrI13ThreadContextESt6vectorIS3_SaIS3_EEEEbRKNS_17__normal_iteratorIT_T0_EESD_
FNDA:49,_ZN9__gnu_cxxneIPSt10shared_ptrI13ThreadContextESt6vectorIS3_SaIS3_EEEEbRKNS_17__normal_iteratorIT_T0_EESD_
DA:1027,16
DA:1028,16
DA:1042,47
DA:1043,47
DA:1047,2
DA:1048,2
DA:1052,43
DA:1054,43
DA:1055,43
DA:1105,98
DA:1106,98
DA:1179,49
DA:1182,49
end_of_record
SF:/home/eladubuntu/Git Projects/OS_2024-FINAL_PROJECT_MST/LFThreadPool.cpp
FN:4,_ZN12LFThreadPoolC2EmR7Reactor
FNDA:2,_ZN12LFThreadPoolC2EmR7Reactor
FN:23,_ZN12LFThreadPoolD2Ev
FNDA:2,_ZN12LFThreadPoolD2Ev
FN:36,_ZN12LFThreadPool16promoteNewLeaderEv
FNDA:4,_ZN12LFThreadPool16promoteNewLeaderEv
FN:69,_ZN12LFThreadPool12followerLoopEi
FNDA:20,_ZN12LFThreadPool12followerLoopEi
FN:103,_ZN12LFThreadPool5addFdEiSt8functionIFvvEE
FNDA:2,_ZN12LFThreadPool5addFdEiSt8functionIFvvEE
FN:109,_ZN12LFThreadPool8stopPoolEv
FNDA:2,_ZN12LFThreadPool8stopPoolEv
FN:120,_ZN12LFThreadPool4joinEv
FNDA:2,_ZN12LFThreadPool4joinEv
DA:4,2
DA:5,2
DA:8,22
DA:11,20
DA:13,20
DA:15,20
DA:16,20
DA:17,20
DA:20,2
DA:21,2
DA:23,2
DA:26,2
DA:27,2
DA:28,2
DA:30,2
DA:32,2
DA:33,2
DA:34,2
DA:36,4
DA:39,4
DA:42,2
DA:43,2
DA:44,2
DA:45,2
DA:47,2
DA:48,2
DA:51,5
DA:54,5
DA:57,2
DA:58,2
DA:59,2
DA:60,2
DA:62,2
DA:63,2
DA:69,22
DA:74,22
DA:76,22
DA:77,22
DA:78,22
DA:81,22
DA:82,18
DA:85,4
DA:88,2
DA:89,2
DA:92,2
DA:94,2
DA:95,2
DA:96,2
DA:98,2
DA:99,2
DA:100,18
DA:103,2
DA:106,2
DA:107,2
DA:109,2
DA:112,2
DA:113,22
DA:115,20
DA:117,2
DA:118,2
DA:120,2
DA:122,22
DA:124,20
DA:126,20
DA:127,20
DA:128,20
DA:130,20
DA:131,20
DA:132,20
DA:134,2
end_of_record
SF:/usr/include/c++/11/bits/ptr_traits.h
FN:159,_ZSt12__to_addressISt23_Sp_counted_ptr_inplaceI13ThreadContextSaIS1_ELN9__gnu_cxx12_Lock_policyE2EEEPT_S7_
FNDA:20,_ZSt12__to_addressISt23_Sp_counted_ptr_inplaceI13ThreadContextSaIS1_ELN9__gnu_cxx12_Lock_policyE2EEEPT_S7_
DA:159,20
DA:162,20
end_of_record
SF:/usr/include/c++/11/bits/shared_ptr_base.h
FN:126,_ZNSt16_Sp_counted_baseILN9__gnu_cxx12_Lock_policyE2EEC2Ev
FNDA:20,_ZNSt16_Sp_counted_baseILN9__gnu_cxx12_Lock_policyE2EEC2Ev
FN:130,_ZNSt16_Sp_counted_baseILN9__gnu_cxx12_Lock_policyE2EED2Ev
FNDA:20,_ZNSt16_Sp_counted_baseILN9__gnu_cxx12_Lock_policyE2EED2Ev
FN:130,_ZNSt16_Sp_counted_baseILN9__gnu_cxx12_Lock_policyE2EED0Ev
FNDA:0,_ZNSt16_Sp_counted_baseILN9__gnu_cxx12_Lock_policyE2EED0Ev
FN:140,_ZNSt16_Sp_counted_baseILN9__gnu_cxx12_Lock_policyE2EE10_M_destroyEv
FNDA:0,_ZNSt16_Sp_counted_baseILN9__gnu_cxx12_Lock_policyE2EE10_M_destroyEv
FN:147,_ZNSt16_Sp_counted_baseILN9__gnu_cxx12_Lock_policyE2EE15_M_add_ref_copyEv
FNDA:6,_ZNSt16_Sp_counted_baseILN9__gnu_cxx12_Lock_policyE2EE15_M_add_ref_copyEv
FN:161,_ZNSt16_Sp_counted_baseILN9__gnu_cxx12_Lock_policyE2EE10_M_releaseEv
FNDA:26,_ZNSt16_Sp_counted_baseILN9__gnu_cxx12_Lock_policyE2EE10_M_releaseEv
FN:385,_ZNSt14_Sp_ebo_helperILi0ESaI13ThreadContextELb1EEC2ERKS1_
FNDA:20,_ZNSt14_Sp_ebo_helperILi0ESaI13ThreadContextELb1EEC2ERKS1_
FN:389,_ZNSt14_Sp_ebo_helperILi0ESaI13ThreadContextELb1EE6_S_getERS2_
FNDA:40,_ZNSt14_Sp_ebo_helperILi0ESaI13ThreadContextELb1EE6_S_getERS2_
FN:479,_ZNSt19_Sp_make_shared_tag5_S_tiEv
FNDA:0,_ZNSt19_Sp_make_shared_tag5_S_tiEv
FN:502,_ZNSt23_Sp_counted_ptr_inplaceI13ThreadContextSaIS0_ELN9__gnu_cxx12_Lock_policyE2EE5_ImplC2ES1_
FNDA:20,_ZNSt23_Sp_counted_ptr_inplaceI13ThreadContextSaIS0_ELN9__gnu_cxx12_Lock_policyE2EE5_ImplC2ES1_
FN:504,_ZNSt23_Sp_counted_ptr_inplaceI13ThreadContextSaIS0_ELN9__gnu_cxx12_Lock_policyE2EE5_Impl8_M_allocEv
FNDA:40,_ZNSt23_Sp_counted_ptr_inplaceI13ThreadContextSaIS0_ELN9__gnu_cxx12_Lock_policyE2EE5_Impl8_M_allocEv
FN:514,_ZNSt23_Sp_counted_ptr_inplaceI13ThreadContextSaIS0_ELN9__gnu_cxx12_Lock_policyE2EEC2IJEEES1_DpOT_
FNDA:20,_ZNSt23_Sp_counted_ptr_inplaceI13ThreadContextSaIS0_ELN9__gnu_cxx12_Lock_policyE2EEC2IJEEES1_DpOT_
FN:523,_ZNSt23_Sp_counted_ptr_inplaceI13ThreadContextSaIS0_ELN9__gnu_cxx12_Lock_policyE2EED2Ev
FNDA:20,_ZNSt23_Sp_counted_ptr_inplaceI13ThreadContextSaIS0_ELN9__gnu_cxx12_Lock_policyE2EED2Ev
FN:523,_ZNSt23_Sp_counted_ptr_inplaceI13ThreadContextSaIS0_ELN9__gnu_cxx12_Lock_policyE2EED0Ev
FNDA:0,_ZNSt23_Sp_counted_ptr_inplaceI13ThreadContextSaIS0_ELN9__gnu_cxx12_Lock_policyE2EED0Ev
FN:526,_ZNSt23_Sp_counted_ptr_inplaceI13ThreadContextSaIS0_ELN9__gnu_cxx12_Lock_policyE2EE10_M_disposeEv
FNDA:20,_ZNSt23_Sp_counted_ptr_inplaceI13ThreadContextSaIS0_ELN9__gnu_cxx12_Lock_policyE2EE10_M_disposeEv
FN:533,_ZNSt23_Sp_counted_ptr_inplaceI13ThreadContextSaIS0_ELN9__gnu_cxx12_Lock_policyE2EE10_M_destroyEv
FNDA:20,_ZNSt23_Sp_counted_ptr_inplaceI13ThreadContextSaIS0_ELN9__gnu_cxx12_Lock_policyE2EE10_M_destroyEv
FN:546,_ZNSt23_Sp_counted_ptr_inplaceI13ThreadContextSaIS0_ELN9__gnu_cxx12_Lock_policyE2EE14_M_get_deleterERKSt9type_info
FNDA:0,_ZNSt23_Sp_counted_ptr_inplaceI13ThreadContextSaIS0_ELN9__gnu_cxx12_Lock_policyE2EE14_M_get_deleterERKSt9type_info
FN:565,_ZNSt23_Sp_counted_ptr_inplaceI13ThreadContextSaIS0_ELN9__gnu_cxx12_Lock_policyE2EE6_M_ptrEv
FNDA:60,_ZNSt23_Sp_counted_ptr_inplaceI13ThreadContextSaIS0_ELN9__gnu_cxx12_Lock_policyE2EE6_M_ptrEv
FN:587,_ZNSt14__shared_countILN9__gnu_cxx12_Lock_policyE2EEC2Ev
FNDA:64,_ZNSt14__shared_countILN9__gnu_cxx12_Lock_policyE2EEC2Ev
FN:643,_ZNSt14__shared_countILN9__gnu_cxx12_Lock_policyE2EEC2I13ThreadContextSaIS4_EJEEERPT_St20_Sp_alloc_shared_tagIT0_EDpOT1_
FNDA:20,_ZNSt14__shared_countILN9__gnu_cxx12_Lock_policyE2EEC2I13ThreadContextSaIS4_EJEEERPT_St20_Sp_alloc_shared_tagIT0_EDpOT1_
FN:702,_ZNSt14__shared_countILN9__gnu_cxx12_Lock_policyE2EED2Ev
FNDA:86,_ZNSt14__shared_countILN9__gnu_cxx12_Lock_policyE2EED2Ev
FN:708,_ZNSt14__shared_countILN9__gnu_cxx12_Lock_policyE2EEC2ERKS2_
FNDA:2,_ZNSt14__shared_countILN9__gnu_cxx12_Lock_policyE2EEC2ERKS2_
FN:716,_ZNSt14__shared_countILN9__gnu_cxx12_Lock_policyE2EEaSERKS2_
FNDA:4,_ZNSt14__shared_countILN9__gnu_cxx12_Lock_policyE2EEaSERKS2_
FN:731,_ZNSt14__shared_countILN9__gnu_cxx12_Lock_policyE2EE7_M_swapERS2_
FNDA:62,_ZNSt14__shared_countILN9__gnu_cxx12_Lock_policyE2EE7_M_swapERS2_
FN:977,_ZNKSt19__shared_ptr_accessI13ThreadContextLN9__gnu_cxx12_Lock_policyE2ELb0ELb0EEdeEv
FNDA:10,_ZNKSt19__shared_ptr_accessI13ThreadContextLN9__gnu_cxx12_Lock_policyE2ELb0ELb0EEdeEv
FN:984,_ZNKSt19__shared_ptr_accessI13ThreadContextLN9__gnu_cxx12_Lock_policyE2ELb0ELb0EEptEv
FNDA:181,_ZNKSt19__shared_ptr_accessI13ThreadContextLN9__gnu_cxx12_Lock_policyE2ELb0ELb0EEptEv
FN:992,_ZNKSt19__shared_ptr_accessI13ThreadContextLN9__gnu_cxx12_Lock_policyE2ELb0ELb0EE6_M_getEv
FNDA:191,_ZNKSt19__shared_ptr_accessI13ThreadContextLN9__gnu_cxx12_Lock_policyE2ELb0ELb0EE6_M_getEv
FN:1092,_ZNSt12__shared_ptrI13ThreadContextLN9__gnu_cxx12_Lock_policyE2EEC2Ev
FNDA:44,_ZNSt12__shared_ptrI13ThreadContextLN9__gnu_cxx12_Lock_policyE2EEC2Ev
FN:1152,_ZNSt12__shared_ptrI13ThreadContextLN9__gnu_cxx12_Lock_policyE2EEC2ERKS3_
FNDA:2,_ZNSt12__shared_ptrI13ThreadContextLN9__gnu_cxx12_Lock_policyE2EEC2ERKS3_
FN:1153,_ZNSt12__shared_ptrI13ThreadContextLN9__gnu_cxx12_Lock_policyE2EEaSERKS3_
FNDA:4,_ZNSt12__shared_ptrI13ThreadContextLN9__gnu_cxx12_Lock_policyE2EEaSERKS3_
FN:1154,_ZNSt12__shared_ptrI13ThreadContextLN9__gnu_cxx12_Lock_policyE2EED2Ev
FNDA:86,_ZNSt12__shared_ptrI13ThreadContextLN9__gnu_cxx12_Lock_policyE2EED2Ev
FN:1161,_ZNSt12__shared_ptrI13ThreadContextLN9__gnu_cxx12_Lock_policyE2EEC2EOS3_
FNDA:20,_ZNSt12__shared_ptrI13ThreadContextLN9__gnu_cxx12_Lock_policyE2EEC2EOS3_
FN:1248,_ZNSt12__shared_ptrI13ThreadContextLN9__gnu_cxx12_Lock_policyE2EEaSEOS3_
FNDA:20,_ZNSt12__shared_ptrI13ThreadContextLN9__gnu_cxx12_Lock_policyE2EEaSEOS3_
FN:1271,_ZNSt12__shared_ptrI13ThreadContextLN9__gnu_cxx12_Lock_policyE2EE5resetEv
FNDA:22,_ZNSt12__shared_ptrI13ThreadContextLN9__gnu_cxx12_Lock_policyE2EE5resetEv
FN:1295,_ZNKSt12__shared_ptrI13ThreadContextLN9__gnu_cxx12_Lock_policyE2EE3getEv
FNDA:193,_ZNKSt12__shared_ptrI13ThreadContextLN9__gnu_cxx12_Lock_policyE2EE3getEv
FN:1299,_ZNKSt12__shared_ptrI13ThreadContextLN9__gnu_cxx12_Lock_policyE2EEcvbEv
FNDA:4,_ZNKSt12__shared_ptrI13ThreadContextLN9__gnu_cxx12_Lock_policyE2EEcvbEv
FN:1314,_ZNSt12__shared_ptrI13ThreadContextLN9__gnu_cxx12_Lock_policyE2EE4swapERS3_
FNDA:42,_ZNSt12__shared_ptrI13ThreadContextLN9__gnu_cxx12_Lock_policyE2EE4swapERS3_
FN:1341,_ZNSt12__shared_ptrI13ThreadContextLN9__gnu_cxx12_Lock_policyE2EEC2ISaIS0_EJEEESt20_Sp_alloc_shared_tagIT_EDpOT0_
FNDA:20,_ZNSt12__shared_ptrI13ThreadContextLN9__gnu_cxx12_Lock_policyE2EEC2ISaIS0_EJEEESt20_Sp_alloc_shared_tagIT_EDpOT0_
FN:1386,_ZNSt12__shared_ptrI13ThreadContextLN9__gnu_cxx12_Lock_policyE2EE31_M_enable_shared_from_this_withIS0_S0_EENSt9enable_ifIXntsrNS3_15__has_esft_baseIT0_vEE5valueEvE4typeEPT_
FNDA:20,_ZNSt12__shared_ptrI13ThreadContextLN9__gnu_cxx12_Lock_policyE2EE31_M_enable_shared_from_this_withIS0_S0_EENSt9enable_ifIXntsrNS3_15__has_esft_baseIT0_vEE5valueEvE4typeEPT_
DA:126,20
DA:127,20
DA:130,0
DA:131,0
DA:130,20
DA:131,20
DA:140,0
DA:141,0
DA:147,6
DA:148,6
DA:161,26
DA:165,52
DA:168,20
DA:180,20
DA:181,20
DA:184,20
DA:187,26
DA:385,20
DA:389,40
DA:479,0
DA:482,0
DA:502,20
DA:504,40
DA:514,20
DA:515,20
DA:519,20
DA:521,20
DA:523,0
DA:523,20
DA:526,20
DA:528,20
DA:529,20
DA:533,20
DA:535,20
DA:536,20
DA:537,20
DA:538,20
DA:546,0
DA:548,0
DA:553,0
DA:554,0
DA:556,0
DA:561,0
DA:562,0
DA:565,60
DA:587,64
DA:588,64
DA:643,20
DA:647,20
DA:648,20
DA:649,20
DA:650,20
DA:652,20
DA:653,20
DA:654,20
DA:655,20
DA:702,86
DA:704,86
DA:705,24
DA:706,86
DA:708,2
DA:709,2
DA:711,2
DA:712,2
DA:713,2
DA:716,4
DA:718,4
DA:719,4
DA:721,4
DA:722,4
DA:723,4
DA:724,2
DA:725,4
DA:727,4
DA:731,62
DA:733,62
DA:734,62
DA:735,62
DA:736,62
DA:977,10
DA:979,10
DA:980,10
DA:984,181
DA:987,181
DA:992,191
DA:993,191
DA:1092,44
DA:1093,44
DA:1094,44
DA:1152,2
DA:1153,4
DA:1154,86
DA:1161,20
DA:1162,20
DA:1164,20
DA:1165,20
DA:1166,20
DA:1248,20
DA:1250,20
DA:1251,20
DA:1271,22
DA:1272,22
DA:1295,193
DA:1296,193
DA:1299,4
DA:1300,4
DA:1314,42
DA:1316,42
DA:1317,42
DA:1318,42
DA:1341,20
DA:1342,20
DA:1343,20
DA:1386,20
DA:1387,20
end_of_record
SF:/usr/include/c++/11/ext/new_allocator.h
FN:79,_ZN9__gnu_cxx13new_allocatorISt10shared_ptrI13ThreadContextEEC2Ev
FNDA:2,_ZN9__gnu_cxx13new_allocatorISt10shared_ptrI13ThreadContextEEC2Ev
FN:79,_ZN9__gnu_cxx13new_allocatorI13ThreadContextEC2Ev
FNDA:20,_ZN9__gnu_cxx13new_allocatorI13ThreadContextEC2Ev
FN:79,_ZN9__gnu_cxx13new_allocatorISt23_Sp_counted_ptr_inplaceI13ThreadContextSaIS2_ELNS_12_Lock_policyE2EEEC2Ev
FNDA:40,_ZN9__gnu_cxx13new_allocatorISt23_Sp_counted_ptr_inplaceI13ThreadContextSaIS2_ELNS_12_Lock_policyE2EEEC2Ev
FN:82,_ZN9__gnu_cxx13new_allocatorI13ThreadContextEC2ERKS2_
FNDA:60,_ZN9__gnu_cxx13new_allocatorI13ThreadContextEC2ERKS2_
FN:82,_ZN9__gnu_cxx13new_allocatorISt10shared_ptrI13ThreadContextEEC2ERKS4_
FNDA:4,_ZN9__gnu_cxx13new_allocatorISt10shared_ptrI13ThreadContextEEC2ERKS4_
FN:89,_ZN9__gnu_cxx13new_allocatorISt10shared_ptrI13ThreadContextEED2Ev
FNDA:6,_ZN9__gnu_cxx13new_allocatorISt10shared_ptrI13ThreadContextEED2Ev
FN:89,_ZN9__gnu_cxx13new_allocatorI13ThreadContextED2Ev
FNDA:80,_ZN9__gnu_cxx13new_allocatorI13ThreadContextED2Ev
FN:89,_ZN9__gnu_cxx13new_allocatorISt23_Sp_counted_ptr_inplaceI13ThreadContextSaIS2_ELNS_12_Lock_policyE2EEED2Ev
FNDA:40,_ZN9__gnu_cxx13new_allocatorISt23_Sp_counted_ptr_inplaceI13ThreadContextSaIS2_ELNS_12_Lock_policyE2EEED2Ev
FN:103,_ZN9__gnu_cxx13new_allocatorISt10shared_ptrI13ThreadContextEE8allocateEmPKv
FNDA:2,_ZN9__gnu_cxx13new_allocatorISt10shared_ptrI13ThreadContextEE8allocateEmPKv
FN:103,_ZN9__gnu_cxx13new_allocatorISt23_Sp_counted_ptr_inplaceI13ThreadContextSaIS2_ELNS_12_Lock_policyE2EEE8allocateEmPKv
FNDA:20,_ZN9__gnu_cxx13new_allocatorISt23_Sp_counted_ptr_inplaceI13ThreadContextSaIS2_ELNS_12_Lock_policyE2EEE8allocateEmPKv
FN:132,_ZN9__gnu_cxx13new_allocatorISt10shared_ptrI13ThreadContextEE10deallocateEPS3_m
FNDA:2,_ZN9__gnu_cxx13new_allocatorISt10shared_ptrI13ThreadContextEE10deallocateEPS3_m
FN:132,_ZN9__gnu_cxx13new_allocatorISt23_Sp_counted_ptr_inplaceI13ThreadContextSaIS2_ELNS_12_Lock_policyE2EEE10deallocateEPS5_m
FNDA:20,_ZN9__gnu_cxx13new_allocatorISt23_Sp_counted_ptr_inplaceI13ThreadContextSaIS2_ELNS_12_Lock_policyE2EEE10deallocateEPS5_m
FN:154,_ZNK9__gnu_cxx13new_allocatorISt10shared_ptrI13ThreadContextEE8max_sizeEv
FNDA:2,_ZNK9__gnu_cxx13new_allocatorISt10shared_ptrI13ThreadContextEE8max_sizeEv
FN:160,_ZN9__gnu_cxx13new_allocatorI13ThreadContextE9constructIS1_JEEEvPT_DpOT0_
FNDA:20,_ZN9__gnu_cxx13new_allocatorI13ThreadContextE9constructIS1_JEEEvPT_DpOT0_
FN:166,_ZN9__gnu_cxx13new_allocatorI13ThreadContextE7destroyIS1_EEvPT_
FNDA:20,_ZN9__gnu_cxx13new_allocatorI13ThreadContextE7destroyIS1_EEvPT_
FN:197,_ZNK9__gnu_cxx13new_allocatorISt10shared_ptrI13ThreadContextEE11_M_max_sizeEv
FNDA:4,_ZNK9__gnu_cxx13new_allocatorISt10shared_ptrI13ThreadContextEE11_M_max_sizeEv
FN:197,_ZNK9__gnu_cxx13new_allocatorISt23_Sp_counted_ptr_inplaceI13ThreadContextSaIS2_ELNS_12_Lock_policyE2EEE11_M_max_sizeEv
FNDA:20,_ZNK9__gnu_cxx13new_allocatorISt23_Sp_counted_ptr_inplaceI13ThreadContextSaIS2_ELNS_12_Lock_policyE2EEE11_M_max_sizeEv
DA:79,40
DA:79,20
DA:79,2
DA:82,60
DA:82,4
DA:89,40
DA:89,80
DA:89,6
DA:103,20
DA:111,20
DA:115,0
DA:116,0
DA:117,0
DA:127,20
DA:103,2
DA:111,2
DA:115,0
DA:116,0
DA:117,0
DA:127,2
DA:132,20
DA:145,20
DA:132,2
DA:145,2
DA:154,2
DA:155,2
DA:160,20
DA:162,20
DA:166,20
DA:168,20
DA:197,20
DA:200,20
DA:197,4
DA:200,4
end_of_record
SF:/usr/include/c++/11/atomic
FN:76,_ZNSt6atomicIbEC2Eb
FNDA:24,_ZNSt6atomicIbEC2Eb
FN:103,_ZNSt6atomicIbE5storeEbSt12memory_order
FNDA:8,_ZNSt6atomicIbE5storeEbSt12memory_order
FN:111,_ZNKSt6atomicIbE4loadESt12memory_order
FNDA:109,_ZNKSt6atomicIbE4loadESt12memory_order
DA:76,24
DA:103,8
DA:104,8
DA:111,109
DA:112,218
end_of_record
TN:
SF:/usr/include/c++/11/atomic
FN:76,_ZNSt6atomicIbEC2Eb
FNDA:14,_ZNSt6atomicIbEC2Eb
FN:86,_ZNKSt6atomicIbEcvbEv
FNDA:38,_ZNKSt6atomicIbEcvbEv
FN:103,_ZNSt6atomicIbE5storeEbSt12memory_order
FNDA:52,_ZNSt6atomicIbE5storeEbSt12memory_order
FN:111,_ZNKSt6atomicIbE4loadESt12memory_order
FNDA:166,_ZNKSt6atomicIbE4loadESt12memory_order
DA:76,14
DA:86,38
DA:87,76
DA:103,52
DA:104,52
DA:111,166
DA:112,332
end_of_record
SF:/usr/include/c++/11/ext/new_allocator.h
FN:79,_ZN9__gnu_cxx13new_allocatorIcEC2Ev
FNDA:0,_ZN9__gnu_cxx13new_allocatorIcEC2Ev
FN:79,_ZN9__gnu_cxx13new_allocatorI4EdgeEC2Ev
FNDA:22,_ZN9__gnu_cxx13new_allocatorI4EdgeEC2Ev
FN:79,_ZN9__gnu_cxx13new_allocatorImEC2Ev
FNDA:9,_ZN9__gnu_cxx13new_allocatorImEC2Ev
FN:79,_ZN9__gnu_cxx13new_allocatorISt10unique_ptrI12ActiveObjectSt14default_deleteIS2_EEEC2Ev
FNDA:2,_ZN9__gnu_cxx13new_allocatorISt10unique_ptrI12ActiveObjectSt14default_deleteIS2_EEEC2Ev
FN:79,_ZN9__gnu_cxx13new_allocatorISt8functionIFvvEEEC2Ev
FNDA:14,_ZN9__gnu_cxx13new_allocatorISt8functionIFvvEEEC2Ev
FN:79,_ZN9__gnu_cxx13new_allocatorISt6threadEC2Ev
FNDA:2,_ZN9__gnu_cxx13new_allocatorISt6threadEC2Ev
FN:79,_ZN9__gnu_cxx13new_allocatorIPSt8functionIFvvEEEC2Ev
FNDA:28,_ZN9__gnu_cxx13new_allocatorIPSt8functionIFvvEEEC2Ev
FN:79,_ZN9__gnu_cxx13new_allocatorISt6vectorI4EdgeSaIS2_EEEC2Ev
FNDA:4,_ZN9__gnu_cxx13new_allocatorISt6vectorI4EdgeSaIS2_EEEC2Ev
FN:82,_ZN9__gnu_cxx13new_allocatorIcEC2ERKS1_
FNDA:0,_ZN9__gnu_cxx13new_allocatorIcEC2ERKS1_
FN:82,_ZN9__gnu_cxx13new_allocatorISt10unique_ptrI12ActiveObjectSt14default_deleteIS2_EEEC2ERKS6_
FNDA:6,_ZN9__gnu_cxx13new_allocatorISt10unique_ptrI12ActiveObjectSt14default_deleteIS2_EEEC2ERKS6_
FN:82,_ZN9__gnu_cxx13new_allocatorImEC2ERKS1_
FNDA:14,_ZN9__gnu_cxx13new_allocatorImEC2ERKS1_
FN:82,_ZN9__gnu_cxx13new_allocatorI4EdgeEC2ERKS2_
FNDA:8,_ZN9__gnu_cxx13new_allocatorI4EdgeEC2ERKS2_
FN:89,_ZN9__gnu_cxx13new_allocatorIPSt8functionIFvvEEED2Ev
FNDA:28,_ZN9__gnu_cxx13new_allocatorIPSt8functionIFvvEEED2Ev
FN:89,_ZN9__gnu_cxx13new_allocatorI4EdgeED2Ev
FNDA:30,_ZN9__gnu_cxx13new_allocatorI4EdgeED2Ev
FN:89,_ZN9__gnu_cxx13new_allocatorImED2Ev
FNDA:21,_ZN9__gnu_cxx13new_allocatorImED2Ev
FN:89,_ZN9__gnu_cxx13new_allocatorISt10unique_ptrI12ActiveObjectSt14default_deleteIS2_EEED2Ev
FNDA:6,_ZN9__gnu_cxx13new_allocatorISt10unique_ptrI12ActiveObjectSt14default_deleteIS2_EEED2Ev
FN:89,_ZN9__gnu_cxx13new_allocatorISt8functionIFvvEEED2Ev
FNDA:14,_ZN9__gnu_cxx13new_allocatorISt8functionIFvvEEED2Ev
FN:89,_ZN9__gnu_cxx13new_allocatorISt6threadED2Ev
FNDA:0,_ZN9__gnu_cxx13new_allocatorISt6threadED2Ev
FN:89,_ZN9__gnu_cxx13new_allocatorISt6vectorI4EdgeSaIS2_EEED2Ev
FNDA:4,_ZN9__gnu_cxx13new_allocatorISt6vectorI4EdgeSaIS2_EEED2Ev
FN:89,_ZN9__gnu_cxx13new_allocatorIcED2Ev
FNDA:0,_ZN9__gnu_cxx13new_allocatorIcED2Ev
FN:103,_ZN9__gnu_cxx13new_allocatorISt6vectorI4EdgeSaIS2_EEE8allocateEmPKv
FNDA:4,_ZN9__gnu_cxx13new_allocatorISt6vectorI4EdgeSaIS2_EEE8allocateEmPKv
FN:103,_ZN9__gnu_cxx13new_allocatorIPSt8functionIFvvEEE8allocateEmPKv
FNDA:14,_ZN9__gnu_cxx13new_allocatorIPSt8functionIFvvEEE8allocateEmPKv
FN:103,_ZN9__gnu_cxx13new_allocatorImE8allocateEmPKv
FNDA:9,_ZN9__gnu_cxx13new_allocatorImE8allocateEmPKv
FN:103,_ZN9__gnu_cxx13new_allocatorISt8functionIFvvEEE8allocateEmPKv
FNDA:15,_ZN9__gnu_cxx13new_allocatorISt8functionIFvvEEE8allocateEmPKv
FN:103,_ZN9__gnu_cxx13new_allocatorISt10unique_ptrI12ActiveObjectSt14default_deleteIS2_EEE8allocateEmPKv
FNDA:8,_ZN9__gnu_cxx13new_allocatorISt10unique_ptrI12ActiveObjectSt14default_deleteIS2_EEE8allocateEmPKv
FN:132,_ZN9__gnu_cxx13new_allocatorISt6vectorI4EdgeSaIS2_EEE10deallocateEPS4_m
FNDA:4,_ZN9__gnu_cxx13new_allocatorISt6vectorI4EdgeSaIS2_EEE10deallocateEPS4_m
FN:132,_ZN9__gnu_cxx13new_allocatorImE10deallocateEPmm
FNDA:9,_ZN9__gnu_cxx13new_allocatorImE10deallocateEPmm
FN:132,_ZN9__gnu_cxx13new_allocatorISt6threadE10deallocateEPS1_m
FNDA:0,_ZN9__gnu_cxx13new_allocatorISt6threadE10deallocateEPS1_m
FN:132,_ZN9__gnu_cxx13new_allocatorISt10unique_ptrI12ActiveObjectSt14default_deleteIS2_EEE10deallocateEPS5_m
FNDA:8,_ZN9__gnu_cxx13new_allocatorISt10unique_ptrI12ActiveObjectSt14default_deleteIS2_EEE10deallocateEPS5_m
FN:132,_ZN9__gnu_cxx13new_allocatorISt8functionIFvvEEE10deallocateEPS3_m
FNDA:15,_ZN9__gnu_cxx13new_allocatorISt8functionIFvvEEE10deallocateEPS3_m
FN:132,_ZN9__gnu_cxx13new_allocatorIPSt8functionIFvvEEE10deallocateEPS4_m
FNDA:14,_ZN9__gnu_cxx13new_allocatorIPSt8functionIFvvEEE10deallocateEPS4_m
FN:132,_ZN9__gnu_cxx13new_allocatorI4EdgeE10deallocateEPS1_m
FNDA:46,_ZN9__gnu_cxx13new_allocatorI4EdgeE10deallocateEPS1_m
FN:154,_ZNK9__gnu_cxx13new_allocatorISt10unique_ptrI12ActiveObjectSt14default_deleteIS2_EEE8max_sizeEv
FNDA:18,_ZNK9__gnu_cxx13new_allocatorISt10unique_ptrI12ActiveObjectSt14default_deleteIS2_EEE8max_sizeEv
FN:154,_ZNK9__gnu_cxx13new_allocatorImE8max_sizeEv
FNDA:5,_ZNK9__gnu_cxx13new_allocatorImE8max_sizeEv
FN:154,_ZNK9__gnu_cxx13new_allocatorISt8functionIFvvEEE8max_sizeEv
FNDA:1,_ZNK9__gnu_cxx13new_allocatorISt8functionIFvvEEE8max_sizeEv
FN:154,_ZNK9__gnu_cxx13new_allocatorISt6vectorI4EdgeSaIS2_EEE8max_sizeEv
FNDA:16,_ZNK9__gnu_cxx13new_allocatorISt6vectorI4EdgeSaIS2_EEE8max_sizeEv
FN:160,_ZN9__gnu_cxx13new_allocatorISt6vectorI4EdgeSaIS2_EEE9constructIS4_JS4_EEEvPT_DpOT0_
FNDA:0,_ZN9__gnu_cxx13new_allocatorISt6vectorI4EdgeSaIS2_EEE9constructIS4_JS4_EEEvPT_DpOT0_
FN:160,_ZN9__gnu_cxx13new_allocatorImE9constructImJRKmEEEvPT_DpOT0_
FNDA:2,_ZN9__gnu_cxx13new_allocatorImE9constructImJRKmEEEvPT_DpOT0_
FN:160,_ZN9__gnu_cxx13new_allocatorISt8functionIFvvEEE9constructIS3_JRZ14handleCommandsiRSt6vectorISt10unique_ptrI12ActiveObjectSt14default_deleteIS8_EESaISB_EERS7_I5GraphS9_ISF_EER10MSTFactoryRS7_I4TreeS9_ISL_EEEUlvE_EEEvPT_DpOT0_
FNDA:4,_ZN9__gnu_cxx13new_allocatorISt8functionIFvvEEE9constructIS3_JRZ14handleCommandsiRSt6vectorISt10unique_ptrI12ActiveObjectSt14default_deleteIS8_EESaISB_EERS7_I5GraphS9_ISF_EER10MSTFactoryRS7_I4TreeS9_ISL_EEEUlvE_EEEvPT_DpOT0_
FN:160,_ZN9__gnu_cxx13new_allocatorISt8functionIFvvEEE9constructIS3_JRZ14handleCommandsiRSt6vectorISt10unique_ptrI12ActiveObjectSt14default_deleteIS8_EESaISB_EERS7_I5GraphS9_ISF_EER10MSTFactoryRS7_I4TreeS9_ISL_EEEUlvE1_EEEvPT_DpOT0_
FNDA:4,_ZN9__gnu_cxx13new_allocatorISt8functionIFvvEEE9constructIS3_JRZ14handleCommandsiRSt6vectorISt10unique_ptrI12ActiveObjectSt14default_deleteIS8_EESaISB_EERS7_I5GraphS9_ISF_EER10MSTFactoryRS7_I4TreeS9_ISL_EEEUlvE1_EEEvPT_DpOT0_
FN:160,_ZN9__gnu_cxx13new_allocatorISt10unique_ptrI12ActiveObjectSt14default_deleteIS2_EEE9constructIS5_JS5_EEEvPT_DpOT0_
FNDA:28,_ZN9__gnu_cxx13new_allocatorISt10unique_ptrI12ActiveObjectSt14default_deleteIS2_EEE9constructIS5_JS5_EEEvPT_DpOT0_
FN:160,_ZN9__gnu_cxx13new_allocatorISt8functionIFvvEEE9constructIS3_JRZ14handleCommandsiRSt6vectorISt10unique_ptrI12ActiveObjectSt14default_deleteIS8_EESaISB_EERS7_I5GraphS9_ISF_EER10MSTFactoryRS7_I4TreeS9_ISL_EEEUlvE3_EEEvPT_DpOT0_
FNDA:6,_ZN9__gnu_cxx13new_allocatorISt8functionIFvvEEE9constructIS3_JRZ14handleCommandsiRSt6vectorISt10unique_ptrI12ActiveObjectSt14default_deleteIS8_EESaISB_EERS7_I5GraphS9_ISF_EER10MSTFactoryRS7_I4TreeS9_ISL_EEEUlvE3_EEEvPT_DpOT0_
FN:160,_ZN9__gnu_cxx13new_allocatorISt8functionIFvvEEE9constructIS3_JRZZ14handleCommandsiRSt6vectorISt10unique_ptrI12ActiveObjectSt14default_deleteIS8_EESaISB_EERS7_I5GraphS9_ISF_EER10MSTFactoryRS7_I4TreeS9_ISL_EEENKUlvE3_clEvEUlvE_EEEvPT_DpOT0_
FNDA:2,_ZN9__gnu_cxx13new_allocatorISt8functionIFvvEEE9constructIS3_JRZZ14handleCommandsiRSt6vectorISt10unique_ptrI12ActiveObjectSt14default_deleteIS8_EESaISB_EERS7_I5GraphS9_ISF_EER10MSTFactoryRS7_I4TreeS9_ISL_EEENKUlvE3_clEvEUlvE_EEEvPT_DpOT0_
FN:160,_ZN9__gnu_cxx13new_allocatorISt8functionIFvvEEE9constructIS3_JRZZZ14handleCommandsiRSt6vectorISt10unique_ptrI12ActiveObjectSt14default_deleteIS8_EESaISB_EERS7_I5GraphS9_ISF_EER10MSTFactoryRS7_I4TreeS9_ISL_EEENKUlvE3_clEvENKUlvE_clEvEUlvE_EEEvPT_DpOT0_
FNDA:2,_ZN9__gnu_cxx13new_allocatorISt8functionIFvvEEE9constructIS3_JRZZZ14handleCommandsiRSt6vectorISt10unique_ptrI12ActiveObjectSt14default_deleteIS8_EESaISB_EERS7_I5GraphS9_ISF_EER10MSTFactoryRS7_I4TreeS9_ISL_EEENKUlvE3_clEvENKUlvE_clEvEUlvE_EEEvPT_DpOT0_
FN:160,_ZN9__gnu_cxx13new_allocatorISt8functionIFvvEEE9constructIS3_JRZZZZ14handleCommandsiRSt6vectorISt10unique_ptrI12ActiveObjectSt14default_deleteIS8_EESaISB_EERS7_I5GraphS9_ISF_EER10MSTFactoryRS7_I4TreeS9_ISL_EEENKUlvE3_clEvENKUlvE_clEvENKUlvE_clEvEUlvE_EEEvPT_DpOT0_
FNDA:2,_ZN9__gnu_cxx13new_allocatorISt8functionIFvvEEE9constructIS3_JRZZZZ14handleCommandsiRSt6vectorISt10unique_ptrI12ActiveObjectSt14default_deleteIS8_EESaISB_EERS7_I5GraphS9_ISF_EER10MSTFactoryRS7_I4TreeS9_ISL_EEENKUlvE3_clEvENKUlvE_clEvENKUlvE_clEvEUlvE_EEEvPT_DpOT0_
FN:160,_ZN9__gnu_cxx13new_allocatorISt8functionIFvvEEE9constructIS3_JRZZZZZ14handleCommandsiRSt6vectorISt10unique_ptrI12ActiveObjectSt14default_deleteIS8_EESaISB_EERS7_I5GraphS9_ISF_EER10MSTFactoryRS7_I4TreeS9_ISL_EEENKUlvE3_clEvENKUlvE_clEvENKUlvE_clEvENKUlvE_clEvEUlvE_EEEvPT_DpOT0_
FNDA:2,_ZN9__gnu_cxx13new_allocatorISt8functionIFvvEEE9constructIS3_JRZZZZZ14handleCommandsiRSt6vectorISt10unique_ptrI12ActiveObjectSt14default_deleteIS8_EESaISB_EERS7_I5GraphS9_ISF_EER10MSTFactoryRS7_I4TreeS9_ISL_EEENKUlvE3_clEvENKUlvE_clEvENKUlvE_clEvENKUlvE_clEvEUlvE_EEEvPT_DpOT0_
FN:160,_ZN9__gnu_cxx13new_allocatorISt8functionIFvvEEE9constructIS3_JRZZZZZZ14handleCommandsiRSt6vectorISt10unique_ptrI12ActiveObjectSt14default_deleteIS8_EESaISB_EERS7_I5GraphS9_ISF_EER10MSTFactoryRS7_I4TreeS9_ISL_EEENKUlvE3_clEvENKUlvE_clEvENKUlvE_clEvENKUlvE_clEvENKUlvE_clEvEUlvE_EEEvPT_DpOT0_
FNDA:2,_ZN9__gnu_cxx13new_allocatorISt8functionIFvvEEE9constructIS3_JRZZZZZZ14handleCommandsiRSt6vectorISt10unique_ptrI12ActiveObjectSt14default_deleteIS8_EESaISB_EERS7_I5GraphS9_ISF_EER10MSTFactoryRS7_I4TreeS9_ISL_EEENKUlvE3_clEvENKUlvE_clEvENKUlvE_clEvENKUlvE_clEvENKUlvE_clEvEUlvE_EEEvPT_DpOT0_
FN:160,_ZN9__gnu_cxx13new_allocatorISt8functionIFvvEEE9constructIS3_JRZ14handleCommandsiRSt6vectorISt10unique_ptrI12ActiveObjectSt14default_deleteIS8_EESaISB_EERS7_I5GraphS9_ISF_EER10MSTFactoryRS7_I4TreeS9_ISL_EEEUlvE2_EEEvPT_DpOT0_
FNDA:4,_ZN9__gnu_cxx13new_allocatorISt8functionIFvvEEE9constructIS3_JRZ14handleCommandsiRSt6vectorISt10unique_ptrI12ActiveObjectSt14default_deleteIS8_EESaISB_EERS7_I5GraphS9_ISF_EER10MSTFactoryRS7_I4TreeS9_ISL_EEEUlvE2_EEEvPT_DpOT0_
FN:160,_ZN9__gnu_cxx13new_allocatorISt8functionIFvvEEE9constructIS3_JRZ14handleCommandsiRSt6vectorISt10unique_ptrI12ActiveObjectSt14default_deleteIS8_EESaISB_EERS7_I5GraphS9_ISF_EER10MSTFactoryRS7_I4TreeS9_ISL_EEEUlvE0_EEEvPT_DpOT0_
FNDA:7,_ZN9__gnu_cxx13new_allocatorISt8functionIFvvEEE9constructIS3_JRZ14handleCommandsiRSt6vectorISt10unique_ptrI12ActiveObjectSt14default_deleteIS8_EESaISB_EERS7_I5GraphS9_ISF_EER10MSTFactoryRS7_I4TreeS9_ISL_EEEUlvE0_EEEvPT_DpOT0_
FN:166,_ZN9__gnu_cxx13new_allocatorISt10unique_ptrI12ActiveObjectSt14default_deleteIS2_EEE7destroyIS5_EEvPT_
FNDA:14,_ZN9__gnu_cxx13new_allocatorISt10unique_ptrI12ActiveObjectSt14default_deleteIS2_EEE7destroyIS5_EEvPT_
FN:166,_ZN9__gnu_cxx13new_allocatorISt6vectorI4EdgeSaIS2_EEE7destroyIS4_EEvPT_
FNDA:0,_ZN9__gnu_cxx13new_allocatorISt6vectorI4EdgeSaIS2_EEE7destroyIS4_EEvPT_
FN:197,_ZNK9__gnu_cxx13new_allocatorImE11_M_max_sizeEv
FNDA:14,_ZNK9__gnu_cxx13new_allocatorImE11_M_max_sizeEv
FN:197,_ZNK9__gnu_cxx13new_allocatorIPSt8functionIFvvEEE11_M_max_sizeEv
FNDA:14,_ZNK9__gnu_cxx13new_allocatorIPSt8functionIFvvEEE11_M_max_sizeEv
FN:197,_ZNK9__gnu_cxx13new_allocatorISt8functionIFvvEEE11_M_max_sizeEv
FNDA:16,_ZNK9__gnu_cxx13new_allocatorISt8functionIFvvEEE11_M_max_sizeEv
FN:197,_ZNK9__gnu_cxx13new_allocatorISt10unique_ptrI12ActiveObjectSt14default_deleteIS2_EEE11_M_max_sizeEv
FNDA:26,_ZNK9__gnu_cxx13new_allocatorISt10unique_ptrI12ActiveObjectSt14default_deleteIS2_EEE11_M_max_sizeEv
FN:197,_ZNK9__gnu_cxx13new_allocatorISt6vectorI4EdgeSaIS2_EEE11_M_max_sizeEv
FNDA:20,_ZNK9__gnu_cxx13new_allocatorISt6vectorI4EdgeSaIS2_EEE11_M_max_sizeEv
DA:79,22
DA:79,28
DA:79,14
DA:79,9
DA:79,2
DA:79,2
DA:79,4
DA:79,0
DA:82,6
DA:82,14
DA:82,8
DA:82,0
DA:89,28
DA:89,14
DA:89,30
DA:89,21
DA:89,6
DA:89,0
DA:89,4
DA:89,0
DA:103,8
DA:111,8
DA:115,0
DA:116,0
DA:117,0
DA:127,8
DA:103,15
DA:111,15
DA:115,0
DA:116,0
DA:117,0
DA:127,15
DA:103,14
DA:111,14
DA:115,0
DA:116,0
DA:117,0
DA:127,14
DA:103,9
DA:111,9
DA:115,0
DA:116,0
DA:117,0
DA:127,9
DA:103,4
DA:111,4
DA:115,0
DA:116,0
DA:117,0
DA:127,4
DA:132,15
DA:145,15
DA:132,14
DA:145,14
DA:132,46
DA:145,46
DA:132,9
DA:145,9
DA:132,8
DA:145,8
DA:132,0
DA:145,0
DA:132,4
DA:145,4
DA:154,18
DA:155,18
DA:154,5
DA:155,5
DA:154,1
DA:155,1
DA:154,16
DA:155,16
DA:160,0
DA:162,0
DA:160,28
DA:162,28
DA:160,6
DA:162,6
DA:160,2
DA:162,2
DA:160,2
DA:162,2
DA:160,2
DA:162,2
DA:160,2
DA:162,2
DA:160,2
DA:162,2
DA:160,4
DA:162,4
DA:160,4
DA:162,4
DA:160,7
DA:162,7
DA:160,4
DA:162,4
DA:160,2
DA:162,2
DA:166,0
DA:168,0
DA:166,14
DA:168,14
DA:197,26
DA:200,26
DA:197,16
DA:200,16
DA:197,14
DA:200,14
DA:197,14
DA:200,14
DA:197,20
DA:200,20
end_of_record
SF:/home/eladubuntu/Git Projects/OS_2024-FINAL_PROJECT_MST/ActiveObject.hpp
FN:51,_ZN12ActiveObjectC2Ev
FNDA:14,_ZN12ActiveObjectC2Ev
FN:63,_ZN12ActiveObject7enqueueIZ14handleCommandsiRSt6vectorISt10unique_ptrIS_St14default_deleteIS_EESaIS5_EERS2_I5GraphS3_IS9_EER10MSTFactoryRS2_I4TreeS3_ISF_EEEUlvE3_EEvT_
FNDA:6,_ZN12ActiveObject7enqueueIZ14handleCommandsiRSt6vectorISt10unique_ptrIS_St14default_deleteIS_EESaIS5_EERS2_I5GraphS3_IS9_EER10MSTFactoryRS2_I4TreeS3_ISF_EEEUlvE3_EEvT_
FN:63,_ZN12ActiveObject7enqueueIZZ14handleCommandsiRSt6vectorISt10unique_ptrIS_St14default_deleteIS_EESaIS5_EERS2_I5GraphS3_IS9_EER10MSTFactoryRS2_I4TreeS3_ISF_EEENKUlvE3_clEvEUlvE_EEvT_
FNDA:2,_ZN12ActiveObject7enqueueIZZ14handleCommandsiRSt6vectorISt10unique_ptrIS_St14default_deleteIS_EESaIS5_EERS2_I5GraphS3_IS9_EER10MSTFactoryRS2_I4TreeS3_ISF_EEENKUlvE3_clEvEUlvE_EEvT_
FN:63,_ZN12ActiveObject7enqueueIZZZ14handleCommandsiRSt6vectorISt10unique_ptrIS_St14default_deleteIS_EESaIS5_EERS2_I5GraphS3_IS9_EER10MSTFactoryRS2_I4TreeS3_ISF_EEENKUlvE3_clEvENKUlvE_clEvEUlvE_EEvT_
FNDA:2,_ZN12ActiveObject7enqueueIZZZ14handleCommandsiRSt6vectorISt10unique_ptrIS_St14default_deleteIS_EESaIS5_EERS2_I5GraphS3_IS9_EER10MSTFactoryRS2_I4TreeS3_ISF_EEENKUlvE3_clEvENKUlvE_clEvEUlvE_EEvT_
FN:63,_ZN12ActiveObject7enqueueIZZZZ14handleCommandsiRSt6vectorISt10unique_ptrIS_St14default_deleteIS_EESaIS5_EERS2_I5GraphS3_IS9_EER10MSTFactoryRS2_I4TreeS3_ISF_EEENKUlvE3_clEvENKUlvE_clEvENKUlvE_clEvEUlvE_EEvT_
FNDA:2,_ZN12ActiveObject7enqueueIZZZZ14handleCommandsiRSt6vectorISt10unique_ptrIS_St14default_deleteIS_EESaIS5_EERS2_I5GraphS3_IS9_EER10MSTFactoryRS2_I4TreeS3_ISF_EEENKUlvE3_clEvENKUlvE_clEvENKUlvE_clEvEUlvE_EEvT_
FN:63,_ZN12ActiveObject7enqueueIZZZZZ14handleCommandsiRSt6vectorISt10unique_ptrIS_St14default_deleteIS_EESaIS5_EERS2_I5GraphS3_IS9_EER10MSTFactoryRS2_I4TreeS3_ISF_EEENKUlvE3_clEvENKUlvE_clEvENKUlvE_clEvENKUlvE_clEvEUlvE_EEvT_
FNDA:2,_ZN12ActiveObject7enqueueIZZZZZ14handleCommandsiRSt6vectorISt10unique_ptrIS_St14default_deleteIS_EESaIS5_EERS2_I5GraphS3_IS9_EER10MSTFactoryRS2_I4TreeS3_ISF_EEENKUlvE3_clEvENKUlvE_clEvENKUlvE_clEvENKUlvE_clEvEUlvE_EEvT_
FN:63,_ZN12ActiveObject7enqueueIZZZZZZ14handleCommandsiRSt6vectorISt10unique_ptrIS_St14default_deleteIS_EESaIS5_EERS2_I5GraphS3_IS9_EER10MSTFactoryRS2_I4TreeS3_ISF_EEENKUlvE3_clEvENKUlvE_clEvENKUlvE_clEvENKUlvE_clEvENKUlvE_clEvEUlvE_EEvT_
FNDA:2,_ZN12ActiveObject7enqueueIZZZZZZ14handleCommandsiRSt6vectorISt10unique_ptrIS_St14default_deleteIS_EESaIS5_EERS2_I5GraphS3_IS9_EER10MSTFactoryRS2_I4TreeS3_ISF_EEENKUlvE3_clEvENKUlvE_clEvENKUlvE_clEvENKUlvE_clEvENKUlvE_clEvEUlvE_EEvT_
FN:63,_ZN12ActiveObject7enqueueIZ14handleCommandsiRSt6vectorISt10unique_ptrIS_St14default_deleteIS_EESaIS5_EERS2_I5GraphS3_IS9_EER10MSTFactoryRS2_I4TreeS3_ISF_EEEUlvE2_EEvT_
FNDA:4,_ZN12ActiveObject7enqueueIZ14handleCommandsiRSt6vectorISt10unique_ptrIS_St14default_deleteIS_EESaIS5_EERS2_I5GraphS3_IS9_EER10MSTFactoryRS2_I4TreeS3_ISF_EEEUlvE2_EEvT_
FN:63,_ZN12ActiveObject7enqueueIZ14handleCommandsiRSt6vectorISt10unique_ptrIS_St14default_deleteIS_EESaIS5_EERS2_I5GraphS3_IS9_EER10MSTFactoryRS2_I4TreeS3_ISF_EEEUlvE1_EEvT_
FNDA:4,_ZN12ActiveObject7enqueueIZ14handleCommandsiRSt6vectorISt10unique_ptrIS_St14default_deleteIS_EESaIS5_EERS2_I5GraphS3_IS9_EER10MSTFactoryRS2_I4TreeS3_ISF_EEEUlvE1_EEvT_
FN:63,_ZN12ActiveObject7enqueueIZ14handleCommandsiRSt6vectorISt10unique_ptrIS_St14default_deleteIS_EESaIS5_EERS2_I5GraphS3_IS9_EER10MSTFactoryRS2_I4TreeS3_ISF_EEEUlvE0_EEvT_
FNDA:7,_ZN12ActiveObject7enqueueIZ14handleCommandsiRSt6vectorISt10unique_ptrIS_St14default_deleteIS_EESaIS5_EERS2_I5GraphS3_IS9_EER10MSTFactoryRS2_I4TreeS3_ISF_EEEUlvE0_EEvT_
FN:63,_ZN12ActiveObject7enqueueIZ14handleCommandsiRSt6vectorISt10unique_ptrIS_St14default_deleteIS_EESaIS5_EERS2_I5GraphS3_IS9_EER10MSTFactoryRS2_I4TreeS3_ISF_EEEUlvE_EEvT_
FNDA:4,_ZN12ActiveObject7enqueueIZ14handleCommandsiRSt6vectorISt10unique_ptrIS_St14default_deleteIS_EESaIS5_EERS2_I5GraphS3_IS9_EER10MSTFactoryRS2_I4TreeS3_ISF_EEEUlvE_EEvT_
FN:73,_ZN12ActiveObject14getOutputMutexEv
FNDA:2,_ZN12ActiveObject14getOutputMutexEv
DA:51,14
DA:63,6
DA:66,6
DA:68,6
DA:70,6
DA:71,6
DA:63,2
DA:66,2
DA:68,2
DA:70,2
DA:71,2
DA:63,2
DA:66,2
DA:68,2
DA:70,2
DA:71,2
DA:63,2
DA:66,2
DA:68,2
DA:70,2
DA:71,2
DA:63,2
DA:66,2
DA:68,2
DA:70,2
DA:71,2
DA:63,2
DA:66,2
DA:68,2
DA:70,2
DA:71,2
DA:63,4
DA:66,4
DA:68,4
DA:70,4
DA:71,4
DA:63,4
DA:66,4
DA:68,4
DA:70,4
DA:71,4
DA:63,7
DA:66,7
DA:68,7
DA:70,7
DA:71,7
DA:63,4
DA:66,4
DA:68,4
DA:70,4
DA:71,4
DA:73,2
end_of_record
SF:/usr/include/c++/11/bits/stl_iterator.h
FN:1027,_ZN9__gnu_cxx17__normal_iteratorIPKSt6vectorI4EdgeSaIS2_EES1_IS4_SaIS4_EEEC2ERKS6_
FNDA:16,_ZN9__gnu_cxx17__normal_iteratorIPKSt6vectorI4EdgeSaIS2_EES1_IS4_SaIS4_EEEC2ERKS6_
FN:1027,_ZN9__gnu_cxx17__normal_iteratorIPmSt6vectorImSaImEEEC2ERKS1_
FNDA:10,_ZN9__gnu_cxx17__normal_iteratorIPmSt6vectorImSaImEEEC2ERKS1_
FN:1027,_ZN9__gnu_cxx17__normal_iteratorIPSt10unique_ptrI12ActiveObjectSt14default_deleteIS2_EESt6vectorIS5_SaIS5_EEEC2ERKS6_
FNDA:52,_ZN9__gnu_cxx17__normal_iteratorIPSt10unique_ptrI12ActiveObjectSt14default_deleteIS2_EESt6vectorIS5_SaIS5_EEEC2ERKS6_
FN:1042,_ZNK9__gnu_cxx17__normal_iteratorIPmSt6vectorImSaImEEEdeEv
FNDA:2,_ZNK9__gnu_cxx17__normal_iteratorIPmSt6vectorImSaImEEEdeEv
FN:1042,_ZNK9__gnu_cxx17__normal_iteratorIPSt10unique_ptrI12ActiveObjectSt14default_deleteIS2_EESt6vectorIS5_SaIS5_EEEdeEv
FNDA:28,_ZNK9__gnu_cxx17__normal_iteratorIPSt10unique_ptrI12ActiveObjectSt14default_deleteIS2_EESt6vectorIS5_SaIS5_EEEdeEv
FN:1052,_ZN9__gnu_cxx17__normal_iteratorIPmSt6vectorImSaImEEEppEv
FNDA:2,_ZN9__gnu_cxx17__normal_iteratorIPmSt6vectorImSaImEEEppEv
FN:1052,_ZN9__gnu_cxx17__normal_iteratorIPSt10unique_ptrI12ActiveObjectSt14default_deleteIS2_EESt6vectorIS5_SaIS5_EEEppEv
FNDA:14,_ZN9__gnu_cxx17__normal_iteratorIPSt10unique_ptrI12ActiveObjectSt14default_deleteIS2_EESt6vectorIS5_SaIS5_EEEppEv
FN:1100,_ZNK9__gnu_cxx17__normal_iteratorIPSt10unique_ptrI12ActiveObjectSt14default_deleteIS2_EESt6vectorIS5_SaIS5_EEEmiEl
FNDA:14,_ZNK9__gnu_cxx17__normal_iteratorIPSt10unique_ptrI12ActiveObjectSt14default_deleteIS2_EESt6vectorIS5_SaIS5_EEEmiEl
FN:1105,_ZNK9__gnu_cxx17__normal_iteratorIPKSt6vectorI4EdgeSaIS2_EES1_IS4_SaIS4_EEE4baseEv
FNDA:16,_ZNK9__gnu_cxx17__normal_iteratorIPKSt6vectorI4EdgeSaIS2_EES1_IS4_SaIS4_EEE4baseEv
FN:1105,_ZNK9__gnu_cxx17__normal_iteratorIPSt10unique_ptrI12ActiveObjectSt14default_deleteIS2_EESt6vectorIS5_SaIS5_EEE4baseEv
FNDA:72,_ZNK9__gnu_cxx17__normal_iteratorIPSt10unique_ptrI12ActiveObjectSt14default_deleteIS2_EESt6vectorIS5_SaIS5_EEE4baseEv
FN:1105,_ZNK9__gnu_cxx17__normal_iteratorIPmSt6vectorImSaImEEE4baseEv
FNDA:20,_ZNK9__gnu_cxx17__normal_iteratorIPmSt6vectorImSaImEEE4baseEv
FN:1163,_ZN9__gnu_cxxeqIPSt10unique_ptrI12ActiveObjectSt14default_deleteIS2_EESt6vectorIS5_SaIS5_EEEEbRKNS_17__normal_iteratorIT_T0_EESF_
FNDA:2,_ZN9__gnu_cxxeqIPSt10unique_ptrI12ActiveObjectSt14default_deleteIS2_EESt6vectorIS5_SaIS5_EEEEbRKNS_17__normal_iteratorIT_T0_EESF_
FN:1163,_ZN9__gnu_cxxeqIPKSt6vectorI4EdgeSaIS2_EES1_IS4_SaIS4_EEEEbRKNS_17__normal_iteratorIT_T0_EESE_
FNDA:8,_ZN9__gnu_cxxeqIPKSt6vectorI4EdgeSaIS2_EES1_IS4_SaIS4_EEEEbRKNS_17__normal_iteratorIT_T0_EESE_
FN:1179,_ZN9__gnu_cxxneIPSt10unique_ptrI12ActiveObjectSt14default_deleteIS2_EESt6vectorIS5_SaIS5_EEEEbRKNS_17__normal_iteratorIT_T0_EESF_
FNDA:16,_ZN9__gnu_cxxneIPSt10unique_ptrI12ActiveObjectSt14default_deleteIS2_EESt6vectorIS5_SaIS5_EEEEbRKNS_17__normal_iteratorIT_T0_EESF_
FN:1179,_ZN9__gnu_cxxneIPmSt6vectorImSaImEEEEbRKNS_17__normal_iteratorIT_T0_EESA_
FNDA:4,_ZN9__gnu_cxxneIPmSt6vectorImSaImEEEEbRKNS_17__normal_iteratorIT_T0_EESA_
FN:1268,_ZN9__gnu_cxxmiIPSt10unique_ptrI12ActiveObjectSt14default_deleteIS2_EESt6vectorIS5_SaIS5_EEEENS_17__normal_iteratorIT_T0_E15difference_typeERKSD_SG_
FNDA:10,_ZN9__gnu_cxxmiIPSt10unique_ptrI12ActiveObjectSt14default_deleteIS2_EESt6vectorIS5_SaIS5_EEEENS_17__normal_iteratorIT_T0_E15difference_typeERKSD_SG_
FN:1268,_ZN9__gnu_cxxmiIPmSt6vectorImSaImEEEENS_17__normal_iteratorIT_T0_E15difference_typeERKS8_SB_
FNDA:3,_ZN9__gnu_cxxmiIPmSt6vectorImSaImEEEENS_17__normal_iteratorIT_T0_E15difference_typeERKS8_SB_
FN:1291,_ZSt12__niter_baseIPmSt6vectorImSaImEEET_N9__gnu_cxx17__normal_iteratorIS4_T0_EE
FNDA:2,_ZSt12__niter_baseIPmSt6vectorImSaImEEET_N9__gnu_cxx17__normal_iteratorIS4_T0_EE
FN:1439,_ZNSt13move_iteratorIN9__gnu_cxx17__normal_iteratorIPmSt6vectorImSaImEEEEEC2ES6_
FNDA:2,_ZNSt13move_iteratorIN9__gnu_cxx17__normal_iteratorIPmSt6vectorImSaImEEEEEC2ES6_
FN:1439,_ZNSt13move_iteratorIN9__gnu_cxx17__normal_iteratorIPSt10unique_ptrI12ActiveObjectSt14default_deleteIS3_EESt6vectorIS6_SaIS6_EEEEEC2ESB_
FNDA:4,_ZNSt13move_iteratorIN9__gnu_cxx17__normal_iteratorIPSt10unique_ptrI12ActiveObjectSt14default_deleteIS3_EESt6vectorIS6_SaIS6_EEEEEC2ESB_
FN:1464,_ZNKSt13move_iteratorIN9__gnu_cxx17__normal_iteratorIPmSt6vectorImSaImEEEEE4baseEv
FNDA:4,_ZNKSt13move_iteratorIN9__gnu_cxx17__normal_iteratorIPmSt6vectorImSaImEEEEE4baseEv
FN:1464,_ZNKSt13move_iteratorIN9__gnu_cxx17__normal_iteratorIPSt10unique_ptrI12ActiveObjectSt14default_deleteIS3_EESt6vectorIS6_SaIS6_EEEEE4baseEv
FNDA:8,_ZNKSt13move_iteratorIN9__gnu_cxx17__normal_iteratorIPSt10unique_ptrI12ActiveObjectSt14default_deleteIS3_EESt6vectorIS6_SaIS6_EEEEE4baseEv
FN:1477,_ZNKSt13move_iteratorIN9__gnu_cxx17__normal_iteratorIPSt10unique_ptrI12ActiveObjectSt14default_deleteIS3_EESt6vectorIS6_SaIS6_EEEEEdeEv
FNDA:0,_ZNKSt13move_iteratorIN9__gnu_cxx17__normal_iteratorIPSt10unique_ptrI12ActiveObjectSt14default_deleteIS3_EESt6vectorIS6_SaIS6_EEEEEdeEv
FN:1489,_ZNSt13move_iteratorIN9__gnu_cxx17__normal_iteratorIPSt10unique_ptrI12ActiveObjectSt14default_deleteIS3_EESt6vectorIS6_SaIS6_EEEEEppEv
FNDA:0,_ZNSt13move_iteratorIN9__gnu_cxx17__normal_iteratorIPSt10unique_ptrI12ActiveObjectSt14default_deleteIS3_EESt6vectorIS6_SaIS6_EEEEEppEv
FN:1648,_ZSteqIN9__gnu_cxx17__normal_iteratorIPSt10unique_ptrI12ActiveObjectSt14default_deleteIS3_EESt6vectorIS6_SaIS6_EEEEEbRKSt13move_iteratorIT_ESG_
FNDA:2,_ZSteqIN9__gnu_cxx17__normal_iteratorIPSt10unique_ptrI12ActiveObjectSt14default_deleteIS3_EESt6vectorIS6_SaIS6_EEEEEbRKSt13move_iteratorIT_ESG_
FN:1661,_ZStneIN9__gnu_cxx17__normal_iteratorIPSt10unique_ptrI12ActiveObjectSt14default_deleteIS3_EESt6vectorIS6_SaIS6_EEEEEbRKSt13move_iteratorIT_ESG_
FNDA:2,_ZStneIN9__gnu_cxx17__normal_iteratorIPSt10unique_ptrI12ActiveObjectSt14default_deleteIS3_EESt6vectorIS6_SaIS6_EEEEEbRKSt13move_iteratorIT_ESG_
FN:1693,_ZStmiIN9__gnu_cxx17__normal_iteratorIPmSt6vectorImSaImEEEES6_EDTmicldtfp_4baseEcldtfp0_4baseEERKSt13move_iteratorIT_ERKS8_IT0_E
FNDA:1,_ZStmiIN9__gnu_cxx17__normal_iteratorIPmSt6vectorImSaImEEEES6_EDTmicldtfp_4baseEcldtfp0_4baseEERKSt13move_iteratorIT_ERKS8_IT0_E
FN:1693,_ZStmiIN9__gnu_cxx17__normal_iteratorIPSt10unique_ptrI12ActiveObjectSt14default_deleteIS3_EESt6vectorIS6_SaIS6_EEEESB_EDTmicldtfp_4baseEcldtfp0_4baseEERKSt13move_iteratorIT_ERKSD_IT0_E
FNDA:2,_ZStmiIN9__gnu_cxx17__normal_iteratorIPSt10unique_ptrI12ActiveObjectSt14default_deleteIS3_EESt6vectorIS6_SaIS6_EEEESB_EDTmicldtfp_4baseEcldtfp0_4baseEERKSt13move_iteratorIT_ERKSD_IT0_E
FN:1714,_ZSt32__make_move_if_noexcept_iteratorIN9__gnu_cxx17__normal_iteratorIPmSt6vectorImSaImEEEESt13move_iteratorIS6_EET0_T_
FNDA:2,_ZSt32__make_move_if_noexcept_iteratorIN9__gnu_cxx17__normal_iteratorIPmSt6vectorImSaImEEEESt13move_iteratorIS6_EET0_T_
FN:1714,_ZSt32__make_move_if_noexcept_iteratorIN9__gnu_cxx17__normal_iteratorIPSt10unique_ptrI12ActiveObjectSt14default_deleteIS3_EESt6vectorIS6_SaIS6_EEEESt13move_iteratorISB_EET0_T_
FNDA:4,_ZSt32__make_move_if_noexcept_iteratorIN9__gnu_cxx17__normal_iteratorIPSt10unique_ptrI12ActiveObjectSt14default_deleteIS3_EESt6vectorIS6_SaIS6_EEEESt13move_iteratorISB_EET0_T_
FN:2464,_ZSt12__miter_baseIN9__gnu_cxx17__normal_iteratorIPmSt6vectorImSaImEEEEEDTcl12__miter_basecldtfp_4baseEEESt13move_iteratorIT_E
FNDA:2,_ZSt12__miter_baseIN9__gnu_cxx17__normal_iteratorIPmSt6vectorImSaImEEEEEDTcl12__miter_basecldtfp_4baseEEESt13move_iteratorIT_E
DA:1027,16
DA:1028,16
DA:1027,52
DA:1028,52
DA:1027,10
DA:1028,10
DA:1042,28
DA:1043,28
DA:1042,2
DA:1043,2
DA:1052,14
DA:1054,14
DA:1055,14
DA:1052,2
DA:1054,2
DA:1055,2
DA:1100,14
DA:1101,14
DA:1105,16
DA:1106,16
DA:1105,72
DA:1106,72
DA:1105,20
DA:1106,20
DA:1163,2
DA:1166,2
DA:1163,8
DA:1166,8
DA:1179,16
DA:1182,16
DA:1179,4
DA:1182,4
DA:1268,10
DA:1271,10
DA:1268,3
DA:1271,3
DA:1291,2
DA:1293,2
DA:1439,4
DA:1440,4
DA:1439,2
DA:1440,2
DA:1464,8
DA:1465,8
DA:1464,4
DA:1465,4
DA:1477,0
DA:1481,0
DA:1489,0
DA:1491,0
DA:1492,0
DA:1648,2
DA:1650,2
DA:1661,2
DA:1663,2
DA:1693,2
DA:1696,2
DA:1693,1
DA:1696,1
DA:1714,4
DA:1715,4
DA:1714,2
DA:1715,2
DA:2464,2
DA:2466,2
end_of_record
SF:/usr/include/c++/11/bits/std_mutex.h
FN:65,_ZNSt12__mutex_baseC2Ev
FNDA:14,_ZNSt12__mutex_baseC2Ev
FN:91,_ZNSt5mutexC2Ev
FNDA:14,_ZNSt5mutexC2Ev
FN:98,_ZNSt5mutex4lockEv
FNDA:224,_ZNSt5mutex4lockEv
FN:108,_ZNSt5mutex8try_lockEv
FNDA:11,_ZNSt5mutex8try_lockEv
FN:115,_ZNSt5mutex6unlockEv
FNDA:232,_ZNSt5mutex6unlockEv
DA:65,14
DA:91,14
DA:98,224
DA:100,224
DA:103,224
DA:104,0
DA:105,224
DA:108,11
DA:111,11
DA:115,232
DA:118,232
DA:119,232
end_of_record
SF:/home/eladubuntu/Git Projects/OS_2024-FINAL_PROJECT_MST/PipelineServer.cpp
FN:51,_Z13signalHandleri
FNDA:2,_Z13signalHandleri
FN:69,_Z12sendResponseiRKNSt7__cxx1112basic_stringIcSt11char_traitsIcESaIcEEE
FNDA:27,_Z12sendResponseiRKNSt7__cxx1112basic_stringIcSt11char_traitsIcESaIcEEE
FN:87,_Z9scanGraphRiS_RNSt7__cxx1118basic_stringstreamIcSt11char_traitsIcESaIcEEERSt10unique_ptrI5GraphSt14default_deleteIS8_EE
FNDA:4,_Z9scanGraphRiS_RNSt7__cxx1118basic_stringstreamIcSt11char_traitsIcESaIcEEERSt10unique_ptrI5GraphSt14default_deleteIS8_EE
FN:112,_Z14handleCommandsiRSt6vectorISt10unique_ptrI12ActiveObjectSt14default_deleteIS1_EESaIS4_EERS0_I5GraphS2_IS8_EER10MSTFactoryRS0_I4TreeS2_ISE_EE
FNDA:2,_Z14handleCommandsiRSt6vectorISt10unique_ptrI12ActiveObjectSt14default_deleteIS1_EESaIS4_EERS0_I5GraphS2_IS8_EER10MSTFactoryRS0_I4TreeS2_ISE_EE
FN:175,_ZZ14handleCommandsiRSt6vectorISt10unique_ptrI12ActiveObjectSt14default_deleteIS1_EESaIS4_EERS0_I5GraphS2_IS8_EER10MSTFactoryRS0_I4TreeS2_ISE_EEENKUlvE_clEv
FNDA:4,_ZZ14handleCommandsiRSt6vectorISt10unique_ptrI12ActiveObjectSt14default_deleteIS1_EESaIS4_EERS0_I5GraphS2_IS8_EER10MSTFactoryRS0_I4TreeS2_ISE_EEENKUlvE_clEv
FN:242,_ZZ14handleCommandsiRSt6vectorISt10unique_ptrI12ActiveObjectSt14default_deleteIS1_EESaIS4_EERS0_I5GraphS2_IS8_EER10MSTFactoryRS0_I4TreeS2_ISE_EEENKUlvE0_clEv
FNDA:7,_ZZ14handleCommandsiRSt6vectorISt10unique_ptrI12ActiveObjectSt14default_deleteIS1_EESaIS4_EERS0_I5GraphS2_IS8_EER10MSTFactoryRS0_I4TreeS2_ISE_EEENKUlvE0_clEv
FN:265,_ZZ14handleCommandsiRSt6vectorISt10unique_ptrI12ActiveObjectSt14default_deleteIS1_EESaIS4_EERS0_I5GraphS2_IS8_EER10MSTFactoryRS0_I4TreeS2_ISE_EEENKUlvE1_clEv
FNDA:4,_ZZ14handleCommandsiRSt6vectorISt10unique_ptrI12ActiveObjectSt14default_deleteIS1_EESaIS4_EERS0_I5GraphS2_IS8_EER10MSTFactoryRS0_I4TreeS2_ISE_EEENKUlvE1_clEv
FN:300,_ZZ14handleCommandsiRSt6vectorISt10unique_ptrI12ActiveObjectSt14default_deleteIS1_EESaIS4_EERS0_I5GraphS2_IS8_EER10MSTFactoryRS0_I4TreeS2_ISE_EEENKUlvE2_clEv
FNDA:4,_ZZ14handleCommandsiRSt6vectorISt10unique_ptrI12ActiveObjectSt14default_deleteIS1_EESaIS4_EERS0_I5GraphS2_IS8_EER10MSTFactoryRS0_I4TreeS2_ISE_EEENKUlvE2_clEv
FN:329,_ZZ14handleCommandsiRSt6vectorISt10unique_ptrI12ActiveObjectSt14default_deleteIS1_EESaIS4_EERS0_I5GraphS2_IS8_EER10MSTFactoryRS0_I4TreeS2_ISE_EEENKUlvE3_clEv
FNDA:6,_ZZ14handleCommandsiRSt6vectorISt10unique_ptrI12ActiveObjectSt14default_deleteIS1_EESaIS4_EERS0_I5GraphS2_IS8_EER10MSTFactoryRS0_I4TreeS2_ISE_EEENKUlvE3_clEv
FN:372,_ZZZ14handleCommandsiRSt6vectorISt10unique_ptrI12ActiveObjectSt14default_deleteIS1_EESaIS4_EERS0_I5GraphS2_IS8_EER10MSTFactoryRS0_I4TreeS2_ISE_EEENKUlvE3_clEvENKUlvE_clEv
FNDA:2,_ZZZ14handleCommandsiRSt6vectorISt10unique_ptrI12ActiveObjectSt14default_deleteIS1_EESaIS4_EERS0_I5GraphS2_IS8_EER10MSTFactoryRS0_I4TreeS2_ISE_EEENKUlvE3_clEvENKUlvE_clEv
FN:382,_ZZZZ14handleCommandsiRSt6vectorISt10unique_ptrI12ActiveObjectSt14default_deleteIS1_EESaIS4_EERS0_I5GraphS2_IS8_EER10MSTFactoryRS0_I4TreeS2_ISE_EEENKUlvE3_clEvENKUlvE_clEvENKUlvE_clEv
FNDA:2,_ZZZZ14handleCommandsiRSt6vectorISt10unique_ptrI12ActiveObjectSt14default_deleteIS1_EESaIS4_EERS0_I5GraphS2_IS8_EER10MSTFactoryRS0_I4TreeS2_ISE_EEENKUlvE3_clEvENKUlvE_clEvENKUlvE_clEv
FN:389,_ZZZZZ14handleCommandsiRSt6vectorISt10unique_ptrI12ActiveObjectSt14default_deleteIS1_EESaIS4_EERS0_I5GraphS2_IS8_EER10MSTFactoryRS0_I4TreeS2_ISE_EEENKUlvE3_clEvENKUlvE_clEvENKUlvE_clEvENKUlvE_clEv
FNDA:2,_ZZZZZ14handleCommandsiRSt6vectorISt10unique_ptrI12ActiveObjectSt14default_deleteIS1_EESaIS4_EERS0_I5GraphS2_IS8_EER10MSTFactoryRS0_I4TreeS2_ISE_EEENKUlvE3_clEvENKUlvE_clEvENKUlvE_clEvENKUlvE_clEv
FN:396,_ZZZZZZ14handleCommandsiRSt6vectorISt10unique_ptrI12ActiveObjectSt14default_deleteIS1_EESaIS4_EERS0_I5GraphS2_IS8_EER10MSTFactoryRS0_I4TreeS2_ISE_EEENKUlvE3_clEvENKUlvE_clEvENKUlvE_clEvENKUlvE_clEvENKUlvE_clEv
FNDA:2,_ZZZZZZ14handleCommandsiRSt6vectorISt10unique_ptrI12ActiveObjectSt14default_deleteIS1_EESaIS4_EERS0_I5GraphS2_IS8_EER10MSTFactoryRS0_I4TreeS2_ISE_EEENKUlvE3_clEvENKUlvE_clEvENKUlvE_clEvENKUlvE_clEvENKUlvE_clEv
FN:403,_ZZZZZZZ14handleCommandsiRSt6vectorISt10unique_ptrI12ActiveObjectSt14default_deleteIS1_EESaIS4_EERS0_I5GraphS2_IS8_EER10MSTFactoryRS0_I4TreeS2_ISE_EEENKUlvE3_clEvENKUlvE_clEvENKUlvE_clEvENKUlvE_clEvENKUlvE_clEvENKUlvE_clEv
FNDA:2,_ZZZZZZZ14handleCommandsiRSt6vectorISt10unique_ptrI12ActiveObjectSt14default_deleteIS1_EESaIS4_EERS0_I5GraphS2_IS8_EER10MSTFactoryRS0_I4TreeS2_ISE_EEENKUlvE3_clEvENKUlvE_clEvENKUlvE_clEvENKUlvE_clEvENKUlvE_clEvENKUlvE_clEv
FN:461,_Z16acceptConnectioni
FNDA:4,_Z16acceptConnectioni
FN:491,main
FNDA:2,main
FN:502,_ZZ4mainENKUliE_clEi
FNDA:2,_ZZ4mainENKUliE_clEi
FN:576,_ZZ4mainENKUlPvE0_clES_
FNDA:2,_ZZ4mainENKUlPvE0_clES_
DA:51,2
DA:53,2
DA:54,2
DA:55,2
DA:56,2
DA:57,2
DA:58,2
DA:59,2
DA:60,2
DA:61,0
DA:69,27
DA:71,27
DA:73,0
DA:74,0
DA:75,0
DA:76,27
DA:87,4
DA:89,4
DA:91,2
DA:92,2
DA:93,2
DA:94,2
DA:96,2
DA:97,2
DA:112,2
DA:114,2
DA:115,2
DA:116,2
DA:117,2
DA:119,24
DA:121,24
DA:122,24
DA:123,24
DA:125,1
DA:126,1
DA:128,1
DA:129,1
DA:130,1
DA:131,1
DA:134,0
DA:137,23
DA:138,23
DA:139,23
DA:141,23
DA:142,23
DA:144,23
DA:145,23
DA:146,23
DA:148,23
DA:150,23
DA:152,5
DA:154,5
DA:156,1
DA:157,1
DA:159,4
DA:161,1
DA:162,1
DA:164,4
DA:166,1
DA:167,1
DA:170,4
DA:171,4
DA:172,4
DA:173,4
DA:175,4
DA:177,4
DA:178,4
DA:179,4
DA:180,4
DA:181,4
DA:182,4
DA:185,4
DA:186,8
DA:187,4
DA:189,4
DA:190,4
DA:192,2
DA:193,2
DA:196,13
DA:198,12
DA:201,12
DA:202,12
DA:204,12
DA:205,12
DA:206,12
DA:207,12
DA:209,12
DA:211,1
DA:212,1
DA:214,1
DA:215,1
DA:216,1
DA:217,1
DA:220,0
DA:221,0
DA:225,11
DA:226,11
DA:228,1
DA:229,1
DA:230,1
DA:233,12
DA:235,10
DA:237,3
DA:238,3
DA:239,3
DA:242,7
DA:244,7
DA:245,7
DA:246,7
DA:250,2
DA:251,2
DA:252,2
DA:253,2
DA:254,2
DA:255,7
DA:256,18
DA:258,5
DA:259,5
DA:261,1
DA:262,1
DA:265,4
DA:267,4
DA:268,4
DA:270,1
DA:271,1
DA:272,1
DA:273,1
DA:274,1
DA:275,1
DA:276,3
DA:277,3
DA:278,3
DA:280,2
DA:284,1
DA:286,3
DA:287,3
DA:288,4
DA:291,13
DA:293,5
DA:294,5
DA:296,1
DA:297,1
DA:300,4
DA:302,4
DA:303,4
DA:305,1
DA:306,1
DA:307,1
DA:308,1
DA:309,1
DA:310,1
DA:311,3
DA:312,3
DA:313,3
DA:315,2
DA:319,1
DA:321,3
DA:322,3
DA:323,4
DA:327,8
DA:329,6
DA:331,6
DA:332,6
DA:334,2
DA:335,2
DA:336,2
DA:337,2
DA:338,2
DA:339,2
DA:340,4
DA:342,2
DA:343,2
DA:344,2
DA:345,2
DA:346,2
DA:347,2
DA:349,2
DA:351,1
DA:352,1
DA:355,2
DA:357,1
DA:360,1
DA:362,1
DA:366,0
DA:367,0
DA:368,0
DA:369,0
DA:370,0
DA:371,0
DA:372,2
DA:374,2
DA:376,2
DA:377,2
DA:378,2
DA:379,2
DA:381,2
DA:382,2
DA:385,2
DA:386,2
DA:387,2
DA:388,2
DA:389,2
DA:392,2
DA:393,2
DA:394,2
DA:395,2
DA:396,2
DA:399,2
DA:400,2
DA:401,2
DA:402,2
DA:403,2
DA:406,2
DA:407,2
DA:409,2
DA:410,2
DA:411,2
DA:413,2
DA:414,2
DA:415,2
DA:416,2
DA:417,2
DA:418,2
DA:419,2
DA:420,2
DA:421,2
DA:422,2
DA:424,2
DA:426,2
DA:427,6
DA:429,2
DA:431,1
DA:432,1
DA:433,1
DA:437,1
DA:438,1
DA:442,16
DA:443,30
DA:444,14
DA:446,16
DA:447,16
DA:448,16
DA:449,16
DA:450,44
DA:452,2
DA:453,2
DA:461,4
DA:464,4
DA:465,4
DA:466,2
DA:468,0
DA:469,0
DA:471,2
DA:473,2
DA:475,2
DA:476,2
DA:477,4
DA:478,2
DA:479,2
DA:491,2
DA:493,2
DA:494,2
DA:495,2
DA:496,2
DA:497,2
DA:498,2
DA:499,2
DA:500,2
DA:502,2
DA:504,4
DA:506,2
DA:507,2
DA:509,2
DA:510,2
DA:511,2
DA:512,2
DA:513,2
DA:514,2
DA:515,16
DA:517,14
DA:519,2
DA:520,2
DA:521,4
DA:525,2
DA:527,2
DA:529,0
DA:530,0
DA:533,2
DA:535,0
DA:536,0
DA:539,2
DA:540,2
DA:541,2
DA:542,2
DA:544,2
DA:546,0
DA:547,0
DA:550,2
DA:552,0
DA:553,0
DA:557,2
DA:558,2
DA:559,2
DA:561,16
DA:563,14
DA:568,4
DA:569,2
DA:571,0
DA:574,2
DA:576,2
DA:578,2
DA:579,2
DA:580,2
DA:582,2
DA:583,2
DA:584,2
DA:588,0
end_of_record
SF:/usr/include/c++/11/bits/stl_construct.h
FN:109,_ZSt10_ConstructISt6vectorI4EdgeSaIS1_EEJEEvPT_DpOT0_
FNDA:19,_ZSt10_ConstructISt6vectorI4EdgeSaIS1_EEJEEvPT_DpOT0_
FN:109,_ZSt10_ConstructISt10unique_ptrI12ActiveObjectSt14default_deleteIS1_EEJS4_EEvPT_DpOT0_
FNDA:0,_ZSt10_ConstructISt10unique_ptrI12ActiveObjectSt14default_deleteIS1_EEJS4_EEvPT_DpOT0_
FN:146,_ZSt8_DestroyISt8functionIFvvEEEvPT_
FNDA:0,_ZSt8_DestroyISt8functionIFvvEEEvPT_
FN:146,_ZSt8_DestroyISt10unique_ptrI12ActiveObjectSt14default_deleteIS1_EEEvPT_
FNDA:14,_ZSt8_DestroyISt10unique_ptrI12ActiveObjectSt14default_deleteIS1_EEEvPT_
FN:146,_ZSt8_DestroyISt6threadEvPT_
FNDA:0,_ZSt8_DestroyISt6threadEvPT_
FN:146,_ZSt8_DestroyISt6vectorI4EdgeSaIS1_EEEvPT_
FNDA:19,_ZSt8_DestroyISt6vectorI4EdgeSaIS1_EEEvPT_
FN:160,_ZNSt12_Destroy_auxILb0EE9__destroyIPSt10unique_ptrI12ActiveObjectSt14default_deleteIS3_EEEEvT_S8_
FNDA:4,_ZNSt12_Destroy_auxILb0EE9__destroyIPSt10unique_ptrI12ActiveObjectSt14default_deleteIS3_EEEEvT_S8_
FN:160,_ZNSt12_Destroy_auxILb0EE9__destroyIPSt6vectorI4EdgeSaIS3_EEEEvT_S7_
FNDA:4,_ZNSt12_Destroy_auxILb0EE9__destroyIPSt6vectorI4EdgeSaIS3_EEEEvT_S7_
FN:160,_ZNSt12_Destroy_auxILb0EE9__destroyIPSt6threadEEvT_S4_
FNDA:0,_ZNSt12_Destroy_auxILb0EE9__destroyIPSt6threadEEvT_S4_
FN:160,_ZNSt12_Destroy_auxILb0EE9__destroyIPSt8functionIFvvEEEEvT_S6_
FNDA:14,_ZNSt12_Destroy_auxILb0EE9__destroyIPSt8functionIFvvEEEEvT_S6_
FN:172,_ZNSt12_Destroy_auxILb1EE9__destroyIPmEEvT_S3_
FNDA:2,_ZNSt12_Destroy_auxILb1EE9__destroyIPmEEvT_S3_
FN:172,_ZNSt12_Destroy_auxILb1EE9__destroyIP4EdgeEEvT_S4_
FNDA:28,_ZNSt12_Destroy_auxILb1EE9__destroyIP4EdgeEEvT_S4_
FN:182,_ZSt8_DestroyIPSt8functionIFvvEEEvT_S4_
FNDA:14,_ZSt8_DestroyIPSt8functionIFvvEEEvT_S4_
FN:182,_ZSt8_DestroyIPmEvT_S1_
FNDA:2,_ZSt8_DestroyIPmEvT_S1_
FN:182,_ZSt8_DestroyIPSt10unique_ptrI12ActiveObjectSt14default_deleteIS1_EEEvT_S6_
FNDA:4,_ZSt8_DestroyIPSt10unique_ptrI12ActiveObjectSt14default_deleteIS1_EEEvT_S6_
FN:182,_ZSt8_DestroyIPSt6threadEvT_S2_
FNDA:0,_ZSt8_DestroyIPSt6threadEvT_S2_
FN:182,_ZSt8_DestroyIP4EdgeEvT_S2_
FNDA:28,_ZSt8_DestroyIP4EdgeEvT_S2_
FN:182,_ZSt8_DestroyIPSt6vectorI4EdgeSaIS1_EEEvT_S5_
FNDA:4,_ZSt8_DestroyIPSt6vectorI4EdgeSaIS1_EEEvT_S5_
DA:109,0
DA:119,0
DA:120,0
DA:109,19
DA:119,19
DA:120,19
DA:146,0
DA:151,0
DA:153,0
DA:146,14
DA:151,14
DA:153,14
DA:146,0
DA:151,0
DA:153,0
DA:146,19
DA:151,19
DA:153,19
DA:160,14
DA:162,14
DA:163,0
DA:164,14
DA:160,4
DA:162,18
DA:163,14
DA:164,4
DA:160,0
DA:162,0
DA:163,0
DA:164,0
DA:160,4
DA:162,23
DA:163,19
DA:164,4
DA:172,2
DA:172,28
DA:182,14
DA:196,14
DA:197,14
DA:182,2
DA:196,2
DA:197,2
DA:182,4
DA:196,4
DA:197,4
DA:182,0
DA:196,0
DA:197,0
DA:182,28
DA:196,28
DA:197,28
DA:182,4
DA:196,4
DA:197,4
end_of_record
SF:/home/eladubuntu/Git Projects/OS_2024-FINAL_PROJECT_MST/MSTFactory.hpp
FN:25,_ZN10MSTFactory15destroyStrategyEv
FNDA:2,_ZN10MSTFactory15destroyStrategyEv
DA:25,2
end_of_record
SF:/usr/include/c++/11/bits/alloc_traits.h
FN:463,_ZNSt16allocator_traitsISaISt10unique_ptrI12ActiveObjectSt14default_deleteIS1_EEEE8allocateERS5_m
FNDA:8,_ZNSt16allocator_traitsISaISt10unique_ptrI12ActiveObjectSt14default_deleteIS1_EEEE8allocateERS5_m
FN:463,_ZNSt16allocator_traitsISaISt8functionIFvvEEEE8allocateERS3_m
FNDA:15,_ZNSt16allocator_traitsISaISt8functionIFvvEEEE8allocateERS3_m
FN:463,_ZNSt16allocator_traitsISaIPSt8functionIFvvEEEE8allocateERS4_m
FNDA:14,_ZNSt16allocator_traitsISaIPSt8functionIFvvEEEE8allocateERS4_m
FN:463,_ZNSt16allocator_traitsISaISt6vectorI4EdgeSaIS1_EEEE8allocateERS4_m
FNDA:4,_ZNSt16allocator_traitsISaISt6vectorI4EdgeSaIS1_EEEE8allocateERS4_m
FN:463,_ZNSt16allocator_traitsISaImEE8allocateERS0_m
FNDA:9,_ZNSt16allocator_traitsISaImEE8allocateERS0_m
FN:495,_ZNSt16allocator_traitsISaISt6vectorI4EdgeSaIS1_EEEE10deallocateERS4_PS3_m
FNDA:4,_ZNSt16allocator_traitsISaISt6vectorI4EdgeSaIS1_EEEE10deallocateERS4_PS3_m
FN:495,_ZNSt16allocator_traitsISaISt6threadEE10deallocateERS1_PS0_m
FNDA:0,_ZNSt16allocator_traitsISaISt6threadEE10deallocateERS1_PS0_m
FN:495,_ZNSt16allocator_traitsISaISt10unique_ptrI12ActiveObjectSt14default_deleteIS1_EEEE10deallocateERS5_PS4_m
FNDA:8,_ZNSt16allocator_traitsISaISt10unique_ptrI12ActiveObjectSt14default_deleteIS1_EEEE10deallocateERS5_PS4_m
FN:495,_ZNSt16allocator_traitsISaImEE10deallocateERS0_Pmm
FNDA:9,_ZNSt16allocator_traitsISaImEE10deallocateERS0_Pmm
FN:495,_ZNSt16allocator_traitsISaISt8functionIFvvEEEE10deallocateERS3_PS2_m
FNDA:15,_ZNSt16allocator_traitsISaISt8functionIFvvEEEE10deallocateERS3_PS2_m
FN:495,_ZNSt16allocator_traitsISaI4EdgeEE10deallocateERS1_PS0_m
FNDA:46,_ZNSt16allocator_traitsISaI4EdgeEE10deallocateERS1_PS0_m
FN:495,_ZNSt16allocator_traitsISaIPSt8functionIFvvEEEE10deallocateERS4_PS3_m
FNDA:14,_ZNSt16allocator_traitsISaIPSt8functionIFvvEEEE10deallocateERS4_PS3_m
FN:511,_ZNSt16allocator_traitsISaISt8functionIFvvEEEE9constructIS2_JRZZZZZZ14handleCommandsiRSt6vectorISt10unique_ptrI12ActiveObjectSt14default_deleteIS8_EESaISB_EERS7_I5GraphS9_ISF_EER10MSTFactoryRS7_I4TreeS9_ISL_EEENKUlvE3_clEvENKUlvE_clEvENKUlvE_clEvENKUlvE_clEvENKUlvE_clEvEUlvE_EEEvRS3_PT_DpOT0_
FNDA:2,_ZNSt16allocator_traitsISaISt8functionIFvvEEEE9constructIS2_JRZZZZZZ14handleCommandsiRSt6vectorISt10unique_ptrI12ActiveObjectSt14default_deleteIS8_EESaISB_EERS7_I5GraphS9_ISF_EER10MSTFactoryRS7_I4TreeS9_ISL_EEENKUlvE3_clEvENKUlvE_clEvENKUlvE_clEvENKUlvE_clEvENKUlvE_clEvEUlvE_EEEvRS3_PT_DpOT0_
FN:511,_ZNSt16allocator_traitsISaISt8functionIFvvEEEE9constructIS2_JRZZ14handleCommandsiRSt6vectorISt10unique_ptrI12ActiveObjectSt14default_deleteIS8_EESaISB_EERS7_I5GraphS9_ISF_EER10MSTFactoryRS7_I4TreeS9_ISL_EEENKUlvE3_clEvEUlvE_EEEvRS3_PT_DpOT0_
FNDA:2,_ZNSt16allocator_traitsISaISt8functionIFvvEEEE9constructIS2_JRZZ14handleCommandsiRSt6vectorISt10unique_ptrI12ActiveObjectSt14default_deleteIS8_EESaISB_EERS7_I5GraphS9_ISF_EER10MSTFactoryRS7_I4TreeS9_ISL_EEENKUlvE3_clEvEUlvE_EEEvRS3_PT_DpOT0_
FN:511,_ZNSt16allocator_traitsISaISt8functionIFvvEEEE9constructIS2_JRZZZ14handleCommandsiRSt6vectorISt10unique_ptrI12ActiveObjectSt14default_deleteIS8_EESaISB_EERS7_I5GraphS9_ISF_EER10MSTFactoryRS7_I4TreeS9_ISL_EEENKUlvE3_clEvENKUlvE_clEvEUlvE_EEEvRS3_PT_DpOT0_
FNDA:2,_ZNSt16allocator_traitsISaISt8functionIFvvEEEE9constructIS2_JRZZZ14handleCommandsiRSt6vectorISt10unique_ptrI12ActiveObjectSt14default_deleteIS8_EESaISB_EERS7_I5GraphS9_ISF_EER10MSTFactoryRS7_I4TreeS9_ISL_EEENKUlvE3_clEvENKUlvE_clEvEUlvE_EEEvRS3_PT_DpOT0_
FN:511,_ZNSt16allocator_traitsISaISt8functionIFvvEEEE9constructIS2_JRZZZZ14handleCommandsiRSt6vectorISt10unique_ptrI12ActiveObjectSt14default_deleteIS8_EESaISB_EERS7_I5GraphS9_ISF_EER10MSTFactoryRS7_I4TreeS9_ISL_EEENKUlvE3_clEvENKUlvE_clEvENKUlvE_clEvEUlvE_EEEvRS3_PT_DpOT0_
FNDA:2,_ZNSt16allocator_traitsISaISt8functionIFvvEEEE9constructIS2_JRZZZZ14handleCommandsiRSt6vectorISt10unique_ptrI12ActiveObjectSt14default_deleteIS8_EESaISB_EERS7_I5GraphS9_ISF_EER10MSTFactoryRS7_I4TreeS9_ISL_EEENKUlvE3_clEvENKUlvE_clEvENKUlvE_clEvEUlvE_EEEvRS3_PT_DpOT0_
FN:511,_ZNSt16allocator_traitsISaISt8functionIFvvEEEE9constructIS2_JRZZZZZ14handleCommandsiRSt6vectorISt10unique_ptrI12ActiveObjectSt14default_deleteIS8_EESaISB_EERS7_I5GraphS9_ISF_EER10MSTFactoryRS7_I4TreeS9_ISL_EEENKUlvE3_clEvENKUlvE_clEvENKUlvE_clEvENKUlvE_clEvEUlvE_EEEvRS3_PT_DpOT0_
FNDA:2,_ZNSt16allocator_traitsISaISt8functionIFvvEEEE9constructIS2_JRZZZZZ14handleCommandsiRSt6vectorISt10unique_ptrI12ActiveObjectSt14default_deleteIS8_EESaISB_EERS7_I5GraphS9_ISF_EER10MSTFactoryRS7_I4TreeS9_ISL_EEENKUlvE3_clEvENKUlvE_clEvENKUlvE_clEvENKUlvE_clEvEUlvE_EEEvRS3_PT_DpOT0_
FN:511,_ZNSt16allocator_traitsISaISt6vectorI4EdgeSaIS1_EEEE9constructIS3_JS3_EEEvRS4_PT_DpOT0_
FNDA:0,_ZNSt16allocator_traitsISaISt6vectorI4EdgeSaIS1_EEEE9constructIS3_JS3_EEEvRS4_PT_DpOT0_
FN:511,_ZNSt16allocator_traitsISaISt8functionIFvvEEEE9constructIS2_JRZ14handleCommandsiRSt6vectorISt10unique_ptrI12ActiveObjectSt14default_deleteIS8_EESaISB_EERS7_I5GraphS9_ISF_EER10MSTFactoryRS7_I4TreeS9_ISL_EEEUlvE2_EEEvRS3_PT_DpOT0_
FNDA:4,_ZNSt16allocator_traitsISaISt8functionIFvvEEEE9constructIS2_JRZ14handleCommandsiRSt6vectorISt10unique_ptrI12ActiveObjectSt14default_deleteIS8_EESaISB_EERS7_I5GraphS9_ISF_EER10MSTFactoryRS7_I4TreeS9_ISL_EEEUlvE2_EEEvRS3_PT_DpOT0_
FN:511,_ZNSt16allocator_traitsISaISt8functionIFvvEEEE9constructIS2_JRZ14handleCommandsiRSt6vectorISt10unique_ptrI12ActiveObjectSt14default_deleteIS8_EESaISB_EERS7_I5GraphS9_ISF_EER10MSTFactoryRS7_I4TreeS9_ISL_EEEUlvE1_EEEvRS3_PT_DpOT0_
FNDA:4,_ZNSt16allocator_traitsISaISt8functionIFvvEEEE9constructIS2_JRZ14handleCommandsiRSt6vectorISt10unique_ptrI12ActiveObjectSt14default_deleteIS8_EESaISB_EERS7_I5GraphS9_ISF_EER10MSTFactoryRS7_I4TreeS9_ISL_EEEUlvE1_EEEvRS3_PT_DpOT0_
FN:511,_ZNSt16allocator_traitsISaISt8functionIFvvEEEE9constructIS2_JRZ14handleCommandsiRSt6vectorISt10unique_ptrI12ActiveObjectSt14default_deleteIS8_EESaISB_EERS7_I5GraphS9_ISF_EER10MSTFactoryRS7_I4TreeS9_ISL_EEEUlvE0_EEEvRS3_PT_DpOT0_
FNDA:7,_ZNSt16allocator_traitsISaISt8functionIFvvEEEE9constructIS2_JRZ14handleCommandsiRSt6vectorISt10unique_ptrI12ActiveObjectSt14default_deleteIS8_EESaISB_EERS7_I5GraphS9_ISF_EER10MSTFactoryRS7_I4TreeS9_ISL_EEEUlvE0_EEEvRS3_PT_DpOT0_
FN:511,_ZNSt16allocator_traitsISaISt8functionIFvvEEEE9constructIS2_JRZ14handleCommandsiRSt6vectorISt10unique_ptrI12ActiveObjectSt14default_deleteIS8_EESaISB_EERS7_I5GraphS9_ISF_EER10MSTFactoryRS7_I4TreeS9_ISL_EEEUlvE_EEEvRS3_PT_DpOT0_
FNDA:4,_ZNSt16allocator_traitsISaISt8functionIFvvEEEE9constructIS2_JRZ14handleCommandsiRSt6vectorISt10unique_ptrI12ActiveObjectSt14default_deleteIS8_EESaISB_EERS7_I5GraphS9_ISF_EER10MSTFactoryRS7_I4TreeS9_ISL_EEEUlvE_EEEvRS3_PT_DpOT0_
FN:511,_ZNSt16allocator_traitsISaImEE9constructImJRKmEEEvRS0_PT_DpOT0_
FNDA:2,_ZNSt16allocator_traitsISaImEE9constructImJRKmEEEvRS0_PT_DpOT0_
FN:511,_ZNSt16allocator_traitsISaISt10unique_ptrI12ActiveObjectSt14default_deleteIS1_EEEE9constructIS4_JS4_EEEvRS5_PT_DpOT0_
FNDA:28,_ZNSt16allocator_traitsISaISt10unique_ptrI12ActiveObjectSt14default_deleteIS1_EEEE9constructIS4_JS4_EEEvRS5_PT_DpOT0_
FN:511,_ZNSt16allocator_traitsISaISt8functionIFvvEEEE9constructIS2_JRZ14handleCommandsiRSt6vectorISt10unique_ptrI12ActiveObjectSt14default_deleteIS8_EESaISB_EERS7_I5GraphS9_ISF_EER10MSTFactoryRS7_I4TreeS9_ISL_EEEUlvE3_EEEvRS3_PT_DpOT0_
FNDA:6,_ZNSt16allocator_traitsISaISt8functionIFvvEEEE9constructIS2_JRZ14handleCommandsiRSt6vectorISt10unique_ptrI12ActiveObjectSt14default_deleteIS8_EESaISB_EERS7_I5GraphS9_ISF_EER10MSTFactoryRS7_I4TreeS9_ISL_EEEUlvE3_EEEvRS3_PT_DpOT0_
FN:531,_ZNSt16allocator_traitsISaISt6vectorI4EdgeSaIS1_EEEE7destroyIS3_EEvRS4_PT_
FNDA:0,_ZNSt16allocator_traitsISaISt6vectorI4EdgeSaIS1_EEEE7destroyIS3_EEvRS4_PT_
FN:531,_ZNSt16allocator_traitsISaISt10unique_ptrI12ActiveObjectSt14default_deleteIS1_EEEE7destroyIS4_EEvRS5_PT_
FNDA:14,_ZNSt16allocator_traitsISaISt10unique_ptrI12ActiveObjectSt14default_deleteIS1_EEEE7destroyIS4_EEvRS5_PT_
FN:547,_ZNSt16allocator_traitsISaISt6vectorI4EdgeSaIS1_EEEE8max_sizeERKS4_
FNDA:16,_ZNSt16allocator_traitsISaISt6vectorI4EdgeSaIS1_EEEE8max_sizeERKS4_
FN:547,_ZNSt16allocator_traitsISaISt8functionIFvvEEEE8max_sizeERKS3_
FNDA:1,_ZNSt16allocator_traitsISaISt8functionIFvvEEEE8max_sizeERKS3_
FN:547,_ZNSt16allocator_traitsISaISt10unique_ptrI12ActiveObjectSt14default_deleteIS1_EEEE8max_sizeERKS5_
FNDA:18,_ZNSt16allocator_traitsISaISt10unique_ptrI12ActiveObjectSt14default_deleteIS1_EEEE8max_sizeERKS5_
FN:547,_ZNSt16allocator_traitsISaImEE8max_sizeERKS0_
FNDA:5,_ZNSt16allocator_traitsISaImEE8max_sizeERKS0_
FN:562,_ZNSt16allocator_traitsISaIcEE37select_on_container_copy_constructionERKS0_
FNDA:5,_ZNSt16allocator_traitsISaIcEE37select_on_container_copy_constructionERKS0_
FN:737,_ZSt15__alloc_on_swapISaISt10unique_ptrI12ActiveObjectSt14default_deleteIS1_EEEEvRT_S7_
FNDA:2,_ZSt15__alloc_on_swapISaISt10unique_ptrI12ActiveObjectSt14default_deleteIS1_EEEEvRT_S7_
FN:737,_ZSt15__alloc_on_swapISaImEEvRT_S2_
FNDA:1,_ZSt15__alloc_on_swapISaImEEvRT_S2_
FN:845,_ZSt8_DestroyIPSt8functionIFvvEES2_EvT_S4_RSaIT0_E
FNDA:14,_ZSt8_DestroyIPSt8functionIFvvEES2_EvT_S4_RSaIT0_E
FN:845,_ZSt8_DestroyIPmmEvT_S1_RSaIT0_E
FNDA:2,_ZSt8_DestroyIPmmEvT_S1_RSaIT0_E
FN:845,_ZSt8_DestroyIPSt10unique_ptrI12ActiveObjectSt14default_deleteIS1_EES4_EvT_S6_RSaIT0_E
FNDA:4,_ZSt8_DestroyIPSt10unique_ptrI12ActiveObjectSt14default_deleteIS1_EES4_EvT_S6_RSaIT0_E
FN:845,_ZSt8_DestroyIPSt6threadS0_EvT_S2_RSaIT0_E
FNDA:0,_ZSt8_DestroyIPSt6threadS0_EvT_S2_RSaIT0_E
FN:845,_ZSt8_DestroyIP4EdgeS0_EvT_S2_RSaIT0_E
FNDA:28,_ZSt8_DestroyIP4EdgeS0_EvT_S2_RSaIT0_E
FN:845,_ZSt8_DestroyIPSt6vectorI4EdgeSaIS1_EES3_EvT_S5_RSaIT0_E
FNDA:4,_ZSt8_DestroyIPSt6vectorI4EdgeSaIS1_EES3_EvT_S5_RSaIT0_E
DA:463,8
DA:464,8
DA:463,15
DA:464,15
DA:463,14
DA:464,14
DA:463,9
DA:464,9
DA:463,4
DA:464,4
DA:495,15
DA:496,15
DA:495,14
DA:496,14
DA:495,46
DA:496,46
DA:495,9
DA:496,9
DA:495,8
DA:496,8
DA:495,0
DA:496,0
DA:495,4
DA:496,4
DA:511,0
DA:516,0
DA:520,0
DA:511,28
DA:516,28
DA:520,28
DA:511,6
DA:516,6
DA:520,6
DA:511,2
DA:516,2
DA:520,2
DA:511,2
DA:516,2
DA:520,2
DA:511,2
DA:516,2
DA:520,2
DA:511,2
DA:516,2
DA:520,2
DA:511,2
DA:516,2
DA:520,2
DA:511,4
DA:516,4
DA:520,4
DA:511,4
DA:516,4
DA:520,4
DA:511,7
DA:516,7
DA:520,7
DA:511,4
DA:516,4
DA:520,4
DA:511,2
DA:516,2
DA:520,2
DA:531,0
DA:535,0
DA:539,0
DA:531,14
DA:535,14
DA:539,14
DA:547,18
DA:550,18
DA:547,5
DA:550,5
DA:547,1
DA:550,1
DA:547,16
DA:550,16
DA:562,5
DA:563,5
DA:737,2
DA:750,2
DA:737,1
DA:750,1
DA:845,14
DA:848,14
DA:849,14
DA:845,2
DA:848,2
DA:849,2
DA:845,4
DA:848,4
DA:849,4
DA:845,0
DA:848,0
DA:849,0
DA:845,28
DA:848,28
DA:849,28
DA:845,4
DA:848,4
DA:849,4
end_of_record
SF:/usr/include/c++/11/bits/charconv.h
FN:47,_ZNSt8__detail14__to_chars_lenIjEEjT_i
FNDA:47,_ZNSt8__detail14__to_chars_lenIjEEjT_i
FN:72,_ZNSt8__detail18__to_chars_10_implIjEEvPcjT_
FNDA:47,_ZNSt8__detail18__to_chars_10_implIjEEvPcjT_
DA:47,47
DA:52,47
DA:53,47
DA:54,47
DA:55,47
DA:58,47
DA:59,11
DA:60,0
DA:61,0
DA:62,0
DA:63,0
DA:72,47
DA:83,47
DA:84,47
DA:86,0
DA:87,0
DA:88,0
DA:89,0
DA:90,0
DA:92,47
DA:94,11
DA:95,11
DA:96,11
DA:99,36
DA:100,47
end_of_record
SF:/usr/include/c++/11/bits/deque.tcc
FN:164,_ZNSt5dequeISt8functionIFvvEESaIS2_EE12emplace_backIJRZ14handleCommandsiRSt6vectorISt10unique_ptrI12ActiveObjectSt14default_deleteIS8_EESaISB_EERS7_I5GraphS9_ISF_EER10MSTFactoryRS7_I4TreeS9_ISL_EEEUlvE_EEERS2_DpOT_
FNDA:4,_ZNSt5dequeISt8functionIFvvEESaIS2_EE12emplace_backIJRZ14handleCommandsiRSt6vectorISt10unique_ptrI12ActiveObjectSt14default_deleteIS8_EESaISB_EERS7_I5GraphS9_ISF_EER10MSTFactoryRS7_I4TreeS9_ISL_EEEUlvE_EEERS2_DpOT_
FN:164,_ZNSt5dequeISt8functionIFvvEESaIS2_EE12emplace_backIJRZ14handleCommandsiRSt6vectorISt10unique_ptrI12ActiveObjectSt14default_deleteIS8_EESaISB_EERS7_I5GraphS9_ISF_EER10MSTFactoryRS7_I4TreeS9_ISL_EEEUlvE0_EEERS2_DpOT_
FNDA:7,_ZNSt5dequeISt8functionIFvvEESaIS2_EE12emplace_backIJRZ14handleCommandsiRSt6vectorISt10unique_ptrI12ActiveObjectSt14default_deleteIS8_EESaISB_EERS7_I5GraphS9_ISF_EER10MSTFactoryRS7_I4TreeS9_ISL_EEEUlvE0_EEERS2_DpOT_
FN:164,_ZNSt5dequeISt8functionIFvvEESaIS2_EE12emplace_backIJRZ14handleCommandsiRSt6vectorISt10unique_ptrI12ActiveObjectSt14default_deleteIS8_EESaISB_EERS7_I5GraphS9_ISF_EER10MSTFactoryRS7_I4TreeS9_ISL_EEEUlvE1_EEERS2_DpOT_
FNDA:4,_ZNSt5dequeISt8functionIFvvEESaIS2_EE12emplace_backIJRZ14handleCommandsiRSt6vectorISt10unique_ptrI12ActiveObjectSt14default_deleteIS8_EESaISB_EERS7_I5GraphS9_ISF_EER10MSTFactoryRS7_I4TreeS9_ISL_EEEUlvE1_EEERS2_DpOT_
FN:164,_ZNSt5dequeISt8functionIFvvEESaIS2_EE12emplace_backIJRZ14handleCommandsiRSt6vectorISt10unique_ptrI12ActiveObjectSt14default_deleteIS8_EESaISB_EERS7_I5GraphS9_ISF_EER10MSTFactoryRS7_I4TreeS9_ISL_EEEUlvE2_EEERS2_DpOT_
FNDA:4,_ZNSt5dequeISt8functionIFvvEESaIS2_EE12emplace_backIJRZ14handleCommandsiRSt6vectorISt10unique_ptrI12ActiveObjectSt14default_deleteIS8_EESaISB_EERS7_I5GraphS9_ISF_EER10MSTFactoryRS7_I4TreeS9_ISL_EEEUlvE2_EEERS2_DpOT_
FN:164,_ZNSt5dequeISt8functionIFvvEESaIS2_EE12emplace_backIJRZZZZZZ14handleCommandsiRSt6vectorISt10unique_ptrI12ActiveObjectSt14default_deleteIS8_EESaISB_EERS7_I5GraphS9_ISF_EER10MSTFactoryRS7_I4TreeS9_ISL_EEENKUlvE3_clEvENKUlvE_clEvENKUlvE_clEvENKUlvE_clEvENKUlvE_clEvEUlvE_EEERS2_DpOT_
FNDA:2,_ZNSt5dequeISt8functionIFvvEESaIS2_EE12emplace_backIJRZZZZZZ14handleCommandsiRSt6vectorISt10unique_ptrI12ActiveObjectSt14default_deleteIS8_EESaISB_EERS7_I5GraphS9_ISF_EER10MSTFactoryRS7_I4TreeS9_ISL_EEENKUlvE3_clEvENKUlvE_clEvENKUlvE_clEvENKUlvE_clEvENKUlvE_clEvEUlvE_EEERS2_DpOT_
FN:164,_ZNSt5dequeISt8functionIFvvEESaIS2_EE12emplace_backIJRZZZZZ14handleCommandsiRSt6vectorISt10unique_ptrI12ActiveObjectSt14default_deleteIS8_EESaISB_EERS7_I5GraphS9_ISF_EER10MSTFactoryRS7_I4TreeS9_ISL_EEENKUlvE3_clEvENKUlvE_clEvENKUlvE_clEvENKUlvE_clEvEUlvE_EEERS2_DpOT_
FNDA:2,_ZNSt5dequeISt8functionIFvvEESaIS2_EE12emplace_backIJRZZZZZ14handleCommandsiRSt6vectorISt10unique_ptrI12ActiveObjectSt14default_deleteIS8_EESaISB_EERS7_I5GraphS9_ISF_EER10MSTFactoryRS7_I4TreeS9_ISL_EEENKUlvE3_clEvENKUlvE_clEvENKUlvE_clEvENKUlvE_clEvEUlvE_EEERS2_DpOT_
FN:164,_ZNSt5dequeISt8functionIFvvEESaIS2_EE12emplace_backIJRZZZZ14handleCommandsiRSt6vectorISt10unique_ptrI12ActiveObjectSt14default_deleteIS8_EESaISB_EERS7_I5GraphS9_ISF_EER10MSTFactoryRS7_I4TreeS9_ISL_EEENKUlvE3_clEvENKUlvE_clEvENKUlvE_clEvEUlvE_EEERS2_DpOT_
FNDA:2,_ZNSt5dequeISt8functionIFvvEESaIS2_EE12emplace_backIJRZZZZ14handleCommandsiRSt6vectorISt10unique_ptrI12ActiveObjectSt14default_deleteIS8_EESaISB_EERS7_I5GraphS9_ISF_EER10MSTFactoryRS7_I4TreeS9_ISL_EEENKUlvE3_clEvENKUlvE_clEvENKUlvE_clEvEUlvE_EEERS2_DpOT_
FN:164,_ZNSt5dequeISt8functionIFvvEESaIS2_EE12emplace_backIJRZZZ14handleCommandsiRSt6vectorISt10unique_ptrI12ActiveObjectSt14default_deleteIS8_EESaISB_EERS7_I5GraphS9_ISF_EER10MSTFactoryRS7_I4TreeS9_ISL_EEENKUlvE3_clEvENKUlvE_clEvEUlvE_EEERS2_DpOT_
FNDA:2,_ZNSt5dequeISt8functionIFvvEESaIS2_EE12emplace_backIJRZZZ14handleCommandsiRSt6vectorISt10unique_ptrI12ActiveObjectSt14default_deleteIS8_EESaISB_EERS7_I5GraphS9_ISF_EER10MSTFactoryRS7_I4TreeS9_ISL_EEENKUlvE3_clEvENKUlvE_clEvEUlvE_EEERS2_DpOT_
FN:164,_ZNSt5dequeISt8functionIFvvEESaIS2_EE12emplace_backIJRZZ14handleCommandsiRSt6vectorISt10unique_ptrI12ActiveObjectSt14default_deleteIS8_EESaISB_EERS7_I5GraphS9_ISF_EER10MSTFactoryRS7_I4TreeS9_ISL_EEENKUlvE3_clEvEUlvE_EEERS2_DpOT_
FNDA:2,_ZNSt5dequeISt8functionIFvvEESaIS2_EE12emplace_backIJRZZ14handleCommandsiRSt6vectorISt10unique_ptrI12ActiveObjectSt14default_deleteIS8_EESaISB_EERS7_I5GraphS9_ISF_EER10MSTFactoryRS7_I4TreeS9_ISL_EEENKUlvE3_clEvEUlvE_EEERS2_DpOT_
FN:164,_ZNSt5dequeISt8functionIFvvEESaIS2_EE12emplace_backIJRZ14handleCommandsiRSt6vectorISt10unique_ptrI12ActiveObjectSt14default_deleteIS8_EESaISB_EERS7_I5GraphS9_ISF_EER10MSTFactoryRS7_I4TreeS9_ISL_EEEUlvE3_EEERS2_DpOT_
FNDA:6,_ZNSt5dequeISt8functionIFvvEESaIS2_EE12emplace_backIJRZ14handleCommandsiRSt6vectorISt10unique_ptrI12ActiveObjectSt14default_deleteIS8_EESaISB_EERS7_I5GraphS9_ISF_EER10MSTFactoryRS7_I4TreeS9_ISL_EEEUlvE3_EEERS2_DpOT_
FN:484,_ZNSt5dequeISt8functionIFvvEESaIS2_EE16_M_push_back_auxIJRZ14handleCommandsiRSt6vectorISt10unique_ptrI12ActiveObjectSt14default_deleteIS8_EESaISB_EERS7_I5GraphS9_ISF_EER10MSTFactoryRS7_I4TreeS9_ISL_EEEUlvE3_EEEvDpOT_
FNDA:0,_ZNSt5dequeISt8functionIFvvEESaIS2_EE16_M_push_back_auxIJRZ14handleCommandsiRSt6vectorISt10unique_ptrI12ActiveObjectSt14default_deleteIS8_EESaISB_EERS7_I5GraphS9_ISF_EER10MSTFactoryRS7_I4TreeS9_ISL_EEEUlvE3_EEEvDpOT_
FN:484,_ZNSt5dequeISt8functionIFvvEESaIS2_EE16_M_push_back_auxIJRZ14handleCommandsiRSt6vectorISt10unique_ptrI12ActiveObjectSt14default_deleteIS8_EESaISB_EERS7_I5GraphS9_ISF_EER10MSTFactoryRS7_I4TreeS9_ISL_EEEUlvE_EEEvDpOT_
FNDA:0,_ZNSt5dequeISt8functionIFvvEESaIS2_EE16_M_push_back_auxIJRZ14handleCommandsiRSt6vectorISt10unique_ptrI12ActiveObjectSt14default_deleteIS8_EESaISB_EERS7_I5GraphS9_ISF_EER10MSTFactoryRS7_I4TreeS9_ISL_EEEUlvE_EEEvDpOT_
FN:484,_ZNSt5dequeISt8functionIFvvEESaIS2_EE16_M_push_back_auxIJRZ14handleCommandsiRSt6vectorISt10unique_ptrI12ActiveObjectSt14default_deleteIS8_EESaISB_EERS7_I5GraphS9_ISF_EER10MSTFactoryRS7_I4TreeS9_ISL_EEEUlvE0_EEEvDpOT_
FNDA:0,_ZNSt5dequeISt8functionIFvvEESaIS2_EE16_M_push_back_auxIJRZ14handleCommandsiRSt6vectorISt10unique_ptrI12ActiveObjectSt14default_deleteIS8_EESaISB_EERS7_I5GraphS9_ISF_EER10MSTFactoryRS7_I4TreeS9_ISL_EEEUlvE0_EEEvDpOT_
FN:484,_ZNSt5dequeISt8functionIFvvEESaIS2_EE16_M_push_back_auxIJRZ14handleCommandsiRSt6vectorISt10unique_ptrI12ActiveObjectSt14default_deleteIS8_EESaISB_EERS7_I5GraphS9_ISF_EER10MSTFactoryRS7_I4TreeS9_ISL_EEEUlvE1_EEEvDpOT_
FNDA:0,_ZNSt5dequeISt8functionIFvvEESaIS2_EE16_M_push_back_auxIJRZ14handleCommandsiRSt6vectorISt10unique_ptrI12ActiveObjectSt14default_deleteIS8_EESaISB_EERS7_I5GraphS9_ISF_EER10MSTFactoryRS7_I4TreeS9_ISL_EEEUlvE1_EEEvDpOT_
FN:484,_ZNSt5dequeISt8functionIFvvEESaIS2_EE16_M_push_back_auxIJRZ14handleCommandsiRSt6vectorISt10unique_ptrI12ActiveObjectSt14default_deleteIS8_EESaISB_EERS7_I5GraphS9_ISF_EER10MSTFactoryRS7_I4TreeS9_ISL_EEEUlvE2_EEEvDpOT_
FNDA:1,_ZNSt5dequeISt8functionIFvvEESaIS2_EE16_M_push_back_auxIJRZ14handleCommandsiRSt6vectorISt10unique_ptrI12ActiveObjectSt14default_deleteIS8_EESaISB_EERS7_I5GraphS9_ISF_EER10MSTFactoryRS7_I4TreeS9_ISL_EEEUlvE2_EEEvDpOT_
FN:484,_ZNSt5dequeISt8functionIFvvEESaIS2_EE16_M_push_back_auxIJRZZZZZZ14handleCommandsiRSt6vectorISt10unique_ptrI12ActiveObjectSt14default_deleteIS8_EESaISB_EERS7_I5GraphS9_ISF_EER10MSTFactoryRS7_I4TreeS9_ISL_EEENKUlvE3_clEvENKUlvE_clEvENKUlvE_clEvENKUlvE_clEvENKUlvE_clEvEUlvE_EEEvDpOT_
FNDA:0,_ZNSt5dequeISt8functionIFvvEESaIS2_EE16_M_push_back_auxIJRZZZZZZ14handleCommandsiRSt6vectorISt10unique_ptrI12ActiveObjectSt14default_deleteIS8_EESaISB_EERS7_I5GraphS9_ISF_EER10MSTFactoryRS7_I4TreeS9_ISL_EEENKUlvE3_clEvENKUlvE_clEvENKUlvE_clEvENKUlvE_clEvENKUlvE_clEvEUlvE_EEEvDpOT_
FN:484,_ZNSt5dequeISt8functionIFvvEESaIS2_EE16_M_push_back_auxIJRZZZZZ14handleCommandsiRSt6vectorISt10unique_ptrI12ActiveObjectSt14default_deleteIS8_EESaISB_EERS7_I5GraphS9_ISF_EER10MSTFactoryRS7_I4TreeS9_ISL_EEENKUlvE3_clEvENKUlvE_clEvENKUlvE_clEvENKUlvE_clEvEUlvE_EEEvDpOT_
FNDA:0,_ZNSt5dequeISt8functionIFvvEESaIS2_EE16_M_push_back_auxIJRZZZZZ14handleCommandsiRSt6vectorISt10unique_ptrI12ActiveObjectSt14default_deleteIS8_EESaISB_EERS7_I5GraphS9_ISF_EER10MSTFactoryRS7_I4TreeS9_ISL_EEENKUlvE3_clEvENKUlvE_clEvENKUlvE_clEvENKUlvE_clEvEUlvE_EEEvDpOT_
FN:484,_ZNSt5dequeISt8functionIFvvEESaIS2_EE16_M_push_back_auxIJRZZZZ14handleCommandsiRSt6vectorISt10unique_ptrI12ActiveObjectSt14default_deleteIS8_EESaISB_EERS7_I5GraphS9_ISF_EER10MSTFactoryRS7_I4TreeS9_ISL_EEENKUlvE3_clEvENKUlvE_clEvENKUlvE_clEvEUlvE_EEEvDpOT_
FNDA:0,_ZNSt5dequeISt8functionIFvvEESaIS2_EE16_M_push_back_auxIJRZZZZ14handleCommandsiRSt6vectorISt10unique_ptrI12ActiveObjectSt14default_deleteIS8_EESaISB_EERS7_I5GraphS9_ISF_EER10MSTFactoryRS7_I4TreeS9_ISL_EEENKUlvE3_clEvENKUlvE_clEvENKUlvE_clEvEUlvE_EEEvDpOT_
FN:484,_ZNSt5dequeISt8functionIFvvEESaIS2_EE16_M_push_back_auxIJRZZZ14handleCommandsiRSt6vectorISt10unique_ptrI12ActiveObjectSt14default_deleteIS8_EESaISB_EERS7_I5GraphS9_ISF_EER10MSTFactoryRS7_I4TreeS9_ISL_EEENKUlvE3_clEvENKUlvE_clEvEUlvE_EEEvDpOT_
FNDA:0,_ZNSt5dequeISt8functionIFvvEESaIS2_EE16_M_push_back_auxIJRZZZ14handleCommandsiRSt6vectorISt10unique_ptrI12ActiveObjectSt14default_deleteIS8_EESaISB_EERS7_I5GraphS9_ISF_EER10MSTFactoryRS7_I4TreeS9_ISL_EEENKUlvE3_clEvENKUlvE_clEvEUlvE_EEEvDpOT_
FN:484,_ZNSt5dequeISt8functionIFvvEESaIS2_EE16_M_push_back_auxIJRZZ14handleCommandsiRSt6vectorISt10unique_ptrI12ActiveObjectSt14default_deleteIS8_EESaISB_EERS7_I5GraphS9_ISF_EER10MSTFactoryRS7_I4TreeS9_ISL_EEENKUlvE3_clEvEUlvE_EEEvDpOT_
FNDA:0,_ZNSt5dequeISt8functionIFvvEESaIS2_EE16_M_push_back_auxIJRZZ14handleCommandsiRSt6vectorISt10unique_ptrI12ActiveObjectSt14default_deleteIS8_EESaISB_EERS7_I5GraphS9_ISF_EER10MSTFactoryRS7_I4TreeS9_ISL_EEENKUlvE3_clEvEUlvE_EEEvDpOT_
FN:859,_ZNSt5dequeISt8functionIFvvEESaIS2_EE19_M_destroy_data_auxESt15_Deque_iteratorIS2_RS2_PS2_ES8_
FNDA:14,_ZNSt5dequeISt8functionIFvvEESaIS2_EE19_M_destroy_data_auxESt15_Deque_iteratorIS2_RS2_PS2_ES8_
FN:931,_ZNSt5dequeISt8functionIFvvEESaIS2_EE17_M_reallocate_mapEmb
FNDA:0,_ZNSt5dequeISt8functionIFvvEESaIS2_EE17_M_reallocate_mapEmb
DA:164,6
DA:167,6
DA:168,6
DA:170,6
DA:173,6
DA:176,0
DA:178,6
DA:164,2
DA:167,2
DA:168,2
DA:170,2
DA:173,2
DA:176,0
DA:178,2
DA:164,2
DA:167,2
DA:168,2
DA:170,2
DA:173,2
DA:176,0
DA:178,2
DA:164,2
DA:167,2
DA:168,2
DA:170,2
DA:173,2
DA:176,0
DA:178,2
DA:164,2
DA:167,2
DA:168,2
DA:170,2
DA:173,2
DA:176,0
DA:178,2
DA:164,2
DA:167,2
DA:168,2
DA:170,2
DA:173,2
DA:176,0
DA:178,2
DA:164,4
DA:167,4
DA:168,4
DA:170,3
DA:173,3
DA:176,1
DA:178,4
DA:164,4
DA:167,4
DA:168,4
DA:170,4
DA:173,4
DA:176,0
DA:178,4
DA:164,7
DA:167,7
DA:168,7
DA:170,7
DA:173,7
DA:176,0
DA:178,7
DA:164,4
DA:167,4
DA:168,4
DA:170,4
DA:173,4
DA:176,0
DA:178,4
DA:484,0
DA:492,0
DA:493,0
DA:496,0
DA:497,0
DA:501,0
DA:507,0
DA:509,0
DA:511,0
DA:513,0
DA:514,0
DA:516,0
DA:484,0
DA:492,0
DA:493,0
DA:496,0
DA:497,0
DA:501,0
DA:507,0
DA:509,0
DA:511,0
DA:513,0
DA:514,0
DA:516,0
DA:484,0
DA:492,0
DA:493,0
DA:496,0
DA:497,0
DA:501,0
DA:507,0
DA:509,0
DA:511,0
DA:513,0
DA:514,0
DA:516,0
DA:484,0
DA:492,0
DA:493,0
DA:496,0
DA:497,0
DA:501,0
DA:507,0
DA:509,0
DA:511,0
DA:513,0
DA:514,0
DA:516,0
DA:484,0
DA:492,0
DA:493,0
DA:496,0
DA:497,0
DA:501,0
DA:507,0
DA:509,0
DA:511,0
DA:513,0
DA:514,0
DA:516,0
DA:484,0
DA:492,0
DA:493,0
DA:496,0
DA:497,0
DA:501,0
DA:507,0
DA:509,0
DA:511,0
DA:513,0
DA:514,0
DA:516,0
DA:484,1
DA:492,1
DA:493,0
DA:496,1
DA:497,1
DA:501,1
DA:507,1
DA:509,1
DA:511,0
DA:513,0
DA:514,0
DA:516,1
DA:484,0
DA:492,0
DA:493,0
DA:496,0
DA:497,0
DA:501,0
DA:507,0
DA:509,0
DA:511,0
DA:513,0
DA:514,0
DA:516,0
DA:484,0
DA:492,0
DA:493,0
DA:496,0
DA:497,0
DA:501,0
DA:507,0
DA:509,0
DA:511,0
DA:513,0
DA:514,0
DA:516,0
DA:484,0
DA:492,0
DA:493,0
DA:496,0
DA:497,0
DA:501,0
DA:507,0
DA:509,0
DA:511,0
DA:513,0
DA:514,0
DA:516,0
DA:859,14
DA:862,14
DA:863,14
DA:864,0
DA:865,0
DA:867,14
DA:869,0
DA:870,0
DA:871,0
DA:872,0
DA:875,14
DA:876,14
DA:877,14
DA:931,0
DA:934,0
DA:935,0
DA:936,0
DA:939,0
DA:941,0
DA:942,0
DA:943,0
DA:944,0
DA:945,0
DA:946,0
DA:949,0
DA:950,0
DA:951,0
DA:955,0
DA:956,0
DA:959,0
DA:960,0
DA:961,0
DA:962,0
DA:963,0
DA:965,0
DA:967,0
DA:968,0
DA:971,0
DA:972,0
DA:973,0
end_of_record
SF:/usr/include/c++/11/new
FN:174,_ZnwmPv
FNDA:155,_ZnwmPv
FN:180,_ZdlPvS_
FNDA:0,_ZdlPvS_
DA:174,155
DA:175,155
DA:180,0
end_of_record
SF:/usr/include/c++/11/bits/refwrap.h
FN:304,_ZNSt17reference_wrapperI10MSTFactoryE6_S_funERS0_
FNDA:2,_ZNSt17reference_wrapperI10MSTFactoryE6_S_funERS0_
FN:304,_ZNSt17reference_wrapperISt10unique_ptrI5GraphSt14default_deleteIS1_EEE6_S_funERS4_
FNDA:2,_ZNSt17reference_wrapperISt10unique_ptrI5GraphSt14default_deleteIS1_EEE6_S_funERS4_
FN:304,_ZNSt17reference_wrapperISt6vectorISt10unique_ptrI12ActiveObjectSt14default_deleteIS2_EESaIS5_EEE6_S_funERS7_
FNDA:2,_ZNSt17reference_wrapperISt6vectorISt10unique_ptrI12ActiveObjectSt14default_deleteIS2_EESaIS5_EEE6_S_funERS7_
FN:304,_ZNSt17reference_wrapperISt10unique_ptrI4TreeSt14default_deleteIS1_EEE6_S_funERS4_
FNDA:2,_ZNSt17reference_wrapperISt10unique_ptrI4TreeSt14default_deleteIS1_EEE6_S_funERS4_
FN:321,_ZNSt17reference_wrapperISt10unique_ptrI5GraphSt14default_deleteIS1_EEEC2IRS4_vPS4_EEOT_
FNDA:2,_ZNSt17reference_wrapperISt10unique_ptrI5GraphSt14default_deleteIS1_EEEC2IRS4_vPS4_EEOT_
FN:321,_ZNSt17reference_wrapperISt6vectorISt10unique_ptrI12ActiveObjectSt14default_deleteIS2_EESaIS5_EEEC2IRS7_vPS7_EEOT_
FNDA:2,_ZNSt17reference_wrapperISt6vectorISt10unique_ptrI12ActiveObjectSt14default_deleteIS2_EESaIS5_EEEC2IRS7_vPS7_EEOT_
FN:321,_ZNSt17reference_wrapperI10MSTFactoryEC2IRS0_vPS0_EEOT_
FNDA:2,_ZNSt17reference_wrapperI10MSTFactoryEC2IRS0_vPS0_EEOT_
FN:321,_ZNSt17reference_wrapperISt10unique_ptrI4TreeSt14default_deleteIS1_EEEC2IRS4_vPS4_EEOT_
FNDA:2,_ZNSt17reference_wrapperISt10unique_ptrI4TreeSt14default_deleteIS1_EEEC2IRS4_vPS4_EEOT_
FN:332,_ZNKSt17reference_wrapperISt10unique_ptrI4TreeSt14default_deleteIS1_EEEcvRS4_Ev
FNDA:2,_ZNKSt17reference_wrapperISt10unique_ptrI4TreeSt14default_deleteIS1_EEEcvRS4_Ev
FN:332,_ZNKSt17reference_wrapperI10MSTFactoryEcvRS0_Ev
FNDA:2,_ZNKSt17reference_wrapperI10MSTFactoryEcvRS0_Ev
FN:332,_ZNKSt17reference_wrapperISt10unique_ptrI5GraphSt14default_deleteIS1_EEEcvRS4_Ev
FNDA:2,_ZNKSt17reference_wrapperISt10unique_ptrI5GraphSt14default_deleteIS1_EEEcvRS4_Ev
FN:332,_ZNKSt17reference_wrapperISt6vectorISt10unique_ptrI12ActiveObjectSt14default_deleteIS2_EESaIS5_EEEcvRS7_Ev
FNDA:2,_ZNKSt17reference_wrapperISt6vectorISt10unique_ptrI12ActiveObjectSt14default_deleteIS2_EESaIS5_EEEcvRS7_Ev
FN:337,_ZNKSt17reference_wrapperISt6vectorISt10unique_ptrI12ActiveObjectSt14default_deleteIS2_EESaIS5_EEE3getEv
FNDA:2,_ZNKSt17reference_wrapperISt6vectorISt10unique_ptrI12ActiveObjectSt14default_deleteIS2_EESaIS5_EEE3getEv
FN:337,_ZNKSt17reference_wrapperISt10unique_ptrI5GraphSt14default_deleteIS1_EEE3getEv
FNDA:2,_ZNKSt17reference_wrapperISt10unique_ptrI5GraphSt14default_deleteIS1_EEE3getEv
FN:337,_ZNKSt17reference_wrapperI10MSTFactoryE3getEv
FNDA:2,_ZNKSt17reference_wrapperI10MSTFactoryE3getEv
FN:337,_ZNKSt17reference_wrapperISt10unique_ptrI4TreeSt14default_deleteIS1_EEE3getEv
FNDA:2,_ZNKSt17reference_wrapperISt10unique_ptrI4TreeSt14default_deleteIS1_EEE3getEv
FN:364,_ZSt3refISt10unique_ptrI4TreeSt14default_deleteIS1_EEESt17reference_wrapperIT_ERS6_
FNDA:2,_ZSt3refISt10unique_ptrI4TreeSt14default_deleteIS1_EEESt17reference_wrapperIT_ERS6_
FN:364,_ZSt3refI10MSTFactoryESt17reference_wrapperIT_ERS2_
FNDA:2,_ZSt3refI10MSTFactoryESt17reference_wrapperIT_ERS2_
FN:364,_ZSt3refISt10unique_ptrI5GraphSt14default_deleteIS1_EEESt17reference_wrapperIT_ERS6_
FNDA:2,_ZSt3refISt10unique_ptrI5GraphSt14default_deleteIS1_EEESt17reference_wrapperIT_ERS6_
FN:364,_ZSt3refISt6vectorISt10unique_ptrI12ActiveObjectSt14default_deleteIS2_EESaIS5_EEESt17reference_wrapperIT_ERS9_
FNDA:2,_ZSt3refISt6vectorISt10unique_ptrI12ActiveObjectSt14default_deleteIS2_EESaIS5_EEESt17reference_wrapperIT_ERS9_
DA:304,2
DA:304,2
DA:304,2
DA:304,2
DA:321,2
DA:323,2
DA:324,2
DA:321,2
DA:323,2
DA:324,2
DA:321,2
DA:323,2
DA:324,2
DA:321,2
DA:323,2
DA:324,2
DA:332,2
DA:333,2
DA:332,2
DA:333,2
DA:332,2
DA:333,2
DA:332,2
DA:333,2
DA:337,2
DA:338,2
DA:337,2
DA:338,2
DA:337,2
DA:338,2
DA:337,2
DA:338,2
DA:364,2
DA:365,2
DA:364,2
DA:365,2
DA:364,2
DA:365,2
DA:364,2
DA:365,2
end_of_record
SF:/usr/include/c++/11/bits/stl_iterator_base_funcs.h
FN:98,_ZSt10__distanceISt13move_iteratorIN9__gnu_cxx17__normal_iteratorIPSt10unique_ptrI12ActiveObjectSt14default_deleteIS4_EESt6vectorIS7_SaIS7_EEEEEENSt15iterator_traitsIT_E15difference_typeESF_SF_St26random_access_iterator_tag
FNDA:2,_ZSt10__distanceISt13move_iteratorIN9__gnu_cxx17__normal_iteratorIPSt10unique_ptrI12ActiveObjectSt14default_deleteIS4_EESt6vectorIS7_SaIS7_EEEEEENSt15iterator_traitsIT_E15difference_typeESF_SF_St26random_access_iterator_tag
FN:98,_ZSt10__distanceISt13move_iteratorIN9__gnu_cxx17__normal_iteratorIPmSt6vectorImSaImEEEEEENSt15iterator_traitsIT_E15difference_typeESA_SA_St26random_access_iterator_tag
FNDA:1,_ZSt10__distanceISt13move_iteratorIN9__gnu_cxx17__normal_iteratorIPmSt6vectorImSaImEEEEEENSt15iterator_traitsIT_E15difference_typeESA_SA_St26random_access_iterator_tag
FN:98,_ZSt10__distanceIPcENSt15iterator_traitsIT_E15difference_typeES2_S2_St26random_access_iterator_tag
FNDA:26,_ZSt10__distanceIPcENSt15iterator_traitsIT_E15difference_typeES2_S2_St26random_access_iterator_tag
FN:98,_ZSt10__distanceIPKcENSt15iterator_traitsIT_E15difference_typeES3_S3_St26random_access_iterator_tag
FNDA:45,_ZSt10__distanceIPKcENSt15iterator_traitsIT_E15difference_typeES3_S3_St26random_access_iterator_tag
FN:138,_ZSt8distanceISt13move_iteratorIN9__gnu_cxx17__normal_iteratorIPSt10unique_ptrI12ActiveObjectSt14default_deleteIS4_EESt6vectorIS7_SaIS7_EEEEEENSt15iterator_traitsIT_E15difference_typeESF_SF_
FNDA:2,_ZSt8distanceISt13move_iteratorIN9__gnu_cxx17__normal_iteratorIPSt10unique_ptrI12ActiveObjectSt14default_deleteIS4_EESt6vectorIS7_SaIS7_EEEEEENSt15iterator_traitsIT_E15difference_typeESF_SF_
FN:138,_ZSt8distanceISt13move_iteratorIN9__gnu_cxx17__normal_iteratorIPmSt6vectorImSaImEEEEEENSt15iterator_traitsIT_E15difference_typeESA_SA_
FNDA:1,_ZSt8distanceISt13move_iteratorIN9__gnu_cxx17__normal_iteratorIPmSt6vectorImSaImEEEEEENSt15iterator_traitsIT_E15difference_typeESA_SA_
FN:138,_ZSt8distanceIPcENSt15iterator_traitsIT_E15difference_typeES2_S2_
FNDA:26,_ZSt8distanceIPcENSt15iterator_traitsIT_E15difference_typeES2_S2_
FN:138,_ZSt8distanceIPKcENSt15iterator_traitsIT_E15difference_typeES3_S3_
FNDA:45,_ZSt8distanceIPKcENSt15iterator_traitsIT_E15difference_typeES3_S3_
DA:98,2
DA:104,2
DA:98,1
DA:104,1
DA:98,26
DA:104,26
DA:98,45
DA:104,45
DA:138,2
DA:141,2
DA:142,4
DA:138,1
DA:141,1
DA:142,2
DA:138,26
DA:141,26
DA:142,52
DA:138,45
DA:141,45
DA:142,90
end_of_record
SF:/usr/include/c++/11/bits/vector.tcc
FN:109,_ZNSt6vectorISt10unique_ptrI12ActiveObjectSt14default_deleteIS1_EESaIS4_EE12emplace_backIJS4_EEERS4_DpOT_
FNDA:14,_ZNSt6vectorISt10unique_ptrI12ActiveObjectSt14default_deleteIS1_EESaIS4_EE12emplace_backIJS4_EEERS4_DpOT_
FN:426,_ZNSt6vectorISt10unique_ptrI12ActiveObjectSt14default_deleteIS1_EESaIS4_EE17_M_realloc_insertIJS4_EEEvN9__gnu_cxx17__normal_iteratorIPS4_S6_EEDpOT_
FNDA:8,_ZNSt6vectorISt10unique_ptrI12ActiveObjectSt14default_deleteIS1_EESaIS4_EE17_M_realloc_insertIJS4_EEEvN9__gnu_cxx17__normal_iteratorIPS4_S6_EEDpOT_
FN:426,_ZNSt6vectorImSaImEE17_M_realloc_insertIJRKmEEEvN9__gnu_cxx17__normal_iteratorIPmS1_EEDpOT_
FNDA:2,_ZNSt6vectorImSaImEE17_M_realloc_insertIJRKmEEEvN9__gnu_cxx17__normal_iteratorIPmS1_EEDpOT_
FN:611,_ZNSt6vectorIS_I4EdgeSaIS0_EESaIS2_EE17_M_default_appendEm
FNDA:4,_ZNSt6vectorIS_I4EdgeSaIS0_EESaIS2_EE17_M_default_appendEm
FN:687,_ZNSt6vectorISt10unique_ptrI12ActiveObjectSt14default_deleteIS1_EESaIS4_EE16_M_shrink_to_fitEv
FNDA:2,_ZNSt6vectorISt10unique_ptrI12ActiveObjectSt14default_deleteIS1_EESaIS4_EE16_M_shrink_to_fitEv
FN:687,_ZNSt6vectorImSaImEE16_M_shrink_to_fitEv
FNDA:2,_ZNSt6vectorImSaImEE16_M_shrink_to_fitEv
DA:109,14
DA:112,14
DA:115,6
DA:117,6
DA:121,8
DA:123,14
DA:426,8
DA:436,8
DA:437,8
DA:438,8
DA:439,8
DA:440,8
DA:441,8
DA:449,8
DA:450,8
DA:456,8
DA:461,8
DA:462,8
DA:464,8
DA:466,8
DA:467,8
DA:500,8
DA:501,8
DA:502,8
DA:503,8
DA:504,8
DA:505,8
DA:426,2
DA:436,2
DA:437,2
DA:438,2
DA:439,2
DA:440,2
DA:441,2
DA:449,2
DA:450,2
DA:456,2
DA:461,2
DA:462,2
DA:464,2
DA:466,2
DA:467,2
DA:500,2
DA:501,2
DA:502,2
DA:503,2
DA:504,2
DA:505,2
DA:611,4
DA:614,4
DA:616,4
DA:617,4
DA:618,4
DA:620,4
DA:621,0
DA:623,4
DA:626,0
DA:627,0
DA:628,0
DA:634,4
DA:635,4
DA:640,4
DA:641,4
DA:643,0
DA:645,0
DA:646,0
DA:648,4
DA:649,4
DA:675,4
DA:676,4
DA:677,4
DA:678,4
DA:679,4
DA:680,4
DA:683,4
DA:687,2
DA:690,2
DA:691,0
DA:693,2
DA:687,2
DA:690,2
DA:691,1
DA:693,1
end_of_record
SF:/usr/include/c++/11/bits/basic_string.tcc
FN:206,_ZNSt7__cxx1112basic_stringIcSt11char_traitsIcESaIcEE12_M_constructIPcEEvT_S7_St20forward_iterator_tag
FNDA:26,_ZNSt7__cxx1112basic_stringIcSt11char_traitsIcESaIcEE12_M_constructIPcEEvT_S7_St20forward_iterator_tag
FN:206,_ZNSt7__cxx1112basic_stringIcSt11char_traitsIcESaIcEE12_M_constructIPKcEEvT_S8_St20forward_iterator_tag
FNDA:45,_ZNSt7__cxx1112basic_stringIcSt11char_traitsIcESaIcEE12_M_constructIPKcEEvT_S8_St20forward_iterator_tag
FN:1169,_ZStplIcSt11char_traitsIcESaIcEENSt7__cxx1112basic_stringIT_T0_T1_EEPKS5_RKS8_
FNDA:5,_ZStplIcSt11char_traitsIcESaIcEENSt7__cxx1112basic_stringIT_T0_T1_EEPKS5_RKS8_
DA:206,26
DA:211,26
DA:212,0
DA:215,26
DA:217,26
DA:219,0
DA:220,0
DA:225,26
DA:226,0
DA:228,0
DA:229,0
DA:232,26
DA:233,26
DA:206,45
DA:211,45
DA:212,0
DA:215,45
DA:217,45
DA:219,10
DA:220,10
DA:225,45
DA:226,0
DA:228,0
DA:229,0
DA:232,45
DA:233,45
DA:1169,5
DA:1178,5
DA:1179,10
DA:1181,5
DA:1182,5
DA:1183,5
DA:1184,5
DA:1185,0
end_of_record
SF:/usr/include/c++/11/iostream
end_of_record
SF:/usr/include/c++/11/bits/atomic_base.h
FN:104,_ZStanSt12memory_orderSt23__memory_order_modifier
FNDA:268,_ZStanSt12memory_orderSt23__memory_order_modifier
FN:345,_ZNSt13__atomic_baseIbEC1Eb
FNDA:14,_ZNSt13__atomic_baseIbEC1Eb
DA:104,268
DA:106,268
DA:345,14
DA:459,57
DA:464,57
DA:465,57
DA:484,211
DA:488,211
end_of_record
SF:/usr/include/c++/11/bits/invoke.h
FN:60,_ZSt13__invoke_implIvRZ4mainEUliE_JiEET_St14__invoke_otherOT0_DpOT1_
FNDA:2,_ZSt13__invoke_implIvRZ4mainEUliE_JiEET_St14__invoke_otherOT0_DpOT1_
FN:60,_ZSt13__invoke_implIvRZ14handleCommandsiRSt6vectorISt10unique_ptrI12ActiveObjectSt14default_deleteIS2_EESaIS5_EERS1_I5GraphS3_IS9_EER10MSTFactoryRS1_I4TreeS3_ISF_EEEUlvE3_JEET_St14__invoke_otherOT0_DpOT1_
FNDA:6,_ZSt13__invoke_implIvRZ14handleCommandsiRSt6vectorISt10unique_ptrI12ActiveObjectSt14default_deleteIS2_EESaIS5_EERS1_I5GraphS3_IS9_EER10MSTFactoryRS1_I4TreeS3_ISF_EEEUlvE3_JEET_St14__invoke_otherOT0_DpOT1_
FN:60,_ZSt13__invoke_implIvRZZ14handleCommandsiRSt6vectorISt10unique_ptrI12ActiveObjectSt14default_deleteIS2_EESaIS5_EERS1_I5GraphS3_IS9_EER10MSTFactoryRS1_I4TreeS3_ISF_EEENKUlvE3_clEvEUlvE_JEET_St14__invoke_otherOT0_DpOT1_
FNDA:2,_ZSt13__invoke_implIvRZZ14handleCommandsiRSt6vectorISt10unique_ptrI12ActiveObjectSt14default_deleteIS2_EESaIS5_EERS1_I5GraphS3_IS9_EER10MSTFactoryRS1_I4TreeS3_ISF_EEENKUlvE3_clEvEUlvE_JEET_St14__invoke_otherOT0_DpOT1_
FN:60,_ZSt13__invoke_implIvRZZZ14handleCommandsiRSt6vectorISt10unique_ptrI12ActiveObjectSt14default_deleteIS2_EESaIS5_EERS1_I5GraphS3_IS9_EER10MSTFactoryRS1_I4TreeS3_ISF_EEENKUlvE3_clEvENKUlvE_clEvEUlvE_JEET_St14__invoke_otherOT0_DpOT1_
FNDA:2,_ZSt13__invoke_implIvRZZZ14handleCommandsiRSt6vectorISt10unique_ptrI12ActiveObjectSt14default_deleteIS2_EESaIS5_EERS1_I5GraphS3_IS9_EER10MSTFactoryRS1_I4TreeS3_ISF_EEENKUlvE3_clEvENKUlvE_clEvEUlvE_JEET_St14__invoke_otherOT0_DpOT1_
FN:60,_ZSt13__invoke_implIvRZZZZ14handleCommandsiRSt6vectorISt10unique_ptrI12ActiveObjectSt14default_deleteIS2_EESaIS5_EERS1_I5GraphS3_IS9_EER10MSTFactoryRS1_I4TreeS3_ISF_EEENKUlvE3_clEvENKUlvE_clEvENKUlvE_clEvEUlvE_JEET_St14__invoke_otherOT0_DpOT1_
FNDA:2,_ZSt13__invoke_implIvRZZZZ14handleCommandsiRSt6vectorISt10unique_ptrI12ActiveObjectSt14default_deleteIS2_EESaIS5_EERS1_I5GraphS3_IS9_EER10MSTFactoryRS1_I4TreeS3_ISF_EEENKUlvE3_clEvENKUlvE_clEvENKUlvE_clEvEUlvE_JEET_St14__invoke_otherOT0_DpOT1_
FN:60,_ZSt13__invoke_implIvRZZZZZ14handleCommandsiRSt6vectorISt10unique_ptrI12ActiveObjectSt14default_deleteIS2_EESaIS5_EERS1_I5GraphS3_IS9_EER10MSTFactoryRS1_I4TreeS3_ISF_EEENKUlvE3_clEvENKUlvE_clEvENKUlvE_clEvENKUlvE_clEvEUlvE_JEET_St14__invoke_otherOT0_DpOT1_
FNDA:2,_ZSt13__invoke_implIvRZZZZZ14handleCommandsiRSt6vectorISt10unique_ptrI12ActiveObjectSt14default_deleteIS2_EESaIS5_EERS1_I5GraphS3_IS9_EER10MSTFactoryRS1_I4TreeS3_ISF_EEENKUlvE3_clEvENKUlvE_clEvENKUlvE_clEvENKUlvE_clEvEUlvE_JEET_St14__invoke_otherOT0_DpOT1_
FN:60,_ZSt13__invoke_implIvRZZZZZZ14handleCommandsiRSt6vectorISt10unique_ptrI12ActiveObjectSt14default_deleteIS2_EESaIS5_EERS1_I5GraphS3_IS9_EER10MSTFactoryRS1_I4TreeS3_ISF_EEENKUlvE3_clEvENKUlvE_clEvENKUlvE_clEvENKUlvE_clEvENKUlvE_clEvEUlvE_JEET_St14__invoke_otherOT0_DpOT1_
FNDA:2,_ZSt13__invoke_implIvRZZZZZZ14handleCommandsiRSt6vectorISt10unique_ptrI12ActiveObjectSt14default_deleteIS2_EESaIS5_EERS1_I5GraphS3_IS9_EER10MSTFactoryRS1_I4TreeS3_ISF_EEENKUlvE3_clEvENKUlvE_clEvENKUlvE_clEvENKUlvE_clEvENKUlvE_clEvEUlvE_JEET_St14__invoke_otherOT0_DpOT1_
FN:60,_ZSt13__invoke_implIvRZ14handleCommandsiRSt6vectorISt10unique_ptrI12ActiveObjectSt14default_deleteIS2_EESaIS5_EERS1_I5GraphS3_IS9_EER10MSTFactoryRS1_I4TreeS3_ISF_EEEUlvE2_JEET_St14__invoke_otherOT0_DpOT1_
FNDA:4,_ZSt13__invoke_implIvRZ14handleCommandsiRSt6vectorISt10unique_ptrI12ActiveObjectSt14default_deleteIS2_EESaIS5_EERS1_I5GraphS3_IS9_EER10MSTFactoryRS1_I4TreeS3_ISF_EEEUlvE2_JEET_St14__invoke_otherOT0_DpOT1_
FN:60,_ZSt13__invoke_implIvRZ14handleCommandsiRSt6vectorISt10unique_ptrI12ActiveObjectSt14default_deleteIS2_EESaIS5_EERS1_I5GraphS3_IS9_EER10MSTFactoryRS1_I4TreeS3_ISF_EEEUlvE1_JEET_St14__invoke_otherOT0_DpOT1_
FNDA:4,_ZSt13__invoke_implIvRZ14handleCommandsiRSt6vectorISt10unique_ptrI12ActiveObjectSt14default_deleteIS2_EESaIS5_EERS1_I5GraphS3_IS9_EER10MSTFactoryRS1_I4TreeS3_ISF_EEEUlvE1_JEET_St14__invoke_otherOT0_DpOT1_
FN:60,_ZSt13__invoke_implIvRZ14handleCommandsiRSt6vectorISt10unique_ptrI12ActiveObjectSt14default_deleteIS2_EESaIS5_EERS1_I5GraphS3_IS9_EER10MSTFactoryRS1_I4TreeS3_ISF_EEEUlvE0_JEET_St14__invoke_otherOT0_DpOT1_
FNDA:7,_ZSt13__invoke_implIvRZ14handleCommandsiRSt6vectorISt10unique_ptrI12ActiveObjectSt14default_deleteIS2_EESaIS5_EERS1_I5GraphS3_IS9_EER10MSTFactoryRS1_I4TreeS3_ISF_EEEUlvE0_JEET_St14__invoke_otherOT0_DpOT1_
FN:60,_ZSt13__invoke_implIvRZ14handleCommandsiRSt6vectorISt10unique_ptrI12ActiveObjectSt14default_deleteIS2_EESaIS5_EERS1_I5GraphS3_IS9_EER10MSTFactoryRS1_I4TreeS3_ISF_EEEUlvE_JEET_St14__invoke_otherOT0_DpOT1_
FNDA:4,_ZSt13__invoke_implIvRZ14handleCommandsiRSt6vectorISt10unique_ptrI12ActiveObjectSt14default_deleteIS2_EESaIS5_EERS1_I5GraphS3_IS9_EER10MSTFactoryRS1_I4TreeS3_ISF_EEEUlvE_JEET_St14__invoke_otherOT0_DpOT1_
FN:71,_ZSt13__invoke_implIvM12ActiveObjectFvvEPS0_JEET_St21__invoke_memfun_derefOT0_OT1_DpOT2_
FNDA:14,_ZSt13__invoke_implIvM12ActiveObjectFvvEPS0_JEET_St21__invoke_memfun_derefOT0_OT1_DpOT2_
FN:90,_ZSt8__invokeIM12ActiveObjectFvvEJPS0_EENSt15__invoke_resultIT_JDpT0_EE4typeEOS5_DpOS6_
FNDA:14,_ZSt8__invokeIM12ActiveObjectFvvEJPS0_EENSt15__invoke_resultIT_JDpT0_EE4typeEOS5_DpOS6_
FN:104,_ZSt10__invoke_rIvRZ4mainEUliE_JiEENSt9enable_ifIX16is_invocable_r_vIT_T0_DpT1_EES3_E4typeEOS4_DpOS5_
FNDA:2,_ZSt10__invoke_rIvRZ4mainEUliE_JiEENSt9enable_ifIX16is_invocable_r_vIT_T0_DpT1_EES3_E4typeEOS4_DpOS5_
FN:104,_ZSt10__invoke_rIvRZ14handleCommandsiRSt6vectorISt10unique_ptrI12ActiveObjectSt14default_deleteIS2_EESaIS5_EERS1_I5GraphS3_IS9_EER10MSTFactoryRS1_I4TreeS3_ISF_EEEUlvE_JEENSt9enable_ifIX16is_invocable_r_vIT_T0_DpT1_EESM_E4typeEOSN_DpOSO_
FNDA:4,_ZSt10__invoke_rIvRZ14handleCommandsiRSt6vectorISt10unique_ptrI12ActiveObjectSt14default_deleteIS2_EESaIS5_EERS1_I5GraphS3_IS9_EER10MSTFactoryRS1_I4TreeS3_ISF_EEEUlvE_JEENSt9enable_ifIX16is_invocable_r_vIT_T0_DpT1_EESM_E4typeEOSN_DpOSO_
FN:104,_ZSt10__invoke_rIvRZ14handleCommandsiRSt6vectorISt10unique_ptrI12ActiveObjectSt14default_deleteIS2_EESaIS5_EERS1_I5GraphS3_IS9_EER10MSTFactoryRS1_I4TreeS3_ISF_EEEUlvE0_JEENSt9enable_ifIX16is_invocable_r_vIT_T0_DpT1_EESM_E4typeEOSN_DpOSO_
FNDA:7,_ZSt10__invoke_rIvRZ14handleCommandsiRSt6vectorISt10unique_ptrI12ActiveObjectSt14default_deleteIS2_EESaIS5_EERS1_I5GraphS3_IS9_EER10MSTFactoryRS1_I4TreeS3_ISF_EEEUlvE0_JEENSt9enable_ifIX16is_invocable_r_vIT_T0_DpT1_EESM_E4typeEOSN_DpOSO_
FN:104,_ZSt10__invoke_rIvRZ14handleCommandsiRSt6vectorISt10unique_ptrI12ActiveObjectSt14default_deleteIS2_EESaIS5_EERS1_I5GraphS3_IS9_EER10MSTFactoryRS1_I4TreeS3_ISF_EEEUlvE1_JEENSt9enable_ifIX16is_invocable_r_vIT_T0_DpT1_EESM_E4typeEOSN_DpOSO_
FNDA:4,_ZSt10__invoke_rIvRZ14handleCommandsiRSt6vectorISt10unique_ptrI12ActiveObjectSt14default_deleteIS2_EESaIS5_EERS1_I5GraphS3_IS9_EER10MSTFactoryRS1_I4TreeS3_ISF_EEEUlvE1_JEENSt9enable_ifIX16is_invocable_r_vIT_T0_DpT1_EESM_E4typeEOSN_DpOSO_
FN:104,_ZSt10__invoke_rIvRZ14handleCommandsiRSt6vectorISt10unique_ptrI12ActiveObjectSt14default_deleteIS2_EESaIS5_EERS1_I5GraphS3_IS9_EER10MSTFactoryRS1_I4TreeS3_ISF_EEEUlvE2_JEENSt9enable_ifIX16is_invocable_r_vIT_T0_DpT1_EESM_E4typeEOSN_DpOSO_
FNDA:4,_ZSt10__invoke_rIvRZ14handleCommandsiRSt6vectorISt10unique_ptrI12ActiveObjectSt14default_deleteIS2_EESaIS5_EERS1_I5GraphS3_IS9_EER10MSTFactoryRS1_I4TreeS3_ISF_EEEUlvE2_JEENSt9enable_ifIX16is_invocable_r_vIT_T0_DpT1_EESM_E4typeEOSN_DpOSO_
FN:104,_ZSt10__invoke_rIvRZZZZZZ14handleCommandsiRSt6vectorISt10unique_ptrI12ActiveObjectSt14default_deleteIS2_EESaIS5_EERS1_I5GraphS3_IS9_EER10MSTFactoryRS1_I4TreeS3_ISF_EEENKUlvE3_clEvENKUlvE_clEvENKUlvE_clEvENKUlvE_clEvENKUlvE_clEvEUlvE_JEENSt9enable_ifIX16is_invocable_r_vIT_T0_DpT1_EESR_E4typeEOSS_DpOST_
FNDA:2,_ZSt10__invoke_rIvRZZZZZZ14handleCommandsiRSt6vectorISt10unique_ptrI12ActiveObjectSt14default_deleteIS2_EESaIS5_EERS1_I5GraphS3_IS9_EER10MSTFactoryRS1_I4TreeS3_ISF_EEENKUlvE3_clEvENKUlvE_clEvENKUlvE_clEvENKUlvE_clEvENKUlvE_clEvEUlvE_JEENSt9enable_ifIX16is_invocable_r_vIT_T0_DpT1_EESR_E4typeEOSS_DpOST_
FN:104,_ZSt10__invoke_rIvRZZZZZ14handleCommandsiRSt6vectorISt10unique_ptrI12ActiveObjectSt14default_deleteIS2_EESaIS5_EERS1_I5GraphS3_IS9_EER10MSTFactoryRS1_I4TreeS3_ISF_EEENKUlvE3_clEvENKUlvE_clEvENKUlvE_clEvENKUlvE_clEvEUlvE_JEENSt9enable_ifIX16is_invocable_r_vIT_T0_DpT1_EESQ_E4typeEOSR_DpOSS_
FNDA:2,_ZSt10__invoke_rIvRZZZZZ14handleCommandsiRSt6vectorISt10unique_ptrI12ActiveObjectSt14default_deleteIS2_EESaIS5_EERS1_I5GraphS3_IS9_EER10MSTFactoryRS1_I4TreeS3_ISF_EEENKUlvE3_clEvENKUlvE_clEvENKUlvE_clEvENKUlvE_clEvEUlvE_JEENSt9enable_ifIX16is_invocable_r_vIT_T0_DpT1_EESQ_E4typeEOSR_DpOSS_
FN:104,_ZSt10__invoke_rIvRZZZZ14handleCommandsiRSt6vectorISt10unique_ptrI12ActiveObjectSt14default_deleteIS2_EESaIS5_EERS1_I5GraphS3_IS9_EER10MSTFactoryRS1_I4TreeS3_ISF_EEENKUlvE3_clEvENKUlvE_clEvENKUlvE_clEvEUlvE_JEENSt9enable_ifIX16is_invocable_r_vIT_T0_DpT1_EESP_E4typeEOSQ_DpOSR_
FNDA:2,_ZSt10__invoke_rIvRZZZZ14handleCommandsiRSt6vectorISt10unique_ptrI12ActiveObjectSt14default_deleteIS2_EESaIS5_EERS1_I5GraphS3_IS9_EER10MSTFactoryRS1_I4TreeS3_ISF_EEENKUlvE3_clEvENKUlvE_clEvENKUlvE_clEvEUlvE_JEENSt9enable_ifIX16is_invocable_r_vIT_T0_DpT1_EESP_E4typeEOSQ_DpOSR_
FN:104,_ZSt10__invoke_rIvRZZZ14handleCommandsiRSt6vectorISt10unique_ptrI12ActiveObjectSt14default_deleteIS2_EESaIS5_EERS1_I5GraphS3_IS9_EER10MSTFactoryRS1_I4TreeS3_ISF_EEENKUlvE3_clEvENKUlvE_clEvEUlvE_JEENSt9enable_ifIX16is_invocable_r_vIT_T0_DpT1_EESO_E4typeEOSP_DpOSQ_
FNDA:2,_ZSt10__invoke_rIvRZZZ14handleCommandsiRSt6vectorISt10unique_ptrI12ActiveObjectSt14default_deleteIS2_EESaIS5_EERS1_I5GraphS3_IS9_EER10MSTFactoryRS1_I4TreeS3_ISF_EEENKUlvE3_clEvENKUlvE_clEvEUlvE_JEENSt9enable_ifIX16is_invocable_r_vIT_T0_DpT1_EESO_E4typeEOSP_DpOSQ_
FN:104,_ZSt10__invoke_rIvRZZ14handleCommandsiRSt6vectorISt10unique_ptrI12ActiveObjectSt14default_deleteIS2_EESaIS5_EERS1_I5GraphS3_IS9_EER10MSTFactoryRS1_I4TreeS3_ISF_EEENKUlvE3_clEvEUlvE_JEENSt9enable_ifIX16is_invocable_r_vIT_T0_DpT1_EESN_E4typeEOSO_DpOSP_
FNDA:2,_ZSt10__invoke_rIvRZZ14handleCommandsiRSt6vectorISt10unique_ptrI12ActiveObjectSt14default_deleteIS2_EESaIS5_EERS1_I5GraphS3_IS9_EER10MSTFactoryRS1_I4TreeS3_ISF_EEENKUlvE3_clEvEUlvE_JEENSt9enable_ifIX16is_invocable_r_vIT_T0_DpT1_EESN_E4typeEOSO_DpOSP_
FN:104,_ZSt10__invoke_rIvRZ14handleCommandsiRSt6vectorISt10unique_ptrI12ActiveObjectSt14default_deleteIS2_EESaIS5_EERS1_I5GraphS3_IS9_EER10MSTFactoryRS1_I4TreeS3_ISF_EEEUlvE3_JEENSt9enable_ifIX16is_invocable_r_vIT_T0_DpT1_EESM_E4typeEOSN_DpOSO_
FNDA:6,_ZSt10__invoke_rIvRZ14handleCommandsiRSt6vectorISt10unique_ptrI12ActiveObjectSt14default_deleteIS2_EESaIS5_EERS1_I5GraphS3_IS9_EER10MSTFactoryRS1_I4TreeS3_ISF_EEEUlvE3_JEENSt9enable_ifIX16is_invocable_r_vIT_T0_DpT1_EESM_E4typeEOSN_DpOSO_
DA:60,6
DA:61,6
DA:60,2
DA:61,2
DA:60,2
DA:61,2
DA:60,2
DA:61,2
DA:60,2
DA:61,2
DA:60,2
DA:61,2
DA:60,4
DA:61,4
DA:60,4
DA:61,4
DA:60,7
DA:61,7
DA:60,4
DA:61,4
DA:60,2
DA:61,2
DA:71,14
DA:74,14
DA:90,14
DA:96,14
DA:97,14
DA:104,6
DA:111,6
DA:117,6
DA:104,2
DA:111,2
DA:117,2
DA:104,2
DA:111,2
DA:117,2
DA:104,2
DA:111,2
DA:117,2
DA:104,2
DA:111,2
DA:117,2
DA:104,2
DA:111,2
DA:117,2
DA:104,4
DA:111,4
DA:117,4
DA:104,4
DA:111,4
DA:117,4
DA:104,7
DA:111,7
DA:117,7
DA:104,4
DA:111,4
DA:117,4
DA:104,2
DA:111,2
DA:117,2
end_of_record
SF:/usr/include/x86_64-linux-gnu/c++/11/bits/gthr-default.h
FN:300,_ZL18__gthread_active_pv
FNDA:467,_ZL18__gthread_active_pv
FN:746,_ZL20__gthread_mutex_lockP15pthread_mutex_t
FNDA:224,_ZL20__gthread_mutex_lockP15pthread_mutex_t
FN:755,_ZL23__gthread_mutex_trylockP15pthread_mutex_t
FNDA:11,_ZL23__gthread_mutex_trylockP15pthread_mutex_t
FN:776,_ZL22__gthread_mutex_unlockP15pthread_mutex_t
FNDA:232,_ZL22__gthread_mutex_unlockP15pthread_mutex_t
DA:300,467
DA:302,467
DA:746,224
DA:748,224
DA:749,224
DA:751,0
DA:755,11
DA:757,11
DA:758,11
DA:760,0
DA:776,232
DA:778,232
DA:779,232
DA:781,0
end_of_record
SF:/usr/include/c++/11/bits/move.h
FN:49,_ZSt11__addressofISt6vectorISt10unique_ptrI12ActiveObjectSt14default_deleteIS2_EESaIS5_EEEPT_RS8_
FNDA:2,_ZSt11__addressofISt6vectorISt10unique_ptrI12ActiveObjectSt14default_deleteIS2_EESaIS5_EEEPT_RS8_
FN:49,_ZSt11__addressofISt10unique_ptrI5GraphSt14default_deleteIS1_EEEPT_RS5_
FNDA:2,_ZSt11__addressofISt10unique_ptrI5GraphSt14default_deleteIS1_EEEPT_RS5_
FN:49,_ZSt11__addressofI10MSTFactoryEPT_RS1_
FNDA:2,_ZSt11__addressofI10MSTFactoryEPT_RS1_
FN:49,_ZSt11__addressofISt10unique_ptrI4TreeSt14default_deleteIS1_EEEPT_RS5_
FNDA:2,_ZSt11__addressofISt10unique_ptrI4TreeSt14default_deleteIS1_EEEPT_RS5_
FN:49,_ZSt11__addressofISt6vectorI4EdgeSaIS1_EEEPT_RS4_
FNDA:38,_ZSt11__addressofISt6vectorI4EdgeSaIS1_EEEPT_RS4_
FN:49,_ZSt11__addressofISt6threadEPT_RS1_
FNDA:0,_ZSt11__addressofISt6threadEPT_RS1_
FN:49,_ZSt11__addressofISt10unique_ptrI12ActiveObjectSt14default_deleteIS1_EEEPT_RS5_
FNDA:56,_ZSt11__addressofISt10unique_ptrI12ActiveObjectSt14default_deleteIS1_EEEPT_RS5_
FN:49,_ZSt11__addressofISt5mutexEPT_RS1_
FNDA:219,_ZSt11__addressofISt5mutexEPT_RS1_
FN:49,_ZSt11__addressofISt8functionIFvvEEEPT_RS3_
FNDA:0,_ZSt11__addressofISt8functionIFvvEEEPT_RS3_
FN:77,_ZSt7forwardIR10MSTFactoryEOT_RNSt16remove_referenceIS2_E4typeE
FNDA:2,_ZSt7forwardIR10MSTFactoryEOT_RNSt16remove_referenceIS2_E4typeE
FN:77,_ZSt7forwardISt14default_deleteI4TreeEEOT_RNSt16remove_referenceIS3_E4typeE
FNDA:2,_ZSt7forwardISt14default_deleteI4TreeEEOT_RNSt16remove_referenceIS3_E4typeE
FN:77,_ZSt7forwardIRSt10unique_ptrI5GraphSt14default_deleteIS1_EEEOT_RNSt16remove_referenceIS6_E4typeE
FNDA:2,_ZSt7forwardIRSt10unique_ptrI5GraphSt14default_deleteIS1_EEEOT_RNSt16remove_referenceIS6_E4typeE
FN:77,_ZSt7forwardIRSt6vectorISt10unique_ptrI12ActiveObjectSt14default_deleteIS2_EESaIS5_EEEOT_RNSt16remove_referenceIS9_E4typeE
FNDA:2,_ZSt7forwardIRSt6vectorISt10unique_ptrI12ActiveObjectSt14default_deleteIS2_EESaIS5_EEEOT_RNSt16remove_referenceIS9_E4typeE
FN:77,_ZSt7forwardISt10unique_ptrI12ActiveObjectSt14default_deleteIS1_EEEOT_RNSt16remove_referenceIS5_E4typeE
FNDA:78,_ZSt7forwardISt10unique_ptrI12ActiveObjectSt14default_deleteIS1_EEEOT_RNSt16remove_referenceIS5_E4typeE
FN:77,_ZSt7forwardIP12ActiveObjectEOT_RNSt16remove_referenceIS2_E4typeE
FNDA:140,_ZSt7forwardIP12ActiveObjectEOT_RNSt16remove_referenceIS2_E4typeE
FN:77,_ZSt7forwardIRiEOT_RNSt16remove_referenceIS1_E4typeE
FNDA:22,_ZSt7forwardIRiEOT_RNSt16remove_referenceIS1_E4typeE
FN:77,_ZSt7forwardISt14default_deleteI5GraphEEOT_RNSt16remove_referenceIS3_E4typeE
FNDA:2,_ZSt7forwardISt14default_deleteI5GraphEEOT_RNSt16remove_referenceIS3_E4typeE
FN:77,_ZSt7forwardIRZ14handleCommandsiRSt6vectorISt10unique_ptrI12ActiveObjectSt14default_deleteIS2_EESaIS5_EERS1_I5GraphS3_IS9_EER10MSTFactoryRS1_I4TreeS3_ISF_EEEUlvE_EOT_RNSt16remove_referenceISL_E4typeE
FNDA:36,_ZSt7forwardIRZ14handleCommandsiRSt6vectorISt10unique_ptrI12ActiveObjectSt14default_deleteIS2_EESaIS5_EERS1_I5GraphS3_IS9_EER10MSTFactoryRS1_I4TreeS3_ISF_EEEUlvE_EOT_RNSt16remove_referenceISL_E4typeE
FN:77,_ZSt7forwardISt14default_deleteI9functArgsEEOT_RNSt16remove_referenceIS3_E4typeE
FNDA:2,_ZSt7forwardISt14default_deleteI9functArgsEEOT_RNSt16remove_referenceIS3_E4typeE
FN:77,_ZSt7forwardIRZ14handleCommandsiRSt6vectorISt10unique_ptrI12ActiveObjectSt14default_deleteIS2_EESaIS5_EERS1_I5GraphS3_IS9_EER10MSTFactoryRS1_I4TreeS3_ISF_EEEUlvE0_EOT_RNSt16remove_referenceISL_E4typeE
FNDA:63,_ZSt7forwardIRZ14handleCommandsiRSt6vectorISt10unique_ptrI12ActiveObjectSt14default_deleteIS2_EESaIS5_EERS1_I5GraphS3_IS9_EER10MSTFactoryRS1_I4TreeS3_ISF_EEEUlvE0_EOT_RNSt16remove_referenceISL_E4typeE
FN:77,_ZSt7forwardIZ4mainEUliE_EOT_RNSt16remove_referenceIS1_E4typeE
FNDA:8,_ZSt7forwardIZ4mainEUliE_EOT_RNSt16remove_referenceIS1_E4typeE
FN:77,_ZSt7forwardIRZ14handleCommandsiRSt6vectorISt10unique_ptrI12ActiveObjectSt14default_deleteIS2_EESaIS5_EERS1_I5GraphS3_IS9_EER10MSTFactoryRS1_I4TreeS3_ISF_EEEUlvE1_EOT_RNSt16remove_referenceISL_E4typeE
FNDA:36,_ZSt7forwardIRZ14handleCommandsiRSt6vectorISt10unique_ptrI12ActiveObjectSt14default_deleteIS2_EESaIS5_EERS1_I5GraphS3_IS9_EER10MSTFactoryRS1_I4TreeS3_ISF_EEEUlvE1_EOT_RNSt16remove_referenceISL_E4typeE
FN:77,_ZSt7forwardIRZ14handleCommandsiRSt6vectorISt10unique_ptrI12ActiveObjectSt14default_deleteIS2_EESaIS5_EERS1_I5GraphS3_IS9_EER10MSTFactoryRS1_I4TreeS3_ISF_EEEUlvE2_EOT_RNSt16remove_referenceISL_E4typeE
FNDA:37,_ZSt7forwardIRZ14handleCommandsiRSt6vectorISt10unique_ptrI12ActiveObjectSt14default_deleteIS2_EESaIS5_EERS1_I5GraphS3_IS9_EER10MSTFactoryRS1_I4TreeS3_ISF_EEEUlvE2_EOT_RNSt16remove_referenceISL_E4typeE
FN:77,_ZSt7forwardIRZ14handleCommandsiRSt6vectorISt10unique_ptrI12ActiveObjectSt14default_deleteIS2_EESaIS5_EERS1_I5GraphS3_IS9_EER10MSTFactoryRS1_I4TreeS3_ISF_EEEUlvE3_EOT_RNSt16remove_referenceISL_E4typeE
FNDA:54,_ZSt7forwardIRZ14handleCommandsiRSt6vectorISt10unique_ptrI12ActiveObjectSt14default_deleteIS2_EESaIS5_EERS1_I5GraphS3_IS9_EER10MSTFactoryRS1_I4TreeS3_ISF_EEEUlvE3_EOT_RNSt16remove_referenceISL_E4typeE
FN:77,_ZSt7forwardIRZZ14handleCommandsiRSt6vectorISt10unique_ptrI12ActiveObjectSt14default_deleteIS2_EESaIS5_EERS1_I5GraphS3_IS9_EER10MSTFactoryRS1_I4TreeS3_ISF_EEENKUlvE3_clEvEUlvE_EOT_RNSt16remove_referenceISM_E4typeE
FNDA:18,_ZSt7forwardIRZZ14handleCommandsiRSt6vectorISt10unique_ptrI12ActiveObjectSt14default_deleteIS2_EESaIS5_EERS1_I5GraphS3_IS9_EER10MSTFactoryRS1_I4TreeS3_ISF_EEENKUlvE3_clEvEUlvE_EOT_RNSt16remove_referenceISM_E4typeE
FN:77,_ZSt7forwardIRZZZ14handleCommandsiRSt6vectorISt10unique_ptrI12ActiveObjectSt14default_deleteIS2_EESaIS5_EERS1_I5GraphS3_IS9_EER10MSTFactoryRS1_I4TreeS3_ISF_EEENKUlvE3_clEvENKUlvE_clEvEUlvE_EOT_RNSt16remove_referenceISN_E4typeE
FNDA:18,_ZSt7forwardIRZZZ14handleCommandsiRSt6vectorISt10unique_ptrI12ActiveObjectSt14default_deleteIS2_EESaIS5_EERS1_I5GraphS3_IS9_EER10MSTFactoryRS1_I4TreeS3_ISF_EEENKUlvE3_clEvENKUlvE_clEvEUlvE_EOT_RNSt16remove_referenceISN_E4typeE
FN:77,_ZSt7forwardIRZZZZ14handleCommandsiRSt6vectorISt10unique_ptrI12ActiveObjectSt14default_deleteIS2_EESaIS5_EERS1_I5GraphS3_IS9_EER10MSTFactoryRS1_I4TreeS3_ISF_EEENKUlvE3_clEvENKUlvE_clEvENKUlvE_clEvEUlvE_EOT_RNSt16remove_referenceISO_E4typeE
FNDA:18,_ZSt7forwardIRZZZZ14handleCommandsiRSt6vectorISt10unique_ptrI12ActiveObjectSt14default_deleteIS2_EESaIS5_EERS1_I5GraphS3_IS9_EER10MSTFactoryRS1_I4TreeS3_ISF_EEENKUlvE3_clEvENKUlvE_clEvENKUlvE_clEvEUlvE_EOT_RNSt16remove_referenceISO_E4typeE
FN:77,_ZSt7forwardIRZZZZZ14handleCommandsiRSt6vectorISt10unique_ptrI12ActiveObjectSt14default_deleteIS2_EESaIS5_EERS1_I5GraphS3_IS9_EER10MSTFactoryRS1_I4TreeS3_ISF_EEENKUlvE3_clEvENKUlvE_clEvENKUlvE_clEvENKUlvE_clEvEUlvE_EOT_RNSt16remove_referenceISP_E4typeE
FNDA:18,_ZSt7forwardIRZZZZZ14handleCommandsiRSt6vectorISt10unique_ptrI12ActiveObjectSt14default_deleteIS2_EESaIS5_EERS1_I5GraphS3_IS9_EER10MSTFactoryRS1_I4TreeS3_ISF_EEENKUlvE3_clEvENKUlvE_clEvENKUlvE_clEvENKUlvE_clEvEUlvE_EOT_RNSt16remove_referenceISP_E4typeE
FN:77,_ZSt7forwardIRZZZZZZ14handleCommandsiRSt6vectorISt10unique_ptrI12ActiveObjectSt14default_deleteIS2_EESaIS5_EERS1_I5GraphS3_IS9_EER10MSTFactoryRS1_I4TreeS3_ISF_EEENKUlvE3_clEvENKUlvE_clEvENKUlvE_clEvENKUlvE_clEvENKUlvE_clEvEUlvE_EOT_RNSt16remove_referenceISQ_E4typeE
FNDA:18,_ZSt7forwardIRZZZZZZ14handleCommandsiRSt6vectorISt10unique_ptrI12ActiveObjectSt14default_deleteIS2_EESaIS5_EERS1_I5GraphS3_IS9_EER10MSTFactoryRS1_I4TreeS3_ISF_EEENKUlvE3_clEvENKUlvE_clEvENKUlvE_clEvENKUlvE_clEvENKUlvE_clEvEUlvE_EOT_RNSt16remove_referenceISQ_E4typeE
FN:77,_ZSt7forwardIRKmEOT_RNSt16remove_referenceIS2_E4typeE
FNDA:6,_ZSt7forwardIRKmEOT_RNSt16remove_referenceIS2_E4typeE
FN:77,_ZSt7forwardIiEOT_RNSt16remove_referenceIS0_E4typeE
FNDA:88,_ZSt7forwardIiEOT_RNSt16remove_referenceIS0_E4typeE
FN:77,_ZSt7forwardIRKZ14handleCommandsiRSt6vectorISt10unique_ptrI12ActiveObjectSt14default_deleteIS2_EESaIS5_EERS1_I5GraphS3_IS9_EER10MSTFactoryRS1_I4TreeS3_ISF_EEEUlvE3_EOT_RNSt16remove_referenceISM_E4typeE
FNDA:0,_ZSt7forwardIRKZ14handleCommandsiRSt6vectorISt10unique_ptrI12ActiveObjectSt14default_deleteIS2_EESaIS5_EERS1_I5GraphS3_IS9_EER10MSTFactoryRS1_I4TreeS3_ISF_EEEUlvE3_EOT_RNSt16remove_referenceISM_E4typeE
FN:77,_ZSt7forwardIRKZZ14handleCommandsiRSt6vectorISt10unique_ptrI12ActiveObjectSt14default_deleteIS2_EESaIS5_EERS1_I5GraphS3_IS9_EER10MSTFactoryRS1_I4TreeS3_ISF_EEENKUlvE3_clEvEUlvE_EOT_RNSt16remove_referenceISN_E4typeE
FNDA:0,_ZSt7forwardIRKZZ14handleCommandsiRSt6vectorISt10unique_ptrI12ActiveObjectSt14default_deleteIS2_EESaIS5_EERS1_I5GraphS3_IS9_EER10MSTFactoryRS1_I4TreeS3_ISF_EEENKUlvE3_clEvEUlvE_EOT_RNSt16remove_referenceISN_E4typeE
FN:77,_ZSt7forwardIRKZZZ14handleCommandsiRSt6vectorISt10unique_ptrI12ActiveObjectSt14default_deleteIS2_EESaIS5_EERS1_I5GraphS3_IS9_EER10MSTFactoryRS1_I4TreeS3_ISF_EEENKUlvE3_clEvENKUlvE_clEvEUlvE_EOT_RNSt16remove_referenceISO_E4typeE
FNDA:0,_ZSt7forwardIRKZZZ14handleCommandsiRSt6vectorISt10unique_ptrI12ActiveObjectSt14default_deleteIS2_EESaIS5_EERS1_I5GraphS3_IS9_EER10MSTFactoryRS1_I4TreeS3_ISF_EEENKUlvE3_clEvENKUlvE_clEvEUlvE_EOT_RNSt16remove_referenceISO_E4typeE
FN:77,_ZSt7forwardIRKZZZZ14handleCommandsiRSt6vectorISt10unique_ptrI12ActiveObjectSt14default_deleteIS2_EESaIS5_EERS1_I5GraphS3_IS9_EER10MSTFactoryRS1_I4TreeS3_ISF_EEENKUlvE3_clEvENKUlvE_clEvENKUlvE_clEvEUlvE_EOT_RNSt16remove_referenceISP_E4typeE
FNDA:0,_ZSt7forwardIRKZZZZ14handleCommandsiRSt6vectorISt10unique_ptrI12ActiveObjectSt14default_deleteIS2_EESaIS5_EERS1_I5GraphS3_IS9_EER10MSTFactoryRS1_I4TreeS3_ISF_EEENKUlvE3_clEvENKUlvE_clEvENKUlvE_clEvEUlvE_EOT_RNSt16remove_referenceISP_E4typeE
FN:77,_ZSt7forwardIRKZZZZZ14handleCommandsiRSt6vectorISt10unique_ptrI12ActiveObjectSt14default_deleteIS2_EESaIS5_EERS1_I5GraphS3_IS9_EER10MSTFactoryRS1_I4TreeS3_ISF_EEENKUlvE3_clEvENKUlvE_clEvENKUlvE_clEvENKUlvE_clEvEUlvE_EOT_RNSt16remove_referenceISQ_E4typeE
FNDA:0,_ZSt7forwardIRKZZZZZ14handleCommandsiRSt6vectorISt10unique_ptrI12ActiveObjectSt14default_deleteIS2_EESaIS5_EERS1_I5GraphS3_IS9_EER10MSTFactoryRS1_I4TreeS3_ISF_EEENKUlvE3_clEvENKUlvE_clEvENKUlvE_clEvENKUlvE_clEvEUlvE_EOT_RNSt16remove_referenceISQ_E4typeE
FN:77,_ZSt7forwardIRKZZZZZZ14handleCommandsiRSt6vectorISt10unique_ptrI12ActiveObjectSt14default_deleteIS2_EESaIS5_EERS1_I5GraphS3_IS9_EER10MSTFactoryRS1_I4TreeS3_ISF_EEENKUlvE3_clEvENKUlvE_clEvENKUlvE_clEvENKUlvE_clEvENKUlvE_clEvEUlvE_EOT_RNSt16remove_referenceISR_E4typeE
FNDA:0,_ZSt7forwardIRKZZZZZZ14handleCommandsiRSt6vectorISt10unique_ptrI12ActiveObjectSt14default_deleteIS2_EESaIS5_EERS1_I5GraphS3_IS9_EER10MSTFactoryRS1_I4TreeS3_ISF_EEENKUlvE3_clEvENKUlvE_clEvENKUlvE_clEvENKUlvE_clEvENKUlvE_clEvEUlvE_EOT_RNSt16remove_referenceISR_E4typeE
FN:77,_ZSt7forwardIRKZ14handleCommandsiRSt6vectorISt10unique_ptrI12ActiveObjectSt14default_deleteIS2_EESaIS5_EERS1_I5GraphS3_IS9_EER10MSTFactoryRS1_I4TreeS3_ISF_EEEUlvE2_EOT_RNSt16remove_referenceISM_E4typeE
FNDA:0,_ZSt7forwardIRKZ14handleCommandsiRSt6vectorISt10unique_ptrI12ActiveObjectSt14default_deleteIS2_EESaIS5_EERS1_I5GraphS3_IS9_EER10MSTFactoryRS1_I4TreeS3_ISF_EEEUlvE2_EOT_RNSt16remove_referenceISM_E4typeE
FN:77,_ZSt7forwardIRKZ14handleCommandsiRSt6vectorISt10unique_ptrI12ActiveObjectSt14default_deleteIS2_EESaIS5_EERS1_I5GraphS3_IS9_EER10MSTFactoryRS1_I4TreeS3_ISF_EEEUlvE1_EOT_RNSt16remove_referenceISM_E4typeE
FNDA:0,_ZSt7forwardIRKZ14handleCommandsiRSt6vectorISt10unique_ptrI12ActiveObjectSt14default_deleteIS2_EESaIS5_EERS1_I5GraphS3_IS9_EER10MSTFactoryRS1_I4TreeS3_ISF_EEEUlvE1_EOT_RNSt16remove_referenceISM_E4typeE
FN:77,_ZSt7forwardIRKZ14handleCommandsiRSt6vectorISt10unique_ptrI12ActiveObjectSt14default_deleteIS2_EESaIS5_EERS1_I5GraphS3_IS9_EER10MSTFactoryRS1_I4TreeS3_ISF_EEEUlvE0_EOT_RNSt16remove_referenceISM_E4typeE
FNDA:0,_ZSt7forwardIRKZ14handleCommandsiRSt6vectorISt10unique_ptrI12ActiveObjectSt14default_deleteIS2_EESaIS5_EERS1_I5GraphS3_IS9_EER10MSTFactoryRS1_I4TreeS3_ISF_EEEUlvE0_EOT_RNSt16remove_referenceISM_E4typeE
FN:77,_ZSt7forwardIRKZ14handleCommandsiRSt6vectorISt10unique_ptrI12ActiveObjectSt14default_deleteIS2_EESaIS5_EERS1_I5GraphS3_IS9_EER10MSTFactoryRS1_I4TreeS3_ISF_EEEUlvE_EOT_RNSt16remove_referenceISM_E4typeE
FNDA:0,_ZSt7forwardIRKZ14handleCommandsiRSt6vectorISt10unique_ptrI12ActiveObjectSt14default_deleteIS2_EESaIS5_EERS1_I5GraphS3_IS9_EER10MSTFactoryRS1_I4TreeS3_ISF_EEEUlvE_EOT_RNSt16remove_referenceISM_E4typeE
FN:77,_ZSt7forwardISt6vectorI4EdgeSaIS1_EEEOT_RNSt16remove_referenceIS4_E4typeE
FNDA:0,_ZSt7forwardISt6vectorI4EdgeSaIS1_EEEOT_RNSt16remove_referenceIS4_E4typeE
FN:77,_ZSt7forwardIRKZ4mainEUliE_EOT_RNSt16remove_referenceIS3_E4typeE
FNDA:0,_ZSt7forwardIRKZ4mainEUliE_EOT_RNSt16remove_referenceIS3_E4typeE
FN:77,_ZSt7forwardIM12ActiveObjectFvvEEOT_RNSt16remove_referenceIS3_E4typeE
FNDA:112,_ZSt7forwardIM12ActiveObjectFvvEEOT_RNSt16remove_referenceIS3_E4typeE
FN:77,_ZSt7forwardIRZ4mainEUliE_EOT_RNSt16remove_referenceIS2_E4typeE
FNDA:4,_ZSt7forwardIRZ4mainEUliE_EOT_RNSt16remove_referenceIS2_E4typeE
FN:77,_ZSt7forwardIRSt10unique_ptrI4TreeSt14default_deleteIS1_EEEOT_RNSt16remove_referenceIS6_E4typeE
FNDA:2,_ZSt7forwardIRSt10unique_ptrI4TreeSt14default_deleteIS1_EEEOT_RNSt16remove_referenceIS6_E4typeE
FN:104,_ZSt4moveIRP4TreeEONSt16remove_referenceIT_E4typeEOS4_
FNDA:6,_ZSt4moveIRP4TreeEONSt16remove_referenceIT_E4typeEOS4_
FN:104,_ZSt4moveIRSaIcEEONSt16remove_referenceIT_E4typeEOS3_
FNDA:0,_ZSt4moveIRSaIcEEONSt16remove_referenceIT_E4typeEOS3_
FN:104,_ZSt4moveIRP5GraphEONSt16remove_referenceIT_E4typeEOS4_
FNDA:4,_ZSt4moveIRP5GraphEONSt16remove_referenceIT_E4typeEOS4_
FN:104,_ZSt4moveIRNSt7__cxx1112basic_stringIcSt11char_traitsIcESaIcEEEEONSt16remove_referenceIT_E4typeEOS8_
FNDA:93,_ZSt4moveIRNSt7__cxx1112basic_stringIcSt11char_traitsIcESaIcEEEEONSt16remove_referenceIT_E4typeEOS8_
FN:104,_ZSt4moveIRP11MSTStrategyEONSt16remove_referenceIT_E4typeEOS4_
FNDA:3,_ZSt4moveIRP11MSTStrategyEONSt16remove_referenceIT_E4typeEOS4_
FN:104,_ZSt4moveIRNSt12_Vector_baseI4EdgeSaIS1_EE12_Vector_implEEONSt16remove_referenceIT_E4typeEOS7_
FNDA:0,_ZSt4moveIRNSt12_Vector_baseI4EdgeSaIS1_EE12_Vector_implEEONSt16remove_referenceIT_E4typeEOS7_
FN:104,_ZSt4moveIRP9functArgsEONSt16remove_referenceIT_E4typeEOS4_
FNDA:2,_ZSt4moveIRP9functArgsEONSt16remove_referenceIT_E4typeEOS4_
FN:104,_ZSt4moveIRP12ActiveObjectEONSt16remove_referenceIT_E4typeEOS4_
FNDA:14,_ZSt4moveIRP12ActiveObjectEONSt16remove_referenceIT_E4typeEOS4_
FN:104,_ZSt4moveIRSt10unique_ptrI12ActiveObjectSt14default_deleteIS1_EEEONSt16remove_referenceIT_E4typeEOS7_
FNDA:28,_ZSt4moveIRSt10unique_ptrI12ActiveObjectSt14default_deleteIS1_EEEONSt16remove_referenceIT_E4typeEOS7_
FN:104,_ZSt4moveIRPNSt6thread6_StateEEONSt16remove_referenceIT_E4typeEOS5_
FNDA:0,_ZSt4moveIRPNSt6thread6_StateEEONSt16remove_referenceIT_E4typeEOS5_
FN:104,_ZSt4moveIRSt9_Any_dataEONSt16remove_referenceIT_E4typeEOS3_
FNDA:111,_ZSt4moveIRSt9_Any_dataEONSt16remove_referenceIT_E4typeEOS3_
FN:104,_ZSt4moveIRPFbRSt9_Any_dataRKS0_St18_Manager_operationEEONSt16remove_referenceIT_E4typeEOS9_
FNDA:111,_ZSt4moveIRPFbRSt9_Any_dataRKS0_St18_Manager_operationEEONSt16remove_referenceIT_E4typeEOS9_
FN:104,_ZSt4moveIRPFvRKSt9_Any_dataOiEEONSt16remove_referenceIT_E4typeEOS8_
FNDA:6,_ZSt4moveIRPFvRKSt9_Any_dataOiEEONSt16remove_referenceIT_E4typeEOS8_
FN:104,_ZSt4moveIRN9__gnu_cxx17__normal_iteratorIPmSt6vectorImSaImEEEEEONSt16remove_referenceIT_E4typeEOS9_
FNDA:2,_ZSt4moveIRN9__gnu_cxx17__normal_iteratorIPmSt6vectorImSaImEEEEEONSt16remove_referenceIT_E4typeEOS9_
FN:104,_ZSt4moveIRN9__gnu_cxx17__normal_iteratorIPSt10unique_ptrI12ActiveObjectSt14default_deleteIS3_EESt6vectorIS6_SaIS6_EEEEEONSt16remove_referenceIT_E4typeEOSE_
FNDA:4,_ZSt4moveIRN9__gnu_cxx17__normal_iteratorIPSt10unique_ptrI12ActiveObjectSt14default_deleteIS3_EESt6vectorIS6_SaIS6_EEEEEONSt16remove_referenceIT_E4typeEOSE_
FN:104,_ZSt4moveIRSt5tupleIJP12ActiveObjectSt14default_deleteIS1_EEEEONSt16remove_referenceIT_E4typeEOS8_
FNDA:28,_ZSt4moveIRSt5tupleIJP12ActiveObjectSt14default_deleteIS1_EEEEONSt16remove_referenceIT_E4typeEOS8_
FN:104,_ZSt4moveIRSt6vectorI4EdgeSaIS1_EEEONSt16remove_referenceIT_E4typeEOS6_
FNDA:0,_ZSt4moveIRSt6vectorI4EdgeSaIS1_EEEONSt16remove_referenceIT_E4typeEOS6_
FN:104,_ZSt4moveIRSt5tupleIJM12ActiveObjectFvvEPS1_EEEONSt16remove_referenceIT_E4typeEOS8_
FNDA:28,_ZSt4moveIRSt5tupleIJM12ActiveObjectFvvEPS1_EEEONSt16remove_referenceIT_E4typeEOS8_
FN:196,_ZSt4swapISt9_Any_dataENSt9enable_ifIXsrSt6__and_IJSt6__not_ISt15__is_tuple_likeIT_EESt21is_move_constructibleIS5_ESt18is_move_assignableIS5_EEE5valueEvE4typeERS5_SF_
FNDA:37,_ZSt4swapISt9_Any_dataENSt9enable_ifIXsrSt6__and_IJSt6__not_ISt15__is_tuple_likeIT_EESt21is_move_constructibleIS5_ESt18is_move_assignableIS5_EEE5valueEvE4typeERS5_SF_
FN:196,_ZSt4swapIPFbRSt9_Any_dataRKS0_St18_Manager_operationEENSt9enable_ifIXsrSt6__and_IJSt6__not_ISt15__is_tuple_likeIT_EESt21is_move_constructibleISB_ESt18is_move_assignableISB_EEE5valueEvE4typeERSB_SL_
FNDA:37,_ZSt4swapIPFbRSt9_Any_dataRKS0_St18_Manager_operationEENSt9enable_ifIXsrSt6__and_IJSt6__not_ISt15__is_tuple_likeIT_EESt21is_move_constructibleISB_ESt18is_move_assignableISB_EEE5valueEvE4typeERSB_SL_
FN:196,_ZSt4swapIPFvRKSt9_Any_dataOiEENSt9enable_ifIXsrSt6__and_IJSt6__not_ISt15__is_tuple_likeIT_EESt21is_move_constructibleISA_ESt18is_move_assignableISA_EEE5valueEvE4typeERSA_SK_
FNDA:2,_ZSt4swapIPFvRKSt9_Any_dataOiEENSt9enable_ifIXsrSt6__and_IJSt6__not_ISt15__is_tuple_likeIT_EESt21is_move_constructibleISA_ESt18is_move_assignableISA_EEE5valueEvE4typeERSA_SK_
DA:49,0
DA:50,0
DA:49,56
DA:50,56
DA:49,0
DA:50,0
DA:49,38
DA:50,38
DA:49,2
DA:50,2
DA:49,2
DA:50,2
DA:49,2
DA:50,2
DA:49,2
DA:50,2
DA:49,219
DA:50,219
DA:77,37
DA:78,37
DA:77,2
DA:78,2
DA:77,8
DA:78,8
DA:77,54
DA:78,54
DA:77,18
DA:78,18
DA:77,18
DA:78,18
DA:77,18
DA:78,18
DA:77,18
DA:78,18
DA:77,18
DA:78,18
DA:77,2
DA:78,2
DA:77,78
DA:78,78
DA:77,36
DA:78,36
DA:77,63
DA:78,63
DA:77,36
DA:78,36
DA:77,2
DA:78,2
DA:77,22
DA:78,22
DA:77,140
DA:78,140
DA:77,112
DA:78,112
DA:77,88
DA:78,88
DA:77,0
DA:78,0
DA:77,0
DA:78,0
DA:77,0
DA:78,0
DA:77,0
DA:78,0
DA:77,0
DA:78,0
DA:77,0
DA:78,0
DA:77,0
DA:78,0
DA:77,0
DA:78,0
DA:77,0
DA:78,0
DA:77,0
DA:78,0
DA:77,0
DA:78,0
DA:77,0
DA:78,0
DA:77,4
DA:78,4
DA:77,6
DA:78,6
DA:77,2
DA:78,2
DA:77,2
DA:78,2
DA:77,2
DA:78,2
DA:77,2
DA:78,2
DA:104,0
DA:105,0
DA:104,0
DA:105,0
DA:104,93
DA:105,93
DA:104,3
DA:105,3
DA:104,4
DA:105,4
DA:104,6
DA:105,6
DA:104,2
DA:105,2
DA:104,14
DA:105,14
DA:104,28
DA:105,28
DA:104,28
DA:105,28
DA:104,111
DA:105,111
DA:104,111
DA:105,111
DA:104,6
DA:105,6
DA:104,2
DA:105,2
DA:104,4
DA:105,4
DA:104,28
DA:105,28
DA:104,0
DA:105,0
DA:104,0
DA:105,0
DA:196,2
DA:204,2
DA:205,2
DA:206,2
DA:207,2
DA:196,37
DA:204,37
DA:205,37
DA:206,37
DA:207,37
DA:196,37
DA:204,37
DA:205,37
DA:206,37
DA:207,37
end_of_record
SF:/usr/include/c++/11/bits/stl_vector.h
FN:97,_ZNSt12_Vector_baseI4EdgeSaIS0_EE17_Vector_impl_dataC2Ev
FNDA:26,_ZNSt12_Vector_baseI4EdgeSaIS0_EE17_Vector_impl_dataC2Ev
FN:97,_ZNSt12_Vector_baseISt6threadSaIS0_EE17_Vector_impl_dataC2Ev
FNDA:2,_ZNSt12_Vector_baseISt6threadSaIS0_EE17_Vector_impl_dataC2Ev
FN:97,_ZNSt12_Vector_baseImSaImEE17_Vector_impl_dataC2Ev
FNDA:4,_ZNSt12_Vector_baseImSaImEE17_Vector_impl_dataC2Ev
FN:97,_ZNSt12_Vector_baseISt10unique_ptrI12ActiveObjectSt14default_deleteIS1_EESaIS4_EE17_Vector_impl_dataC2Ev
FNDA:6,_ZNSt12_Vector_baseISt10unique_ptrI12ActiveObjectSt14default_deleteIS1_EESaIS4_EE17_Vector_impl_dataC2Ev
FN:97,_ZNSt12_Vector_baseISt6vectorI4EdgeSaIS1_EESaIS3_EE17_Vector_impl_dataC2Ev
FNDA:4,_ZNSt12_Vector_baseISt6vectorI4EdgeSaIS1_EESaIS3_EE17_Vector_impl_dataC2Ev
FN:102,_ZNSt12_Vector_baseI4EdgeSaIS0_EE17_Vector_impl_dataC2EOS3_
FNDA:0,_ZNSt12_Vector_baseI4EdgeSaIS0_EE17_Vector_impl_dataC2EOS3_
FN:109,_ZNSt12_Vector_baseISt10unique_ptrI12ActiveObjectSt14default_deleteIS1_EESaIS4_EE17_Vector_impl_data12_M_copy_dataERKS7_
FNDA:6,_ZNSt12_Vector_baseISt10unique_ptrI12ActiveObjectSt14default_deleteIS1_EESaIS4_EE17_Vector_impl_data12_M_copy_dataERKS7_
FN:109,_ZNSt12_Vector_baseImSaImEE17_Vector_impl_data12_M_copy_dataERKS2_
FNDA:3,_ZNSt12_Vector_baseImSaImEE17_Vector_impl_data12_M_copy_dataERKS2_
FN:117,_ZNSt12_Vector_baseImSaImEE17_Vector_impl_data12_M_swap_dataERS2_
FNDA:1,_ZNSt12_Vector_baseImSaImEE17_Vector_impl_data12_M_swap_dataERS2_
FN:117,_ZNSt12_Vector_baseISt10unique_ptrI12ActiveObjectSt14default_deleteIS1_EESaIS4_EE17_Vector_impl_data12_M_swap_dataERS7_
FNDA:2,_ZNSt12_Vector_baseISt10unique_ptrI12ActiveObjectSt14default_deleteIS1_EESaIS4_EE17_Vector_impl_data12_M_swap_dataERS7_
FN:131,_ZNSt12_Vector_baseI4EdgeSaIS0_EE12_Vector_implC2Ev
FNDA:22,_ZNSt12_Vector_baseI4EdgeSaIS0_EE12_Vector_implC2Ev
FN:131,_ZNSt12_Vector_baseISt6vectorI4EdgeSaIS1_EESaIS3_EE12_Vector_implC2Ev
FNDA:4,_ZNSt12_Vector_baseISt6vectorI4EdgeSaIS1_EESaIS3_EE12_Vector_implC2Ev
FN:131,_ZNSt12_Vector_baseISt6threadSaIS0_EE12_Vector_implC2Ev
FNDA:2,_ZNSt12_Vector_baseISt6threadSaIS0_EE12_Vector_implC2Ev
FN:131,_ZNSt12_Vector_baseISt10unique_ptrI12ActiveObjectSt14default_deleteIS1_EESaIS4_EE12_Vector_implC2Ev
FNDA:2,_ZNSt12_Vector_baseISt10unique_ptrI12ActiveObjectSt14default_deleteIS1_EESaIS4_EE12_Vector_implC2Ev
FN:131,_ZNSt12_Vector_baseImSaImEE12_Vector_implC2Ev
FNDA:2,_ZNSt12_Vector_baseImSaImEE12_Vector_implC2Ev
FN:136,_ZNSt12_Vector_baseImSaImEE12_Vector_implC2ERKS0_
FNDA:1,_ZNSt12_Vector_baseImSaImEE12_Vector_implC2ERKS0_
FN:136,_ZNSt12_Vector_baseISt10unique_ptrI12ActiveObjectSt14default_deleteIS1_EESaIS4_EE12_Vector_implC2ERKS5_
FNDA:2,_ZNSt12_Vector_baseISt10unique_ptrI12ActiveObjectSt14default_deleteIS1_EESaIS4_EE12_Vector_implC2ERKS5_
FN:143,_ZNSt12_Vector_baseI4EdgeSaIS0_EE12_Vector_implC2EOS3_
FNDA:0,_ZNSt12_Vector_baseI4EdgeSaIS0_EE12_Vector_implC2EOS3_
FN:276,_ZNSt12_Vector_baseISt10unique_ptrI12ActiveObjectSt14default_deleteIS1_EESaIS4_EE19_M_get_Tp_allocatorEv
FNDA:28,_ZNSt12_Vector_baseISt10unique_ptrI12ActiveObjectSt14default_deleteIS1_EESaIS4_EE19_M_get_Tp_allocatorEv
FN:276,_ZNSt12_Vector_baseISt6vectorI4EdgeSaIS1_EESaIS3_EE19_M_get_Tp_allocatorEv
FNDA:12,_ZNSt12_Vector_baseISt6vectorI4EdgeSaIS1_EESaIS3_EE19_M_get_Tp_allocatorEv
FN:276,_ZNSt12_Vector_baseImSaImEE19_M_get_Tp_allocatorEv
FNDA:10,_ZNSt12_Vector_baseImSaImEE19_M_get_Tp_allocatorEv
FN:276,_ZNSt12_Vector_baseISt6threadSaIS0_EE19_M_get_Tp_allocatorEv
FNDA:0,_ZNSt12_Vector_baseISt6threadSaIS0_EE19_M_get_Tp_allocatorEv
FN:276,_ZNSt12_Vector_baseI4EdgeSaIS0_EE19_M_get_Tp_allocatorEv
FNDA:116,_ZNSt12_Vector_baseI4EdgeSaIS0_EE19_M_get_Tp_allocatorEv
FN:280,_ZNKSt12_Vector_baseISt10unique_ptrI12ActiveObjectSt14default_deleteIS1_EESaIS4_EE19_M_get_Tp_allocatorEv
FNDA:18,_ZNKSt12_Vector_baseISt10unique_ptrI12ActiveObjectSt14default_deleteIS1_EESaIS4_EE19_M_get_Tp_allocatorEv
FN:280,_ZNKSt12_Vector_baseImSaImEE19_M_get_Tp_allocatorEv
FNDA:5,_ZNKSt12_Vector_baseImSaImEE19_M_get_Tp_allocatorEv
FN:280,_ZNKSt12_Vector_baseISt6vectorI4EdgeSaIS1_EESaIS3_EE19_M_get_Tp_allocatorEv
FNDA:16,_ZNKSt12_Vector_baseISt6vectorI4EdgeSaIS1_EESaIS3_EE19_M_get_Tp_allocatorEv
FN:284,_ZNKSt12_Vector_baseImSaImEE13get_allocatorEv
FNDA:1,_ZNKSt12_Vector_baseImSaImEE13get_allocatorEv
FN:284,_ZNKSt12_Vector_baseISt10unique_ptrI12ActiveObjectSt14default_deleteIS1_EESaIS4_EE13get_allocatorEv
FNDA:2,_ZNKSt12_Vector_baseISt10unique_ptrI12ActiveObjectSt14default_deleteIS1_EESaIS4_EE13get_allocatorEv
FN:288,_ZNSt12_Vector_baseISt6vectorI4EdgeSaIS1_EESaIS3_EEC2Ev
FNDA:4,_ZNSt12_Vector_baseISt6vectorI4EdgeSaIS1_EESaIS3_EEC2Ev
FN:288,_ZNSt12_Vector_baseImSaImEEC2Ev
FNDA:2,_ZNSt12_Vector_baseImSaImEEC2Ev
FN:288,_ZNSt12_Vector_baseISt10unique_ptrI12ActiveObjectSt14default_deleteIS1_EESaIS4_EEC2Ev
FNDA:2,_ZNSt12_Vector_baseISt10unique_ptrI12ActiveObjectSt14default_deleteIS1_EESaIS4_EEC2Ev
FN:288,_ZNSt12_Vector_baseISt6threadSaIS0_EEC2Ev
FNDA:2,_ZNSt12_Vector_baseISt6threadSaIS0_EEC2Ev
FN:288,_ZNSt12_Vector_baseI4EdgeSaIS0_EEC2Ev
FNDA:22,_ZNSt12_Vector_baseI4EdgeSaIS0_EEC2Ev
FN:293,_ZNSt12_Vector_baseISt10unique_ptrI12ActiveObjectSt14default_deleteIS1_EESaIS4_EEC2ERKS5_
FNDA:2,_ZNSt12_Vector_baseISt10unique_ptrI12ActiveObjectSt14default_deleteIS1_EESaIS4_EEC2ERKS5_
FN:293,_ZNSt12_Vector_baseImSaImEEC2ERKS0_
FNDA:1,_ZNSt12_Vector_baseImSaImEEC2ERKS0_
FN:308,_ZNSt12_Vector_baseI4EdgeSaIS0_EEC2EOS2_
FNDA:0,_ZNSt12_Vector_baseI4EdgeSaIS0_EEC2EOS2_
FN:333,_ZNSt12_Vector_baseImSaImEED2Ev
FNDA:1,_ZNSt12_Vector_baseImSaImEED2Ev
FN:333,_ZNSt12_Vector_baseISt10unique_ptrI12ActiveObjectSt14default_deleteIS1_EESaIS4_EED2Ev
FNDA:2,_ZNSt12_Vector_baseISt10unique_ptrI12ActiveObjectSt14default_deleteIS1_EESaIS4_EED2Ev
FN:333,_ZNSt12_Vector_baseISt6vectorI4EdgeSaIS1_EESaIS3_EED2Ev
FNDA:4,_ZNSt12_Vector_baseISt6vectorI4EdgeSaIS1_EESaIS3_EED2Ev
FN:333,_ZNSt12_Vector_baseI4EdgeSaIS0_EED2Ev
FNDA:26,_ZNSt12_Vector_baseI4EdgeSaIS0_EED2Ev
FN:333,_ZNSt12_Vector_baseISt6threadSaIS0_EED2Ev
FNDA:0,_ZNSt12_Vector_baseISt6threadSaIS0_EED2Ev
FN:343,_ZNSt12_Vector_baseISt10unique_ptrI12ActiveObjectSt14default_deleteIS1_EESaIS4_EE11_M_allocateEm
FNDA:10,_ZNSt12_Vector_baseISt10unique_ptrI12ActiveObjectSt14default_deleteIS1_EESaIS4_EE11_M_allocateEm
FN:343,_ZNSt12_Vector_baseImSaImEE11_M_allocateEm
FNDA:3,_ZNSt12_Vector_baseImSaImEE11_M_allocateEm
FN:343,_ZNSt12_Vector_baseISt6vectorI4EdgeSaIS1_EESaIS3_EE11_M_allocateEm
FNDA:4,_ZNSt12_Vector_baseISt6vectorI4EdgeSaIS1_EESaIS3_EE11_M_allocateEm
FN:350,_ZNSt12_Vector_baseI4EdgeSaIS0_EE13_M_deallocateEPS0_m
FNDA:68,_ZNSt12_Vector_baseI4EdgeSaIS0_EE13_M_deallocateEPS0_m
FN:350,_ZNSt12_Vector_baseISt10unique_ptrI12ActiveObjectSt14default_deleteIS1_EESaIS4_EE13_M_deallocateEPS4_m
FNDA:10,_ZNSt12_Vector_baseISt10unique_ptrI12ActiveObjectSt14default_deleteIS1_EESaIS4_EE13_M_deallocateEPS4_m
FN:350,_ZNSt12_Vector_baseImSaImEE13_M_deallocateEPmm
FNDA:3,_ZNSt12_Vector_baseImSaImEE13_M_deallocateEPmm
FN:350,_ZNSt12_Vector_baseISt6vectorI4EdgeSaIS1_EESaIS3_EE13_M_deallocateEPS3_m
FNDA:8,_ZNSt12_Vector_baseISt6vectorI4EdgeSaIS1_EESaIS3_EE13_M_deallocateEPS3_m
FN:350,_ZNSt12_Vector_baseISt6threadSaIS0_EE13_M_deallocateEPS0_m
FNDA:0,_ZNSt12_Vector_baseISt6threadSaIS0_EE13_M_deallocateEPS0_m
FN:453,_ZNSt6vectorImSaImEE14_S_do_relocateEPmS2_S2_RS0_St17integral_constantIbLb1EE
FNDA:4,_ZNSt6vectorImSaImEE14_S_do_relocateEPmS2_S2_RS0_St17integral_constantIbLb1EE
FN:453,_ZNSt6vectorIS_I4EdgeSaIS0_EESaIS2_EE14_S_do_relocateEPS2_S5_S5_RS3_St17integral_constantIbLb1EE
FNDA:4,_ZNSt6vectorIS_I4EdgeSaIS0_EESaIS2_EE14_S_do_relocateEPS2_S5_S5_RS3_St17integral_constantIbLb1EE
FN:453,_ZNSt6vectorISt10unique_ptrI12ActiveObjectSt14default_deleteIS1_EESaIS4_EE14_S_do_relocateEPS4_S7_S7_RS5_St17integral_constantIbLb1EE
FNDA:16,_ZNSt6vectorISt10unique_ptrI12ActiveObjectSt14default_deleteIS1_EESaIS4_EE14_S_do_relocateEPS4_S7_S7_RS5_St17integral_constantIbLb1EE
FN:465,_ZNSt6vectorIS_I4EdgeSaIS0_EESaIS2_EE11_S_relocateEPS2_S5_S5_RS3_
FNDA:4,_ZNSt6vectorIS_I4EdgeSaIS0_EESaIS2_EE11_S_relocateEPS2_S5_S5_RS3_
FN:465,_ZNSt6vectorISt10unique_ptrI12ActiveObjectSt14default_deleteIS1_EESaIS4_EE11_S_relocateEPS4_S7_S7_RS5_
FNDA:16,_ZNSt6vectorISt10unique_ptrI12ActiveObjectSt14default_deleteIS1_EESaIS4_EE11_S_relocateEPS4_S7_S7_RS5_
FN:465,_ZNSt6vectorImSaImEE11_S_relocateEPmS2_S2_RS0_
FNDA:4,_ZNSt6vectorImSaImEE11_S_relocateEPmS2_S2_RS0_
FN:487,_ZNSt6vectorIS_I4EdgeSaIS0_EESaIS2_EEC2Ev
FNDA:4,_ZNSt6vectorIS_I4EdgeSaIS0_EESaIS2_EEC2Ev
FN:487,_ZNSt6vectorI4EdgeSaIS0_EEC2Ev
FNDA:22,_ZNSt6vectorI4EdgeSaIS0_EEC2Ev
FN:487,_ZNSt6vectorImSaImEEC2Ev
FNDA:2,_ZNSt6vectorImSaImEEC2Ev
FN:487,_ZNSt6vectorISt10unique_ptrI12ActiveObjectSt14default_deleteIS1_EESaIS4_EEC2Ev
FNDA:2,_ZNSt6vectorISt10unique_ptrI12ActiveObjectSt14default_deleteIS1_EESaIS4_EEC2Ev
FN:487,_ZNSt6vectorISt6threadSaIS0_EEC2Ev
FNDA:2,_ZNSt6vectorISt6threadSaIS0_EEC2Ev
FN:572,_ZNSt6vectorI4EdgeSaIS0_EEC2EOS2_
FNDA:0,_ZNSt6vectorI4EdgeSaIS0_EEC2EOS2_
FN:653,_ZNSt6vectorISt10unique_ptrI12ActiveObjectSt14default_deleteIS1_EESaIS4_EEC2ISt13move_iteratorIN9__gnu_cxx17__normal_iteratorIPS4_S6_EEEvEET_SE_RKS5_
FNDA:2,_ZNSt6vectorISt10unique_ptrI12ActiveObjectSt14default_deleteIS1_EESaIS4_EEC2ISt13move_iteratorIN9__gnu_cxx17__normal_iteratorIPS4_S6_EEEvEET_SE_RKS5_
FN:653,_ZNSt6vectorImSaImEEC2ISt13move_iteratorIN9__gnu_cxx17__normal_iteratorIPmS1_EEEvEET_S9_RKS0_
FNDA:1,_ZNSt6vectorImSaImEEC2ISt13move_iteratorIN9__gnu_cxx17__normal_iteratorIPmS1_EEEvEET_S9_RKS0_
FN:678,_ZNSt6vectorISt10unique_ptrI12ActiveObjectSt14default_deleteIS1_EESaIS4_EED2Ev
FNDA:2,_ZNSt6vectorISt10unique_ptrI12ActiveObjectSt14default_deleteIS1_EESaIS4_EED2Ev
FN:678,_ZNSt6vectorISt6threadSaIS0_EED2Ev
FNDA:0,_ZNSt6vectorISt6threadSaIS0_EED2Ev
FN:678,_ZNSt6vectorI4EdgeSaIS0_EED2Ev
FNDA:26,_ZNSt6vectorI4EdgeSaIS0_EED2Ev
FN:678,_ZNSt6vectorImSaImEED2Ev
FNDA:1,_ZNSt6vectorImSaImEED2Ev
FN:678,_ZNSt6vectorIS_I4EdgeSaIS0_EESaIS2_EED2Ev
FNDA:4,_ZNSt6vectorIS_I4EdgeSaIS0_EESaIS2_EED2Ev
FN:811,_ZNSt6vectorImSaImEE5beginEv
FNDA:5,_ZNSt6vectorImSaImEE5beginEv
FN:811,_ZNSt6vectorISt10unique_ptrI12ActiveObjectSt14default_deleteIS1_EESaIS4_EE5beginEv
FNDA:12,_ZNSt6vectorISt10unique_ptrI12ActiveObjectSt14default_deleteIS1_EESaIS4_EE5beginEv
FN:820,_ZNKSt6vectorIS_I4EdgeSaIS0_EESaIS2_EE5beginEv
FNDA:8,_ZNKSt6vectorIS_I4EdgeSaIS0_EESaIS2_EE5beginEv
FN:829,_ZNSt6vectorImSaImEE3endEv
FNDA:5,_ZNSt6vectorImSaImEE3endEv
FN:829,_ZNSt6vectorISt10unique_ptrI12ActiveObjectSt14default_deleteIS1_EESaIS4_EE3endEv
FNDA:26,_ZNSt6vectorISt10unique_ptrI12ActiveObjectSt14default_deleteIS1_EESaIS4_EE3endEv
FN:838,_ZNKSt6vectorIS_I4EdgeSaIS0_EESaIS2_EE3endEv
FNDA:8,_ZNKSt6vectorIS_I4EdgeSaIS0_EESaIS2_EE3endEv
FN:918,_ZNKSt6vectorIS_I4EdgeSaIS0_EESaIS2_EE4sizeEv
FNDA:28,_ZNKSt6vectorIS_I4EdgeSaIS0_EESaIS2_EE4sizeEv
FN:918,_ZNKSt6vectorImSaImEE4sizeEv
FNDA:10,_ZNKSt6vectorImSaImEE4sizeEv
FN:918,_ZNKSt6vectorISt10unique_ptrI12ActiveObjectSt14default_deleteIS1_EESaIS4_EE4sizeEv
FNDA:34,_ZNKSt6vectorISt10unique_ptrI12ActiveObjectSt14default_deleteIS1_EESaIS4_EE4sizeEv
FN:923,_ZNKSt6vectorIS_I4EdgeSaIS0_EESaIS2_EE8max_sizeEv
FNDA:16,_ZNKSt6vectorIS_I4EdgeSaIS0_EESaIS2_EE8max_sizeEv
FN:923,_ZNKSt6vectorImSaImEE8max_sizeEv
FNDA:4,_ZNKSt6vectorImSaImEE8max_sizeEv
FN:923,_ZNKSt6vectorISt10unique_ptrI12ActiveObjectSt14default_deleteIS1_EESaIS4_EE8max_sizeEv
FNDA:16,_ZNKSt6vectorISt10unique_ptrI12ActiveObjectSt14default_deleteIS1_EESaIS4_EE8max_sizeEv
FN:937,_ZNSt6vectorIS_I4EdgeSaIS0_EESaIS2_EE6resizeEm
FNDA:4,_ZNSt6vectorIS_I4EdgeSaIS0_EESaIS2_EE6resizeEm
FN:989,_ZNSt6vectorISt10unique_ptrI12ActiveObjectSt14default_deleteIS1_EESaIS4_EE13shrink_to_fitEv
FNDA:2,_ZNSt6vectorISt10unique_ptrI12ActiveObjectSt14default_deleteIS1_EESaIS4_EE13shrink_to_fitEv
FN:989,_ZNSt6vectorImSaImEE13shrink_to_fitEv
FNDA:2,_ZNSt6vectorImSaImEE13shrink_to_fitEv
FN:998,_ZNKSt6vectorISt10unique_ptrI12ActiveObjectSt14default_deleteIS1_EESaIS4_EE8capacityEv
FNDA:2,_ZNKSt6vectorISt10unique_ptrI12ActiveObjectSt14default_deleteIS1_EESaIS4_EE8capacityEv
FN:998,_ZNKSt6vectorImSaImEE8capacityEv
FNDA:2,_ZNKSt6vectorImSaImEE8capacityEv
FN:1007,_ZNKSt6vectorIS_I4EdgeSaIS0_EESaIS2_EE5emptyEv
FNDA:8,_ZNKSt6vectorIS_I4EdgeSaIS0_EESaIS2_EE5emptyEv
FN:1043,_ZNSt6vectorISt10unique_ptrI12ActiveObjectSt14default_deleteIS1_EESaIS4_EEixEm
FNDA:35,_ZNSt6vectorISt10unique_ptrI12ActiveObjectSt14default_deleteIS1_EESaIS4_EEixEm
FN:1143,_ZNSt6vectorISt10unique_ptrI12ActiveObjectSt14default_deleteIS1_EESaIS4_EE4backEv
FNDA:14,_ZNSt6vectorISt10unique_ptrI12ActiveObjectSt14default_deleteIS1_EESaIS4_EE4backEv
FN:1187,_ZNSt6vectorImSaImEE9push_backERKm
FNDA:2,_ZNSt6vectorImSaImEE9push_backERKm
FN:1203,_ZNSt6vectorISt10unique_ptrI12ActiveObjectSt14default_deleteIS1_EESaIS4_EE9push_backEOS4_
FNDA:14,_ZNSt6vectorISt10unique_ptrI12ActiveObjectSt14default_deleteIS1_EESaIS4_EE9push_backEOS4_
FN:1480,_ZNSt6vectorISt10unique_ptrI12ActiveObjectSt14default_deleteIS1_EESaIS4_EE4swapERS6_
FNDA:2,_ZNSt6vectorISt10unique_ptrI12ActiveObjectSt14default_deleteIS1_EESaIS4_EE4swapERS6_
FN:1480,_ZNSt6vectorImSaImEE4swapERS1_
FNDA:1,_ZNSt6vectorImSaImEE4swapERS1_
FN:1498,_ZNSt6vectorImSaImEE5clearEv
FNDA:2,_ZNSt6vectorImSaImEE5clearEv
FN:1498,_ZNSt6vectorISt10unique_ptrI12ActiveObjectSt14default_deleteIS1_EESaIS4_EE5clearEv
FNDA:2,_ZNSt6vectorISt10unique_ptrI12ActiveObjectSt14default_deleteIS1_EESaIS4_EE5clearEv
FN:1577,_ZNSt6vectorImSaImEE19_M_range_initializeISt13move_iteratorIN9__gnu_cxx17__normal_iteratorIPmS1_EEEEEvT_S9_St20forward_iterator_tag
FNDA:1,_ZNSt6vectorImSaImEE19_M_range_initializeISt13move_iteratorIN9__gnu_cxx17__normal_iteratorIPmS1_EEEEEvT_S9_St20forward_iterator_tag
FN:1577,_ZNSt6vectorISt10unique_ptrI12ActiveObjectSt14default_deleteIS1_EESaIS4_EE19_M_range_initializeISt13move_iteratorIN9__gnu_cxx17__normal_iteratorIPS4_S6_EEEEEvT_SE_St20forward_iterator_tag
FNDA:2,_ZNSt6vectorISt10unique_ptrI12ActiveObjectSt14default_deleteIS1_EESaIS4_EE19_M_range_initializeISt13move_iteratorIN9__gnu_cxx17__normal_iteratorIPS4_S6_EEEEEvT_SE_St20forward_iterator_tag
FN:1756,_ZNKSt6vectorIS_I4EdgeSaIS0_EESaIS2_EE12_M_check_lenEmPKc
FNDA:4,_ZNKSt6vectorIS_I4EdgeSaIS0_EESaIS2_EE12_M_check_lenEmPKc
FN:1756,_ZNKSt6vectorImSaImEE12_M_check_lenEmPKc
FNDA:2,_ZNKSt6vectorImSaImEE12_M_check_lenEmPKc
FN:1756,_ZNKSt6vectorISt10unique_ptrI12ActiveObjectSt14default_deleteIS1_EESaIS4_EE12_M_check_lenEmPKc
FNDA:8,_ZNKSt6vectorISt10unique_ptrI12ActiveObjectSt14default_deleteIS1_EESaIS4_EE12_M_check_lenEmPKc
FN:1767,_ZNSt6vectorImSaImEE17_S_check_init_lenEmRKS0_
FNDA:1,_ZNSt6vectorImSaImEE17_S_check_init_lenEmRKS0_
FN:1767,_ZNSt6vectorISt10unique_ptrI12ActiveObjectSt14default_deleteIS1_EESaIS4_EE17_S_check_init_lenEmRKS5_
FNDA:2,_ZNSt6vectorISt10unique_ptrI12ActiveObjectSt14default_deleteIS1_EESaIS4_EE17_S_check_init_lenEmRKS5_
FN:1776,_ZNSt6vectorImSaImEE11_S_max_sizeERKS0_
FNDA:5,_ZNSt6vectorImSaImEE11_S_max_sizeERKS0_
FN:1776,_ZNSt6vectorISt10unique_ptrI12ActiveObjectSt14default_deleteIS1_EESaIS4_EE11_S_max_sizeERKS5_
FNDA:18,_ZNSt6vectorISt10unique_ptrI12ActiveObjectSt14default_deleteIS1_EESaIS4_EE11_S_max_sizeERKS5_
FN:1776,_ZNSt6vectorIS_I4EdgeSaIS0_EESaIS2_EE11_S_max_sizeERKS3_
FNDA:16,_ZNSt6vectorIS_I4EdgeSaIS0_EESaIS2_EE11_S_max_sizeERKS3_
FN:1792,_ZNSt6vectorISt10unique_ptrI12ActiveObjectSt14default_deleteIS1_EESaIS4_EE15_M_erase_at_endEPS4_
FNDA:2,_ZNSt6vectorISt10unique_ptrI12ActiveObjectSt14default_deleteIS1_EESaIS4_EE15_M_erase_at_endEPS4_
FN:1792,_ZNSt6vectorImSaImEE15_M_erase_at_endEPm
FNDA:2,_ZNSt6vectorImSaImEE15_M_erase_at_endEPm
FN:1792,_ZNSt6vectorIS_I4EdgeSaIS0_EESaIS2_EE15_M_erase_at_endEPS2_
FNDA:0,_ZNSt6vectorIS_I4EdgeSaIS0_EESaIS2_EE15_M_erase_at_endEPS2_
DA:97,26
DA:98,26
DA:99,26
DA:97,4
DA:98,4
DA:99,4
DA:97,6
DA:98,6
DA:99,6
DA:97,2
DA:98,2
DA:99,2
DA:97,4
DA:98,4
DA:99,4
DA:102,0
DA:103,0
DA:104,0
DA:105,0
DA:109,6
DA:111,6
DA:112,6
DA:113,6
DA:114,6
DA:109,3
DA:111,3
DA:112,3
DA:113,3
DA:114,3
DA:117,2
DA:121,2
DA:122,2
DA:123,2
DA:124,2
DA:125,2
DA:117,1
DA:121,1
DA:122,1
DA:123,1
DA:124,1
DA:125,1
DA:131,22
DA:133,22
DA:134,22
DA:131,2
DA:133,2
DA:134,2
DA:131,2
DA:133,2
DA:134,2
DA:131,2
DA:133,2
DA:134,2
DA:131,4
DA:133,4
DA:134,4
DA:136,2
DA:137,2
DA:138,2
DA:136,1
DA:137,1
DA:138,1
DA:143,0
DA:144,0
DA:145,0
DA:276,10
DA:277,10
DA:276,28
DA:277,28
DA:276,0
DA:277,0
DA:276,116
DA:277,116
DA:276,12
DA:277,12
DA:280,18
DA:281,18
DA:280,5
DA:281,5
DA:280,16
DA:281,16
DA:284,2
DA:285,2
DA:284,1
DA:285,1
DA:288,22
DA:288,2
DA:288,2
DA:288,2
DA:288,4
DA:293,2
DA:294,2
DA:293,1
DA:294,1
DA:308,0
DA:333,26
DA:335,26
DA:336,26
DA:337,26
DA:333,1
DA:335,1
DA:336,1
DA:337,1
DA:333,2
DA:335,2
DA:336,2
DA:337,2
DA:333,0
DA:335,0
DA:336,0
DA:337,0
DA:333,4
DA:335,4
DA:336,4
DA:337,4
DA:343,10
DA:346,10
DA:343,3
DA:346,3
DA:343,4
DA:346,4
DA:350,68
DA:353,68
DA:354,46
DA:355,68
DA:350,3
DA:353,3
DA:354,2
DA:355,3
DA:350,10
DA:353,10
DA:354,8
DA:355,10
DA:350,0
DA:353,0
DA:354,0
DA:355,0
DA:350,8
DA:353,8
DA:354,4
DA:355,8
DA:453,16
DA:456,16
DA:453,4
DA:456,4
DA:453,4
DA:456,4
DA:465,16
DA:469,16
DA:465,4
DA:469,4
DA:465,4
DA:469,4
DA:487,22
DA:487,2
DA:487,2
DA:487,2
DA:487,4
DA:572,0
DA:653,2
DA:655,2
DA:657,2
DA:658,2
DA:659,2
DA:653,1
DA:655,1
DA:657,1
DA:658,1
DA:659,1
DA:678,1
DA:680,1
DA:681,1
DA:683,1
DA:678,2
DA:680,2
DA:681,2
DA:683,2
DA:678,0
DA:680,0
DA:681,0
DA:683,0
DA:678,26
DA:680,26
DA:681,26
DA:683,26
DA:678,4
DA:680,4
DA:681,4
DA:683,4
DA:811,12
DA:812,12
DA:811,5
DA:812,5
DA:820,8
DA:821,8
DA:829,26
DA:830,26
DA:829,5
DA:830,5
DA:838,8
DA:839,8
DA:918,34
DA:919,34
DA:918,10
DA:919,10
DA:918,28
DA:919,28
DA:923,16
DA:924,16
DA:923,4
DA:924,4
DA:923,16
DA:924,16
DA:937,4
DA:939,4
DA:940,4
DA:941,0
DA:942,0
DA:943,4
DA:989,2
DA:990,2
DA:989,2
DA:990,2
DA:998,2
DA:999,2
DA:1000,2
DA:998,2
DA:999,2
DA:1000,2
DA:1007,8
DA:1008,8
DA:1043,35
DA:1046,35
DA:1143,14
DA:1146,14
DA:1187,2
DA:1189,2
DA:1192,0
DA:1194,0
DA:1198,2
DA:1199,2
DA:1203,14
DA:1204,14
DA:1480,2
DA:1483,2
DA:1486,2
DA:1487,2
DA:1488,2
DA:1489,2
DA:1480,1
DA:1483,1
DA:1486,1
DA:1487,1
DA:1488,1
DA:1489,1
DA:1498,2
DA:1499,2
DA:1498,2
DA:1499,2
DA:1577,2
DA:1580,2
DA:1582,2
DA:1583,2
DA:1584,2
DA:1585,2
DA:1587,2
DA:1588,2
DA:1577,1
DA:1580,1
DA:1582,1
DA:1583,1
DA:1584,1
DA:1585,1
DA:1587,1
DA:1588,1
DA:1756,8
DA:1758,8
DA:1759,0
DA:1761,8
DA:1762,8
DA:1756,2
DA:1758,2
DA:1759,0
DA:1761,2
DA:1762,2
DA:1756,4
DA:1758,4
DA:1759,0
DA:1761,4
DA:1762,4
DA:1767,2
DA:1769,2
DA:1770,0
DA:1772,2
DA:1767,1
DA:1769,1
DA:1770,0
DA:1772,1
DA:1776,18
DA:1781,18
DA:1783,18
DA:1784,18
DA:1776,5
DA:1781,5
DA:1783,5
DA:1784,5
DA:1776,16
DA:1781,16
DA:1783,16
DA:1784,16
DA:1792,2
DA:1794,2
DA:1796,2
DA:1797,2
DA:1798,2
DA:1801,2
DA:1792,2
DA:1794,2
DA:1796,1
DA:1797,1
DA:1798,1
DA:1801,2
DA:1792,0
DA:1794,0
DA:1796,0
DA:1797,0
DA:1798,0
DA:1801,0
end_of_record
SF:/usr/include/c++/11/bits/stl_uninitialized.h
FN:85,_ZNSt20__uninitialized_copyILb0EE13__uninit_copyISt13move_iteratorIN9__gnu_cxx17__normal_iteratorIPSt10unique_ptrI12ActiveObjectSt14default_deleteIS6_EESt6vectorIS9_SaIS9_EEEEESA_EET0_T_SH_SG_
FNDA:2,_ZNSt20__uninitialized_copyILb0EE13__uninit_copyISt13move_iteratorIN9__gnu_cxx17__normal_iteratorIPSt10unique_ptrI12ActiveObjectSt14default_deleteIS6_EESt6vectorIS9_SaIS9_EEEEESA_EET0_T_SH_SG_
FN:108,_ZNSt20__uninitialized_copyILb1EE13__uninit_copyISt13move_iteratorIN9__gnu_cxx17__normal_iteratorIPmSt6vectorImSaImEEEEES5_EET0_T_SC_SB_
FNDA:1,_ZNSt20__uninitialized_copyILb1EE13__uninit_copyISt13move_iteratorIN9__gnu_cxx17__normal_iteratorIPmSt6vectorImSaImEEEEES5_EET0_T_SC_SB_
FN:126,_ZSt18uninitialized_copyISt13move_iteratorIN9__gnu_cxx17__normal_iteratorIPSt10unique_ptrI12ActiveObjectSt14default_deleteIS4_EESt6vectorIS7_SaIS7_EEEEES8_ET0_T_SF_SE_
FNDA:2,_ZSt18uninitialized_copyISt13move_iteratorIN9__gnu_cxx17__normal_iteratorIPSt10unique_ptrI12ActiveObjectSt14default_deleteIS4_EESt6vectorIS7_SaIS7_EEEEES8_ET0_T_SF_SE_
FN:126,_ZSt18uninitialized_copyISt13move_iteratorIN9__gnu_cxx17__normal_iteratorIPmSt6vectorImSaImEEEEES3_ET0_T_SA_S9_
FNDA:1,_ZSt18uninitialized_copyISt13move_iteratorIN9__gnu_cxx17__normal_iteratorIPmSt6vectorImSaImEEEEES3_ET0_T_SA_S9_
FN:331,_ZSt22__uninitialized_copy_aISt13move_iteratorIN9__gnu_cxx17__normal_iteratorIPmSt6vectorImSaImEEEEES3_mET0_T_SA_S9_RSaIT1_E
FNDA:1,_ZSt22__uninitialized_copy_aISt13move_iteratorIN9__gnu_cxx17__normal_iteratorIPmSt6vectorImSaImEEEEES3_mET0_T_SA_S9_RSaIT1_E
FN:331,_ZSt22__uninitialized_copy_aISt13move_iteratorIN9__gnu_cxx17__normal_iteratorIPSt10unique_ptrI12ActiveObjectSt14default_deleteIS4_EESt6vectorIS7_SaIS7_EEEEES8_S7_ET0_T_SF_SE_RSaIT1_E
FNDA:2,_ZSt22__uninitialized_copy_aISt13move_iteratorIN9__gnu_cxx17__normal_iteratorIPSt10unique_ptrI12ActiveObjectSt14default_deleteIS4_EESt6vectorIS7_SaIS7_EEEEES8_S7_ET0_T_SF_SE_RSaIT1_E
FN:573,_ZNSt27__uninitialized_default_n_1ILb0EE18__uninit_default_nIPSt6vectorI4EdgeSaIS3_EEmEET_S7_T0_
FNDA:4,_ZNSt27__uninitialized_default_n_1ILb0EE18__uninit_default_nIPSt6vectorI4EdgeSaIS3_EEmEET_S7_T0_
FN:630,_ZSt25__uninitialized_default_nIPSt6vectorI4EdgeSaIS1_EEmET_S5_T0_
FNDA:4,_ZSt25__uninitialized_default_nIPSt6vectorI4EdgeSaIS1_EEmET_S5_T0_
FN:702,_ZSt27__uninitialized_default_n_aIPSt6vectorI4EdgeSaIS1_EEmS3_ET_S5_T0_RSaIT1_E
FNDA:4,_ZSt27__uninitialized_default_n_aIPSt6vectorI4EdgeSaIS1_EEmS3_ET_S5_T0_RSaIT1_E
FN:986,_ZSt19__relocate_object_aISt6vectorI4EdgeSaIS1_EES3_SaIS3_EEvPT_PT0_RT1_
FNDA:0,_ZSt19__relocate_object_aISt6vectorI4EdgeSaIS1_EES3_SaIS3_EEvPT_PT0_RT1_
FN:986,_ZSt19__relocate_object_aISt10unique_ptrI12ActiveObjectSt14default_deleteIS1_EES4_SaIS4_EEvPT_PT0_RT1_
FNDA:14,_ZSt19__relocate_object_aISt10unique_ptrI12ActiveObjectSt14default_deleteIS1_EES4_SaIS4_EEvPT_PT0_RT1_
FN:1006,_ZSt14__relocate_a_1ImmENSt9enable_ifIXsrSt24__is_bitwise_relocatableIT_vE5valueEPS2_E4typeES4_S4_S4_RSaIT0_E
FNDA:4,_ZSt14__relocate_a_1ImmENSt9enable_ifIXsrSt24__is_bitwise_relocatableIT_vE5valueEPS2_E4typeES4_S4_S4_RSaIT0_E
FN:1018,_ZSt14__relocate_a_1IPSt6vectorI4EdgeSaIS1_EES4_SaIS3_EET0_T_S7_S6_RT1_
FNDA:4,_ZSt14__relocate_a_1IPSt6vectorI4EdgeSaIS1_EES4_SaIS3_EET0_T_S7_S6_RT1_
FN:1018,_ZSt14__relocate_a_1IPSt10unique_ptrI12ActiveObjectSt14default_deleteIS1_EES5_SaIS4_EET0_T_S8_S7_RT1_
FNDA:16,_ZSt14__relocate_a_1IPSt10unique_ptrI12ActiveObjectSt14default_deleteIS1_EES5_SaIS4_EET0_T_S8_S7_RT1_
FN:1040,_ZSt12__relocate_aIPSt10unique_ptrI12ActiveObjectSt14default_deleteIS1_EES5_SaIS4_EET0_T_S8_S7_RT1_
FNDA:16,_ZSt12__relocate_aIPSt10unique_ptrI12ActiveObjectSt14default_deleteIS1_EES5_SaIS4_EET0_T_S8_S7_RT1_
FN:1040,_ZSt12__relocate_aIPmS0_SaImEET0_T_S3_S2_RT1_
FNDA:4,_ZSt12__relocate_aIPmS0_SaImEET0_T_S3_S2_RT1_
FN:1040,_ZSt12__relocate_aIPSt6vectorI4EdgeSaIS1_EES4_SaIS3_EET0_T_S7_S6_RT1_
FNDA:4,_ZSt12__relocate_aIPSt6vectorI4EdgeSaIS1_EES4_SaIS3_EET0_T_S7_S6_RT1_
DA:85,2
DA:88,2
DA:91,2
DA:92,0
DA:93,2
DA:95,0
DA:97,0
DA:98,0
DA:108,1
DA:110,1
DA:126,2
DA:145,2
DA:151,2
DA:126,1
DA:145,1
DA:151,1
DA:331,2
DA:333,2
DA:331,1
DA:333,1
DA:573,4
DA:575,4
DA:578,23
DA:579,19
DA:580,4
DA:630,4
DA:635,4
DA:640,4
DA:702,4
DA:704,4
DA:986,14
DA:994,14
DA:995,14
DA:996,14
DA:986,0
DA:994,0
DA:995,0
DA:996,0
DA:1006,4
DA:1009,4
DA:1010,4
DA:1011,1
DA:1012,4
DA:1018,16
DA:1030,16
DA:1031,30
DA:1032,14
DA:1034,16
DA:1018,4
DA:1030,4
DA:1031,4
DA:1032,0
DA:1034,4
DA:1040,16
DA:1046,16
DA:1048,16
DA:1040,4
DA:1046,4
DA:1048,4
DA:1040,4
DA:1046,4
DA:1048,4
end_of_record
SF:/usr/include/c++/11/bits/stl_deque.h
FN:96,_ZSt16__deque_buf_sizem
FNDA:90,_ZSt16__deque_buf_sizem
FN:131,_ZNSt15_Deque_iteratorISt8functionIFvvEERS2_PS2_E14_S_buffer_sizeEv
FNDA:32,_ZNSt15_Deque_iteratorISt8functionIFvvEERS2_PS2_E14_S_buffer_sizeEv
FN:151,_ZNSt15_Deque_iteratorISt8functionIFvvEERS2_PS2_EC2Ev
FNDA:28,_ZNSt15_Deque_iteratorISt8functionIFvvEERS2_PS2_EC2Ev
FN:168,_ZNSt15_Deque_iteratorISt8functionIFvvEERS2_PS2_EC2ERKS5_
FNDA:126,_ZNSt15_Deque_iteratorISt8functionIFvvEERS2_PS2_EC2ERKS5_
FN:180,_ZNKSt15_Deque_iteratorISt8functionIFvvEERS2_PS2_EdeEv
FNDA:70,_ZNKSt15_Deque_iteratorISt8functionIFvvEERS2_PS2_EdeEv
FN:208,_ZNSt15_Deque_iteratorISt8functionIFvvEERS2_PS2_EmmEv
FNDA:35,_ZNSt15_Deque_iteratorISt8functionIFvvEERS2_PS2_EmmEv
FN:260,_ZNSt15_Deque_iteratorISt8functionIFvvEERS2_PS2_E11_M_set_nodeEPS4_
FNDA:31,_ZNSt15_Deque_iteratorISt8functionIFvvEERS2_PS2_E11_M_set_nodeEPS4_
FN:353,_ZStmiRKSt15_Deque_iteratorISt8functionIFvvEERS2_PS2_ES7_
FNDA:1,_ZStmiRKSt15_Deque_iteratorISt8functionIFvvEERS2_PS2_ES7_
FN:437,_ZNSt11_Deque_baseISt8functionIFvvEESaIS2_EEC2Ev
FNDA:14,_ZNSt11_Deque_baseISt8functionIFvvEESaIS2_EEC2Ev
FN:495,_ZNSt11_Deque_baseISt8functionIFvvEESaIS2_EE16_Deque_impl_dataC2Ev
FNDA:14,_ZNSt11_Deque_baseISt8functionIFvvEESaIS2_EE16_Deque_impl_dataC2Ev
FN:524,_ZNSt11_Deque_baseISt8functionIFvvEESaIS2_EE11_Deque_implC2Ev
FNDA:14,_ZNSt11_Deque_baseISt8functionIFvvEESaIS2_EE11_Deque_implC2Ev
FN:547,_ZNSt11_Deque_baseISt8functionIFvvEESaIS2_EE19_M_get_Tp_allocatorEv
FNDA:63,_ZNSt11_Deque_baseISt8functionIFvvEESaIS2_EE19_M_get_Tp_allocatorEv
FN:551,_ZNKSt11_Deque_baseISt8functionIFvvEESaIS2_EE19_M_get_Tp_allocatorEv
FNDA:29,_ZNKSt11_Deque_baseISt8functionIFvvEESaIS2_EE19_M_get_Tp_allocatorEv
FN:555,_ZNKSt11_Deque_baseISt8functionIFvvEESaIS2_EE20_M_get_map_allocatorEv
FNDA:28,_ZNKSt11_Deque_baseISt8functionIFvvEESaIS2_EE20_M_get_map_allocatorEv
FN:559,_ZNSt11_Deque_baseISt8functionIFvvEESaIS2_EE16_M_allocate_nodeEv
FNDA:15,_ZNSt11_Deque_baseISt8functionIFvvEESaIS2_EE16_M_allocate_nodeEv
FN:566,_ZNSt11_Deque_baseISt8functionIFvvEESaIS2_EE18_M_deallocate_nodeEPS2_
FNDA:15,_ZNSt11_Deque_baseISt8functionIFvvEESaIS2_EE18_M_deallocate_nodeEPS2_
FN:573,_ZNSt11_Deque_baseISt8functionIFvvEESaIS2_EE15_M_allocate_mapEm
FNDA:14,_ZNSt11_Deque_baseISt8functionIFvvEESaIS2_EE15_M_allocate_mapEm
FN:580,_ZNSt11_Deque_baseISt8functionIFvvEESaIS2_EE17_M_deallocate_mapEPPS2_m
FNDA:14,_ZNSt11_Deque_baseISt8functionIFvvEESaIS2_EE17_M_deallocate_mapEPPS2_m
FN:596,_ZNSt11_Deque_baseISt8functionIFvvEESaIS2_EED2Ev
FNDA:14,_ZNSt11_Deque_baseISt8functionIFvvEESaIS2_EED2Ev
FN:617,_ZNSt11_Deque_baseISt8functionIFvvEESaIS2_EE17_M_initialize_mapEm
FNDA:14,_ZNSt11_Deque_baseISt8functionIFvvEESaIS2_EE17_M_initialize_mapEm
FN:656,_ZNSt11_Deque_baseISt8functionIFvvEESaIS2_EE15_M_create_nodesEPPS2_S6_
FNDA:14,_ZNSt11_Deque_baseISt8functionIFvvEESaIS2_EE15_M_create_nodesEPPS2_S6_
FN:674,_ZNSt11_Deque_baseISt8functionIFvvEESaIS2_EE16_M_destroy_nodesEPPS2_S6_
FNDA:14,_ZNSt11_Deque_baseISt8functionIFvvEESaIS2_EE16_M_destroy_nodesEPPS2_S6_
FN:807,_ZNSt5dequeISt8functionIFvvEESaIS2_EE14_S_buffer_sizeEv
FNDA:0,_ZNSt5dequeISt8functionIFvvEESaIS2_EE14_S_buffer_sizeEv
FN:834,_ZNSt5dequeISt8functionIFvvEESaIS2_EEC2Ev
FNDA:14,_ZNSt5dequeISt8functionIFvvEESaIS2_EEC2Ev
FN:1006,_ZNSt5dequeISt8functionIFvvEESaIS2_EED2Ev
FNDA:14,_ZNSt5dequeISt8functionIFvvEESaIS2_EED2Ev
FN:1128,_ZNSt5dequeISt8functionIFvvEESaIS2_EE5beginEv
FNDA:49,_ZNSt5dequeISt8functionIFvvEESaIS2_EE5beginEv
FN:1145,_ZNSt5dequeISt8functionIFvvEESaIS2_EE3endEv
FNDA:49,_ZNSt5dequeISt8functionIFvvEESaIS2_EE3endEv
FN:1233,_ZNKSt5dequeISt8functionIFvvEESaIS2_EE4sizeEv
FNDA:1,_ZNKSt5dequeISt8functionIFvvEESaIS2_EE4sizeEv
FN:1238,_ZNKSt5dequeISt8functionIFvvEESaIS2_EE8max_sizeEv
FNDA:1,_ZNKSt5dequeISt8functionIFvvEESaIS2_EE8max_sizeEv
FN:1427,_ZNSt5dequeISt8functionIFvvEESaIS2_EE4backEv
FNDA:35,_ZNSt5dequeISt8functionIFvvEESaIS2_EE4backEv
FN:1834,_ZNSt5dequeISt8functionIFvvEESaIS2_EE11_S_max_sizeERKS3_
FNDA:1,_ZNSt5dequeISt8functionIFvvEESaIS2_EE11_S_max_sizeERKS3_
FN:2045,_ZNSt5dequeISt8functionIFvvEESaIS2_EE15_M_destroy_dataESt15_Deque_iteratorIS2_RS2_PS2_ES8_RKS3_
FNDA:14,_ZNSt5dequeISt8functionIFvvEESaIS2_EE15_M_destroy_dataESt15_Deque_iteratorIS2_RS2_PS2_ES8_RKS3_
FN:2126,_ZNSt5dequeISt8functionIFvvEESaIS2_EE22_M_reserve_map_at_backEm
FNDA:1,_ZNSt5dequeISt8functionIFvvEESaIS2_EE22_M_reserve_map_at_backEm
DA:96,90
DA:98,90
DA:131,32
DA:132,32
DA:151,28
DA:152,28
DA:168,126
DA:169,126
DA:170,126
DA:180,70
DA:181,70
DA:208,35
DA:210,35
DA:212,1
DA:213,1
DA:215,35
DA:216,35
DA:260,31
DA:262,31
DA:263,31
DA:264,31
DA:265,31
DA:353,1
DA:355,1
DA:356,1
DA:357,1
DA:358,1
DA:437,14
DA:438,14
DA:439,14
DA:495,14
DA:496,14
DA:497,14
DA:524,14
DA:526,14
DA:527,14
DA:547,63
DA:548,63
DA:551,29
DA:552,29
DA:555,28
DA:556,28
DA:559,15
DA:562,15
DA:566,15
DA:569,15
DA:570,15
DA:573,14
DA:575,14
DA:576,28
DA:577,14
DA:580,14
DA:582,14
DA:583,14
DA:584,14
DA:596,14
DA:599,14
DA:601,14
DA:602,14
DA:603,14
DA:605,14
DA:617,14
DA:620,14
DA:623,28
DA:624,14
DA:625,14
DA:632,14
DA:633,14
DA:634,14
DA:637,14
DA:638,0
DA:640,0
DA:641,0
DA:642,0
DA:643,0
DA:646,14
DA:647,14
DA:648,14
DA:649,28
DA:650,14
DA:651,14
DA:652,14
DA:656,14
DA:662,28
DA:663,14
DA:665,0
DA:667,0
DA:668,0
DA:670,14
DA:674,14
DA:678,28
DA:679,14
DA:680,14
DA:807,0
DA:808,0
DA:834,14
DA:1006,14
DA:1007,14
DA:1128,49
DA:1129,49
DA:1145,49
DA:1146,49
DA:1233,1
DA:1234,1
DA:1238,1
DA:1239,1
DA:1427,35
DA:1430,35
DA:1431,35
DA:1432,35
DA:1834,1
DA:1836,1
DA:1837,1
DA:1838,1
DA:2045,14
DA:2049,14
DA:2050,14
DA:2126,1
DA:2128,1
DA:2129,1
DA:2130,0
DA:2131,1
end_of_record
SF:/usr/include/c++/11/tuple
FN:80,_ZNSt10_Head_baseILm1ESt14default_deleteI5GraphELb1EEC2Ev
FNDA:2,_ZNSt10_Head_baseILm1ESt14default_deleteI5GraphELb1EEC2Ev
FN:80,_ZNSt10_Head_baseILm1ESt14default_deleteI9functArgsELb1EEC2Ev
FNDA:2,_ZNSt10_Head_baseILm1ESt14default_deleteI9functArgsELb1EEC2Ev
FN:80,_ZNSt10_Head_baseILm1ESt14default_deleteI12ActiveObjectELb1EEC2Ev
FNDA:14,_ZNSt10_Head_baseILm1ESt14default_deleteI12ActiveObjectELb1EEC2Ev
FN:80,_ZNSt10_Head_baseILm1ESt14default_deleteINSt6thread6_StateEELb1EEC2Ev
FNDA:14,_ZNSt10_Head_baseILm1ESt14default_deleteINSt6thread6_StateEELb1EEC2Ev
FN:124,_ZNSt10_Head_baseILm1ESt14default_deleteI5GraphELb1EE7_M_headERS3_
FNDA:6,_ZNSt10_Head_baseILm1ESt14default_deleteI5GraphELb1EE7_M_headERS3_
FN:124,_ZNSt10_Head_baseILm1ESt14default_deleteI4TreeELb1EE7_M_headERS3_
FNDA:6,_ZNSt10_Head_baseILm1ESt14default_deleteI4TreeELb1EE7_M_headERS3_
FN:124,_ZNSt10_Head_baseILm1ESt14default_deleteINSt6thread6_StateEELb1EE7_M_headERS4_
FNDA:0,_ZNSt10_Head_baseILm1ESt14default_deleteINSt6thread6_StateEELb1EE7_M_headERS4_
FN:124,_ZNSt10_Head_baseILm1ESt14default_deleteI12ActiveObjectELb1EE7_M_headERS3_
FNDA:14,_ZNSt10_Head_baseILm1ESt14default_deleteI12ActiveObjectELb1EE7_M_headERS3_
FN:124,_ZNSt10_Head_baseILm1ESt14default_deleteI9functArgsELb1EE7_M_headERS3_
FNDA:6,_ZNSt10_Head_baseILm1ESt14default_deleteI9functArgsELb1EE7_M_headERS3_
FN:124,_ZNSt10_Head_baseILm1ESt14default_deleteI11MSTStrategyELb1EE7_M_headERS3_
FNDA:6,_ZNSt10_Head_baseILm1ESt14default_deleteI11MSTStrategyELb1EE7_M_headERS3_
FN:189,_ZNSt10_Head_baseILm0EP5GraphLb0EEC2Ev
FNDA:2,_ZNSt10_Head_baseILm0EP5GraphLb0EEC2Ev
FN:189,_ZNSt10_Head_baseILm0EP9functArgsLb0EEC2Ev
FNDA:2,_ZNSt10_Head_baseILm0EP9functArgsLb0EEC2Ev
FN:189,_ZNSt10_Head_baseILm0EPNSt6thread6_StateELb0EEC2Ev
FNDA:14,_ZNSt10_Head_baseILm0EPNSt6thread6_StateELb0EEC2Ev
FN:189,_ZNSt10_Head_baseILm0EP12ActiveObjectLb0EEC2Ev
FNDA:14,_ZNSt10_Head_baseILm0EP12ActiveObjectLb0EEC2Ev
FN:199,_ZNSt10_Head_baseILm1EP12ActiveObjectLb0EEC2IS1_EEOT_
FNDA:14,_ZNSt10_Head_baseILm1EP12ActiveObjectLb0EEC2IS1_EEOT_
FN:199,_ZNSt10_Head_baseILm0EM12ActiveObjectFvvELb0EEC2IS2_EEOT_
FNDA:14,_ZNSt10_Head_baseILm0EM12ActiveObjectFvvELb0EEC2IS2_EEOT_
FN:233,_ZNSt10_Head_baseILm0EM12ActiveObjectFvvELb0EE7_M_headERS3_
FNDA:14,_ZNSt10_Head_baseILm0EM12ActiveObjectFvvELb0EE7_M_headERS3_
FN:233,_ZNSt10_Head_baseILm1EP12ActiveObjectLb0EE7_M_headERS2_
FNDA:14,_ZNSt10_Head_baseILm1EP12ActiveObjectLb0EE7_M_headERS2_
FN:233,_ZNSt10_Head_baseILm0EP5GraphLb0EE7_M_headERS2_
FNDA:20,_ZNSt10_Head_baseILm0EP5GraphLb0EE7_M_headERS2_
FN:233,_ZNSt10_Head_baseILm0EP4TreeLb0EE7_M_headERS2_
FNDA:24,_ZNSt10_Head_baseILm0EP4TreeLb0EE7_M_headERS2_
FN:233,_ZNSt10_Head_baseILm0EP11MSTStrategyLb0EE7_M_headERS2_
FNDA:18,_ZNSt10_Head_baseILm0EP11MSTStrategyLb0EE7_M_headERS2_
FN:233,_ZNSt10_Head_baseILm0EP12ActiveObjectLb0EE7_M_headERS2_
FNDA:112,_ZNSt10_Head_baseILm0EP12ActiveObjectLb0EE7_M_headERS2_
FN:233,_ZNSt10_Head_baseILm0EP9functArgsLb0EE7_M_headERS2_
FNDA:16,_ZNSt10_Head_baseILm0EP9functArgsLb0EE7_M_headERS2_
FN:233,_ZNSt10_Head_baseILm0EPNSt6thread6_StateELb0EE7_M_headERS3_
FNDA:28,_ZNSt10_Head_baseILm0EPNSt6thread6_StateELb0EE7_M_headERS3_
FN:236,_ZNSt10_Head_baseILm0EP4TreeLb0EE7_M_headERKS2_
FNDA:16,_ZNSt10_Head_baseILm0EP4TreeLb0EE7_M_headERKS2_
FN:236,_ZNSt10_Head_baseILm0EP5GraphLb0EE7_M_headERKS2_
FNDA:39,_ZNSt10_Head_baseILm0EP5GraphLb0EE7_M_headERKS2_
FN:236,_ZNSt10_Head_baseILm0EP12ActiveObjectLb0EE7_M_headERKS2_
FNDA:35,_ZNSt10_Head_baseILm0EP12ActiveObjectLb0EE7_M_headERKS2_
FN:236,_ZNSt10_Head_baseILm0EP9functArgsLb0EE7_M_headERKS2_
FNDA:2,_ZNSt10_Head_baseILm0EP9functArgsLb0EE7_M_headERKS2_
FN:268,_ZNSt11_Tuple_implILm0EJP12ActiveObjectSt14default_deleteIS0_EEE7_M_headERS4_
FNDA:112,_ZNSt11_Tuple_implILm0EJP12ActiveObjectSt14default_deleteIS0_EEE7_M_headERS4_
FN:268,_ZNSt11_Tuple_implILm0EJP9functArgsSt14default_deleteIS0_EEE7_M_headERS4_
FNDA:16,_ZNSt11_Tuple_implILm0EJP9functArgsSt14default_deleteIS0_EEE7_M_headERS4_
FN:268,_ZNSt11_Tuple_implILm0EJP4TreeSt14default_deleteIS0_EEE7_M_headERS4_
FNDA:24,_ZNSt11_Tuple_implILm0EJP4TreeSt14default_deleteIS0_EEE7_M_headERS4_
FN:268,_ZNSt11_Tuple_implILm0EJP5GraphSt14default_deleteIS0_EEE7_M_headERS4_
FNDA:20,_ZNSt11_Tuple_implILm0EJP5GraphSt14default_deleteIS0_EEE7_M_headERS4_
FN:268,_ZNSt11_Tuple_implILm0EJPNSt6thread6_StateESt14default_deleteIS1_EEE7_M_headERS5_
FNDA:28,_ZNSt11_Tuple_implILm0EJPNSt6thread6_StateESt14default_deleteIS1_EEE7_M_headERS5_
FN:268,_ZNSt11_Tuple_implILm0EJP11MSTStrategySt14default_deleteIS0_EEE7_M_headERS4_
FNDA:18,_ZNSt11_Tuple_implILm0EJP11MSTStrategySt14default_deleteIS0_EEE7_M_headERS4_
FN:268,_ZNSt11_Tuple_implILm0EJM12ActiveObjectFvvEPS0_EE7_M_headERS4_
FNDA:14,_ZNSt11_Tuple_implILm0EJM12ActiveObjectFvvEPS0_EE7_M_headERS4_
FN:271,_ZNSt11_Tuple_implILm0EJP12ActiveObjectSt14default_deleteIS0_EEE7_M_headERKS4_
FNDA:35,_ZNSt11_Tuple_implILm0EJP12ActiveObjectSt14default_deleteIS0_EEE7_M_headERKS4_
FN:271,_ZNSt11_Tuple_implILm0EJP5GraphSt14default_deleteIS0_EEE7_M_headERKS4_
FNDA:39,_ZNSt11_Tuple_implILm0EJP5GraphSt14default_deleteIS0_EEE7_M_headERKS4_
FN:271,_ZNSt11_Tuple_implILm0EJP4TreeSt14default_deleteIS0_EEE7_M_headERKS4_
FNDA:16,_ZNSt11_Tuple_implILm0EJP4TreeSt14default_deleteIS0_EEE7_M_headERKS4_
FN:271,_ZNSt11_Tuple_implILm0EJP9functArgsSt14default_deleteIS0_EEE7_M_headERKS4_
FNDA:2,_ZNSt11_Tuple_implILm0EJP9functArgsSt14default_deleteIS0_EEE7_M_headERKS4_
FN:279,_ZNSt11_Tuple_implILm0EJPNSt6thread6_StateESt14default_deleteIS1_EEEC2Ev
FNDA:14,_ZNSt11_Tuple_implILm0EJPNSt6thread6_StateESt14default_deleteIS1_EEEC2Ev
FN:279,_ZNSt11_Tuple_implILm0EJP9functArgsSt14default_deleteIS0_EEEC2Ev
FNDA:2,_ZNSt11_Tuple_implILm0EJP9functArgsSt14default_deleteIS0_EEEC2Ev
FN:279,_ZNSt11_Tuple_implILm0EJP5GraphSt14default_deleteIS0_EEEC2Ev
FNDA:2,_ZNSt11_Tuple_implILm0EJP5GraphSt14default_deleteIS0_EEEC2Ev
FN:279,_ZNSt11_Tuple_implILm0EJP12ActiveObjectSt14default_deleteIS0_EEEC2Ev
FNDA:14,_ZNSt11_Tuple_implILm0EJP12ActiveObjectSt14default_deleteIS0_EEEC2Ev
FN:290,_ZNSt11_Tuple_implILm0EJM12ActiveObjectFvvEPS0_EEC2IS2_JS3_EvEEOT_DpOT0_
FNDA:14,_ZNSt11_Tuple_implILm0EJM12ActiveObjectFvvEPS0_EEC2IS2_JS3_EvEEOT_DpOT0_
FN:301,_ZNSt11_Tuple_implILm0EJP12ActiveObjectSt14default_deleteIS0_EEEC2EOS4_
FNDA:28,_ZNSt11_Tuple_implILm0EJP12ActiveObjectSt14default_deleteIS0_EEEC2EOS4_
FN:424,_ZNSt11_Tuple_implILm1EJSt14default_deleteI4TreeEEE7_M_headERS3_
FNDA:6,_ZNSt11_Tuple_implILm1EJSt14default_deleteI4TreeEEE7_M_headERS3_
FN:424,_ZNSt11_Tuple_implILm1EJSt14default_deleteI5GraphEEE7_M_headERS3_
FNDA:6,_ZNSt11_Tuple_implILm1EJSt14default_deleteI5GraphEEE7_M_headERS3_
FN:424,_ZNSt11_Tuple_implILm1EJP12ActiveObjectEE7_M_headERS2_
FNDA:14,_ZNSt11_Tuple_implILm1EJP12ActiveObjectEE7_M_headERS2_
FN:424,_ZNSt11_Tuple_implILm1EJSt14default_deleteINSt6thread6_StateEEEE7_M_headERS4_
FNDA:0,_ZNSt11_Tuple_implILm1EJSt14default_deleteINSt6thread6_StateEEEE7_M_headERS4_
FN:424,_ZNSt11_Tuple_implILm1EJSt14default_deleteI9functArgsEEE7_M_headERS3_
FNDA:6,_ZNSt11_Tuple_implILm1EJSt14default_deleteI9functArgsEEE7_M_headERS3_
FN:424,_ZNSt11_Tuple_implILm1EJSt14default_deleteI11MSTStrategyEEE7_M_headERS3_
FNDA:6,_ZNSt11_Tuple_implILm1EJSt14default_deleteI11MSTStrategyEEE7_M_headERS3_
FN:424,_ZNSt11_Tuple_implILm1EJSt14default_deleteI12ActiveObjectEEE7_M_headERS3_
FNDA:14,_ZNSt11_Tuple_implILm1EJSt14default_deleteI12ActiveObjectEEE7_M_headERS3_
FN:430,_ZNSt11_Tuple_implILm1EJSt14default_deleteI12ActiveObjectEEEC2Ev
FNDA:14,_ZNSt11_Tuple_implILm1EJSt14default_deleteI12ActiveObjectEEEC2Ev
FN:430,_ZNSt11_Tuple_implILm1EJSt14default_deleteI5GraphEEEC2Ev
FNDA:2,_ZNSt11_Tuple_implILm1EJSt14default_deleteI5GraphEEEC2Ev
FN:430,_ZNSt11_Tuple_implILm1EJSt14default_deleteINSt6thread6_StateEEEEC2Ev
FNDA:14,_ZNSt11_Tuple_implILm1EJSt14default_deleteINSt6thread6_StateEEEEC2Ev
FN:430,_ZNSt11_Tuple_implILm1EJSt14default_deleteI9functArgsEEEC2Ev
FNDA:2,_ZNSt11_Tuple_implILm1EJSt14default_deleteI9functArgsEEEC2Ev
FN:440,_ZNSt11_Tuple_implILm1EJP12ActiveObjectEEC2IS1_EEOT_
FNDA:14,_ZNSt11_Tuple_implILm1EJP12ActiveObjectEEC2IS1_EEOT_
FN:454,_ZNSt11_Tuple_implILm1EJSt14default_deleteI12ActiveObjectEEEC2EOS3_
FNDA:28,_ZNSt11_Tuple_implILm1EJSt14default_deleteI12ActiveObjectEEEC2EOS3_
FN:1049,_ZNSt5tupleIJP5GraphSt14default_deleteIS0_EEEC1ILb1ELb1EEEv
FNDA:2,_ZNSt5tupleIJP5GraphSt14default_deleteIS0_EEEC1ILb1ELb1EEEv
FN:1049,_ZNSt5tupleIJP12ActiveObjectSt14default_deleteIS0_EEEC2ILb1ELb1EEEv
FNDA:14,_ZNSt5tupleIJP12ActiveObjectSt14default_deleteIS0_EEEC2ILb1ELb1EEEv
FN:1049,_ZNSt5tupleIJPNSt6thread6_StateESt14default_deleteIS1_EEEC2ILb1ELb1EEEv
FNDA:14,_ZNSt5tupleIJPNSt6thread6_StateESt14default_deleteIS1_EEEC2ILb1ELb1EEEv
FN:1049,_ZNSt5tupleIJP9functArgsSt14default_deleteIS0_EEEC1ILb1ELb1EEEv
FNDA:2,_ZNSt5tupleIJP9functArgsSt14default_deleteIS0_EEEC1ILb1ELb1EEEv
FN:1077,_ZNSt5tupleIJM12ActiveObjectFvvEPS0_EEC2IS2_S3_Lb1EEEOT_OT0_
FNDA:14,_ZNSt5tupleIJM12ActiveObjectFvvEPS0_EEC2IS2_S3_Lb1EEEOT_OT0_
FN:1090,_ZNSt5tupleIJP12ActiveObjectSt14default_deleteIS0_EEEC2EOS4_
FNDA:28,_ZNSt5tupleIJP12ActiveObjectSt14default_deleteIS0_EEEC2EOS4_
FN:1377,_ZSt12__get_helperILm1EP12ActiveObjectJEERT0_RSt11_Tuple_implIXT_EJS2_DpT1_EE
FNDA:14,_ZSt12__get_helperILm1EP12ActiveObjectJEERT0_RSt11_Tuple_implIXT_EJS2_DpT1_EE
FN:1377,_ZSt12__get_helperILm0EM12ActiveObjectFvvEJPS0_EERT0_RSt11_Tuple_implIXT_EJS4_DpT1_EE
FNDA:14,_ZSt12__get_helperILm0EM12ActiveObjectFvvEJPS0_EERT0_RSt11_Tuple_implIXT_EJS4_DpT1_EE
FN:1377,_ZSt12__get_helperILm1ESt14default_deleteINSt6thread6_StateEEJEERT0_RSt11_Tuple_implIXT_EJS4_DpT1_EE
FNDA:0,_ZSt12__get_helperILm1ESt14default_deleteINSt6thread6_StateEEJEERT0_RSt11_Tuple_implIXT_EJS4_DpT1_EE
FN:1377,_ZSt12__get_helperILm0EP5GraphJSt14default_deleteIS0_EEERT0_RSt11_Tuple_implIXT_EJS4_DpT1_EE
FNDA:20,_ZSt12__get_helperILm0EP5GraphJSt14default_deleteIS0_EEERT0_RSt11_Tuple_implIXT_EJS4_DpT1_EE
FN:1377,_ZSt12__get_helperILm1ESt14default_deleteI5GraphEJEERT0_RSt11_Tuple_implIXT_EJS3_DpT1_EE
FNDA:6,_ZSt12__get_helperILm1ESt14default_deleteI5GraphEJEERT0_RSt11_Tuple_implIXT_EJS3_DpT1_EE
FN:1377,_ZSt12__get_helperILm0EP4TreeJSt14default_deleteIS0_EEERT0_RSt11_Tuple_implIXT_EJS4_DpT1_EE
FNDA:24,_ZSt12__get_helperILm0EP4TreeJSt14default_deleteIS0_EEERT0_RSt11_Tuple_implIXT_EJS4_DpT1_EE
FN:1377,_ZSt12__get_helperILm1ESt14default_deleteI4TreeEJEERT0_RSt11_Tuple_implIXT_EJS3_DpT1_EE
FNDA:6,_ZSt12__get_helperILm1ESt14default_deleteI4TreeEJEERT0_RSt11_Tuple_implIXT_EJS3_DpT1_EE
FN:1377,_ZSt12__get_helperILm0EP11MSTStrategyJSt14default_deleteIS0_EEERT0_RSt11_Tuple_implIXT_EJS4_DpT1_EE
FNDA:18,_ZSt12__get_helperILm0EP11MSTStrategyJSt14default_deleteIS0_EEERT0_RSt11_Tuple_implIXT_EJS4_DpT1_EE
FN:1377,_ZSt12__get_helperILm1ESt14default_deleteI12ActiveObjectEJEERT0_RSt11_Tuple_implIXT_EJS3_DpT1_EE
FNDA:14,_ZSt12__get_helperILm1ESt14default_deleteI12ActiveObjectEJEERT0_RSt11_Tuple_implIXT_EJS3_DpT1_EE
FN:1377,_ZSt12__get_helperILm0EPNSt6thread6_StateEJSt14default_deleteIS1_EEERT0_RSt11_Tuple_implIXT_EJS5_DpT1_EE
FNDA:28,_ZSt12__get_helperILm0EPNSt6thread6_StateEJSt14default_deleteIS1_EEERT0_RSt11_Tuple_implIXT_EJS5_DpT1_EE
FN:1377,_ZSt12__get_helperILm1ESt14default_deleteI11MSTStrategyEJEERT0_RSt11_Tuple_implIXT_EJS3_DpT1_EE
FNDA:6,_ZSt12__get_helperILm1ESt14default_deleteI11MSTStrategyEJEERT0_RSt11_Tuple_implIXT_EJS3_DpT1_EE
FN:1377,_ZSt12__get_helperILm1ESt14default_deleteI9functArgsEJEERT0_RSt11_Tuple_implIXT_EJS3_DpT1_EE
FNDA:6,_ZSt12__get_helperILm1ESt14default_deleteI9functArgsEJEERT0_RSt11_Tuple_implIXT_EJS3_DpT1_EE
FN:1377,_ZSt12__get_helperILm0EP12ActiveObjectJSt14default_deleteIS0_EEERT0_RSt11_Tuple_implIXT_EJS4_DpT1_EE
FNDA:112,_ZSt12__get_helperILm0EP12ActiveObjectJSt14default_deleteIS0_EEERT0_RSt11_Tuple_implIXT_EJS4_DpT1_EE
FN:1377,_ZSt12__get_helperILm0EP9functArgsJSt14default_deleteIS0_EEERT0_RSt11_Tuple_implIXT_EJS4_DpT1_EE
FNDA:16,_ZSt12__get_helperILm0EP9functArgsJSt14default_deleteIS0_EEERT0_RSt11_Tuple_implIXT_EJS4_DpT1_EE
FN:1382,_ZSt12__get_helperILm0EP4TreeJSt14default_deleteIS0_EEERKT0_RKSt11_Tuple_implIXT_EJS4_DpT1_EE
FNDA:16,_ZSt12__get_helperILm0EP4TreeJSt14default_deleteIS0_EEERKT0_RKSt11_Tuple_implIXT_EJS4_DpT1_EE
FN:1382,_ZSt12__get_helperILm0EP5GraphJSt14default_deleteIS0_EEERKT0_RKSt11_Tuple_implIXT_EJS4_DpT1_EE
FNDA:39,_ZSt12__get_helperILm0EP5GraphJSt14default_deleteIS0_EEERKT0_RKSt11_Tuple_implIXT_EJS4_DpT1_EE
FN:1382,_ZSt12__get_helperILm0EP12ActiveObjectJSt14default_deleteIS0_EEERKT0_RKSt11_Tuple_implIXT_EJS4_DpT1_EE
FNDA:35,_ZSt12__get_helperILm0EP12ActiveObjectJSt14default_deleteIS0_EEERKT0_RKSt11_Tuple_implIXT_EJS4_DpT1_EE
FN:1382,_ZSt12__get_helperILm0EP9functArgsJSt14default_deleteIS0_EEERKT0_RKSt11_Tuple_implIXT_EJS4_DpT1_EE
FNDA:2,_ZSt12__get_helperILm0EP9functArgsJSt14default_deleteIS0_EEERKT0_RKSt11_Tuple_implIXT_EJS4_DpT1_EE
FN:1393,_ZSt3getILm1EJP12ActiveObjectSt14default_deleteIS0_EEERNSt13tuple_elementIXT_ESt5tupleIJDpT0_EEE4typeERS8_
FNDA:14,_ZSt3getILm1EJP12ActiveObjectSt14default_deleteIS0_EEERNSt13tuple_elementIXT_ESt5tupleIJDpT0_EEE4typeERS8_
FN:1393,_ZSt3getILm1EJPNSt6thread6_StateESt14default_deleteIS1_EEERNSt13tuple_elementIXT_ESt5tupleIJDpT0_EEE4typeERS9_
FNDA:0,_ZSt3getILm1EJPNSt6thread6_StateESt14default_deleteIS1_EEERNSt13tuple_elementIXT_ESt5tupleIJDpT0_EEE4typeERS9_
FN:1393,_ZSt3getILm0EJP5GraphSt14default_deleteIS0_EEERNSt13tuple_elementIXT_ESt5tupleIJDpT0_EEE4typeERS8_
FNDA:20,_ZSt3getILm0EJP5GraphSt14default_deleteIS0_EEERNSt13tuple_elementIXT_ESt5tupleIJDpT0_EEE4typeERS8_
FN:1393,_ZSt3getILm1EJP5GraphSt14default_deleteIS0_EEERNSt13tuple_elementIXT_ESt5tupleIJDpT0_EEE4typeERS8_
FNDA:6,_ZSt3getILm1EJP5GraphSt14default_deleteIS0_EEERNSt13tuple_elementIXT_ESt5tupleIJDpT0_EEE4typeERS8_
FN:1393,_ZSt3getILm0EJP4TreeSt14default_deleteIS0_EEERNSt13tuple_elementIXT_ESt5tupleIJDpT0_EEE4typeERS8_
FNDA:24,_ZSt3getILm0EJP4TreeSt14default_deleteIS0_EEERNSt13tuple_elementIXT_ESt5tupleIJDpT0_EEE4typeERS8_
FN:1393,_ZSt3getILm1EJP4TreeSt14default_deleteIS0_EEERNSt13tuple_elementIXT_ESt5tupleIJDpT0_EEE4typeERS8_
FNDA:6,_ZSt3getILm1EJP4TreeSt14default_deleteIS0_EEERNSt13tuple_elementIXT_ESt5tupleIJDpT0_EEE4typeERS8_
FN:1393,_ZSt3getILm0EJP11MSTStrategySt14default_deleteIS0_EEERNSt13tuple_elementIXT_ESt5tupleIJDpT0_EEE4typeERS8_
FNDA:18,_ZSt3getILm0EJP11MSTStrategySt14default_deleteIS0_EEERNSt13tuple_elementIXT_ESt5tupleIJDpT0_EEE4typeERS8_
FN:1393,_ZSt3getILm0EJP9functArgsSt14default_deleteIS0_EEERNSt13tuple_elementIXT_ESt5tupleIJDpT0_EEE4typeERS8_
FNDA:16,_ZSt3getILm0EJP9functArgsSt14default_deleteIS0_EEERNSt13tuple_elementIXT_ESt5tupleIJDpT0_EEE4typeERS8_
FN:1393,_ZSt3getILm0EJP12ActiveObjectSt14default_deleteIS0_EEERNSt13tuple_elementIXT_ESt5tupleIJDpT0_EEE4typeERS8_
FNDA:112,_ZSt3getILm0EJP12ActiveObjectSt14default_deleteIS0_EEERNSt13tuple_elementIXT_ESt5tupleIJDpT0_EEE4typeERS8_
FN:1393,_ZSt3getILm1EJP9functArgsSt14default_deleteIS0_EEERNSt13tuple_elementIXT_ESt5tupleIJDpT0_EEE4typeERS8_
FNDA:6,_ZSt3getILm1EJP9functArgsSt14default_deleteIS0_EEERNSt13tuple_elementIXT_ESt5tupleIJDpT0_EEE4typeERS8_
FN:1393,_ZSt3getILm1EJP11MSTStrategySt14default_deleteIS0_EEERNSt13tuple_elementIXT_ESt5tupleIJDpT0_EEE4typeERS8_
FNDA:6,_ZSt3getILm1EJP11MSTStrategySt14default_deleteIS0_EEERNSt13tuple_elementIXT_ESt5tupleIJDpT0_EEE4typeERS8_
FN:1393,_ZSt3getILm0EJPNSt6thread6_StateESt14default_deleteIS1_EEERNSt13tuple_elementIXT_ESt5tupleIJDpT0_EEE4typeERS9_
FNDA:28,_ZSt3getILm0EJPNSt6thread6_StateESt14default_deleteIS1_EEERNSt13tuple_elementIXT_ESt5tupleIJDpT0_EEE4typeERS9_
FN:1399,_ZSt3getILm0EJP12ActiveObjectSt14default_deleteIS0_EEERKNSt13tuple_elementIXT_ESt5tupleIJDpT0_EEE4typeERKS8_
FNDA:35,_ZSt3getILm0EJP12ActiveObjectSt14default_deleteIS0_EEERKNSt13tuple_elementIXT_ESt5tupleIJDpT0_EEE4typeERKS8_
FN:1399,_ZSt3getILm0EJP5GraphSt14default_deleteIS0_EEERKNSt13tuple_elementIXT_ESt5tupleIJDpT0_EEE4typeERKS8_
FNDA:39,_ZSt3getILm0EJP5GraphSt14default_deleteIS0_EEERKNSt13tuple_elementIXT_ESt5tupleIJDpT0_EEE4typeERKS8_
FN:1399,_ZSt3getILm0EJP9functArgsSt14default_deleteIS0_EEERKNSt13tuple_elementIXT_ESt5tupleIJDpT0_EEE4typeERKS8_
FNDA:2,_ZSt3getILm0EJP9functArgsSt14default_deleteIS0_EEERKNSt13tuple_elementIXT_ESt5tupleIJDpT0_EEE4typeERKS8_
FN:1399,_ZSt3getILm0EJP4TreeSt14default_deleteIS0_EEERKNSt13tuple_elementIXT_ESt5tupleIJDpT0_EEE4typeERKS8_
FNDA:16,_ZSt3getILm0EJP4TreeSt14default_deleteIS0_EEERKNSt13tuple_elementIXT_ESt5tupleIJDpT0_EEE4typeERKS8_
FN:1405,_ZSt3getILm1EJM12ActiveObjectFvvEPS0_EEONSt13tuple_elementIXT_ESt5tupleIJDpT0_EEE4typeEOS8_
FNDA:14,_ZSt3getILm1EJM12ActiveObjectFvvEPS0_EEONSt13tuple_elementIXT_ESt5tupleIJDpT0_EEE4typeEOS8_
FN:1405,_ZSt3getILm0EJM12ActiveObjectFvvEPS0_EEONSt13tuple_elementIXT_ESt5tupleIJDpT0_EEE4typeEOS8_
FNDA:14,_ZSt3getILm0EJM12ActiveObjectFvvEPS0_EEONSt13tuple_elementIXT_ESt5tupleIJDpT0_EEE4typeEOS8_
DA:80,14
DA:81,14
DA:80,14
DA:81,14
DA:80,2
DA:81,2
DA:80,2
DA:81,2
DA:124,0
DA:124,14
DA:124,6
DA:124,6
DA:124,6
DA:124,6
DA:189,14
DA:190,14
DA:189,14
DA:190,14
DA:189,2
DA:190,2
DA:189,2
DA:190,2
DA:199,14
DA:200,14
DA:199,14
DA:200,14
DA:233,14
DA:233,14
DA:233,28
DA:233,112
DA:233,16
DA:233,18
DA:233,24
DA:233,20
DA:236,16
DA:236,39
DA:236,35
DA:236,2
DA:268,14
DA:268,28
DA:268,112
DA:268,16
DA:268,18
DA:268,24
DA:268,20
DA:271,16
DA:271,39
DA:271,35
DA:271,2
DA:279,14
DA:280,14
DA:279,14
DA:280,14
DA:279,2
DA:280,2
DA:279,2
DA:280,2
DA:290,14
DA:292,14
DA:293,14
DA:301,28
DA:424,14
DA:424,0
DA:424,14
DA:424,6
DA:424,6
DA:424,6
DA:424,6
DA:430,14
DA:431,14
DA:430,14
DA:431,14
DA:430,2
DA:431,2
DA:430,2
DA:431,2
DA:440,14
DA:441,14
DA:442,14
DA:454,28
DA:457,28
DA:1049,14
DA:1051,14
DA:1049,14
DA:1051,14
DA:1049,2
DA:1051,2
DA:1049,2
DA:1051,2
DA:1077,14
DA:1079,14
DA:1090,28
DA:1377,14
DA:1378,14
DA:1377,14
DA:1378,14
DA:1377,0
DA:1378,0
DA:1377,14
DA:1378,14
DA:1377,28
DA:1378,28
DA:1377,6
DA:1378,6
DA:1377,6
DA:1378,6
DA:1377,112
DA:1378,112
DA:1377,16
DA:1378,16
DA:1377,18
DA:1378,18
DA:1377,6
DA:1378,6
DA:1377,24
DA:1378,24
DA:1377,6
DA:1378,6
DA:1377,20
DA:1378,20
DA:1382,16
DA:1383,16
DA:1382,39
DA:1383,39
DA:1382,35
DA:1383,35
DA:1382,2
DA:1383,2
DA:1393,0
DA:1394,0
DA:1393,14
DA:1394,14
DA:1393,28
DA:1394,28
DA:1393,6
DA:1394,6
DA:1393,6
DA:1394,6
DA:1393,112
DA:1394,112
DA:1393,16
DA:1394,16
DA:1393,18
DA:1394,18
DA:1393,6
DA:1394,6
DA:1393,24
DA:1394,24
DA:1393,6
DA:1394,6
DA:1393,20
DA:1394,20
DA:1399,16
DA:1400,16
DA:1399,39
DA:1400,39
DA:1399,35
DA:1400,35
DA:1399,2
DA:1400,2
DA:1405,14
DA:1408,14
DA:1405,14
DA:1408,14
end_of_record
SF:/usr/include/c++/11/bits/stl_queue.h
FN:166,_ZNSt5queueISt8functionIFvvEESt5dequeIS2_SaIS2_EEEC2IS5_vEEv
FNDA:14,_ZNSt5queueISt8functionIFvvEESt5dequeIS2_SaIS2_EEEC2IS5_vEEv
FN:276,_ZNSt5queueISt8functionIFvvEESt5dequeIS2_SaIS2_EEE7emplaceIJRZ14handleCommandsiRSt6vectorISt10unique_ptrI12ActiveObjectSt14default_deleteISA_EESaISD_EERS9_I5GraphSB_ISH_EER10MSTFactoryRS9_I4TreeSB_ISN_EEEUlvE3_EEEDcDpOT_
FNDA:6,_ZNSt5queueISt8functionIFvvEESt5dequeIS2_SaIS2_EEE7emplaceIJRZ14handleCommandsiRSt6vectorISt10unique_ptrI12ActiveObjectSt14default_deleteISA_EESaISD_EERS9_I5GraphSB_ISH_EER10MSTFactoryRS9_I4TreeSB_ISN_EEEUlvE3_EEEDcDpOT_
FN:276,_ZNSt5queueISt8functionIFvvEESt5dequeIS2_SaIS2_EEE7emplaceIJRZZ14handleCommandsiRSt6vectorISt10unique_ptrI12ActiveObjectSt14default_deleteISA_EESaISD_EERS9_I5GraphSB_ISH_EER10MSTFactoryRS9_I4TreeSB_ISN_EEENKUlvE3_clEvEUlvE_EEEDcDpOT_
FNDA:2,_ZNSt5queueISt8functionIFvvEESt5dequeIS2_SaIS2_EEE7emplaceIJRZZ14handleCommandsiRSt6vectorISt10unique_ptrI12ActiveObjectSt14default_deleteISA_EESaISD_EERS9_I5GraphSB_ISH_EER10MSTFactoryRS9_I4TreeSB_ISN_EEENKUlvE3_clEvEUlvE_EEEDcDpOT_
FN:276,_ZNSt5queueISt8functionIFvvEESt5dequeIS2_SaIS2_EEE7emplaceIJRZZZ14handleCommandsiRSt6vectorISt10unique_ptrI12ActiveObjectSt14default_deleteISA_EESaISD_EERS9_I5GraphSB_ISH_EER10MSTFactoryRS9_I4TreeSB_ISN_EEENKUlvE3_clEvENKUlvE_clEvEUlvE_EEEDcDpOT_
FNDA:2,_ZNSt5queueISt8functionIFvvEESt5dequeIS2_SaIS2_EEE7emplaceIJRZZZ14handleCommandsiRSt6vectorISt10unique_ptrI12ActiveObjectSt14default_deleteISA_EESaISD_EERS9_I5GraphSB_ISH_EER10MSTFactoryRS9_I4TreeSB_ISN_EEENKUlvE3_clEvENKUlvE_clEvEUlvE_EEEDcDpOT_
FN:276,_ZNSt5queueISt8functionIFvvEESt5dequeIS2_SaIS2_EEE7emplaceIJRZZZZ14handleCommandsiRSt6vectorISt10unique_ptrI12ActiveObjectSt14default_deleteISA_EESaISD_EERS9_I5GraphSB_ISH_EER10MSTFactoryRS9_I4TreeSB_ISN_EEENKUlvE3_clEvENKUlvE_clEvENKUlvE_clEvEUlvE_EEEDcDpOT_
FNDA:2,_ZNSt5queueISt8functionIFvvEESt5dequeIS2_SaIS2_EEE7emplaceIJRZZZZ14handleCommandsiRSt6vectorISt10unique_ptrI12ActiveObjectSt14default_deleteISA_EESaISD_EERS9_I5GraphSB_ISH_EER10MSTFactoryRS9_I4TreeSB_ISN_EEENKUlvE3_clEvENKUlvE_clEvENKUlvE_clEvEUlvE_EEEDcDpOT_
FN:276,_ZNSt5queueISt8functionIFvvEESt5dequeIS2_SaIS2_EEE7emplaceIJRZZZZZ14handleCommandsiRSt6vectorISt10unique_ptrI12ActiveObjectSt14default_deleteISA_EESaISD_EERS9_I5GraphSB_ISH_EER10MSTFactoryRS9_I4TreeSB_ISN_EEENKUlvE3_clEvENKUlvE_clEvENKUlvE_clEvENKUlvE_clEvEUlvE_EEEDcDpOT_
FNDA:2,_ZNSt5queueISt8functionIFvvEESt5dequeIS2_SaIS2_EEE7emplaceIJRZZZZZ14handleCommandsiRSt6vectorISt10unique_ptrI12ActiveObjectSt14default_deleteISA_EESaISD_EERS9_I5GraphSB_ISH_EER10MSTFactoryRS9_I4TreeSB_ISN_EEENKUlvE3_clEvENKUlvE_clEvENKUlvE_clEvENKUlvE_clEvEUlvE_EEEDcDpOT_
FN:276,_ZNSt5queueISt8functionIFvvEESt5dequeIS2_SaIS2_EEE7emplaceIJRZZZZZZ14handleCommandsiRSt6vectorISt10unique_ptrI12ActiveObjectSt14default_deleteISA_EESaISD_EERS9_I5GraphSB_ISH_EER10MSTFactoryRS9_I4TreeSB_ISN_EEENKUlvE3_clEvENKUlvE_clEvENKUlvE_clEvENKUlvE_clEvENKUlvE_clEvEUlvE_EEEDcDpOT_
FNDA:2,_ZNSt5queueISt8functionIFvvEESt5dequeIS2_SaIS2_EEE7emplaceIJRZZZZZZ14handleCommandsiRSt6vectorISt10unique_ptrI12ActiveObjectSt14default_deleteISA_EESaISD_EERS9_I5GraphSB_ISH_EER10MSTFactoryRS9_I4TreeSB_ISN_EEENKUlvE3_clEvENKUlvE_clEvENKUlvE_clEvENKUlvE_clEvENKUlvE_clEvEUlvE_EEEDcDpOT_
FN:276,_ZNSt5queueISt8functionIFvvEESt5dequeIS2_SaIS2_EEE7emplaceIJRZ14handleCommandsiRSt6vectorISt10unique_ptrI12ActiveObjectSt14default_deleteISA_EESaISD_EERS9_I5GraphSB_ISH_EER10MSTFactoryRS9_I4TreeSB_ISN_EEEUlvE2_EEEDcDpOT_
FNDA:4,_ZNSt5queueISt8functionIFvvEESt5dequeIS2_SaIS2_EEE7emplaceIJRZ14handleCommandsiRSt6vectorISt10unique_ptrI12ActiveObjectSt14default_deleteISA_EESaISD_EERS9_I5GraphSB_ISH_EER10MSTFactoryRS9_I4TreeSB_ISN_EEEUlvE2_EEEDcDpOT_
FN:276,_ZNSt5queueISt8functionIFvvEESt5dequeIS2_SaIS2_EEE7emplaceIJRZ14handleCommandsiRSt6vectorISt10unique_ptrI12ActiveObjectSt14default_deleteISA_EESaISD_EERS9_I5GraphSB_ISH_EER10MSTFactoryRS9_I4TreeSB_ISN_EEEUlvE1_EEEDcDpOT_
FNDA:4,_ZNSt5queueISt8functionIFvvEESt5dequeIS2_SaIS2_EEE7emplaceIJRZ14handleCommandsiRSt6vectorISt10unique_ptrI12ActiveObjectSt14default_deleteISA_EESaISD_EERS9_I5GraphSB_ISH_EER10MSTFactoryRS9_I4TreeSB_ISN_EEEUlvE1_EEEDcDpOT_
FN:276,_ZNSt5queueISt8functionIFvvEESt5dequeIS2_SaIS2_EEE7emplaceIJRZ14handleCommandsiRSt6vectorISt10unique_ptrI12ActiveObjectSt14default_deleteISA_EESaISD_EERS9_I5GraphSB_ISH_EER10MSTFactoryRS9_I4TreeSB_ISN_EEEUlvE0_EEEDcDpOT_
FNDA:7,_ZNSt5queueISt8functionIFvvEESt5dequeIS2_SaIS2_EEE7emplaceIJRZ14handleCommandsiRSt6vectorISt10unique_ptrI12ActiveObjectSt14default_deleteISA_EESaISD_EERS9_I5GraphSB_ISH_EER10MSTFactoryRS9_I4TreeSB_ISN_EEEUlvE0_EEEDcDpOT_
FN:276,_ZNSt5queueISt8functionIFvvEESt5dequeIS2_SaIS2_EEE7emplaceIJRZ14handleCommandsiRSt6vectorISt10unique_ptrI12ActiveObjectSt14default_deleteISA_EESaISD_EERS9_I5GraphSB_ISH_EER10MSTFactoryRS9_I4TreeSB_ISN_EEEUlvE_EEEDcDpOT_
FNDA:4,_ZNSt5queueISt8functionIFvvEESt5dequeIS2_SaIS2_EEE7emplaceIJRZ14handleCommandsiRSt6vectorISt10unique_ptrI12ActiveObjectSt14default_deleteISA_EESaISD_EERS9_I5GraphSB_ISH_EER10MSTFactoryRS9_I4TreeSB_ISN_EEEUlvE_EEEDcDpOT_
DA:166,14
DA:167,14
DA:276,6
DA:277,6
DA:276,2
DA:277,2
DA:276,2
DA:277,2
DA:276,2
DA:277,2
DA:276,2
DA:277,2
DA:276,2
DA:277,2
DA:276,4
DA:277,4
DA:276,4
DA:277,4
DA:276,7
DA:277,7
DA:276,4
DA:277,4
end_of_record
SF:/usr/include/c++/11/bits/char_traits.h
FN:106,_ZN9__gnu_cxx11char_traitsIcE2eqERKcS3_
FNDA:0,_ZN9__gnu_cxx11char_traitsIcE2eqERKcS3_
FN:167,_ZN9__gnu_cxx11char_traitsIcE6lengthEPKc
FNDA:0,_ZN9__gnu_cxx11char_traitsIcE6lengthEPKc
FN:393,_ZNSt11char_traitsIcE6lengthEPKc
FNDA:50,_ZNSt11char_traitsIcE6lengthEPKc
FN:429,_ZNSt11char_traitsIcE4copyEPcPKcm
FNDA:0,_ZNSt11char_traitsIcE4copyEPcPKcm
DA:106,0
DA:107,0
DA:167,0
DA:170,0
DA:171,0
DA:172,0
DA:173,0
DA:290,50
DA:393,50
DA:396,50
DA:397,0
DA:399,50
DA:429,0
DA:431,0
DA:432,0
DA:437,0
end_of_record
SF:/usr/include/c++/11/ext/type_traits.h
FN:152,_ZN9__gnu_cxx17__is_null_pointerIcEEbPT_
FNDA:26,_ZN9__gnu_cxx17__is_null_pointerIcEEbPT_
FN:152,_ZN9__gnu_cxx17__is_null_pointerIKcEEbPT_
FNDA:45,_ZN9__gnu_cxx17__is_null_pointerIKcEEbPT_
DA:152,26
DA:153,26
DA:152,45
DA:153,45
end_of_record
SF:/usr/include/c++/11/bits/stl_algobase.h
FN:230,_ZSt3minImERKT_S2_S2_
FNDA:162,_ZSt3minImERKT_S2_S2_
FN:254,_ZSt3maxImERKT_S2_S2_
FNDA:80,_ZSt3maxImERKT_S2_S2_
FN:313,_ZSt12__niter_baseIPSt6vectorI4EdgeSaIS1_EEET_S5_
FNDA:12,_ZSt12__niter_baseIPSt6vectorI4EdgeSaIS1_EEET_S5_
FN:313,_ZSt12__niter_baseIPmET_S1_
FNDA:25,_ZSt12__niter_baseIPmET_S1_
FN:313,_ZSt12__niter_baseIPSt10unique_ptrI12ActiveObjectSt14default_deleteIS1_EEET_S6_
FNDA:48,_ZSt12__niter_baseIPSt10unique_ptrI12ActiveObjectSt14default_deleteIS1_EEET_S6_
FN:313,_ZSt12__niter_baseIPPSt8functionIFvvEEET_S5_
FNDA:0,_ZSt12__niter_baseIPPSt8functionIFvvEEET_S5_
FN:335,_ZSt12__niter_wrapIPPSt8functionIFvvEEET_RKS5_S5_
FNDA:0,_ZSt12__niter_wrapIPPSt8functionIFvvEEET_RKS5_S5_
FN:335,_ZSt12__niter_wrapIPmET_RKS1_S1_
FNDA:5,_ZSt12__niter_wrapIPmET_RKS1_S1_
FN:420,_ZNSt11__copy_moveILb1ELb1ESt26random_access_iterator_tagE8__copy_mImEEPT_PKS3_S6_S4_
FNDA:1,_ZNSt11__copy_moveILb1ELb1ESt26random_access_iterator_tagE8__copy_mImEEPT_PKS3_S6_S4_
FN:420,_ZNSt11__copy_moveILb0ELb1ESt26random_access_iterator_tagE8__copy_mIPSt8functionIFvvEEEEPT_PKS7_SA_S8_
FNDA:0,_ZNSt11__copy_moveILb0ELb1ESt26random_access_iterator_tagE8__copy_mIPSt8functionIFvvEEEEPT_PKS7_SA_S8_
FN:486,_ZSt14__copy_move_a2ILb0EPPSt8functionIFvvEES4_ET1_T0_S6_S5_
FNDA:0,_ZSt14__copy_move_a2ILb0EPPSt8functionIFvvEES4_ET1_T0_S6_S5_
FN:486,_ZSt14__copy_move_a2ILb1EPmS0_ET1_T0_S2_S1_
FNDA:1,_ZSt14__copy_move_a2ILb1EPmS0_ET1_T0_S2_S1_
FN:521,_ZSt14__copy_move_a1ILb0EPPSt8functionIFvvEES4_ET1_T0_S6_S5_
FNDA:0,_ZSt14__copy_move_a1ILb0EPPSt8functionIFvvEES4_ET1_T0_S6_S5_
FN:521,_ZSt14__copy_move_a1ILb1EPmS0_ET1_T0_S2_S1_
FNDA:1,_ZSt14__copy_move_a1ILb1EPmS0_ET1_T0_S2_S1_
FN:527,_ZSt13__copy_move_aILb0EPPSt8functionIFvvEES4_ET1_T0_S6_S5_
FNDA:0,_ZSt13__copy_move_aILb0EPPSt8functionIFvvEES4_ET1_T0_S6_S5_
FN:527,_ZSt13__copy_move_aILb1EN9__gnu_cxx17__normal_iteratorIPmSt6vectorImSaImEEEES2_ET1_T0_S8_S7_
FNDA:1,_ZSt13__copy_move_aILb1EN9__gnu_cxx17__normal_iteratorIPmSt6vectorImSaImEEEES2_ET1_T0_S8_S7_
FN:611,_ZSt4copyISt13move_iteratorIN9__gnu_cxx17__normal_iteratorIPmSt6vectorImSaImEEEEES3_ET0_T_SA_S9_
FNDA:1,_ZSt4copyISt13move_iteratorIN9__gnu_cxx17__normal_iteratorIPmSt6vectorImSaImEEEEES3_ET0_T_SA_S9_
FN:611,_ZSt4copyIPPSt8functionIFvvEES4_ET0_T_S6_S5_
FNDA:0,_ZSt4copyIPPSt8functionIFvvEES4_ET0_T_S6_S5_
FN:731,_ZNSt20__copy_move_backwardILb0ELb1ESt26random_access_iterator_tagE13__copy_move_bIPSt8functionIFvvEEEEPT_PKS7_SA_S8_
FNDA:0,_ZNSt20__copy_move_backwardILb0ELb1ESt26random_access_iterator_tagE13__copy_move_bIPSt8functionIFvvEEEEPT_PKS7_SA_S8_
FN:750,_ZSt23__copy_move_backward_a2ILb0EPPSt8functionIFvvEES4_ET1_T0_S6_S5_
FNDA:0,_ZSt23__copy_move_backward_a2ILb0EPPSt8functionIFvvEES4_ET1_T0_S6_S5_
FN:768,_ZSt23__copy_move_backward_a1ILb0EPPSt8functionIFvvEES4_ET1_T0_S6_S5_
FNDA:0,_ZSt23__copy_move_backward_a1ILb0EPPSt8functionIFvvEES4_ET1_T0_S6_S5_
FN:796,_ZSt22__copy_move_backward_aILb0EPPSt8functionIFvvEES4_ET1_T0_S6_S5_
FNDA:0,_ZSt22__copy_move_backward_aILb0EPPSt8functionIFvvEES4_ET1_T0_S6_S5_
FN:848,_ZSt13copy_backwardIPPSt8functionIFvvEES4_ET0_T_S6_S5_
FNDA:0,_ZSt13copy_backwardIPPSt8functionIFvvEES4_ET0_T_S6_S5_
DA:230,162
DA:235,162
DA:236,1
DA:237,161
DA:254,80
DA:259,80
DA:260,34
DA:261,46
DA:313,0
DA:315,0
DA:313,48
DA:315,48
DA:313,25
DA:315,25
DA:313,12
DA:315,12
DA:335,5
DA:336,5
DA:335,0
DA:336,0
DA:420,1
DA:429,1
DA:430,1
DA:431,0
DA:432,1
DA:420,0
DA:429,0
DA:430,0
DA:431,0
DA:432,0
DA:486,1
DA:495,1
DA:486,0
DA:495,0
DA:521,1
DA:522,1
DA:521,0
DA:522,0
DA:527,1
DA:529,1
DA:532,1
DA:527,0
DA:529,0
DA:532,0
DA:611,1
DA:620,1
DA:611,0
DA:620,0
DA:731,0
DA:740,0
DA:741,0
DA:742,0
DA:743,0
DA:750,0
DA:760,0
DA:762,0
DA:768,0
DA:769,0
DA:796,0
DA:798,0
DA:801,0
DA:848,0
DA:859,0
end_of_record
SF:/usr/include/c++/11/ext/alloc_traits.h
FN:97,_ZN9__gnu_cxx14__alloc_traitsISaIcEcE17_S_select_on_copyERKS1_
FNDA:5,_ZN9__gnu_cxx14__alloc_traitsISaIcEcE17_S_select_on_copyERKS1_
FN:100,_ZN9__gnu_cxx14__alloc_traitsISaISt10unique_ptrI12ActiveObjectSt14default_deleteIS2_EEES5_E10_S_on_swapERS6_S8_
FNDA:2,_ZN9__gnu_cxx14__alloc_traitsISaISt10unique_ptrI12ActiveObjectSt14default_deleteIS2_EEES5_E10_S_on_swapERS6_S8_
FN:100,_ZN9__gnu_cxx14__alloc_traitsISaImEmE10_S_on_swapERS1_S3_
FNDA:1,_ZN9__gnu_cxx14__alloc_traitsISaImEmE10_S_on_swapERS1_S3_
DA:97,5
DA:98,5
DA:100,2
DA:101,2
DA:100,1
DA:101,1
end_of_record
SF:/usr/include/c++/11/bits/unique_lock.h
FN:66,_ZNSt11unique_lockISt5mutexEC2ERS0_
FNDA:208,_ZNSt11unique_lockISt5mutexEC2ERS0_
FN:77,_ZNSt11unique_lockISt5mutexEC2ERS0_St13try_to_lock_t
FNDA:11,_ZNSt11unique_lockISt5mutexEC2ERS0_St13try_to_lock_t
FN:101,_ZNSt11unique_lockISt5mutexED2Ev
FNDA:217,_ZNSt11unique_lockISt5mutexED2Ev
FN:131,_ZNSt11unique_lockISt5mutexE4lockEv
FNDA:208,_ZNSt11unique_lockISt5mutexE4lockEv
FN:189,_ZNSt11unique_lockISt5mutexE6unlockEv
FNDA:216,_ZNSt11unique_lockISt5mutexE6unlockEv
FN:217,_ZNKSt11unique_lockISt5mutexE9owns_lockEv
FNDA:11,_ZNKSt11unique_lockISt5mutexE9owns_lockEv
DA:66,208
DA:67,208
DA:69,208
DA:70,208
DA:71,208
DA:77,11
DA:78,11
DA:79,11
DA:101,217
DA:103,217
DA:104,214
DA:105,217
DA:131,208
DA:133,208
DA:134,0
DA:135,208
DA:136,0
DA:139,208
DA:140,208
DA:142,208
DA:189,216
DA:191,216
DA:192,0
DA:193,216
DA:195,216
DA:196,216
DA:198,216
DA:217,11
DA:218,11
end_of_record
SF:/usr/include/c++/11/bits/unique_ptr.h
FN:79,_ZNKSt14default_deleteI5GraphEclEPS0_
FNDA:2,_ZNKSt14default_deleteI5GraphEclEPS0_
FN:79,_ZNKSt14default_deleteI12ActiveObjectEclEPS0_
FNDA:14,_ZNKSt14default_deleteI12ActiveObjectEclEPS0_
FN:79,_ZNKSt14default_deleteI9functArgsEclEPS0_
FNDA:2,_ZNKSt14default_deleteI9functArgsEclEPS0_
FN:79,_ZNKSt14default_deleteI4TreeEclEPS0_
FNDA:2,_ZNKSt14default_deleteI4TreeEclEPS0_
FN:79,_ZNKSt14default_deleteI11MSTStrategyEclEPS0_
FNDA:2,_ZNKSt14default_deleteI11MSTStrategyEclEPS0_
FN:79,_ZNKSt14default_deleteINSt6thread6_StateEEclEPS1_
FNDA:0,_ZNKSt14default_deleteINSt6thread6_StateEEclEPS1_
FN:155,_ZNSt15__uniq_ptr_implI5GraphSt14default_deleteIS0_EEC2EPS0_
FNDA:2,_ZNSt15__uniq_ptr_implI5GraphSt14default_deleteIS0_EEC2EPS0_
FN:155,_ZNSt15__uniq_ptr_implI9functArgsSt14default_deleteIS0_EEC2EPS0_
FNDA:2,_ZNSt15__uniq_ptr_implI9functArgsSt14default_deleteIS0_EEC2EPS0_
FN:155,_ZNSt15__uniq_ptr_implINSt6thread6_StateESt14default_deleteIS1_EEC2EPS1_
FNDA:14,_ZNSt15__uniq_ptr_implINSt6thread6_StateESt14default_deleteIS1_EEC2EPS1_
FN:155,_ZNSt15__uniq_ptr_implI12ActiveObjectSt14default_deleteIS0_EEC2EPS0_
FNDA:14,_ZNSt15__uniq_ptr_implI12ActiveObjectSt14default_deleteIS0_EEC2EPS0_
FN:161,_ZNSt15__uniq_ptr_implI12ActiveObjectSt14default_deleteIS0_EEC2EOS3_
FNDA:28,_ZNSt15__uniq_ptr_implI12ActiveObjectSt14default_deleteIS0_EEC2EOS3_
FN:165,_ZNSt15__uniq_ptr_implI5GraphSt14default_deleteIS0_EEaSEOS3_
FNDA:2,_ZNSt15__uniq_ptr_implI5GraphSt14default_deleteIS0_EEaSEOS3_
FN:165,_ZNSt15__uniq_ptr_implI4TreeSt14default_deleteIS0_EEaSEOS3_
FNDA:2,_ZNSt15__uniq_ptr_implI4TreeSt14default_deleteIS0_EEaSEOS3_
FN:165,_ZNSt15__uniq_ptr_implI9functArgsSt14default_deleteIS0_EEaSEOS3_
FNDA:2,_ZNSt15__uniq_ptr_implI9functArgsSt14default_deleteIS0_EEaSEOS3_
FN:172,_ZNSt15__uniq_ptr_implI5GraphSt14default_deleteIS0_EE6_M_ptrEv
FNDA:20,_ZNSt15__uniq_ptr_implI5GraphSt14default_deleteIS0_EE6_M_ptrEv
FN:172,_ZNSt15__uniq_ptr_implI11MSTStrategySt14default_deleteIS0_EE6_M_ptrEv
FNDA:18,_ZNSt15__uniq_ptr_implI11MSTStrategySt14default_deleteIS0_EE6_M_ptrEv
FN:172,_ZNSt15__uniq_ptr_implI4TreeSt14default_deleteIS0_EE6_M_ptrEv
FNDA:24,_ZNSt15__uniq_ptr_implI4TreeSt14default_deleteIS0_EE6_M_ptrEv
FN:172,_ZNSt15__uniq_ptr_implI9functArgsSt14default_deleteIS0_EE6_M_ptrEv
FNDA:16,_ZNSt15__uniq_ptr_implI9functArgsSt14default_deleteIS0_EE6_M_ptrEv
FN:172,_ZNSt15__uniq_ptr_implI12ActiveObjectSt14default_deleteIS0_EE6_M_ptrEv
FNDA:112,_ZNSt15__uniq_ptr_implI12ActiveObjectSt14default_deleteIS0_EE6_M_ptrEv
FN:172,_ZNSt15__uniq_ptr_implINSt6thread6_StateESt14default_deleteIS1_EE6_M_ptrEv
FNDA:28,_ZNSt15__uniq_ptr_implINSt6thread6_StateESt14default_deleteIS1_EE6_M_ptrEv
FN:173,_ZNKSt15__uniq_ptr_implI4TreeSt14default_deleteIS0_EE6_M_ptrEv
FNDA:16,_ZNKSt15__uniq_ptr_implI4TreeSt14default_deleteIS0_EE6_M_ptrEv
FN:173,_ZNKSt15__uniq_ptr_implI5GraphSt14default_deleteIS0_EE6_M_ptrEv
FNDA:39,_ZNKSt15__uniq_ptr_implI5GraphSt14default_deleteIS0_EE6_M_ptrEv
FN:173,_ZNKSt15__uniq_ptr_implI9functArgsSt14default_deleteIS0_EE6_M_ptrEv
FNDA:2,_ZNKSt15__uniq_ptr_implI9functArgsSt14default_deleteIS0_EE6_M_ptrEv
FN:173,_ZNKSt15__uniq_ptr_implI12ActiveObjectSt14default_deleteIS0_EE6_M_ptrEv
FNDA:35,_ZNKSt15__uniq_ptr_implI12ActiveObjectSt14default_deleteIS0_EE6_M_ptrEv
FN:174,_ZNSt15__uniq_ptr_implI11MSTStrategySt14default_deleteIS0_EE10_M_deleterEv
FNDA:6,_ZNSt15__uniq_ptr_implI11MSTStrategySt14default_deleteIS0_EE10_M_deleterEv
FN:174,_ZNSt15__uniq_ptr_implI5GraphSt14default_deleteIS0_EE10_M_deleterEv
FNDA:6,_ZNSt15__uniq_ptr_implI5GraphSt14default_deleteIS0_EE10_M_deleterEv
FN:174,_ZNSt15__uniq_ptr_implI12ActiveObjectSt14default_deleteIS0_EE10_M_deleterEv
FNDA:14,_ZNSt15__uniq_ptr_implI12ActiveObjectSt14default_deleteIS0_EE10_M_deleterEv
FN:174,_ZNSt15__uniq_ptr_implI4TreeSt14default_deleteIS0_EE10_M_deleterEv
FNDA:6,_ZNSt15__uniq_ptr_implI4TreeSt14default_deleteIS0_EE10_M_deleterEv
FN:174,_ZNSt15__uniq_ptr_implINSt6thread6_StateESt14default_deleteIS1_EE10_M_deleterEv
FNDA:0,_ZNSt15__uniq_ptr_implINSt6thread6_StateESt14default_deleteIS1_EE10_M_deleterEv
FN:174,_ZNSt15__uniq_ptr_implI9functArgsSt14default_deleteIS0_EE10_M_deleterEv
FNDA:6,_ZNSt15__uniq_ptr_implI9functArgsSt14default_deleteIS0_EE10_M_deleterEv
FN:177,_ZNSt15__uniq_ptr_implI5GraphSt14default_deleteIS0_EE5resetEPS0_
FNDA:6,_ZNSt15__uniq_ptr_implI5GraphSt14default_deleteIS0_EE5resetEPS0_
FN:177,_ZNSt15__uniq_ptr_implI9functArgsSt14default_deleteIS0_EE5resetEPS0_
FNDA:4,_ZNSt15__uniq_ptr_implI9functArgsSt14default_deleteIS0_EE5resetEPS0_
FN:177,_ZNSt15__uniq_ptr_implI12ActiveObjectSt14default_deleteIS0_EE5resetEPS0_
FNDA:14,_ZNSt15__uniq_ptr_implI12ActiveObjectSt14default_deleteIS0_EE5resetEPS0_
FN:177,_ZNSt15__uniq_ptr_implI11MSTStrategySt14default_deleteIS0_EE5resetEPS0_
FNDA:5,_ZNSt15__uniq_ptr_implI11MSTStrategySt14default_deleteIS0_EE5resetEPS0_
FN:177,_ZNSt15__uniq_ptr_implI4TreeSt14default_deleteIS0_EE5resetEPS0_
FNDA:8,_ZNSt15__uniq_ptr_implI4TreeSt14default_deleteIS0_EE5resetEPS0_
FN:185,_ZNSt15__uniq_ptr_implI5GraphSt14default_deleteIS0_EE7releaseEv
FNDA:2,_ZNSt15__uniq_ptr_implI5GraphSt14default_deleteIS0_EE7releaseEv
FN:185,_ZNSt15__uniq_ptr_implI4TreeSt14default_deleteIS0_EE7releaseEv
FNDA:2,_ZNSt15__uniq_ptr_implI4TreeSt14default_deleteIS0_EE7releaseEv
FN:185,_ZNSt15__uniq_ptr_implI9functArgsSt14default_deleteIS0_EE7releaseEv
FNDA:2,_ZNSt15__uniq_ptr_implI9functArgsSt14default_deleteIS0_EE7releaseEv
FN:211,_ZNSt15__uniq_ptr_dataI12ActiveObjectSt14default_deleteIS0_ELb1ELb1EEC2EOS3_
FNDA:28,_ZNSt15__uniq_ptr_dataI12ActiveObjectSt14default_deleteIS0_ELb1ELb1EEC2EOS3_
FN:212,_ZNSt15__uniq_ptr_dataI4TreeSt14default_deleteIS0_ELb1ELb1EEaSEOS3_
FNDA:2,_ZNSt15__uniq_ptr_dataI4TreeSt14default_deleteIS0_ELb1ELb1EEaSEOS3_
FN:212,_ZNSt15__uniq_ptr_dataI5GraphSt14default_deleteIS0_ELb1ELb1EEaSEOS3_
FNDA:2,_ZNSt15__uniq_ptr_dataI5GraphSt14default_deleteIS0_ELb1ELb1EEaSEOS3_
FN:212,_ZNSt15__uniq_ptr_dataI9functArgsSt14default_deleteIS0_ELb1ELb1EEaSEOS3_
FNDA:2,_ZNSt15__uniq_ptr_dataI9functArgsSt14default_deleteIS0_ELb1ELb1EEaSEOS3_
FN:281,_ZNSt10unique_ptrINSt6thread6_StateESt14default_deleteIS1_EEC2IS3_vEEPS1_
FNDA:14,_ZNSt10unique_ptrINSt6thread6_StateESt14default_deleteIS1_EEC2IS3_vEEPS1_
FN:281,_ZNSt10unique_ptrI5GraphSt14default_deleteIS0_EEC2IS2_vEEPS0_
FNDA:2,_ZNSt10unique_ptrI5GraphSt14default_deleteIS0_EEC2IS2_vEEPS0_
FN:281,_ZNSt10unique_ptrI9functArgsSt14default_deleteIS0_EEC2IS2_vEEPS0_
FNDA:2,_ZNSt10unique_ptrI9functArgsSt14default_deleteIS0_EEC2IS2_vEEPS0_
FN:281,_ZNSt10unique_ptrI12ActiveObjectSt14default_deleteIS0_EEC2IS2_vEEPS0_
FNDA:14,_ZNSt10unique_ptrI12ActiveObjectSt14default_deleteIS0_EEC2IS2_vEEPS0_
FN:327,_ZNSt10unique_ptrI12ActiveObjectSt14default_deleteIS0_EEC2EOS3_
FNDA:28,_ZNSt10unique_ptrI12ActiveObjectSt14default_deleteIS0_EEC2EOS3_
FN:355,_ZNSt10unique_ptrINSt6thread6_StateESt14default_deleteIS1_EED2Ev
FNDA:14,_ZNSt10unique_ptrINSt6thread6_StateESt14default_deleteIS1_EED2Ev
FN:355,_ZNSt10unique_ptrI5GraphSt14default_deleteIS0_EED2Ev
FNDA:2,_ZNSt10unique_ptrI5GraphSt14default_deleteIS0_EED2Ev
FN:355,_ZNSt10unique_ptrI4TreeSt14default_deleteIS0_EED2Ev
FNDA:2,_ZNSt10unique_ptrI4TreeSt14default_deleteIS0_EED2Ev
FN:355,_ZNSt10unique_ptrI11MSTStrategySt14default_deleteIS0_EED2Ev
FNDA:2,_ZNSt10unique_ptrI11MSTStrategySt14default_deleteIS0_EED2Ev
FN:355,_ZNSt10unique_ptrI9functArgsSt14default_deleteIS0_EED2Ev
FNDA:2,_ZNSt10unique_ptrI9functArgsSt14default_deleteIS0_EED2Ev
FN:355,_ZNSt10unique_ptrI12ActiveObjectSt14default_deleteIS0_EED2Ev
FNDA:42,_ZNSt10unique_ptrI12ActiveObjectSt14default_deleteIS0_EED2Ev
FN:371,_ZNSt10unique_ptrI5GraphSt14default_deleteIS0_EEaSEOS3_
FNDA:2,_ZNSt10unique_ptrI5GraphSt14default_deleteIS0_EEaSEOS3_
FN:371,_ZNSt10unique_ptrI4TreeSt14default_deleteIS0_EEaSEOS3_
FNDA:2,_ZNSt10unique_ptrI4TreeSt14default_deleteIS0_EEaSEOS3_
FN:371,_ZNSt10unique_ptrI9functArgsSt14default_deleteIS0_EEaSEOS3_
FNDA:2,_ZNSt10unique_ptrI9functArgsSt14default_deleteIS0_EEaSEOS3_
FN:395,_ZNSt10unique_ptrI5GraphSt14default_deleteIS0_EEaSEDn
FNDA:1,_ZNSt10unique_ptrI5GraphSt14default_deleteIS0_EEaSEDn
FN:395,_ZNSt10unique_ptrI4TreeSt14default_deleteIS0_EEaSEDn
FNDA:2,_ZNSt10unique_ptrI4TreeSt14default_deleteIS0_EEaSEDn
FN:413,_ZNKSt10unique_ptrI4TreeSt14default_deleteIS0_EEptEv
FNDA:10,_ZNKSt10unique_ptrI4TreeSt14default_deleteIS0_EEptEv
FN:413,_ZNKSt10unique_ptrI5GraphSt14default_deleteIS0_EEptEv
FNDA:21,_ZNKSt10unique_ptrI5GraphSt14default_deleteIS0_EEptEv
FN:413,_ZNKSt10unique_ptrI12ActiveObjectSt14default_deleteIS0_EEptEv
FNDA:35,_ZNKSt10unique_ptrI12ActiveObjectSt14default_deleteIS0_EEptEv
FN:421,_ZNKSt10unique_ptrI5GraphSt14default_deleteIS0_EE3getEv
FNDA:39,_ZNKSt10unique_ptrI5GraphSt14default_deleteIS0_EE3getEv
FN:421,_ZNKSt10unique_ptrI4TreeSt14default_deleteIS0_EE3getEv
FNDA:16,_ZNKSt10unique_ptrI4TreeSt14default_deleteIS0_EE3getEv
FN:421,_ZNKSt10unique_ptrI9functArgsSt14default_deleteIS0_EE3getEv
FNDA:2,_ZNKSt10unique_ptrI9functArgsSt14default_deleteIS0_EE3getEv
FN:421,_ZNKSt10unique_ptrI12ActiveObjectSt14default_deleteIS0_EE3getEv
FNDA:35,_ZNKSt10unique_ptrI12ActiveObjectSt14default_deleteIS0_EE3getEv
FN:426,_ZNSt10unique_ptrI9functArgsSt14default_deleteIS0_EE11get_deleterEv
FNDA:0,_ZNSt10unique_ptrI9functArgsSt14default_deleteIS0_EE11get_deleterEv
FN:426,_ZNSt10unique_ptrI12ActiveObjectSt14default_deleteIS0_EE11get_deleterEv
FNDA:0,_ZNSt10unique_ptrI12ActiveObjectSt14default_deleteIS0_EE11get_deleterEv
FN:426,_ZNSt10unique_ptrI5GraphSt14default_deleteIS0_EE11get_deleterEv
FNDA:0,_ZNSt10unique_ptrI5GraphSt14default_deleteIS0_EE11get_deleterEv
FN:426,_ZNSt10unique_ptrI11MSTStrategySt14default_deleteIS0_EE11get_deleterEv
FNDA:0,_ZNSt10unique_ptrI11MSTStrategySt14default_deleteIS0_EE11get_deleterEv
FN:426,_ZNSt10unique_ptrINSt6thread6_StateESt14default_deleteIS1_EE11get_deleterEv
FNDA:0,_ZNSt10unique_ptrINSt6thread6_StateESt14default_deleteIS1_EE11get_deleterEv
FN:426,_ZNSt10unique_ptrI4TreeSt14default_deleteIS0_EE11get_deleterEv
FNDA:0,_ZNSt10unique_ptrI4TreeSt14default_deleteIS0_EE11get_deleterEv
FN:435,_ZNKSt10unique_ptrI4TreeSt14default_deleteIS0_EEcvbEv
FNDA:6,_ZNKSt10unique_ptrI4TreeSt14default_deleteIS0_EEcvbEv
FN:435,_ZNKSt10unique_ptrI5GraphSt14default_deleteIS0_EEcvbEv
FNDA:16,_ZNKSt10unique_ptrI5GraphSt14default_deleteIS0_EEcvbEv
FN:452,_ZNSt10unique_ptrI5GraphSt14default_deleteIS0_EE5resetEPS0_
FNDA:4,_ZNSt10unique_ptrI5GraphSt14default_deleteIS0_EE5resetEPS0_
FN:452,_ZNSt10unique_ptrI4TreeSt14default_deleteIS0_EE5resetEPS0_
FNDA:6,_ZNSt10unique_ptrI4TreeSt14default_deleteIS0_EE5resetEPS0_
FN:452,_ZNSt10unique_ptrI11MSTStrategySt14default_deleteIS0_EE5resetEPS0_
FNDA:3,_ZNSt10unique_ptrI11MSTStrategySt14default_deleteIS0_EE5resetEPS0_
FN:452,_ZNSt10unique_ptrI9functArgsSt14default_deleteIS0_EE5resetEPS0_
FNDA:2,_ZNSt10unique_ptrI9functArgsSt14default_deleteIS0_EE5resetEPS0_
FN:452,_ZNSt10unique_ptrI12ActiveObjectSt14default_deleteIS0_EE5resetEPS0_
FNDA:14,_ZNSt10unique_ptrI12ActiveObjectSt14default_deleteIS0_EE5resetEPS0_
FN:760,_ZSteqI5GraphSt14default_deleteIS0_EEbRKSt10unique_ptrIT_T0_EDn
FNDA:12,_ZSteqI5GraphSt14default_deleteIS0_EEbRKSt10unique_ptrIT_T0_EDn
FN:781,_ZStneI4TreeSt14default_deleteIS0_EEbRKSt10unique_ptrIT_T0_EDn
FNDA:6,_ZStneI4TreeSt14default_deleteIS0_EEbRKSt10unique_ptrIT_T0_EDn
FN:781,_ZStneI5GraphSt14default_deleteIS0_EEbRKSt10unique_ptrIT_T0_EDn
FNDA:4,_ZStneI5GraphSt14default_deleteIS0_EEbRKSt10unique_ptrIT_T0_EDn
FN:961,_ZSt11make_uniqueI5GraphJRiS1_EENSt9_MakeUniqIT_E15__single_objectEDpOT0_
FNDA:2,_ZSt11make_uniqueI5GraphJRiS1_EENSt9_MakeUniqIT_E15__single_objectEDpOT0_
FN:961,_ZSt11make_uniqueI12ActiveObjectJEENSt9_MakeUniqIT_E15__single_objectEDpOT0_
FNDA:14,_ZSt11make_uniqueI12ActiveObjectJEENSt9_MakeUniqIT_E15__single_objectEDpOT0_
DA:79,0
DA:85,0
DA:86,0
DA:79,14
DA:85,14
DA:86,14
DA:79,2
DA:85,2
DA:86,2
DA:79,2
DA:85,2
DA:86,2
DA:79,2
DA:85,2
DA:86,2
DA:79,2
DA:85,2
DA:86,2
DA:155,14
DA:155,2
DA:155,14
DA:155,2
DA:161,28
DA:162,28
DA:163,28
DA:165,2
DA:167,2
DA:168,2
DA:169,2
DA:165,2
DA:167,2
DA:168,2
DA:169,2
DA:165,2
DA:167,2
DA:168,2
DA:169,2
DA:172,28
DA:172,112
DA:172,16
DA:172,18
DA:172,24
DA:172,20
DA:173,16
DA:173,39
DA:173,35
DA:173,2
DA:174,0
DA:174,14
DA:174,6
DA:174,6
DA:174,6
DA:174,6
DA:177,14
DA:179,14
DA:180,14
DA:181,14
DA:182,14
DA:183,14
DA:177,4
DA:179,4
DA:180,4
DA:181,4
DA:182,2
DA:183,4
DA:177,8
DA:179,8
DA:180,8
DA:181,8
DA:182,2
DA:183,8
DA:177,6
DA:179,6
DA:180,6
DA:181,6
DA:182,2
DA:183,6
DA:177,5
DA:179,5
DA:180,5
DA:181,5
DA:182,2
DA:183,5
DA:185,2
DA:187,2
DA:188,2
DA:189,2
DA:185,2
DA:187,2
DA:188,2
DA:189,2
DA:185,2
DA:187,2
DA:188,2
DA:189,2
DA:211,28
DA:212,2
DA:212,2
DA:212,2
DA:281,14
DA:282,14
DA:283,14
DA:281,2
DA:282,2
DA:283,2
DA:281,14
DA:282,14
DA:283,14
DA:281,2
DA:282,2
DA:283,2
DA:327,28
DA:355,14
DA:359,14
DA:360,14
DA:361,0
DA:362,14
DA:363,14
DA:355,42
DA:359,42
DA:360,42
DA:361,0
DA:362,42
DA:363,42
DA:355,2
DA:359,2
DA:360,2
DA:361,0
DA:362,2
DA:363,2
DA:355,2
DA:359,2
DA:360,2
DA:361,0
DA:362,2
DA:363,2
DA:355,2
DA:359,2
DA:360,2
DA:361,0
DA:362,2
DA:363,2
DA:355,2
DA:359,2
DA:360,2
DA:361,0
DA:362,2
DA:363,2
DA:371,2
DA:371,2
DA:371,2
DA:395,2
DA:397,2
DA:398,2
DA:395,1
DA:397,1
DA:398,1
DA:413,10
DA:416,10
DA:413,21
DA:416,21
DA:413,35
DA:416,35
DA:421,16
DA:422,16
DA:421,39
DA:422,39
DA:421,35
DA:422,35
DA:421,2
DA:422,2
DA:426,0
DA:427,0
DA:426,0
DA:427,0
DA:426,0
DA:427,0
DA:426,0
DA:427,0
DA:426,0
DA:427,0
DA:426,0
DA:427,0
DA:435,6
DA:436,6
DA:435,16
DA:436,16
DA:452,14
DA:456,14
DA:457,14
DA:452,2
DA:456,2
DA:457,2
DA:452,6
DA:456,6
DA:457,6
DA:452,4
DA:456,4
DA:457,4
DA:452,3
DA:456,3
DA:457,3
DA:760,12
DA:761,12
DA:781,6
DA:782,6
DA:781,4
DA:782,4
DA:961,14
DA:962,14
DA:961,2
DA:962,2
end_of_record
SF:/usr/include/c++/11/bits/basic_string.h
FN:251,_ZNSt7__cxx1112basic_stringIcSt11char_traitsIcESaIcEE16_M_construct_auxIPcEEvT_S7_St12__false_type
FNDA:2,_ZNSt7__cxx1112basic_stringIcSt11char_traitsIcESaIcEE16_M_construct_auxIPcEEvT_S7_St12__false_type
FN:271,_ZNSt7__cxx1112basic_stringIcSt11char_traitsIcESaIcEE12_M_constructIPcEEvT_S7_
FNDA:2,_ZNSt7__cxx1112basic_stringIcSt11char_traitsIcESaIcEE12_M_constructIPcEEvT_S7_
FN:533,_ZNSt7__cxx1112basic_stringIcSt11char_traitsIcESaIcEEC2IS3_EEPKcRKS3_
FNDA:45,_ZNSt7__cxx1112basic_stringIcSt11char_traitsIcESaIcEEC2IS3_EEPKcRKS3_
FN:553,_ZNSt7__cxx1112basic_stringIcSt11char_traitsIcESaIcEEC2IS3_EEmcRKS3_
FNDA:55,_ZNSt7__cxx1112basic_stringIcSt11char_traitsIcESaIcEEC2IS3_EEmcRKS3_
FN:638,_ZNSt7__cxx1112basic_stringIcSt11char_traitsIcESaIcEEC2IPcvEET_S7_RKS3_
FNDA:2,_ZNSt7__cxx1112basic_stringIcSt11char_traitsIcESaIcEEC2IPcvEET_S7_RKS3_
FN:6172,_ZStplIcSt11char_traitsIcESaIcEENSt7__cxx1112basic_stringIT_T0_T1_EEOS8_S9_
FNDA:31,_ZStplIcSt11char_traitsIcESaIcEENSt7__cxx1112basic_stringIT_T0_T1_EEOS8_S9_
FN:6194,_ZStplIcSt11char_traitsIcESaIcEENSt7__cxx1112basic_stringIT_T0_T1_EEPKS5_OS8_
FNDA:8,_ZStplIcSt11char_traitsIcESaIcEENSt7__cxx1112basic_stringIT_T0_T1_EEPKS5_OS8_
FN:6206,_ZStplIcSt11char_traitsIcESaIcEENSt7__cxx1112basic_stringIT_T0_T1_EEOS8_PKS5_
FNDA:54,_ZStplIcSt11char_traitsIcESaIcEENSt7__cxx1112basic_stringIT_T0_T1_EEOS8_PKS5_
FN:6248,_ZSteqIcSt11char_traitsIcESaIcEEbRKNSt7__cxx1112basic_stringIT_T0_T1_EEPKS5_
FNDA:72,_ZSteqIcSt11char_traitsIcESaIcEEbRKNSt7__cxx1112basic_stringIT_T0_T1_EEPKS5_
FN:6660,_ZNSt7__cxx119to_stringEi
FNDA:47,_ZNSt7__cxx119to_stringEi
FN:6721,_ZNSt7__cxx119to_stringEf
FNDA:2,_ZNSt7__cxx119to_stringEf
DA:251,2
DA:255,2
DA:256,2
DA:271,2
DA:274,2
DA:275,2
DA:533,45
DA:534,45
DA:536,45
DA:539,45
DA:540,45
DA:553,55
DA:554,55
DA:555,55
DA:638,2
DA:640,2
DA:641,2
DA:6172,31
DA:6177,31
DA:6179,31
DA:6182,31
DA:6185,31
DA:6186,31
DA:6187,0
DA:6189,31
DA:6194,8
DA:6196,8
DA:6206,54
DA:6208,54
DA:6248,72
DA:6250,72
DA:6660,47
DA:6662,47
DA:6663,47
DA:6664,47
DA:6665,47
DA:6666,47
DA:6667,47
DA:6668,0
DA:6721,2
DA:6723,2
DA:6726,2
end_of_record
SF:/home/eladubuntu/Git Projects/OS_2024-FINAL_PROJECT_MST/Graph.hpp
FN:54,_ZN5GraphC2Eii
FNDA:2,_ZN5GraphC2Eii
FN:90,_ZNK5Graph6getAdjEv
FNDA:17,_ZNK5Graph6getAdjEv
DA:54,2
DA:90,17
end_of_record
SF:/usr/include/c++/11/bits/stl_iterator_base_types.h
FN:238,_ZSt19__iterator_categoryISt13move_iteratorIN9__gnu_cxx17__normal_iteratorIPSt10unique_ptrI12ActiveObjectSt14default_deleteIS4_EESt6vectorIS7_SaIS7_EEEEEENSt15iterator_traitsIT_E17iterator_categoryERKSF_
FNDA:4,_ZSt19__iterator_categoryISt13move_iteratorIN9__gnu_cxx17__normal_iteratorIPSt10unique_ptrI12ActiveObjectSt14default_deleteIS4_EESt6vectorIS7_SaIS7_EEEEEENSt15iterator_traitsIT_E17iterator_categoryERKSF_
FN:238,_ZSt19__iterator_categoryISt13move_iteratorIN9__gnu_cxx17__normal_iteratorIPmSt6vectorImSaImEEEEEENSt15iterator_traitsIT_E17iterator_categoryERKSA_
FNDA:2,_ZSt19__iterator_categoryISt13move_iteratorIN9__gnu_cxx17__normal_iteratorIPmSt6vectorImSaImEEEEEENSt15iterator_traitsIT_E17iterator_categoryERKSA_
FN:238,_ZSt19__iterator_categoryIPcENSt15iterator_traitsIT_E17iterator_categoryERKS2_
FNDA:26,_ZSt19__iterator_categoryIPcENSt15iterator_traitsIT_E17iterator_categoryERKS2_
FN:238,_ZSt19__iterator_categoryIPKcENSt15iterator_traitsIT_E17iterator_categoryERKS3_
FNDA:45,_ZSt19__iterator_categoryIPKcENSt15iterator_traitsIT_E17iterator_categoryERKS3_
DA:238,4
DA:239,4
DA:238,2
DA:239,2
DA:238,26
DA:239,26
DA:238,45
DA:239,45
end_of_record
SF:/usr/include/c++/11/bits/std_function.h
FN:85,_ZNSt9_Any_data9_M_accessEv
FNDA:74,_ZNSt9_Any_data9_M_accessEv
FN:86,_ZNKSt9_Any_data9_M_accessEv
FNDA:37,_ZNKSt9_Any_data9_M_accessEv
FN:90,_ZNSt9_Any_data9_M_accessIPZZZZZZ14handleCommandsiRSt6vectorISt10unique_ptrI12ActiveObjectSt14default_deleteIS3_EESaIS6_EERS2_I5GraphS4_ISA_EER10MSTFactoryRS2_I4TreeS4_ISG_EEENKUlvE3_clEvENKUlvE_clEvENKUlvE_clEvENKUlvE_clEvENKUlvE_clEvEUlvE_EERT_v
FNDA:4,_ZNSt9_Any_data9_M_accessIPZZZZZZ14handleCommandsiRSt6vectorISt10unique_ptrI12ActiveObjectSt14default_deleteIS3_EESaIS6_EERS2_I5GraphS4_ISA_EER10MSTFactoryRS2_I4TreeS4_ISG_EEENKUlvE3_clEvENKUlvE_clEvENKUlvE_clEvENKUlvE_clEvENKUlvE_clEvEUlvE_EERT_v
FN:90,_ZNSt9_Any_data9_M_accessIPZ14handleCommandsiRSt6vectorISt10unique_ptrI12ActiveObjectSt14default_deleteIS3_EESaIS6_EERS2_I5GraphS4_ISA_EER10MSTFactoryRS2_I4TreeS4_ISG_EEEUlvE2_EERT_v
FNDA:8,_ZNSt9_Any_data9_M_accessIPZ14handleCommandsiRSt6vectorISt10unique_ptrI12ActiveObjectSt14default_deleteIS3_EESaIS6_EERS2_I5GraphS4_ISA_EER10MSTFactoryRS2_I4TreeS4_ISG_EEEUlvE2_EERT_v
FN:90,_ZNSt9_Any_data9_M_accessIPZZZZZ14handleCommandsiRSt6vectorISt10unique_ptrI12ActiveObjectSt14default_deleteIS3_EESaIS6_EERS2_I5GraphS4_ISA_EER10MSTFactoryRS2_I4TreeS4_ISG_EEENKUlvE3_clEvENKUlvE_clEvENKUlvE_clEvENKUlvE_clEvEUlvE_EERT_v
FNDA:4,_ZNSt9_Any_data9_M_accessIPZZZZZ14handleCommandsiRSt6vectorISt10unique_ptrI12ActiveObjectSt14default_deleteIS3_EESaIS6_EERS2_I5GraphS4_ISA_EER10MSTFactoryRS2_I4TreeS4_ISG_EEENKUlvE3_clEvENKUlvE_clEvENKUlvE_clEvENKUlvE_clEvEUlvE_EERT_v
FN:90,_ZNSt9_Any_data9_M_accessIPZ14handleCommandsiRSt6vectorISt10unique_ptrI12ActiveObjectSt14default_deleteIS3_EESaIS6_EERS2_I5GraphS4_ISA_EER10MSTFactoryRS2_I4TreeS4_ISG_EEEUlvE1_EERT_v
FNDA:8,_ZNSt9_Any_data9_M_accessIPZ14handleCommandsiRSt6vectorISt10unique_ptrI12ActiveObjectSt14default_deleteIS3_EESaIS6_EERS2_I5GraphS4_ISA_EER10MSTFactoryRS2_I4TreeS4_ISG_EEEUlvE1_EERT_v
FN:90,_ZNSt9_Any_data9_M_accessIPZ14handleCommandsiRSt6vectorISt10unique_ptrI12ActiveObjectSt14default_deleteIS3_EESaIS6_EERS2_I5GraphS4_ISA_EER10MSTFactoryRS2_I4TreeS4_ISG_EEEUlvE0_EERT_v
FNDA:14,_ZNSt9_Any_data9_M_accessIPZ14handleCommandsiRSt6vectorISt10unique_ptrI12ActiveObjectSt14default_deleteIS3_EESaIS6_EERS2_I5GraphS4_ISA_EER10MSTFactoryRS2_I4TreeS4_ISG_EEEUlvE0_EERT_v
FN:90,_ZNSt9_Any_data9_M_accessIPZZZZ14handleCommandsiRSt6vectorISt10unique_ptrI12ActiveObjectSt14default_deleteIS3_EESaIS6_EERS2_I5GraphS4_ISA_EER10MSTFactoryRS2_I4TreeS4_ISG_EEENKUlvE3_clEvENKUlvE_clEvENKUlvE_clEvEUlvE_EERT_v
FNDA:4,_ZNSt9_Any_data9_M_accessIPZZZZ14handleCommandsiRSt6vectorISt10unique_ptrI12ActiveObjectSt14default_deleteIS3_EESaIS6_EERS2_I5GraphS4_ISA_EER10MSTFactoryRS2_I4TreeS4_ISG_EEENKUlvE3_clEvENKUlvE_clEvENKUlvE_clEvEUlvE_EERT_v
FN:90,_ZNSt9_Any_data9_M_accessIPZ14handleCommandsiRSt6vectorISt10unique_ptrI12ActiveObjectSt14default_deleteIS3_EESaIS6_EERS2_I5GraphS4_ISA_EER10MSTFactoryRS2_I4TreeS4_ISG_EEEUlvE_EERT_v
FNDA:8,_ZNSt9_Any_data9_M_accessIPZ14handleCommandsiRSt6vectorISt10unique_ptrI12ActiveObjectSt14default_deleteIS3_EESaIS6_EERS2_I5GraphS4_ISA_EER10MSTFactoryRS2_I4TreeS4_ISG_EEEUlvE_EERT_v
FN:90,_ZNSt9_Any_data9_M_accessIPZ14handleCommandsiRSt6vectorISt10unique_ptrI12ActiveObjectSt14default_deleteIS3_EESaIS6_EERS2_I5GraphS4_ISA_EER10MSTFactoryRS2_I4TreeS4_ISG_EEEUlvE3_EERT_v
FNDA:12,_ZNSt9_Any_data9_M_accessIPZ14handleCommandsiRSt6vectorISt10unique_ptrI12ActiveObjectSt14default_deleteIS3_EESaIS6_EERS2_I5GraphS4_ISA_EER10MSTFactoryRS2_I4TreeS4_ISG_EEEUlvE3_EERT_v
FN:90,_ZNSt9_Any_data9_M_accessIPKSt9type_infoEERT_v
FNDA:0,_ZNSt9_Any_data9_M_accessIPKSt9type_infoEERT_v
FN:90,_ZNSt9_Any_data9_M_accessIPZZ14handleCommandsiRSt6vectorISt10unique_ptrI12ActiveObjectSt14default_deleteIS3_EESaIS6_EERS2_I5GraphS4_ISA_EER10MSTFactoryRS2_I4TreeS4_ISG_EEENKUlvE3_clEvEUlvE_EERT_v
FNDA:4,_ZNSt9_Any_data9_M_accessIPZZ14handleCommandsiRSt6vectorISt10unique_ptrI12ActiveObjectSt14default_deleteIS3_EESaIS6_EERS2_I5GraphS4_ISA_EER10MSTFactoryRS2_I4TreeS4_ISG_EEENKUlvE3_clEvEUlvE_EERT_v
FN:90,_ZNSt9_Any_data9_M_accessIPZ4mainEUliE_EERT_v
FNDA:4,_ZNSt9_Any_data9_M_accessIPZ4mainEUliE_EERT_v
FN:90,_ZNSt9_Any_data9_M_accessIPZZZ14handleCommandsiRSt6vectorISt10unique_ptrI12ActiveObjectSt14default_deleteIS3_EESaIS6_EERS2_I5GraphS4_ISA_EER10MSTFactoryRS2_I4TreeS4_ISG_EEENKUlvE3_clEvENKUlvE_clEvEUlvE_EERT_v
FNDA:4,_ZNSt9_Any_data9_M_accessIPZZZ14handleCommandsiRSt6vectorISt10unique_ptrI12ActiveObjectSt14default_deleteIS3_EESaIS6_EERS2_I5GraphS4_ISA_EER10MSTFactoryRS2_I4TreeS4_ISG_EEENKUlvE3_clEvENKUlvE_clEvEUlvE_EERT_v
FN:95,_ZNKSt9_Any_data9_M_accessIPZZZ14handleCommandsiRSt6vectorISt10unique_ptrI12ActiveObjectSt14default_deleteIS3_EESaIS6_EERS2_I5GraphS4_ISA_EER10MSTFactoryRS2_I4TreeS4_ISG_EEENKUlvE3_clEvENKUlvE_clEvEUlvE_EERKT_v
FNDA:2,_ZNKSt9_Any_data9_M_accessIPZZZ14handleCommandsiRSt6vectorISt10unique_ptrI12ActiveObjectSt14default_deleteIS3_EESaIS6_EERS2_I5GraphS4_ISA_EER10MSTFactoryRS2_I4TreeS4_ISG_EEENKUlvE3_clEvENKUlvE_clEvEUlvE_EERKT_v
FN:95,_ZNKSt9_Any_data9_M_accessIPZZZZZZ14handleCommandsiRSt6vectorISt10unique_ptrI12ActiveObjectSt14default_deleteIS3_EESaIS6_EERS2_I5GraphS4_ISA_EER10MSTFactoryRS2_I4TreeS4_ISG_EEENKUlvE3_clEvENKUlvE_clEvENKUlvE_clEvENKUlvE_clEvENKUlvE_clEvEUlvE_EERKT_v
FNDA:2,_ZNKSt9_Any_data9_M_accessIPZZZZZZ14handleCommandsiRSt6vectorISt10unique_ptrI12ActiveObjectSt14default_deleteIS3_EESaIS6_EERS2_I5GraphS4_ISA_EER10MSTFactoryRS2_I4TreeS4_ISG_EEENKUlvE3_clEvENKUlvE_clEvENKUlvE_clEvENKUlvE_clEvENKUlvE_clEvEUlvE_EERKT_v
FN:95,_ZNKSt9_Any_data9_M_accessIPZZZZZ14handleCommandsiRSt6vectorISt10unique_ptrI12ActiveObjectSt14default_deleteIS3_EESaIS6_EERS2_I5GraphS4_ISA_EER10MSTFactoryRS2_I4TreeS4_ISG_EEENKUlvE3_clEvENKUlvE_clEvENKUlvE_clEvENKUlvE_clEvEUlvE_EERKT_v
FNDA:2,_ZNKSt9_Any_data9_M_accessIPZZZZZ14handleCommandsiRSt6vectorISt10unique_ptrI12ActiveObjectSt14default_deleteIS3_EESaIS6_EERS2_I5GraphS4_ISA_EER10MSTFactoryRS2_I4TreeS4_ISG_EEENKUlvE3_clEvENKUlvE_clEvENKUlvE_clEvENKUlvE_clEvEUlvE_EERKT_v
FN:95,_ZNKSt9_Any_data9_M_accessIPZ14handleCommandsiRSt6vectorISt10unique_ptrI12ActiveObjectSt14default_deleteIS3_EESaIS6_EERS2_I5GraphS4_ISA_EER10MSTFactoryRS2_I4TreeS4_ISG_EEEUlvE1_EERKT_v
FNDA:4,_ZNKSt9_Any_data9_M_accessIPZ14handleCommandsiRSt6vectorISt10unique_ptrI12ActiveObjectSt14default_deleteIS3_EESaIS6_EERS2_I5GraphS4_ISA_EER10MSTFactoryRS2_I4TreeS4_ISG_EEEUlvE1_EERKT_v
FN:95,_ZNKSt9_Any_data9_M_accessIPZZZZ14handleCommandsiRSt6vectorISt10unique_ptrI12ActiveObjectSt14default_deleteIS3_EESaIS6_EERS2_I5GraphS4_ISA_EER10MSTFactoryRS2_I4TreeS4_ISG_EEENKUlvE3_clEvENKUlvE_clEvENKUlvE_clEvEUlvE_EERKT_v
FNDA:2,_ZNKSt9_Any_data9_M_accessIPZZZZ14handleCommandsiRSt6vectorISt10unique_ptrI12ActiveObjectSt14default_deleteIS3_EESaIS6_EERS2_I5GraphS4_ISA_EER10MSTFactoryRS2_I4TreeS4_ISG_EEENKUlvE3_clEvENKUlvE_clEvENKUlvE_clEvEUlvE_EERKT_v
FN:95,_ZNKSt9_Any_data9_M_accessIPZ14handleCommandsiRSt6vectorISt10unique_ptrI12ActiveObjectSt14default_deleteIS3_EESaIS6_EERS2_I5GraphS4_ISA_EER10MSTFactoryRS2_I4TreeS4_ISG_EEEUlvE0_EERKT_v
FNDA:7,_ZNKSt9_Any_data9_M_accessIPZ14handleCommandsiRSt6vectorISt10unique_ptrI12ActiveObjectSt14default_deleteIS3_EESaIS6_EERS2_I5GraphS4_ISA_EER10MSTFactoryRS2_I4TreeS4_ISG_EEEUlvE0_EERKT_v
FN:95,_ZNKSt9_Any_data9_M_accessIPZ14handleCommandsiRSt6vectorISt10unique_ptrI12ActiveObjectSt14default_deleteIS3_EESaIS6_EERS2_I5GraphS4_ISA_EER10MSTFactoryRS2_I4TreeS4_ISG_EEEUlvE2_EERKT_v
FNDA:4,_ZNKSt9_Any_data9_M_accessIPZ14handleCommandsiRSt6vectorISt10unique_ptrI12ActiveObjectSt14default_deleteIS3_EESaIS6_EERS2_I5GraphS4_ISA_EER10MSTFactoryRS2_I4TreeS4_ISG_EEEUlvE2_EERKT_v
FN:95,_ZNKSt9_Any_data9_M_accessIPZZ14handleCommandsiRSt6vectorISt10unique_ptrI12ActiveObjectSt14default_deleteIS3_EESaIS6_EERS2_I5GraphS4_ISA_EER10MSTFactoryRS2_I4TreeS4_ISG_EEENKUlvE3_clEvEUlvE_EERKT_v
FNDA:2,_ZNKSt9_Any_data9_M_accessIPZZ14handleCommandsiRSt6vectorISt10unique_ptrI12ActiveObjectSt14default_deleteIS3_EESaIS6_EERS2_I5GraphS4_ISA_EER10MSTFactoryRS2_I4TreeS4_ISG_EEENKUlvE3_clEvEUlvE_EERKT_v
FN:95,_ZNKSt9_Any_data9_M_accessIPZ4mainEUliE_EERKT_v
FNDA:2,_ZNKSt9_Any_data9_M_accessIPZ4mainEUliE_EERKT_v
FN:95,_ZNKSt9_Any_data9_M_accessIPZ14handleCommandsiRSt6vectorISt10unique_ptrI12ActiveObjectSt14default_deleteIS3_EESaIS6_EERS2_I5GraphS4_ISA_EER10MSTFactoryRS2_I4TreeS4_ISG_EEEUlvE_EERKT_v
FNDA:4,_ZNKSt9_Any_data9_M_accessIPZ14handleCommandsiRSt6vectorISt10unique_ptrI12ActiveObjectSt14default_deleteIS3_EESaIS6_EERS2_I5GraphS4_ISA_EER10MSTFactoryRS2_I4TreeS4_ISG_EEEUlvE_EERKT_v
FN:95,_ZNKSt9_Any_data9_M_accessIPZ14handleCommandsiRSt6vectorISt10unique_ptrI12ActiveObjectSt14default_deleteIS3_EESaIS6_EERS2_I5GraphS4_ISA_EER10MSTFactoryRS2_I4TreeS4_ISG_EEEUlvE3_EERKT_v
FNDA:6,_ZNKSt9_Any_data9_M_accessIPZ14handleCommandsiRSt6vectorISt10unique_ptrI12ActiveObjectSt14default_deleteIS3_EESaIS6_EERS2_I5GraphS4_ISA_EER10MSTFactoryRS2_I4TreeS4_ISG_EEEUlvE3_EERKT_v
FN:134,_ZNSt14_Function_base13_Base_managerIZZ14handleCommandsiRSt6vectorISt10unique_ptrI12ActiveObjectSt14default_deleteIS3_EESaIS6_EERS2_I5GraphS4_ISA_EER10MSTFactoryRS2_I4TreeS4_ISG_EEENKUlvE3_clEvEUlvE_E14_M_get_pointerERKSt9_Any_data
FNDA:2,_ZNSt14_Function_base13_Base_managerIZZ14handleCommandsiRSt6vectorISt10unique_ptrI12ActiveObjectSt14default_deleteIS3_EESaIS6_EERS2_I5GraphS4_ISA_EER10MSTFactoryRS2_I4TreeS4_ISG_EEENKUlvE3_clEvEUlvE_E14_M_get_pointerERKSt9_Any_data
FN:134,_ZNSt14_Function_base13_Base_managerIZ14handleCommandsiRSt6vectorISt10unique_ptrI12ActiveObjectSt14default_deleteIS3_EESaIS6_EERS2_I5GraphS4_ISA_EER10MSTFactoryRS2_I4TreeS4_ISG_EEEUlvE3_E14_M_get_pointerERKSt9_Any_data
FNDA:6,_ZNSt14_Function_base13_Base_managerIZ14handleCommandsiRSt6vectorISt10unique_ptrI12ActiveObjectSt14default_deleteIS3_EESaIS6_EERS2_I5GraphS4_ISA_EER10MSTFactoryRS2_I4TreeS4_ISG_EEEUlvE3_E14_M_get_pointerERKSt9_Any_data
FN:134,_ZNSt14_Function_base13_Base_managerIZZZZZ14handleCommandsiRSt6vectorISt10unique_ptrI12ActiveObjectSt14default_deleteIS3_EESaIS6_EERS2_I5GraphS4_ISA_EER10MSTFactoryRS2_I4TreeS4_ISG_EEENKUlvE3_clEvENKUlvE_clEvENKUlvE_clEvENKUlvE_clEvEUlvE_E14_M_get_pointerERKSt9_Any_data
FNDA:2,_ZNSt14_Function_base13_Base_managerIZZZZZ14handleCommandsiRSt6vectorISt10unique_ptrI12ActiveObjectSt14default_deleteIS3_EESaIS6_EERS2_I5GraphS4_ISA_EER10MSTFactoryRS2_I4TreeS4_ISG_EEENKUlvE3_clEvENKUlvE_clEvENKUlvE_clEvENKUlvE_clEvEUlvE_E14_M_get_pointerERKSt9_Any_data
FN:134,_ZNSt14_Function_base13_Base_managerIZZZZ14handleCommandsiRSt6vectorISt10unique_ptrI12ActiveObjectSt14default_deleteIS3_EESaIS6_EERS2_I5GraphS4_ISA_EER10MSTFactoryRS2_I4TreeS4_ISG_EEENKUlvE3_clEvENKUlvE_clEvENKUlvE_clEvEUlvE_E14_M_get_pointerERKSt9_Any_data
FNDA:2,_ZNSt14_Function_base13_Base_managerIZZZZ14handleCommandsiRSt6vectorISt10unique_ptrI12ActiveObjectSt14default_deleteIS3_EESaIS6_EERS2_I5GraphS4_ISA_EER10MSTFactoryRS2_I4TreeS4_ISG_EEENKUlvE3_clEvENKUlvE_clEvENKUlvE_clEvEUlvE_E14_M_get_pointerERKSt9_Any_data
FN:134,_ZNSt14_Function_base13_Base_managerIZZZ14handleCommandsiRSt6vectorISt10unique_ptrI12ActiveObjectSt14default_deleteIS3_EESaIS6_EERS2_I5GraphS4_ISA_EER10MSTFactoryRS2_I4TreeS4_ISG_EEENKUlvE3_clEvENKUlvE_clEvEUlvE_E14_M_get_pointerERKSt9_Any_data
FNDA:2,_ZNSt14_Function_base13_Base_managerIZZZ14handleCommandsiRSt6vectorISt10unique_ptrI12ActiveObjectSt14default_deleteIS3_EESaIS6_EERS2_I5GraphS4_ISA_EER10MSTFactoryRS2_I4TreeS4_ISG_EEENKUlvE3_clEvENKUlvE_clEvEUlvE_E14_M_get_pointerERKSt9_Any_data
FN:134,_ZNSt14_Function_base13_Base_managerIZZZZZZ14handleCommandsiRSt6vectorISt10unique_ptrI12ActiveObjectSt14default_deleteIS3_EESaIS6_EERS2_I5GraphS4_ISA_EER10MSTFactoryRS2_I4TreeS4_ISG_EEENKUlvE3_clEvENKUlvE_clEvENKUlvE_clEvENKUlvE_clEvENKUlvE_clEvEUlvE_E14_M_get_pointerERKSt9_Any_data
FNDA:2,_ZNSt14_Function_base13_Base_managerIZZZZZZ14handleCommandsiRSt6vectorISt10unique_ptrI12ActiveObjectSt14default_deleteIS3_EESaIS6_EERS2_I5GraphS4_ISA_EER10MSTFactoryRS2_I4TreeS4_ISG_EEENKUlvE3_clEvENKUlvE_clEvENKUlvE_clEvENKUlvE_clEvENKUlvE_clEvEUlvE_E14_M_get_pointerERKSt9_Any_data
FN:134,_ZNSt14_Function_base13_Base_managerIZ14handleCommandsiRSt6vectorISt10unique_ptrI12ActiveObjectSt14default_deleteIS3_EESaIS6_EERS2_I5GraphS4_ISA_EER10MSTFactoryRS2_I4TreeS4_ISG_EEEUlvE2_E14_M_get_pointerERKSt9_Any_data
FNDA:4,_ZNSt14_Function_base13_Base_managerIZ14handleCommandsiRSt6vectorISt10unique_ptrI12ActiveObjectSt14default_deleteIS3_EESaIS6_EERS2_I5GraphS4_ISA_EER10MSTFactoryRS2_I4TreeS4_ISG_EEEUlvE2_E14_M_get_pointerERKSt9_Any_data
FN:134,_ZNSt14_Function_base13_Base_managerIZ4mainEUliE_E14_M_get_pointerERKSt9_Any_data
FNDA:2,_ZNSt14_Function_base13_Base_managerIZ4mainEUliE_E14_M_get_pointerERKSt9_Any_data
FN:134,_ZNSt14_Function_base13_Base_managerIZ14handleCommandsiRSt6vectorISt10unique_ptrI12ActiveObjectSt14default_deleteIS3_EESaIS6_EERS2_I5GraphS4_ISA_EER10MSTFactoryRS2_I4TreeS4_ISG_EEEUlvE1_E14_M_get_pointerERKSt9_Any_data
FNDA:4,_ZNSt14_Function_base13_Base_managerIZ14handleCommandsiRSt6vectorISt10unique_ptrI12ActiveObjectSt14default_deleteIS3_EESaIS6_EERS2_I5GraphS4_ISA_EER10MSTFactoryRS2_I4TreeS4_ISG_EEEUlvE1_E14_M_get_pointerERKSt9_Any_data
FN:134,_ZNSt14_Function_base13_Base_managerIZ14handleCommandsiRSt6vectorISt10unique_ptrI12ActiveObjectSt14default_deleteIS3_EESaIS6_EERS2_I5GraphS4_ISA_EER10MSTFactoryRS2_I4TreeS4_ISG_EEEUlvE0_E14_M_get_pointerERKSt9_Any_data
FNDA:7,_ZNSt14_Function_base13_Base_managerIZ14handleCommandsiRSt6vectorISt10unique_ptrI12ActiveObjectSt14default_deleteIS3_EESaIS6_EERS2_I5GraphS4_ISA_EER10MSTFactoryRS2_I4TreeS4_ISG_EEEUlvE0_E14_M_get_pointerERKSt9_Any_data
FN:134,_ZNSt14_Function_base13_Base_managerIZ14handleCommandsiRSt6vectorISt10unique_ptrI12ActiveObjectSt14default_deleteIS3_EESaIS6_EERS2_I5GraphS4_ISA_EER10MSTFactoryRS2_I4TreeS4_ISG_EEEUlvE_E14_M_get_pointerERKSt9_Any_data
FNDA:4,_ZNSt14_Function_base13_Base_managerIZ14handleCommandsiRSt6vectorISt10unique_ptrI12ActiveObjectSt14default_deleteIS3_EESaIS6_EERS2_I5GraphS4_ISA_EER10MSTFactoryRS2_I4TreeS4_ISG_EEEUlvE_E14_M_get_pointerERKSt9_Any_data
FN:158,_ZNSt14_Function_base13_Base_managerIZZ14handleCommandsiRSt6vectorISt10unique_ptrI12ActiveObjectSt14default_deleteIS3_EESaIS6_EERS2_I5GraphS4_ISA_EER10MSTFactoryRS2_I4TreeS4_ISG_EEENKUlvE3_clEvEUlvE_E9_M_createIRKSL_EEvRSt9_Any_dataOT_St17integral_constantIbLb0EE
FNDA:0,_ZNSt14_Function_base13_Base_managerIZZ14handleCommandsiRSt6vectorISt10unique_ptrI12ActiveObjectSt14default_deleteIS3_EESaIS6_EERS2_I5GraphS4_ISA_EER10MSTFactoryRS2_I4TreeS4_ISG_EEENKUlvE3_clEvEUlvE_E9_M_createIRKSL_EEvRSt9_Any_dataOT_St17integral_constantIbLb0EE
FN:158,_ZNSt14_Function_base13_Base_managerIZ4mainEUliE_E9_M_createIS1_EEvRSt9_Any_dataOT_St17integral_constantIbLb0EE
FNDA:2,_ZNSt14_Function_base13_Base_managerIZ4mainEUliE_E9_M_createIS1_EEvRSt9_Any_dataOT_St17integral_constantIbLb0EE
FN:158,_ZNSt14_Function_base13_Base_managerIZ4mainEUliE_E9_M_createIRKS1_EEvRSt9_Any_dataOT_St17integral_constantIbLb0EE
FNDA:0,_ZNSt14_Function_base13_Base_managerIZ4mainEUliE_E9_M_createIRKS1_EEvRSt9_Any_dataOT_St17integral_constantIbLb0EE
FN:158,_ZNSt14_Function_base13_Base_managerIZ14handleCommandsiRSt6vectorISt10unique_ptrI12ActiveObjectSt14default_deleteIS3_EESaIS6_EERS2_I5GraphS4_ISA_EER10MSTFactoryRS2_I4TreeS4_ISG_EEEUlvE_E9_M_createIRSK_EEvRSt9_Any_dataOT_St17integral_constantIbLb0EE
FNDA:4,_ZNSt14_Function_base13_Base_managerIZ14handleCommandsiRSt6vectorISt10unique_ptrI12ActiveObjectSt14default_deleteIS3_EESaIS6_EERS2_I5GraphS4_ISA_EER10MSTFactoryRS2_I4TreeS4_ISG_EEEUlvE_E9_M_createIRSK_EEvRSt9_Any_dataOT_St17integral_constantIbLb0EE
FN:158,_ZNSt14_Function_base13_Base_managerIZZZ14handleCommandsiRSt6vectorISt10unique_ptrI12ActiveObjectSt14default_deleteIS3_EESaIS6_EERS2_I5GraphS4_ISA_EER10MSTFactoryRS2_I4TreeS4_ISG_EEENKUlvE3_clEvENKUlvE_clEvEUlvE_E9_M_createIRSM_EEvRSt9_Any_dataOT_St17integral_constantIbLb0EE
FNDA:2,_ZNSt14_Function_base13_Base_managerIZZZ14handleCommandsiRSt6vectorISt10unique_ptrI12ActiveObjectSt14default_deleteIS3_EESaIS6_EERS2_I5GraphS4_ISA_EER10MSTFactoryRS2_I4TreeS4_ISG_EEENKUlvE3_clEvENKUlvE_clEvEUlvE_E9_M_createIRSM_EEvRSt9_Any_dataOT_St17integral_constantIbLb0EE
FN:158,_ZNSt14_Function_base13_Base_managerIZ14handleCommandsiRSt6vectorISt10unique_ptrI12ActiveObjectSt14default_deleteIS3_EESaIS6_EERS2_I5GraphS4_ISA_EER10MSTFactoryRS2_I4TreeS4_ISG_EEEUlvE0_E9_M_createIRSK_EEvRSt9_Any_dataOT_St17integral_constantIbLb0EE
FNDA:7,_ZNSt14_Function_base13_Base_managerIZ14handleCommandsiRSt6vectorISt10unique_ptrI12ActiveObjectSt14default_deleteIS3_EESaIS6_EERS2_I5GraphS4_ISA_EER10MSTFactoryRS2_I4TreeS4_ISG_EEEUlvE0_E9_M_createIRSK_EEvRSt9_Any_dataOT_St17integral_constantIbLb0EE
FN:158,_ZNSt14_Function_base13_Base_managerIZ14handleCommandsiRSt6vectorISt10unique_ptrI12ActiveObjectSt14default_deleteIS3_EESaIS6_EERS2_I5GraphS4_ISA_EER10MSTFactoryRS2_I4TreeS4_ISG_EEEUlvE1_E9_M_createIRSK_EEvRSt9_Any_dataOT_St17integral_constantIbLb0EE
FNDA:4,_ZNSt14_Function_base13_Base_managerIZ14handleCommandsiRSt6vectorISt10unique_ptrI12ActiveObjectSt14default_deleteIS3_EESaIS6_EERS2_I5GraphS4_ISA_EER10MSTFactoryRS2_I4TreeS4_ISG_EEEUlvE1_E9_M_createIRSK_EEvRSt9_Any_dataOT_St17integral_constantIbLb0EE
FN:158,_ZNSt14_Function_base13_Base_managerIZZZZ14handleCommandsiRSt6vectorISt10unique_ptrI12ActiveObjectSt14default_deleteIS3_EESaIS6_EERS2_I5GraphS4_ISA_EER10MSTFactoryRS2_I4TreeS4_ISG_EEENKUlvE3_clEvENKUlvE_clEvENKUlvE_clEvEUlvE_E9_M_createIRSN_EEvRSt9_Any_dataOT_St17integral_constantIbLb0EE
FNDA:2,_ZNSt14_Function_base13_Base_managerIZZZZ14handleCommandsiRSt6vectorISt10unique_ptrI12ActiveObjectSt14default_deleteIS3_EESaIS6_EERS2_I5GraphS4_ISA_EER10MSTFactoryRS2_I4TreeS4_ISG_EEENKUlvE3_clEvENKUlvE_clEvENKUlvE_clEvEUlvE_E9_M_createIRSN_EEvRSt9_Any_dataOT_St17integral_constantIbLb0EE
FN:158,_ZNSt14_Function_base13_Base_managerIZ14handleCommandsiRSt6vectorISt10unique_ptrI12ActiveObjectSt14default_deleteIS3_EESaIS6_EERS2_I5GraphS4_ISA_EER10MSTFactoryRS2_I4TreeS4_ISG_EEEUlvE2_E9_M_createIRSK_EEvRSt9_Any_dataOT_St17integral_constantIbLb0EE
FNDA:4,_ZNSt14_Function_base13_Base_managerIZ14handleCommandsiRSt6vectorISt10unique_ptrI12ActiveObjectSt14default_deleteIS3_EESaIS6_EERS2_I5GraphS4_ISA_EER10MSTFactoryRS2_I4TreeS4_ISG_EEEUlvE2_E9_M_createIRSK_EEvRSt9_Any_dataOT_St17integral_constantIbLb0EE
FN:158,_ZNSt14_Function_base13_Base_managerIZZZZZZ14handleCommandsiRSt6vectorISt10unique_ptrI12ActiveObjectSt14default_deleteIS3_EESaIS6_EERS2_I5GraphS4_ISA_EER10MSTFactoryRS2_I4TreeS4_ISG_EEENKUlvE3_clEvENKUlvE_clEvENKUlvE_clEvENKUlvE_clEvENKUlvE_clEvEUlvE_E9_M_createIRSP_EEvRSt9_Any_dataOT_St17integral_constantIbLb0EE
FNDA:2,_ZNSt14_Function_base13_Base_managerIZZZZZZ14handleCommandsiRSt6vectorISt10unique_ptrI12ActiveObjectSt14default_deleteIS3_EESaIS6_EERS2_I5GraphS4_ISA_EER10MSTFactoryRS2_I4TreeS4_ISG_EEENKUlvE3_clEvENKUlvE_clEvENKUlvE_clEvENKUlvE_clEvENKUlvE_clEvEUlvE_E9_M_createIRSP_EEvRSt9_Any_dataOT_St17integral_constantIbLb0EE
FN:158,_ZNSt14_Function_base13_Base_managerIZZZZZ14handleCommandsiRSt6vectorISt10unique_ptrI12ActiveObjectSt14default_deleteIS3_EESaIS6_EERS2_I5GraphS4_ISA_EER10MSTFactoryRS2_I4TreeS4_ISG_EEENKUlvE3_clEvENKUlvE_clEvENKUlvE_clEvENKUlvE_clEvEUlvE_E9_M_createIRSO_EEvRSt9_Any_dataOT_St17integral_constantIbLb0EE
FNDA:2,_ZNSt14_Function_base13_Base_managerIZZZZZ14handleCommandsiRSt6vectorISt10unique_ptrI12ActiveObjectSt14default_deleteIS3_EESaIS6_EERS2_I5GraphS4_ISA_EER10MSTFactoryRS2_I4TreeS4_ISG_EEENKUlvE3_clEvENKUlvE_clEvENKUlvE_clEvENKUlvE_clEvEUlvE_E9_M_createIRSO_EEvRSt9_Any_dataOT_St17integral_constantIbLb0EE
FN:158,_ZNSt14_Function_base13_Base_managerIZZZZZZ14handleCommandsiRSt6vectorISt10unique_ptrI12ActiveObjectSt14default_deleteIS3_EESaIS6_EERS2_I5GraphS4_ISA_EER10MSTFactoryRS2_I4TreeS4_ISG_EEENKUlvE3_clEvENKUlvE_clEvENKUlvE_clEvENKUlvE_clEvENKUlvE_clEvEUlvE_E9_M_createIRKSP_EEvRSt9_Any_dataOT_St17integral_constantIbLb0EE
FNDA:0,_ZNSt14_Function_base13_Base_managerIZZZZZZ14handleCommandsiRSt6vectorISt10unique_ptrI12ActiveObjectSt14default_deleteIS3_EESaIS6_EERS2_I5GraphS4_ISA_EER10MSTFactoryRS2_I4TreeS4_ISG_EEENKUlvE3_clEvENKUlvE_clEvENKUlvE_clEvENKUlvE_clEvENKUlvE_clEvEUlvE_E9_M_createIRKSP_EEvRSt9_Any_dataOT_St17integral_constantIbLb0EE
FN:158,_ZNSt14_Function_base13_Base_managerIZ14handleCommandsiRSt6vectorISt10unique_ptrI12ActiveObjectSt14default_deleteIS3_EESaIS6_EERS2_I5GraphS4_ISA_EER10MSTFactoryRS2_I4TreeS4_ISG_EEEUlvE0_E9_M_createIRKSK_EEvRSt9_Any_dataOT_St17integral_constantIbLb0EE
FNDA:0,_ZNSt14_Function_base13_Base_managerIZ14handleCommandsiRSt6vectorISt10unique_ptrI12ActiveObjectSt14default_deleteIS3_EESaIS6_EERS2_I5GraphS4_ISA_EER10MSTFactoryRS2_I4TreeS4_ISG_EEEUlvE0_E9_M_createIRKSK_EEvRSt9_Any_dataOT_St17integral_constantIbLb0EE
FN:158,_ZNSt14_Function_base13_Base_managerIZ14handleCommandsiRSt6vectorISt10unique_ptrI12ActiveObjectSt14default_deleteIS3_EESaIS6_EERS2_I5GraphS4_ISA_EER10MSTFactoryRS2_I4TreeS4_ISG_EEEUlvE_E9_M_createIRKSK_EEvRSt9_Any_dataOT_St17integral_constantIbLb0EE
FNDA:0,_ZNSt14_Function_base13_Base_managerIZ14handleCommandsiRSt6vectorISt10unique_ptrI12ActiveObjectSt14default_deleteIS3_EESaIS6_EERS2_I5GraphS4_ISA_EER10MSTFactoryRS2_I4TreeS4_ISG_EEEUlvE_E9_M_createIRKSK_EEvRSt9_Any_dataOT_St17integral_constantIbLb0EE
FN:158,_ZNSt14_Function_base13_Base_managerIZ14handleCommandsiRSt6vectorISt10unique_ptrI12ActiveObjectSt14default_deleteIS3_EESaIS6_EERS2_I5GraphS4_ISA_EER10MSTFactoryRS2_I4TreeS4_ISG_EEEUlvE1_E9_M_createIRKSK_EEvRSt9_Any_dataOT_St17integral_constantIbLb0EE
FNDA:0,_ZNSt14_Function_base13_Base_managerIZ14handleCommandsiRSt6vectorISt10unique_ptrI12ActiveObjectSt14default_deleteIS3_EESaIS6_EERS2_I5GraphS4_ISA_EER10MSTFactoryRS2_I4TreeS4_ISG_EEEUlvE1_E9_M_createIRKSK_EEvRSt9_Any_dataOT_St17integral_constantIbLb0EE
FN:158,_ZNSt14_Function_base13_Base_managerIZ14handleCommandsiRSt6vectorISt10unique_ptrI12ActiveObjectSt14default_deleteIS3_EESaIS6_EERS2_I5GraphS4_ISA_EER10MSTFactoryRS2_I4TreeS4_ISG_EEEUlvE2_E9_M_createIRKSK_EEvRSt9_Any_dataOT_St17integral_constantIbLb0EE
FNDA:0,_ZNSt14_Function_base13_Base_managerIZ14handleCommandsiRSt6vectorISt10unique_ptrI12ActiveObjectSt14default_deleteIS3_EESaIS6_EERS2_I5GraphS4_ISA_EER10MSTFactoryRS2_I4TreeS4_ISG_EEEUlvE2_E9_M_createIRKSK_EEvRSt9_Any_dataOT_St17integral_constantIbLb0EE
FN:158,_ZNSt14_Function_base13_Base_managerIZZZZZ14handleCommandsiRSt6vectorISt10unique_ptrI12ActiveObjectSt14default_deleteIS3_EESaIS6_EERS2_I5GraphS4_ISA_EER10MSTFactoryRS2_I4TreeS4_ISG_EEENKUlvE3_clEvENKUlvE_clEvENKUlvE_clEvENKUlvE_clEvEUlvE_E9_M_createIRKSO_EEvRSt9_Any_dataOT_St17integral_constantIbLb0EE
FNDA:0,_ZNSt14_Function_base13_Base_managerIZZZZZ14handleCommandsiRSt6vectorISt10unique_ptrI12ActiveObjectSt14default_deleteIS3_EESaIS6_EERS2_I5GraphS4_ISA_EER10MSTFactoryRS2_I4TreeS4_ISG_EEENKUlvE3_clEvENKUlvE_clEvENKUlvE_clEvENKUlvE_clEvEUlvE_E9_M_createIRKSO_EEvRSt9_Any_dataOT_St17integral_constantIbLb0EE
FN:158,_ZNSt14_Function_base13_Base_managerIZZZZ14handleCommandsiRSt6vectorISt10unique_ptrI12ActiveObjectSt14default_deleteIS3_EESaIS6_EERS2_I5GraphS4_ISA_EER10MSTFactoryRS2_I4TreeS4_ISG_EEENKUlvE3_clEvENKUlvE_clEvENKUlvE_clEvEUlvE_E9_M_createIRKSN_EEvRSt9_Any_dataOT_St17integral_constantIbLb0EE
FNDA:0,_ZNSt14_Function_base13_Base_managerIZZZZ14handleCommandsiRSt6vectorISt10unique_ptrI12ActiveObjectSt14default_deleteIS3_EESaIS6_EERS2_I5GraphS4_ISA_EER10MSTFactoryRS2_I4TreeS4_ISG_EEENKUlvE3_clEvENKUlvE_clEvENKUlvE_clEvEUlvE_E9_M_createIRKSN_EEvRSt9_Any_dataOT_St17integral_constantIbLb0EE
FN:158,_ZNSt14_Function_base13_Base_managerIZZZ14handleCommandsiRSt6vectorISt10unique_ptrI12ActiveObjectSt14default_deleteIS3_EESaIS6_EERS2_I5GraphS4_ISA_EER10MSTFactoryRS2_I4TreeS4_ISG_EEENKUlvE3_clEvENKUlvE_clEvEUlvE_E9_M_createIRKSM_EEvRSt9_Any_dataOT_St17integral_constantIbLb0EE
FNDA:0,_ZNSt14_Function_base13_Base_managerIZZZ14handleCommandsiRSt6vectorISt10unique_ptrI12ActiveObjectSt14default_deleteIS3_EESaIS6_EERS2_I5GraphS4_ISA_EER10MSTFactoryRS2_I4TreeS4_ISG_EEENKUlvE3_clEvENKUlvE_clEvEUlvE_E9_M_createIRKSM_EEvRSt9_Any_dataOT_St17integral_constantIbLb0EE
FN:158,_ZNSt14_Function_base13_Base_managerIZ14handleCommandsiRSt6vectorISt10unique_ptrI12ActiveObjectSt14default_deleteIS3_EESaIS6_EERS2_I5GraphS4_ISA_EER10MSTFactoryRS2_I4TreeS4_ISG_EEEUlvE3_E9_M_createIRSK_EEvRSt9_Any_dataOT_St17integral_constantIbLb0EE
FNDA:6,_ZNSt14_Function_base13_Base_managerIZ14handleCommandsiRSt6vectorISt10unique_ptrI12ActiveObjectSt14default_deleteIS3_EESaIS6_EERS2_I5GraphS4_ISA_EER10MSTFactoryRS2_I4TreeS4_ISG_EEEUlvE3_E9_M_createIRSK_EEvRSt9_Any_dataOT_St17integral_constantIbLb0EE
FN:158,_ZNSt14_Function_base13_Base_managerIZ14handleCommandsiRSt6vectorISt10unique_ptrI12ActiveObjectSt14default_deleteIS3_EESaIS6_EERS2_I5GraphS4_ISA_EER10MSTFactoryRS2_I4TreeS4_ISG_EEEUlvE3_E9_M_createIRKSK_EEvRSt9_Any_dataOT_St17integral_constantIbLb0EE
FNDA:0,_ZNSt14_Function_base13_Base_managerIZ14handleCommandsiRSt6vectorISt10unique_ptrI12ActiveObjectSt14default_deleteIS3_EESaIS6_EERS2_I5GraphS4_ISA_EER10MSTFactoryRS2_I4TreeS4_ISG_EEEUlvE3_E9_M_createIRKSK_EEvRSt9_Any_dataOT_St17integral_constantIbLb0EE
FN:158,_ZNSt14_Function_base13_Base_managerIZZ14handleCommandsiRSt6vectorISt10unique_ptrI12ActiveObjectSt14default_deleteIS3_EESaIS6_EERS2_I5GraphS4_ISA_EER10MSTFactoryRS2_I4TreeS4_ISG_EEENKUlvE3_clEvEUlvE_E9_M_createIRSL_EEvRSt9_Any_dataOT_St17integral_constantIbLb0EE
FNDA:2,_ZNSt14_Function_base13_Base_managerIZZ14handleCommandsiRSt6vectorISt10unique_ptrI12ActiveObjectSt14default_deleteIS3_EESaIS6_EERS2_I5GraphS4_ISA_EER10MSTFactoryRS2_I4TreeS4_ISG_EEENKUlvE3_clEvEUlvE_E9_M_createIRSL_EEvRSt9_Any_dataOT_St17integral_constantIbLb0EE
FN:173,_ZNSt14_Function_base13_Base_managerIZZZZ14handleCommandsiRSt6vectorISt10unique_ptrI12ActiveObjectSt14default_deleteIS3_EESaIS6_EERS2_I5GraphS4_ISA_EER10MSTFactoryRS2_I4TreeS4_ISG_EEENKUlvE3_clEvENKUlvE_clEvENKUlvE_clEvEUlvE_E10_M_destroyERSt9_Any_dataSt17integral_constantIbLb0EE
FNDA:2,_ZNSt14_Function_base13_Base_managerIZZZZ14handleCommandsiRSt6vectorISt10unique_ptrI12ActiveObjectSt14default_deleteIS3_EESaIS6_EERS2_I5GraphS4_ISA_EER10MSTFactoryRS2_I4TreeS4_ISG_EEENKUlvE3_clEvENKUlvE_clEvENKUlvE_clEvEUlvE_E10_M_destroyERSt9_Any_dataSt17integral_constantIbLb0EE
FN:173,_ZNSt14_Function_base13_Base_managerIZZZ14handleCommandsiRSt6vectorISt10unique_ptrI12ActiveObjectSt14default_deleteIS3_EESaIS6_EERS2_I5GraphS4_ISA_EER10MSTFactoryRS2_I4TreeS4_ISG_EEENKUlvE3_clEvENKUlvE_clEvEUlvE_E10_M_destroyERSt9_Any_dataSt17integral_constantIbLb0EE
FNDA:2,_ZNSt14_Function_base13_Base_managerIZZZ14handleCommandsiRSt6vectorISt10unique_ptrI12ActiveObjectSt14default_deleteIS3_EESaIS6_EERS2_I5GraphS4_ISA_EER10MSTFactoryRS2_I4TreeS4_ISG_EEENKUlvE3_clEvENKUlvE_clEvEUlvE_E10_M_destroyERSt9_Any_dataSt17integral_constantIbLb0EE
FN:173,_ZNSt14_Function_base13_Base_managerIZZ14handleCommandsiRSt6vectorISt10unique_ptrI12ActiveObjectSt14default_deleteIS3_EESaIS6_EERS2_I5GraphS4_ISA_EER10MSTFactoryRS2_I4TreeS4_ISG_EEENKUlvE3_clEvEUlvE_E10_M_destroyERSt9_Any_dataSt17integral_constantIbLb0EE
FNDA:2,_ZNSt14_Function_base13_Base_managerIZZ14handleCommandsiRSt6vectorISt10unique_ptrI12ActiveObjectSt14default_deleteIS3_EESaIS6_EERS2_I5GraphS4_ISA_EER10MSTFactoryRS2_I4TreeS4_ISG_EEENKUlvE3_clEvEUlvE_E10_M_destroyERSt9_Any_dataSt17integral_constantIbLb0EE
FN:173,_ZNSt14_Function_base13_Base_managerIZZZZZ14handleCommandsiRSt6vectorISt10unique_ptrI12ActiveObjectSt14default_deleteIS3_EESaIS6_EERS2_I5GraphS4_ISA_EER10MSTFactoryRS2_I4TreeS4_ISG_EEENKUlvE3_clEvENKUlvE_clEvENKUlvE_clEvENKUlvE_clEvEUlvE_E10_M_destroyERSt9_Any_dataSt17integral_constantIbLb0EE
FNDA:2,_ZNSt14_Function_base13_Base_managerIZZZZZ14handleCommandsiRSt6vectorISt10unique_ptrI12ActiveObjectSt14default_deleteIS3_EESaIS6_EERS2_I5GraphS4_ISA_EER10MSTFactoryRS2_I4TreeS4_ISG_EEENKUlvE3_clEvENKUlvE_clEvENKUlvE_clEvENKUlvE_clEvEUlvE_E10_M_destroyERSt9_Any_dataSt17integral_constantIbLb0EE
FN:173,_ZNSt14_Function_base13_Base_managerIZ14handleCommandsiRSt6vectorISt10unique_ptrI12ActiveObjectSt14default_deleteIS3_EESaIS6_EERS2_I5GraphS4_ISA_EER10MSTFactoryRS2_I4TreeS4_ISG_EEEUlvE3_E10_M_destroyERSt9_Any_dataSt17integral_constantIbLb0EE
FNDA:6,_ZNSt14_Function_base13_Base_managerIZ14handleCommandsiRSt6vectorISt10unique_ptrI12ActiveObjectSt14default_deleteIS3_EESaIS6_EERS2_I5GraphS4_ISA_EER10MSTFactoryRS2_I4TreeS4_ISG_EEEUlvE3_E10_M_destroyERSt9_Any_dataSt17integral_constantIbLb0EE
FN:173,_ZNSt14_Function_base13_Base_managerIZZZZZZ14handleCommandsiRSt6vectorISt10unique_ptrI12ActiveObjectSt14default_deleteIS3_EESaIS6_EERS2_I5GraphS4_ISA_EER10MSTFactoryRS2_I4TreeS4_ISG_EEENKUlvE3_clEvENKUlvE_clEvENKUlvE_clEvENKUlvE_clEvENKUlvE_clEvEUlvE_E10_M_destroyERSt9_Any_dataSt17integral_constantIbLb0EE
FNDA:2,_ZNSt14_Function_base13_Base_managerIZZZZZZ14handleCommandsiRSt6vectorISt10unique_ptrI12ActiveObjectSt14default_deleteIS3_EESaIS6_EERS2_I5GraphS4_ISA_EER10MSTFactoryRS2_I4TreeS4_ISG_EEENKUlvE3_clEvENKUlvE_clEvENKUlvE_clEvENKUlvE_clEvENKUlvE_clEvEUlvE_E10_M_destroyERSt9_Any_dataSt17integral_constantIbLb0EE
FN:173,_ZNSt14_Function_base13_Base_managerIZ14handleCommandsiRSt6vectorISt10unique_ptrI12ActiveObjectSt14default_deleteIS3_EESaIS6_EERS2_I5GraphS4_ISA_EER10MSTFactoryRS2_I4TreeS4_ISG_EEEUlvE2_E10_M_destroyERSt9_Any_dataSt17integral_constantIbLb0EE
FNDA:4,_ZNSt14_Function_base13_Base_managerIZ14handleCommandsiRSt6vectorISt10unique_ptrI12ActiveObjectSt14default_deleteIS3_EESaIS6_EERS2_I5GraphS4_ISA_EER10MSTFactoryRS2_I4TreeS4_ISG_EEEUlvE2_E10_M_destroyERSt9_Any_dataSt17integral_constantIbLb0EE
FN:173,_ZNSt14_Function_base13_Base_managerIZ4mainEUliE_E10_M_destroyERSt9_Any_dataSt17integral_constantIbLb0EE
FNDA:2,_ZNSt14_Function_base13_Base_managerIZ4mainEUliE_E10_M_destroyERSt9_Any_dataSt17integral_constantIbLb0EE
FN:173,_ZNSt14_Function_base13_Base_managerIZ14handleCommandsiRSt6vectorISt10unique_ptrI12ActiveObjectSt14default_deleteIS3_EESaIS6_EERS2_I5GraphS4_ISA_EER10MSTFactoryRS2_I4TreeS4_ISG_EEEUlvE1_E10_M_destroyERSt9_Any_dataSt17integral_constantIbLb0EE
FNDA:4,_ZNSt14_Function_base13_Base_managerIZ14handleCommandsiRSt6vectorISt10unique_ptrI12ActiveObjectSt14default_deleteIS3_EESaIS6_EERS2_I5GraphS4_ISA_EER10MSTFactoryRS2_I4TreeS4_ISG_EEEUlvE1_E10_M_destroyERSt9_Any_dataSt17integral_constantIbLb0EE
FN:173,_ZNSt14_Function_base13_Base_managerIZ14handleCommandsiRSt6vectorISt10unique_ptrI12ActiveObjectSt14default_deleteIS3_EESaIS6_EERS2_I5GraphS4_ISA_EER10MSTFactoryRS2_I4TreeS4_ISG_EEEUlvE0_E10_M_destroyERSt9_Any_dataSt17integral_constantIbLb0EE
FNDA:7,_ZNSt14_Function_base13_Base_managerIZ14handleCommandsiRSt6vectorISt10unique_ptrI12ActiveObjectSt14default_deleteIS3_EESaIS6_EERS2_I5GraphS4_ISA_EER10MSTFactoryRS2_I4TreeS4_ISG_EEEUlvE0_E10_M_destroyERSt9_Any_dataSt17integral_constantIbLb0EE
FN:173,_ZNSt14_Function_base13_Base_managerIZ14handleCommandsiRSt6vectorISt10unique_ptrI12ActiveObjectSt14default_deleteIS3_EESaIS6_EERS2_I5GraphS4_ISA_EER10MSTFactoryRS2_I4TreeS4_ISG_EEEUlvE_E10_M_destroyERSt9_Any_dataSt17integral_constantIbLb0EE
FNDA:4,_ZNSt14_Function_base13_Base_managerIZ14handleCommandsiRSt6vectorISt10unique_ptrI12ActiveObjectSt14default_deleteIS3_EESaIS6_EERS2_I5GraphS4_ISA_EER10MSTFactoryRS2_I4TreeS4_ISG_EEEUlvE_E10_M_destroyERSt9_Any_dataSt17integral_constantIbLb0EE
FN:180,_ZNSt14_Function_base13_Base_managerIZ4mainEUliE_E10_M_managerERSt9_Any_dataRKS3_St18_Manager_operation
FNDA:2,_ZNSt14_Function_base13_Base_managerIZ4mainEUliE_E10_M_managerERSt9_Any_dataRKS3_St18_Manager_operation
FN:180,_ZNSt14_Function_base13_Base_managerIZ14handleCommandsiRSt6vectorISt10unique_ptrI12ActiveObjectSt14default_deleteIS3_EESaIS6_EERS2_I5GraphS4_ISA_EER10MSTFactoryRS2_I4TreeS4_ISG_EEEUlvE_E10_M_managerERSt9_Any_dataRKSM_St18_Manager_operation
FNDA:4,_ZNSt14_Function_base13_Base_managerIZ14handleCommandsiRSt6vectorISt10unique_ptrI12ActiveObjectSt14default_deleteIS3_EESaIS6_EERS2_I5GraphS4_ISA_EER10MSTFactoryRS2_I4TreeS4_ISG_EEEUlvE_E10_M_managerERSt9_Any_dataRKSM_St18_Manager_operation
FN:180,_ZNSt14_Function_base13_Base_managerIZZZ14handleCommandsiRSt6vectorISt10unique_ptrI12ActiveObjectSt14default_deleteIS3_EESaIS6_EERS2_I5GraphS4_ISA_EER10MSTFactoryRS2_I4TreeS4_ISG_EEENKUlvE3_clEvENKUlvE_clEvEUlvE_E10_M_managerERSt9_Any_dataRKSO_St18_Manager_operation
FNDA:2,_ZNSt14_Function_base13_Base_managerIZZZ14handleCommandsiRSt6vectorISt10unique_ptrI12ActiveObjectSt14default_deleteIS3_EESaIS6_EERS2_I5GraphS4_ISA_EER10MSTFactoryRS2_I4TreeS4_ISG_EEENKUlvE3_clEvENKUlvE_clEvEUlvE_E10_M_managerERSt9_Any_dataRKSO_St18_Manager_operation
FN:180,_ZNSt14_Function_base13_Base_managerIZ14handleCommandsiRSt6vectorISt10unique_ptrI12ActiveObjectSt14default_deleteIS3_EESaIS6_EERS2_I5GraphS4_ISA_EER10MSTFactoryRS2_I4TreeS4_ISG_EEEUlvE0_E10_M_managerERSt9_Any_dataRKSM_St18_Manager_operation
FNDA:7,_ZNSt14_Function_base13_Base_managerIZ14handleCommandsiRSt6vectorISt10unique_ptrI12ActiveObjectSt14default_deleteIS3_EESaIS6_EERS2_I5GraphS4_ISA_EER10MSTFactoryRS2_I4TreeS4_ISG_EEEUlvE0_E10_M_managerERSt9_Any_dataRKSM_St18_Manager_operation
FN:180,_ZNSt14_Function_base13_Base_managerIZZ14handleCommandsiRSt6vectorISt10unique_ptrI12ActiveObjectSt14default_deleteIS3_EESaIS6_EERS2_I5GraphS4_ISA_EER10MSTFactoryRS2_I4TreeS4_ISG_EEENKUlvE3_clEvEUlvE_E10_M_managerERSt9_Any_dataRKSN_St18_Manager_operation
FNDA:2,_ZNSt14_Function_base13_Base_managerIZZ14handleCommandsiRSt6vectorISt10unique_ptrI12ActiveObjectSt14default_deleteIS3_EESaIS6_EERS2_I5GraphS4_ISA_EER10MSTFactoryRS2_I4TreeS4_ISG_EEENKUlvE3_clEvEUlvE_E10_M_managerERSt9_Any_dataRKSN_St18_Manager_operation
FN:180,_ZNSt14_Function_base13_Base_managerIZ14handleCommandsiRSt6vectorISt10unique_ptrI12ActiveObjectSt14default_deleteIS3_EESaIS6_EERS2_I5GraphS4_ISA_EER10MSTFactoryRS2_I4TreeS4_ISG_EEEUlvE3_E10_M_managerERSt9_Any_dataRKSM_St18_Manager_operation
FNDA:6,_ZNSt14_Function_base13_Base_managerIZ14handleCommandsiRSt6vectorISt10unique_ptrI12ActiveObjectSt14default_deleteIS3_EESaIS6_EERS2_I5GraphS4_ISA_EER10MSTFactoryRS2_I4TreeS4_ISG_EEEUlvE3_E10_M_managerERSt9_Any_dataRKSM_St18_Manager_operation
FN:180,_ZNSt14_Function_base13_Base_managerIZ14handleCommandsiRSt6vectorISt10unique_ptrI12ActiveObjectSt14default_deleteIS3_EESaIS6_EERS2_I5GraphS4_ISA_EER10MSTFactoryRS2_I4TreeS4_ISG_EEEUlvE1_E10_M_managerERSt9_Any_dataRKSM_St18_Manager_operation
FNDA:4,_ZNSt14_Function_base13_Base_managerIZ14handleCommandsiRSt6vectorISt10unique_ptrI12ActiveObjectSt14default_deleteIS3_EESaIS6_EERS2_I5GraphS4_ISA_EER10MSTFactoryRS2_I4TreeS4_ISG_EEEUlvE1_E10_M_managerERSt9_Any_dataRKSM_St18_Manager_operation
FN:180,_ZNSt14_Function_base13_Base_managerIZZZZ14handleCommandsiRSt6vectorISt10unique_ptrI12ActiveObjectSt14default_deleteIS3_EESaIS6_EERS2_I5GraphS4_ISA_EER10MSTFactoryRS2_I4TreeS4_ISG_EEENKUlvE3_clEvENKUlvE_clEvENKUlvE_clEvEUlvE_E10_M_managerERSt9_Any_dataRKSP_St18_Manager_operation
FNDA:2,_ZNSt14_Function_base13_Base_managerIZZZZ14handleCommandsiRSt6vectorISt10unique_ptrI12ActiveObjectSt14default_deleteIS3_EESaIS6_EERS2_I5GraphS4_ISA_EER10MSTFactoryRS2_I4TreeS4_ISG_EEENKUlvE3_clEvENKUlvE_clEvENKUlvE_clEvEUlvE_E10_M_managerERSt9_Any_dataRKSP_St18_Manager_operation
FN:180,_ZNSt14_Function_base13_Base_managerIZ14handleCommandsiRSt6vectorISt10unique_ptrI12ActiveObjectSt14default_deleteIS3_EESaIS6_EERS2_I5GraphS4_ISA_EER10MSTFactoryRS2_I4TreeS4_ISG_EEEUlvE2_E10_M_managerERSt9_Any_dataRKSM_St18_Manager_operation
FNDA:4,_ZNSt14_Function_base13_Base_managerIZ14handleCommandsiRSt6vectorISt10unique_ptrI12ActiveObjectSt14default_deleteIS3_EESaIS6_EERS2_I5GraphS4_ISA_EER10MSTFactoryRS2_I4TreeS4_ISG_EEEUlvE2_E10_M_managerERSt9_Any_dataRKSM_St18_Manager_operation
FN:180,_ZNSt14_Function_base13_Base_managerIZZZZZ14handleCommandsiRSt6vectorISt10unique_ptrI12ActiveObjectSt14default_deleteIS3_EESaIS6_EERS2_I5GraphS4_ISA_EER10MSTFactoryRS2_I4TreeS4_ISG_EEENKUlvE3_clEvENKUlvE_clEvENKUlvE_clEvENKUlvE_clEvEUlvE_E10_M_managerERSt9_Any_dataRKSQ_St18_Manager_operation
FNDA:2,_ZNSt14_Function_base13_Base_managerIZZZZZ14handleCommandsiRSt6vectorISt10unique_ptrI12ActiveObjectSt14default_deleteIS3_EESaIS6_EERS2_I5GraphS4_ISA_EER10MSTFactoryRS2_I4TreeS4_ISG_EEENKUlvE3_clEvENKUlvE_clEvENKUlvE_clEvENKUlvE_clEvEUlvE_E10_M_managerERSt9_Any_dataRKSQ_St18_Manager_operation
FN:180,_ZNSt14_Function_base13_Base_managerIZZZZZZ14handleCommandsiRSt6vectorISt10unique_ptrI12ActiveObjectSt14default_deleteIS3_EESaIS6_EERS2_I5GraphS4_ISA_EER10MSTFactoryRS2_I4TreeS4_ISG_EEENKUlvE3_clEvENKUlvE_clEvENKUlvE_clEvENKUlvE_clEvENKUlvE_clEvEUlvE_E10_M_managerERSt9_Any_dataRKSR_St18_Manager_operation
FNDA:2,_ZNSt14_Function_base13_Base_managerIZZZZZZ14handleCommandsiRSt6vectorISt10unique_ptrI12ActiveObjectSt14default_deleteIS3_EESaIS6_EERS2_I5GraphS4_ISA_EER10MSTFactoryRS2_I4TreeS4_ISG_EEENKUlvE3_clEvENKUlvE_clEvENKUlvE_clEvENKUlvE_clEvENKUlvE_clEvEUlvE_E10_M_managerERSt9_Any_dataRKSR_St18_Manager_operation
FN:211,_ZNSt14_Function_base13_Base_managerIZZZZ14handleCommandsiRSt6vectorISt10unique_ptrI12ActiveObjectSt14default_deleteIS3_EESaIS6_EERS2_I5GraphS4_ISA_EER10MSTFactoryRS2_I4TreeS4_ISG_EEENKUlvE3_clEvENKUlvE_clEvENKUlvE_clEvEUlvE_E15_M_init_functorIRSN_EEvRSt9_Any_dataOT_
FNDA:2,_ZNSt14_Function_base13_Base_managerIZZZZ14handleCommandsiRSt6vectorISt10unique_ptrI12ActiveObjectSt14default_deleteIS3_EESaIS6_EERS2_I5GraphS4_ISA_EER10MSTFactoryRS2_I4TreeS4_ISG_EEENKUlvE3_clEvENKUlvE_clEvENKUlvE_clEvEUlvE_E15_M_init_functorIRSN_EEvRSt9_Any_dataOT_
FN:211,_ZNSt14_Function_base13_Base_managerIZZZ14handleCommandsiRSt6vectorISt10unique_ptrI12ActiveObjectSt14default_deleteIS3_EESaIS6_EERS2_I5GraphS4_ISA_EER10MSTFactoryRS2_I4TreeS4_ISG_EEENKUlvE3_clEvENKUlvE_clEvEUlvE_E15_M_init_functorIRKSM_EEvRSt9_Any_dataOT_
FNDA:0,_ZNSt14_Function_base13_Base_managerIZZZ14handleCommandsiRSt6vectorISt10unique_ptrI12ActiveObjectSt14default_deleteIS3_EESaIS6_EERS2_I5GraphS4_ISA_EER10MSTFactoryRS2_I4TreeS4_ISG_EEENKUlvE3_clEvENKUlvE_clEvEUlvE_E15_M_init_functorIRKSM_EEvRSt9_Any_dataOT_
FN:211,_ZNSt14_Function_base13_Base_managerIZZZZZ14handleCommandsiRSt6vectorISt10unique_ptrI12ActiveObjectSt14default_deleteIS3_EESaIS6_EERS2_I5GraphS4_ISA_EER10MSTFactoryRS2_I4TreeS4_ISG_EEENKUlvE3_clEvENKUlvE_clEvENKUlvE_clEvENKUlvE_clEvEUlvE_E15_M_init_functorIRSO_EEvRSt9_Any_dataOT_
FNDA:2,_ZNSt14_Function_base13_Base_managerIZZZZZ14handleCommandsiRSt6vectorISt10unique_ptrI12ActiveObjectSt14default_deleteIS3_EESaIS6_EERS2_I5GraphS4_ISA_EER10MSTFactoryRS2_I4TreeS4_ISG_EEENKUlvE3_clEvENKUlvE_clEvENKUlvE_clEvENKUlvE_clEvEUlvE_E15_M_init_functorIRSO_EEvRSt9_Any_dataOT_
FN:211,_ZNSt14_Function_base13_Base_managerIZZZZZZ14handleCommandsiRSt6vectorISt10unique_ptrI12ActiveObjectSt14default_deleteIS3_EESaIS6_EERS2_I5GraphS4_ISA_EER10MSTFactoryRS2_I4TreeS4_ISG_EEENKUlvE3_clEvENKUlvE_clEvENKUlvE_clEvENKUlvE_clEvENKUlvE_clEvEUlvE_E15_M_init_functorIRSP_EEvRSt9_Any_dataOT_
FNDA:2,_ZNSt14_Function_base13_Base_managerIZZZZZZ14handleCommandsiRSt6vectorISt10unique_ptrI12ActiveObjectSt14default_deleteIS3_EESaIS6_EERS2_I5GraphS4_ISA_EER10MSTFactoryRS2_I4TreeS4_ISG_EEENKUlvE3_clEvENKUlvE_clEvENKUlvE_clEvENKUlvE_clEvENKUlvE_clEvEUlvE_E15_M_init_functorIRSP_EEvRSt9_Any_dataOT_
FN:211,_ZNSt14_Function_base13_Base_managerIZ14handleCommandsiRSt6vectorISt10unique_ptrI12ActiveObjectSt14default_deleteIS3_EESaIS6_EERS2_I5GraphS4_ISA_EER10MSTFactoryRS2_I4TreeS4_ISG_EEEUlvE2_E15_M_init_functorIRSK_EEvRSt9_Any_dataOT_
FNDA:4,_ZNSt14_Function_base13_Base_managerIZ14handleCommandsiRSt6vectorISt10unique_ptrI12ActiveObjectSt14default_deleteIS3_EESaIS6_EERS2_I5GraphS4_ISA_EER10MSTFactoryRS2_I4TreeS4_ISG_EEEUlvE2_E15_M_init_functorIRSK_EEvRSt9_Any_dataOT_
FN:211,_ZNSt14_Function_base13_Base_managerIZ14handleCommandsiRSt6vectorISt10unique_ptrI12ActiveObjectSt14default_deleteIS3_EESaIS6_EERS2_I5GraphS4_ISA_EER10MSTFactoryRS2_I4TreeS4_ISG_EEEUlvE1_E15_M_init_functorIRSK_EEvRSt9_Any_dataOT_
FNDA:4,_ZNSt14_Function_base13_Base_managerIZ14handleCommandsiRSt6vectorISt10unique_ptrI12ActiveObjectSt14default_deleteIS3_EESaIS6_EERS2_I5GraphS4_ISA_EER10MSTFactoryRS2_I4TreeS4_ISG_EEEUlvE1_E15_M_init_functorIRSK_EEvRSt9_Any_dataOT_
FN:211,_ZNSt14_Function_base13_Base_managerIZ14handleCommandsiRSt6vectorISt10unique_ptrI12ActiveObjectSt14default_deleteIS3_EESaIS6_EERS2_I5GraphS4_ISA_EER10MSTFactoryRS2_I4TreeS4_ISG_EEEUlvE0_E15_M_init_functorIRSK_EEvRSt9_Any_dataOT_
FNDA:7,_ZNSt14_Function_base13_Base_managerIZ14handleCommandsiRSt6vectorISt10unique_ptrI12ActiveObjectSt14default_deleteIS3_EESaIS6_EERS2_I5GraphS4_ISA_EER10MSTFactoryRS2_I4TreeS4_ISG_EEEUlvE0_E15_M_init_functorIRSK_EEvRSt9_Any_dataOT_
FN:211,_ZNSt14_Function_base13_Base_managerIZ14handleCommandsiRSt6vectorISt10unique_ptrI12ActiveObjectSt14default_deleteIS3_EESaIS6_EERS2_I5GraphS4_ISA_EER10MSTFactoryRS2_I4TreeS4_ISG_EEEUlvE_E15_M_init_functorIRSK_EEvRSt9_Any_dataOT_
FNDA:4,_ZNSt14_Function_base13_Base_managerIZ14handleCommandsiRSt6vectorISt10unique_ptrI12ActiveObjectSt14default_deleteIS3_EESaIS6_EERS2_I5GraphS4_ISA_EER10MSTFactoryRS2_I4TreeS4_ISG_EEEUlvE_E15_M_init_functorIRSK_EEvRSt9_Any_dataOT_
FN:211,_ZNSt14_Function_base13_Base_managerIZ14handleCommandsiRSt6vectorISt10unique_ptrI12ActiveObjectSt14default_deleteIS3_EESaIS6_EERS2_I5GraphS4_ISA_EER10MSTFactoryRS2_I4TreeS4_ISG_EEEUlvE2_E15_M_init_functorIRKSK_EEvRSt9_Any_dataOT_
FNDA:0,_ZNSt14_Function_base13_Base_managerIZ14handleCommandsiRSt6vectorISt10unique_ptrI12ActiveObjectSt14default_deleteIS3_EESaIS6_EERS2_I5GraphS4_ISA_EER10MSTFactoryRS2_I4TreeS4_ISG_EEEUlvE2_E15_M_init_functorIRKSK_EEvRSt9_Any_dataOT_
FN:211,_ZNSt14_Function_base13_Base_managerIZ4mainEUliE_E15_M_init_functorIRKS1_EEvRSt9_Any_dataOT_
FNDA:0,_ZNSt14_Function_base13_Base_managerIZ4mainEUliE_E15_M_init_functorIRKS1_EEvRSt9_Any_dataOT_
FN:211,_ZNSt14_Function_base13_Base_managerIZ14handleCommandsiRSt6vectorISt10unique_ptrI12ActiveObjectSt14default_deleteIS3_EESaIS6_EERS2_I5GraphS4_ISA_EER10MSTFactoryRS2_I4TreeS4_ISG_EEEUlvE1_E15_M_init_functorIRKSK_EEvRSt9_Any_dataOT_
FNDA:0,_ZNSt14_Function_base13_Base_managerIZ14handleCommandsiRSt6vectorISt10unique_ptrI12ActiveObjectSt14default_deleteIS3_EESaIS6_EERS2_I5GraphS4_ISA_EER10MSTFactoryRS2_I4TreeS4_ISG_EEEUlvE1_E15_M_init_functorIRKSK_EEvRSt9_Any_dataOT_
FN:211,_ZNSt14_Function_base13_Base_managerIZ14handleCommandsiRSt6vectorISt10unique_ptrI12ActiveObjectSt14default_deleteIS3_EESaIS6_EERS2_I5GraphS4_ISA_EER10MSTFactoryRS2_I4TreeS4_ISG_EEEUlvE0_E15_M_init_functorIRKSK_EEvRSt9_Any_dataOT_
FNDA:0,_ZNSt14_Function_base13_Base_managerIZ14handleCommandsiRSt6vectorISt10unique_ptrI12ActiveObjectSt14default_deleteIS3_EESaIS6_EERS2_I5GraphS4_ISA_EER10MSTFactoryRS2_I4TreeS4_ISG_EEEUlvE0_E15_M_init_functorIRKSK_EEvRSt9_Any_dataOT_
FN:211,_ZNSt14_Function_base13_Base_managerIZ14handleCommandsiRSt6vectorISt10unique_ptrI12ActiveObjectSt14default_deleteIS3_EESaIS6_EERS2_I5GraphS4_ISA_EER10MSTFactoryRS2_I4TreeS4_ISG_EEEUlvE_E15_M_init_functorIRKSK_EEvRSt9_Any_dataOT_
FNDA:0,_ZNSt14_Function_base13_Base_managerIZ14handleCommandsiRSt6vectorISt10unique_ptrI12ActiveObjectSt14default_deleteIS3_EESaIS6_EERS2_I5GraphS4_ISA_EER10MSTFactoryRS2_I4TreeS4_ISG_EEEUlvE_E15_M_init_functorIRKSK_EEvRSt9_Any_dataOT_
FN:211,_ZNSt14_Function_base13_Base_managerIZ4mainEUliE_E15_M_init_functorIS1_EEvRSt9_Any_dataOT_
FNDA:2,_ZNSt14_Function_base13_Base_managerIZ4mainEUliE_E15_M_init_functorIS1_EEvRSt9_Any_dataOT_
FN:211,_ZNSt14_Function_base13_Base_managerIZZ14handleCommandsiRSt6vectorISt10unique_ptrI12ActiveObjectSt14default_deleteIS3_EESaIS6_EERS2_I5GraphS4_ISA_EER10MSTFactoryRS2_I4TreeS4_ISG_EEENKUlvE3_clEvEUlvE_E15_M_init_functorIRKSL_EEvRSt9_Any_dataOT_
FNDA:0,_ZNSt14_Function_base13_Base_managerIZZ14handleCommandsiRSt6vectorISt10unique_ptrI12ActiveObjectSt14default_deleteIS3_EESaIS6_EERS2_I5GraphS4_ISA_EER10MSTFactoryRS2_I4TreeS4_ISG_EEENKUlvE3_clEvEUlvE_E15_M_init_functorIRKSL_EEvRSt9_Any_dataOT_
FN:211,_ZNSt14_Function_base13_Base_managerIZZZZ14handleCommandsiRSt6vectorISt10unique_ptrI12ActiveObjectSt14default_deleteIS3_EESaIS6_EERS2_I5GraphS4_ISA_EER10MSTFactoryRS2_I4TreeS4_ISG_EEENKUlvE3_clEvENKUlvE_clEvENKUlvE_clEvEUlvE_E15_M_init_functorIRKSN_EEvRSt9_Any_dataOT_
FNDA:0,_ZNSt14_Function_base13_Base_managerIZZZZ14handleCommandsiRSt6vectorISt10unique_ptrI12ActiveObjectSt14default_deleteIS3_EESaIS6_EERS2_I5GraphS4_ISA_EER10MSTFactoryRS2_I4TreeS4_ISG_EEENKUlvE3_clEvENKUlvE_clEvENKUlvE_clEvEUlvE_E15_M_init_functorIRKSN_EEvRSt9_Any_dataOT_
FN:211,_ZNSt14_Function_base13_Base_managerIZ14handleCommandsiRSt6vectorISt10unique_ptrI12ActiveObjectSt14default_deleteIS3_EESaIS6_EERS2_I5GraphS4_ISA_EER10MSTFactoryRS2_I4TreeS4_ISG_EEEUlvE3_E15_M_init_functorIRKSK_EEvRSt9_Any_dataOT_
FNDA:0,_ZNSt14_Function_base13_Base_managerIZ14handleCommandsiRSt6vectorISt10unique_ptrI12ActiveObjectSt14default_deleteIS3_EESaIS6_EERS2_I5GraphS4_ISA_EER10MSTFactoryRS2_I4TreeS4_ISG_EEEUlvE3_E15_M_init_functorIRKSK_EEvRSt9_Any_dataOT_
FN:211,_ZNSt14_Function_base13_Base_managerIZZZZZ14handleCommandsiRSt6vectorISt10unique_ptrI12ActiveObjectSt14default_deleteIS3_EESaIS6_EERS2_I5GraphS4_ISA_EER10MSTFactoryRS2_I4TreeS4_ISG_EEENKUlvE3_clEvENKUlvE_clEvENKUlvE_clEvENKUlvE_clEvEUlvE_E15_M_init_functorIRKSO_EEvRSt9_Any_dataOT_
FNDA:0,_ZNSt14_Function_base13_Base_managerIZZZZZ14handleCommandsiRSt6vectorISt10unique_ptrI12ActiveObjectSt14default_deleteIS3_EESaIS6_EERS2_I5GraphS4_ISA_EER10MSTFactoryRS2_I4TreeS4_ISG_EEENKUlvE3_clEvENKUlvE_clEvENKUlvE_clEvENKUlvE_clEvEUlvE_E15_M_init_functorIRKSO_EEvRSt9_Any_dataOT_
FN:211,_ZNSt14_Function_base13_Base_managerIZZZZZZ14handleCommandsiRSt6vectorISt10unique_ptrI12ActiveObjectSt14default_deleteIS3_EESaIS6_EERS2_I5GraphS4_ISA_EER10MSTFactoryRS2_I4TreeS4_ISG_EEENKUlvE3_clEvENKUlvE_clEvENKUlvE_clEvENKUlvE_clEvENKUlvE_clEvEUlvE_E15_M_init_functorIRKSP_EEvRSt9_Any_dataOT_
FNDA:0,_ZNSt14_Function_base13_Base_managerIZZZZZZ14handleCommandsiRSt6vectorISt10unique_ptrI12ActiveObjectSt14default_deleteIS3_EESaIS6_EERS2_I5GraphS4_ISA_EER10MSTFactoryRS2_I4TreeS4_ISG_EEENKUlvE3_clEvENKUlvE_clEvENKUlvE_clEvENKUlvE_clEvENKUlvE_clEvEUlvE_E15_M_init_functorIRKSP_EEvRSt9_Any_dataOT_
FN:211,_ZNSt14_Function_base13_Base_managerIZ14handleCommandsiRSt6vectorISt10unique_ptrI12ActiveObjectSt14default_deleteIS3_EESaIS6_EERS2_I5GraphS4_ISA_EER10MSTFactoryRS2_I4TreeS4_ISG_EEEUlvE3_E15_M_init_functorIRSK_EEvRSt9_Any_dataOT_
FNDA:6,_ZNSt14_Function_base13_Base_managerIZ14handleCommandsiRSt6vectorISt10unique_ptrI12ActiveObjectSt14default_deleteIS3_EESaIS6_EERS2_I5GraphS4_ISA_EER10MSTFactoryRS2_I4TreeS4_ISG_EEEUlvE3_E15_M_init_functorIRSK_EEvRSt9_Any_dataOT_
FN:211,_ZNSt14_Function_base13_Base_managerIZZZ14handleCommandsiRSt6vectorISt10unique_ptrI12ActiveObjectSt14default_deleteIS3_EESaIS6_EERS2_I5GraphS4_ISA_EER10MSTFactoryRS2_I4TreeS4_ISG_EEENKUlvE3_clEvENKUlvE_clEvEUlvE_E15_M_init_functorIRSM_EEvRSt9_Any_dataOT_
FNDA:2,_ZNSt14_Function_base13_Base_managerIZZZ14handleCommandsiRSt6vectorISt10unique_ptrI12ActiveObjectSt14default_deleteIS3_EESaIS6_EERS2_I5GraphS4_ISA_EER10MSTFactoryRS2_I4TreeS4_ISG_EEENKUlvE3_clEvENKUlvE_clEvEUlvE_E15_M_init_functorIRSM_EEvRSt9_Any_dataOT_
FN:211,_ZNSt14_Function_base13_Base_managerIZZ14handleCommandsiRSt6vectorISt10unique_ptrI12ActiveObjectSt14default_deleteIS3_EESaIS6_EERS2_I5GraphS4_ISA_EER10MSTFactoryRS2_I4TreeS4_ISG_EEENKUlvE3_clEvEUlvE_E15_M_init_functorIRSL_EEvRSt9_Any_dataOT_
FNDA:2,_ZNSt14_Function_base13_Base_managerIZZ14handleCommandsiRSt6vectorISt10unique_ptrI12ActiveObjectSt14default_deleteIS3_EESaIS6_EERS2_I5GraphS4_ISA_EER10MSTFactoryRS2_I4TreeS4_ISG_EEENKUlvE3_clEvEUlvE_E15_M_init_functorIRSL_EEvRSt9_Any_dataOT_
FN:235,_ZNSt14_Function_base13_Base_managerIZ14handleCommandsiRSt6vectorISt10unique_ptrI12ActiveObjectSt14default_deleteIS3_EESaIS6_EERS2_I5GraphS4_ISA_EER10MSTFactoryRS2_I4TreeS4_ISG_EEEUlvE3_E21_M_not_empty_functionISK_EEbRKT_
FNDA:6,_ZNSt14_Function_base13_Base_managerIZ14handleCommandsiRSt6vectorISt10unique_ptrI12ActiveObjectSt14default_deleteIS3_EESaIS6_EERS2_I5GraphS4_ISA_EER10MSTFactoryRS2_I4TreeS4_ISG_EEEUlvE3_E21_M_not_empty_functionISK_EEbRKT_
FN:235,_ZNSt14_Function_base13_Base_managerIZ4mainEUliE_E21_M_not_empty_functionIS1_EEbRKT_
FNDA:2,_ZNSt14_Function_base13_Base_managerIZ4mainEUliE_E21_M_not_empty_functionIS1_EEbRKT_
FN:235,_ZNSt14_Function_base13_Base_managerIZ14handleCommandsiRSt6vectorISt10unique_ptrI12ActiveObjectSt14default_deleteIS3_EESaIS6_EERS2_I5GraphS4_ISA_EER10MSTFactoryRS2_I4TreeS4_ISG_EEEUlvE_E21_M_not_empty_functionISK_EEbRKT_
FNDA:4,_ZNSt14_Function_base13_Base_managerIZ14handleCommandsiRSt6vectorISt10unique_ptrI12ActiveObjectSt14default_deleteIS3_EESaIS6_EERS2_I5GraphS4_ISA_EER10MSTFactoryRS2_I4TreeS4_ISG_EEEUlvE_E21_M_not_empty_functionISK_EEbRKT_
FN:235,_ZNSt14_Function_base13_Base_managerIZ14handleCommandsiRSt6vectorISt10unique_ptrI12ActiveObjectSt14default_deleteIS3_EESaIS6_EERS2_I5GraphS4_ISA_EER10MSTFactoryRS2_I4TreeS4_ISG_EEEUlvE0_E21_M_not_empty_functionISK_EEbRKT_
FNDA:7,_ZNSt14_Function_base13_Base_managerIZ14handleCommandsiRSt6vectorISt10unique_ptrI12ActiveObjectSt14default_deleteIS3_EESaIS6_EERS2_I5GraphS4_ISA_EER10MSTFactoryRS2_I4TreeS4_ISG_EEEUlvE0_E21_M_not_empty_functionISK_EEbRKT_
FN:235,_ZNSt14_Function_base13_Base_managerIZZ14handleCommandsiRSt6vectorISt10unique_ptrI12ActiveObjectSt14default_deleteIS3_EESaIS6_EERS2_I5GraphS4_ISA_EER10MSTFactoryRS2_I4TreeS4_ISG_EEENKUlvE3_clEvEUlvE_E21_M_not_empty_functionISL_EEbRKT_
FNDA:2,_ZNSt14_Function_base13_Base_managerIZZ14handleCommandsiRSt6vectorISt10unique_ptrI12ActiveObjectSt14default_deleteIS3_EESaIS6_EERS2_I5GraphS4_ISA_EER10MSTFactoryRS2_I4TreeS4_ISG_EEENKUlvE3_clEvEUlvE_E21_M_not_empty_functionISL_EEbRKT_
FN:235,_ZNSt14_Function_base13_Base_managerIZ14handleCommandsiRSt6vectorISt10unique_ptrI12ActiveObjectSt14default_deleteIS3_EESaIS6_EERS2_I5GraphS4_ISA_EER10MSTFactoryRS2_I4TreeS4_ISG_EEEUlvE1_E21_M_not_empty_functionISK_EEbRKT_
FNDA:4,_ZNSt14_Function_base13_Base_managerIZ14handleCommandsiRSt6vectorISt10unique_ptrI12ActiveObjectSt14default_deleteIS3_EESaIS6_EERS2_I5GraphS4_ISA_EER10MSTFactoryRS2_I4TreeS4_ISG_EEEUlvE1_E21_M_not_empty_functionISK_EEbRKT_
FN:235,_ZNSt14_Function_base13_Base_managerIZ14handleCommandsiRSt6vectorISt10unique_ptrI12ActiveObjectSt14default_deleteIS3_EESaIS6_EERS2_I5GraphS4_ISA_EER10MSTFactoryRS2_I4TreeS4_ISG_EEEUlvE2_E21_M_not_empty_functionISK_EEbRKT_
FNDA:4,_ZNSt14_Function_base13_Base_managerIZ14handleCommandsiRSt6vectorISt10unique_ptrI12ActiveObjectSt14default_deleteIS3_EESaIS6_EERS2_I5GraphS4_ISA_EER10MSTFactoryRS2_I4TreeS4_ISG_EEEUlvE2_E21_M_not_empty_functionISK_EEbRKT_
FN:235,_ZNSt14_Function_base13_Base_managerIZZZZ14handleCommandsiRSt6vectorISt10unique_ptrI12ActiveObjectSt14default_deleteIS3_EESaIS6_EERS2_I5GraphS4_ISA_EER10MSTFactoryRS2_I4TreeS4_ISG_EEENKUlvE3_clEvENKUlvE_clEvENKUlvE_clEvEUlvE_E21_M_not_empty_functionISN_EEbRKT_
FNDA:2,_ZNSt14_Function_base13_Base_managerIZZZZ14handleCommandsiRSt6vectorISt10unique_ptrI12ActiveObjectSt14default_deleteIS3_EESaIS6_EERS2_I5GraphS4_ISA_EER10MSTFactoryRS2_I4TreeS4_ISG_EEENKUlvE3_clEvENKUlvE_clEvENKUlvE_clEvEUlvE_E21_M_not_empty_functionISN_EEbRKT_
FN:235,_ZNSt14_Function_base13_Base_managerIZZZ14handleCommandsiRSt6vectorISt10unique_ptrI12ActiveObjectSt14default_deleteIS3_EESaIS6_EERS2_I5GraphS4_ISA_EER10MSTFactoryRS2_I4TreeS4_ISG_EEENKUlvE3_clEvENKUlvE_clEvEUlvE_E21_M_not_empty_functionISM_EEbRKT_
FNDA:2,_ZNSt14_Function_base13_Base_managerIZZZ14handleCommandsiRSt6vectorISt10unique_ptrI12ActiveObjectSt14default_deleteIS3_EESaIS6_EERS2_I5GraphS4_ISA_EER10MSTFactoryRS2_I4TreeS4_ISG_EEENKUlvE3_clEvENKUlvE_clEvEUlvE_E21_M_not_empty_functionISM_EEbRKT_
FN:235,_ZNSt14_Function_base13_Base_managerIZZZZZ14handleCommandsiRSt6vectorISt10unique_ptrI12ActiveObjectSt14default_deleteIS3_EESaIS6_EERS2_I5GraphS4_ISA_EER10MSTFactoryRS2_I4TreeS4_ISG_EEENKUlvE3_clEvENKUlvE_clEvENKUlvE_clEvENKUlvE_clEvEUlvE_E21_M_not_empty_functionISO_EEbRKT_
FNDA:2,_ZNSt14_Function_base13_Base_managerIZZZZZ14handleCommandsiRSt6vectorISt10unique_ptrI12ActiveObjectSt14default_deleteIS3_EESaIS6_EERS2_I5GraphS4_ISA_EER10MSTFactoryRS2_I4TreeS4_ISG_EEENKUlvE3_clEvENKUlvE_clEvENKUlvE_clEvENKUlvE_clEvEUlvE_E21_M_not_empty_functionISO_EEbRKT_
FN:235,_ZNSt14_Function_base13_Base_managerIZZZZZZ14handleCommandsiRSt6vectorISt10unique_ptrI12ActiveObjectSt14default_deleteIS3_EESaIS6_EERS2_I5GraphS4_ISA_EER10MSTFactoryRS2_I4TreeS4_ISG_EEENKUlvE3_clEvENKUlvE_clEvENKUlvE_clEvENKUlvE_clEvENKUlvE_clEvEUlvE_E21_M_not_empty_functionISP_EEbRKT_
FNDA:2,_ZNSt14_Function_base13_Base_managerIZZZZZZ14handleCommandsiRSt6vectorISt10unique_ptrI12ActiveObjectSt14default_deleteIS3_EESaIS6_EERS2_I5GraphS4_ISA_EER10MSTFactoryRS2_I4TreeS4_ISG_EEENKUlvE3_clEvENKUlvE_clEvENKUlvE_clEvENKUlvE_clEvENKUlvE_clEvEUlvE_E21_M_not_empty_functionISP_EEbRKT_
FN:239,_ZNSt14_Function_baseC2Ev
FNDA:123,_ZNSt14_Function_baseC2Ev
FN:241,_ZNSt14_Function_baseD2Ev
FNDA:123,_ZNSt14_Function_baseD2Ev
FN:247,_ZNKSt14_Function_base8_M_emptyEv
FNDA:72,_ZNKSt14_Function_base8_M_emptyEv
FN:267,_ZNSt17_Function_handlerIFvvEZ14handleCommandsiRSt6vectorISt10unique_ptrI12ActiveObjectSt14default_deleteIS3_EESaIS6_EERS2_I5GraphS4_ISA_EER10MSTFactoryRS2_I4TreeS4_ISG_EEEUlvE1_E10_M_managerERSt9_Any_dataRKSM_St18_Manager_operation
FNDA:4,_ZNSt17_Function_handlerIFvvEZ14handleCommandsiRSt6vectorISt10unique_ptrI12ActiveObjectSt14default_deleteIS3_EESaIS6_EERS2_I5GraphS4_ISA_EER10MSTFactoryRS2_I4TreeS4_ISG_EEEUlvE1_E10_M_managerERSt9_Any_dataRKSM_St18_Manager_operation
FN:267,_ZNSt17_Function_handlerIFvvEZZZZ14handleCommandsiRSt6vectorISt10unique_ptrI12ActiveObjectSt14default_deleteIS3_EESaIS6_EERS2_I5GraphS4_ISA_EER10MSTFactoryRS2_I4TreeS4_ISG_EEENKUlvE3_clEvENKUlvE_clEvENKUlvE_clEvEUlvE_E10_M_managerERSt9_Any_dataRKSP_St18_Manager_operation
FNDA:2,_ZNSt17_Function_handlerIFvvEZZZZ14handleCommandsiRSt6vectorISt10unique_ptrI12ActiveObjectSt14default_deleteIS3_EESaIS6_EERS2_I5GraphS4_ISA_EER10MSTFactoryRS2_I4TreeS4_ISG_EEENKUlvE3_clEvENKUlvE_clEvENKUlvE_clEvEUlvE_E10_M_managerERSt9_Any_dataRKSP_St18_Manager_operation
FN:267,_ZNSt17_Function_handlerIFvvEZZZZZ14handleCommandsiRSt6vectorISt10unique_ptrI12ActiveObjectSt14default_deleteIS3_EESaIS6_EERS2_I5GraphS4_ISA_EER10MSTFactoryRS2_I4TreeS4_ISG_EEENKUlvE3_clEvENKUlvE_clEvENKUlvE_clEvENKUlvE_clEvEUlvE_E10_M_managerERSt9_Any_dataRKSQ_St18_Manager_operation
FNDA:2,_ZNSt17_Function_handlerIFvvEZZZZZ14handleCommandsiRSt6vectorISt10unique_ptrI12ActiveObjectSt14default_deleteIS3_EESaIS6_EERS2_I5GraphS4_ISA_EER10MSTFactoryRS2_I4TreeS4_ISG_EEENKUlvE3_clEvENKUlvE_clEvENKUlvE_clEvENKUlvE_clEvEUlvE_E10_M_managerERSt9_Any_dataRKSQ_St18_Manager_operation
FN:267,_ZNSt17_Function_handlerIFviEZ4mainEUliE_E10_M_managerERSt9_Any_dataRKS3_St18_Manager_operation
FNDA:2,_ZNSt17_Function_handlerIFviEZ4mainEUliE_E10_M_managerERSt9_Any_dataRKS3_St18_Manager_operation
FN:267,_ZNSt17_Function_handlerIFvvEZ14handleCommandsiRSt6vectorISt10unique_ptrI12ActiveObjectSt14default_deleteIS3_EESaIS6_EERS2_I5GraphS4_ISA_EER10MSTFactoryRS2_I4TreeS4_ISG_EEEUlvE3_E10_M_managerERSt9_Any_dataRKSM_St18_Manager_operation
FNDA:6,_ZNSt17_Function_handlerIFvvEZ14handleCommandsiRSt6vectorISt10unique_ptrI12ActiveObjectSt14default_deleteIS3_EESaIS6_EERS2_I5GraphS4_ISA_EER10MSTFactoryRS2_I4TreeS4_ISG_EEEUlvE3_E10_M_managerERSt9_Any_dataRKSM_St18_Manager_operation
FN:267,_ZNSt17_Function_handlerIFvvEZZZZZZ14handleCommandsiRSt6vectorISt10unique_ptrI12ActiveObjectSt14default_deleteIS3_EESaIS6_EERS2_I5GraphS4_ISA_EER10MSTFactoryRS2_I4TreeS4_ISG_EEENKUlvE3_clEvENKUlvE_clEvENKUlvE_clEvENKUlvE_clEvENKUlvE_clEvEUlvE_E10_M_managerERSt9_Any_dataRKSR_St18_Manager_operation
FNDA:2,_ZNSt17_Function_handlerIFvvEZZZZZZ14handleCommandsiRSt6vectorISt10unique_ptrI12ActiveObjectSt14default_deleteIS3_EESaIS6_EERS2_I5GraphS4_ISA_EER10MSTFactoryRS2_I4TreeS4_ISG_EEENKUlvE3_clEvENKUlvE_clEvENKUlvE_clEvENKUlvE_clEvENKUlvE_clEvEUlvE_E10_M_managerERSt9_Any_dataRKSR_St18_Manager_operation
FN:267,_ZNSt17_Function_handlerIFvvEZZZ14handleCommandsiRSt6vectorISt10unique_ptrI12ActiveObjectSt14default_deleteIS3_EESaIS6_EERS2_I5GraphS4_ISA_EER10MSTFactoryRS2_I4TreeS4_ISG_EEENKUlvE3_clEvENKUlvE_clEvEUlvE_E10_M_managerERSt9_Any_dataRKSO_St18_Manager_operation
FNDA:2,_ZNSt17_Function_handlerIFvvEZZZ14handleCommandsiRSt6vectorISt10unique_ptrI12ActiveObjectSt14default_deleteIS3_EESaIS6_EERS2_I5GraphS4_ISA_EER10MSTFactoryRS2_I4TreeS4_ISG_EEENKUlvE3_clEvENKUlvE_clEvEUlvE_E10_M_managerERSt9_Any_dataRKSO_St18_Manager_operation
FN:267,_ZNSt17_Function_handlerIFvvEZ14handleCommandsiRSt6vectorISt10unique_ptrI12ActiveObjectSt14default_deleteIS3_EESaIS6_EERS2_I5GraphS4_ISA_EER10MSTFactoryRS2_I4TreeS4_ISG_EEEUlvE0_E10_M_managerERSt9_Any_dataRKSM_St18_Manager_operation
FNDA:7,_ZNSt17_Function_handlerIFvvEZ14handleCommandsiRSt6vectorISt10unique_ptrI12ActiveObjectSt14default_deleteIS3_EESaIS6_EERS2_I5GraphS4_ISA_EER10MSTFactoryRS2_I4TreeS4_ISG_EEEUlvE0_E10_M_managerERSt9_Any_dataRKSM_St18_Manager_operation
FN:267,_ZNSt17_Function_handlerIFvvEZ14handleCommandsiRSt6vectorISt10unique_ptrI12ActiveObjectSt14default_deleteIS3_EESaIS6_EERS2_I5GraphS4_ISA_EER10MSTFactoryRS2_I4TreeS4_ISG_EEEUlvE2_E10_M_managerERSt9_Any_dataRKSM_St18_Manager_operation
FNDA:4,_ZNSt17_Function_handlerIFvvEZ14handleCommandsiRSt6vectorISt10unique_ptrI12ActiveObjectSt14default_deleteIS3_EESaIS6_EERS2_I5GraphS4_ISA_EER10MSTFactoryRS2_I4TreeS4_ISG_EEEUlvE2_E10_M_managerERSt9_Any_dataRKSM_St18_Manager_operation
FN:267,_ZNSt17_Function_handlerIFvvEZ14handleCommandsiRSt6vectorISt10unique_ptrI12ActiveObjectSt14default_deleteIS3_EESaIS6_EERS2_I5GraphS4_ISA_EER10MSTFactoryRS2_I4TreeS4_ISG_EEEUlvE_E10_M_managerERSt9_Any_dataRKSM_St18_Manager_operation
FNDA:4,_ZNSt17_Function_handlerIFvvEZ14handleCommandsiRSt6vectorISt10unique_ptrI12ActiveObjectSt14default_deleteIS3_EESaIS6_EERS2_I5GraphS4_ISA_EER10MSTFactoryRS2_I4TreeS4_ISG_EEEUlvE_E10_M_managerERSt9_Any_dataRKSM_St18_Manager_operation
FN:267,_ZNSt17_Function_handlerIFvvEZZ14handleCommandsiRSt6vectorISt10unique_ptrI12ActiveObjectSt14default_deleteIS3_EESaIS6_EERS2_I5GraphS4_ISA_EER10MSTFactoryRS2_I4TreeS4_ISG_EEENKUlvE3_clEvEUlvE_E10_M_managerERSt9_Any_dataRKSN_St18_Manager_operation
FNDA:2,_ZNSt17_Function_handlerIFvvEZZ14handleCommandsiRSt6vectorISt10unique_ptrI12ActiveObjectSt14default_deleteIS3_EESaIS6_EERS2_I5GraphS4_ISA_EER10MSTFactoryRS2_I4TreeS4_ISG_EEENKUlvE3_clEvEUlvE_E10_M_managerERSt9_Any_dataRKSN_St18_Manager_operation
FN:288,_ZNSt17_Function_handlerIFvvEZ14handleCommandsiRSt6vectorISt10unique_ptrI12ActiveObjectSt14default_deleteIS3_EESaIS6_EERS2_I5GraphS4_ISA_EER10MSTFactoryRS2_I4TreeS4_ISG_EEEUlvE_E9_M_invokeERKSt9_Any_data
FNDA:4,_ZNSt17_Function_handlerIFvvEZ14handleCommandsiRSt6vectorISt10unique_ptrI12ActiveObjectSt14default_deleteIS3_EESaIS6_EERS2_I5GraphS4_ISA_EER10MSTFactoryRS2_I4TreeS4_ISG_EEEUlvE_E9_M_invokeERKSt9_Any_data
FN:288,_ZNSt17_Function_handlerIFvvEZ14handleCommandsiRSt6vectorISt10unique_ptrI12ActiveObjectSt14default_deleteIS3_EESaIS6_EERS2_I5GraphS4_ISA_EER10MSTFactoryRS2_I4TreeS4_ISG_EEEUlvE1_E9_M_invokeERKSt9_Any_data
FNDA:4,_ZNSt17_Function_handlerIFvvEZ14handleCommandsiRSt6vectorISt10unique_ptrI12ActiveObjectSt14default_deleteIS3_EESaIS6_EERS2_I5GraphS4_ISA_EER10MSTFactoryRS2_I4TreeS4_ISG_EEEUlvE1_E9_M_invokeERKSt9_Any_data
FN:288,_ZNSt17_Function_handlerIFvvEZZZ14handleCommandsiRSt6vectorISt10unique_ptrI12ActiveObjectSt14default_deleteIS3_EESaIS6_EERS2_I5GraphS4_ISA_EER10MSTFactoryRS2_I4TreeS4_ISG_EEENKUlvE3_clEvENKUlvE_clEvEUlvE_E9_M_invokeERKSt9_Any_data
FNDA:2,_ZNSt17_Function_handlerIFvvEZZZ14handleCommandsiRSt6vectorISt10unique_ptrI12ActiveObjectSt14default_deleteIS3_EESaIS6_EERS2_I5GraphS4_ISA_EER10MSTFactoryRS2_I4TreeS4_ISG_EEENKUlvE3_clEvENKUlvE_clEvEUlvE_E9_M_invokeERKSt9_Any_data
FN:288,_ZNSt17_Function_handlerIFvvEZ14handleCommandsiRSt6vectorISt10unique_ptrI12ActiveObjectSt14default_deleteIS3_EESaIS6_EERS2_I5GraphS4_ISA_EER10MSTFactoryRS2_I4TreeS4_ISG_EEEUlvE0_E9_M_invokeERKSt9_Any_data
FNDA:7,_ZNSt17_Function_handlerIFvvEZ14handleCommandsiRSt6vectorISt10unique_ptrI12ActiveObjectSt14default_deleteIS3_EESaIS6_EERS2_I5GraphS4_ISA_EER10MSTFactoryRS2_I4TreeS4_ISG_EEEUlvE0_E9_M_invokeERKSt9_Any_data
FN:288,_ZNSt17_Function_handlerIFvvEZ14handleCommandsiRSt6vectorISt10unique_ptrI12ActiveObjectSt14default_deleteIS3_EESaIS6_EERS2_I5GraphS4_ISA_EER10MSTFactoryRS2_I4TreeS4_ISG_EEEUlvE2_E9_M_invokeERKSt9_Any_data
FNDA:4,_ZNSt17_Function_handlerIFvvEZ14handleCommandsiRSt6vectorISt10unique_ptrI12ActiveObjectSt14default_deleteIS3_EESaIS6_EERS2_I5GraphS4_ISA_EER10MSTFactoryRS2_I4TreeS4_ISG_EEEUlvE2_E9_M_invokeERKSt9_Any_data
FN:288,_ZNSt17_Function_handlerIFvvEZZZZZ14handleCommandsiRSt6vectorISt10unique_ptrI12ActiveObjectSt14default_deleteIS3_EESaIS6_EERS2_I5GraphS4_ISA_EER10MSTFactoryRS2_I4TreeS4_ISG_EEENKUlvE3_clEvENKUlvE_clEvENKUlvE_clEvENKUlvE_clEvEUlvE_E9_M_invokeERKSt9_Any_data
FNDA:2,_ZNSt17_Function_handlerIFvvEZZZZZ14handleCommandsiRSt6vectorISt10unique_ptrI12ActiveObjectSt14default_deleteIS3_EESaIS6_EERS2_I5GraphS4_ISA_EER10MSTFactoryRS2_I4TreeS4_ISG_EEENKUlvE3_clEvENKUlvE_clEvENKUlvE_clEvENKUlvE_clEvEUlvE_E9_M_invokeERKSt9_Any_data
FN:288,_ZNSt17_Function_handlerIFviEZ4mainEUliE_E9_M_invokeERKSt9_Any_dataOi
FNDA:2,_ZNSt17_Function_handlerIFviEZ4mainEUliE_E9_M_invokeERKSt9_Any_dataOi
FN:288,_ZNSt17_Function_handlerIFvvEZZZZZZ14handleCommandsiRSt6vectorISt10unique_ptrI12ActiveObjectSt14default_deleteIS3_EESaIS6_EERS2_I5GraphS4_ISA_EER10MSTFactoryRS2_I4TreeS4_ISG_EEENKUlvE3_clEvENKUlvE_clEvENKUlvE_clEvENKUlvE_clEvENKUlvE_clEvEUlvE_E9_M_invokeERKSt9_Any_data
FNDA:2,_ZNSt17_Function_handlerIFvvEZZZZZZ14handleCommandsiRSt6vectorISt10unique_ptrI12ActiveObjectSt14default_deleteIS3_EESaIS6_EERS2_I5GraphS4_ISA_EER10MSTFactoryRS2_I4TreeS4_ISG_EEENKUlvE3_clEvENKUlvE_clEvENKUlvE_clEvENKUlvE_clEvENKUlvE_clEvEUlvE_E9_M_invokeERKSt9_Any_data
FN:288,_ZNSt17_Function_handlerIFvvEZZ14handleCommandsiRSt6vectorISt10unique_ptrI12ActiveObjectSt14default_deleteIS3_EESaIS6_EERS2_I5GraphS4_ISA_EER10MSTFactoryRS2_I4TreeS4_ISG_EEENKUlvE3_clEvEUlvE_E9_M_invokeERKSt9_Any_data
FNDA:2,_ZNSt17_Function_handlerIFvvEZZ14handleCommandsiRSt6vectorISt10unique_ptrI12ActiveObjectSt14default_deleteIS3_EESaIS6_EERS2_I5GraphS4_ISA_EER10MSTFactoryRS2_I4TreeS4_ISG_EEENKUlvE3_clEvEUlvE_E9_M_invokeERKSt9_Any_data
FN:288,_ZNSt17_Function_handlerIFvvEZZZZ14handleCommandsiRSt6vectorISt10unique_ptrI12ActiveObjectSt14default_deleteIS3_EESaIS6_EERS2_I5GraphS4_ISA_EER10MSTFactoryRS2_I4TreeS4_ISG_EEENKUlvE3_clEvENKUlvE_clEvENKUlvE_clEvEUlvE_E9_M_invokeERKSt9_Any_data
FNDA:2,_ZNSt17_Function_handlerIFvvEZZZZ14handleCommandsiRSt6vectorISt10unique_ptrI12ActiveObjectSt14default_deleteIS3_EESaIS6_EERS2_I5GraphS4_ISA_EER10MSTFactoryRS2_I4TreeS4_ISG_EEENKUlvE3_clEvENKUlvE_clEvENKUlvE_clEvEUlvE_E9_M_invokeERKSt9_Any_data
FN:288,_ZNSt17_Function_handlerIFvvEZ14handleCommandsiRSt6vectorISt10unique_ptrI12ActiveObjectSt14default_deleteIS3_EESaIS6_EERS2_I5GraphS4_ISA_EER10MSTFactoryRS2_I4TreeS4_ISG_EEEUlvE3_E9_M_invokeERKSt9_Any_data
FNDA:6,_ZNSt17_Function_handlerIFvvEZ14handleCommandsiRSt6vectorISt10unique_ptrI12ActiveObjectSt14default_deleteIS3_EESaIS6_EERS2_I5GraphS4_ISA_EER10MSTFactoryRS2_I4TreeS4_ISG_EEEUlvE3_E9_M_invokeERKSt9_Any_data
FN:368,_ZNSt8functionIFviEEC2Ev
FNDA:2,_ZNSt8functionIFviEEC2Ev
FN:435,_ZNSt8functionIFvvEEC2IRZ14handleCommandsiRSt6vectorISt10unique_ptrI12ActiveObjectSt14default_deleteIS5_EESaIS8_EERS4_I5GraphS6_ISC_EER10MSTFactoryRS4_I4TreeS6_ISI_EEEUlvE_vEEOT_
FNDA:4,_ZNSt8functionIFvvEEC2IRZ14handleCommandsiRSt6vectorISt10unique_ptrI12ActiveObjectSt14default_deleteIS5_EESaIS8_EERS4_I5GraphS6_ISC_EER10MSTFactoryRS4_I4TreeS6_ISI_EEEUlvE_vEEOT_
FN:435,_ZNSt8functionIFvvEEC2IRZ14handleCommandsiRSt6vectorISt10unique_ptrI12ActiveObjectSt14default_deleteIS5_EESaIS8_EERS4_I5GraphS6_ISC_EER10MSTFactoryRS4_I4TreeS6_ISI_EEEUlvE0_vEEOT_
FNDA:7,_ZNSt8functionIFvvEEC2IRZ14handleCommandsiRSt6vectorISt10unique_ptrI12ActiveObjectSt14default_deleteIS5_EESaIS8_EERS4_I5GraphS6_ISC_EER10MSTFactoryRS4_I4TreeS6_ISI_EEEUlvE0_vEEOT_
FN:435,_ZNSt8functionIFvvEEC2IRZ14handleCommandsiRSt6vectorISt10unique_ptrI12ActiveObjectSt14default_deleteIS5_EESaIS8_EERS4_I5GraphS6_ISC_EER10MSTFactoryRS4_I4TreeS6_ISI_EEEUlvE1_vEEOT_
FNDA:4,_ZNSt8functionIFvvEEC2IRZ14handleCommandsiRSt6vectorISt10unique_ptrI12ActiveObjectSt14default_deleteIS5_EESaIS8_EERS4_I5GraphS6_ISC_EER10MSTFactoryRS4_I4TreeS6_ISI_EEEUlvE1_vEEOT_
FN:435,_ZNSt8functionIFvvEEC2IRZ14handleCommandsiRSt6vectorISt10unique_ptrI12ActiveObjectSt14default_deleteIS5_EESaIS8_EERS4_I5GraphS6_ISC_EER10MSTFactoryRS4_I4TreeS6_ISI_EEEUlvE2_vEEOT_
FNDA:4,_ZNSt8functionIFvvEEC2IRZ14handleCommandsiRSt6vectorISt10unique_ptrI12ActiveObjectSt14default_deleteIS5_EESaIS8_EERS4_I5GraphS6_ISC_EER10MSTFactoryRS4_I4TreeS6_ISI_EEEUlvE2_vEEOT_
FN:435,_ZNSt8functionIFvvEEC2IRZZZZZZ14handleCommandsiRSt6vectorISt10unique_ptrI12ActiveObjectSt14default_deleteIS5_EESaIS8_EERS4_I5GraphS6_ISC_EER10MSTFactoryRS4_I4TreeS6_ISI_EEENKUlvE3_clEvENKUlvE_clEvENKUlvE_clEvENKUlvE_clEvENKUlvE_clEvEUlvE_vEEOT_
FNDA:2,_ZNSt8functionIFvvEEC2IRZZZZZZ14handleCommandsiRSt6vectorISt10unique_ptrI12ActiveObjectSt14default_deleteIS5_EESaIS8_EERS4_I5GraphS6_ISC_EER10MSTFactoryRS4_I4TreeS6_ISI_EEENKUlvE3_clEvENKUlvE_clEvENKUlvE_clEvENKUlvE_clEvENKUlvE_clEvEUlvE_vEEOT_
FN:435,_ZNSt8functionIFvvEEC2IRZZZZZ14handleCommandsiRSt6vectorISt10unique_ptrI12ActiveObjectSt14default_deleteIS5_EESaIS8_EERS4_I5GraphS6_ISC_EER10MSTFactoryRS4_I4TreeS6_ISI_EEENKUlvE3_clEvENKUlvE_clEvENKUlvE_clEvENKUlvE_clEvEUlvE_vEEOT_
FNDA:2,_ZNSt8functionIFvvEEC2IRZZZZZ14handleCommandsiRSt6vectorISt10unique_ptrI12ActiveObjectSt14default_deleteIS5_EESaIS8_EERS4_I5GraphS6_ISC_EER10MSTFactoryRS4_I4TreeS6_ISI_EEENKUlvE3_clEvENKUlvE_clEvENKUlvE_clEvENKUlvE_clEvEUlvE_vEEOT_
FN:435,_ZNSt8functionIFviEEC2IZ4mainEUliE_vEEOT_
FNDA:2,_ZNSt8functionIFviEEC2IZ4mainEUliE_vEEOT_
FN:435,_ZNSt8functionIFvvEEC2IRZZZZ14handleCommandsiRSt6vectorISt10unique_ptrI12ActiveObjectSt14default_deleteIS5_EESaIS8_EERS4_I5GraphS6_ISC_EER10MSTFactoryRS4_I4TreeS6_ISI_EEENKUlvE3_clEvENKUlvE_clEvENKUlvE_clEvEUlvE_vEEOT_
FNDA:2,_ZNSt8functionIFvvEEC2IRZZZZ14handleCommandsiRSt6vectorISt10unique_ptrI12ActiveObjectSt14default_deleteIS5_EESaIS8_EERS4_I5GraphS6_ISC_EER10MSTFactoryRS4_I4TreeS6_ISI_EEENKUlvE3_clEvENKUlvE_clEvENKUlvE_clEvEUlvE_vEEOT_
FN:435,_ZNSt8functionIFvvEEC2IRZZZ14handleCommandsiRSt6vectorISt10unique_ptrI12ActiveObjectSt14default_deleteIS5_EESaIS8_EERS4_I5GraphS6_ISC_EER10MSTFactoryRS4_I4TreeS6_ISI_EEENKUlvE3_clEvENKUlvE_clEvEUlvE_vEEOT_
FNDA:2,_ZNSt8functionIFvvEEC2IRZZZ14handleCommandsiRSt6vectorISt10unique_ptrI12ActiveObjectSt14default_deleteIS5_EESaIS8_EERS4_I5GraphS6_ISC_EER10MSTFactoryRS4_I4TreeS6_ISI_EEENKUlvE3_clEvENKUlvE_clEvEUlvE_vEEOT_
FN:435,_ZNSt8functionIFvvEEC2IRZZ14handleCommandsiRSt6vectorISt10unique_ptrI12ActiveObjectSt14default_deleteIS5_EESaIS8_EERS4_I5GraphS6_ISC_EER10MSTFactoryRS4_I4TreeS6_ISI_EEENKUlvE3_clEvEUlvE_vEEOT_
FNDA:2,_ZNSt8functionIFvvEEC2IRZZ14handleCommandsiRSt6vectorISt10unique_ptrI12ActiveObjectSt14default_deleteIS5_EESaIS8_EERS4_I5GraphS6_ISC_EER10MSTFactoryRS4_I4TreeS6_ISI_EEENKUlvE3_clEvEUlvE_vEEOT_
FN:435,_ZNSt8functionIFvvEEC2IRZ14handleCommandsiRSt6vectorISt10unique_ptrI12ActiveObjectSt14default_deleteIS5_EESaIS8_EERS4_I5GraphS6_ISC_EER10MSTFactoryRS4_I4TreeS6_ISI_EEEUlvE3_vEEOT_
FNDA:6,_ZNSt8functionIFvvEEC2IRZ14handleCommandsiRSt6vectorISt10unique_ptrI12ActiveObjectSt14default_deleteIS5_EESaIS8_EERS4_I5GraphS6_ISC_EER10MSTFactoryRS4_I4TreeS6_ISI_EEEUlvE3_vEEOT_
FN:530,_ZNSt8functionIFviEEaSIZ4mainEUliE_EENSt9enable_ifIXsrNS1_9_CallableIT_NS4_IXntsrSt7is_sameINSt9remove_cvINSt16remove_referenceIS6_E4typeEE4typeES1_E5valueESt5decayIS6_EE4type4typeESt15__invoke_resultIRSJ_JiEEEE5valueERS1_E4typeEOS6_
FNDA:2,_ZNSt8functionIFviEEaSIZ4mainEUliE_EENSt9enable_ifIXsrNS1_9_CallableIT_NS4_IXntsrSt7is_sameINSt9remove_cvINSt16remove_referenceIS6_E4typeEE4typeES1_E5valueESt5decayIS6_EE4type4typeESt15__invoke_resultIRSJ_JiEEEE5valueERS1_E4typeEOS6_
FN:555,_ZNSt8functionIFviEE4swapERS1_
FNDA:2,_ZNSt8functionIFviEE4swapERS1_
FN:586,_ZNKSt8functionIFviEEclEi
FNDA:2,_ZNKSt8functionIFviEEclEi
DA:85,74
DA:86,37
DA:90,12
DA:91,12
DA:90,4
DA:91,4
DA:90,4
DA:91,4
DA:90,4
DA:91,4
DA:90,4
DA:91,4
DA:90,4
DA:91,4
DA:90,8
DA:91,8
DA:90,8
DA:91,8
DA:90,14
DA:91,14
DA:90,8
DA:91,8
DA:90,4
DA:91,4
DA:90,0
DA:91,0
DA:95,6
DA:96,6
DA:95,2
DA:96,2
DA:95,2
DA:96,2
DA:95,2
DA:96,2
DA:95,2
DA:96,2
DA:95,2
DA:96,2
DA:95,4
DA:96,4
DA:95,4
DA:96,4
DA:95,7
DA:96,7
DA:95,4
DA:96,4
DA:95,2
DA:96,2
DA:134,6
DA:142,6
DA:134,2
DA:142,2
DA:134,2
DA:142,2
DA:134,2
DA:142,2
DA:134,2
DA:142,2
DA:134,2
DA:142,2
DA:134,4
DA:142,4
DA:134,4
DA:142,4
DA:134,7
DA:142,7
DA:134,4
DA:142,4
DA:134,2
DA:142,2
DA:158,2
DA:160,2
DA:161,2
DA:162,2
DA:158,2
DA:160,2
DA:161,2
DA:162,2
DA:158,0
DA:160,0
DA:161,0
DA:162,0
DA:158,4
DA:160,4
DA:161,4
DA:162,4
DA:158,7
DA:160,7
DA:161,7
DA:162,7
DA:158,4
DA:160,4
DA:161,4
DA:162,4
DA:158,4
DA:160,4
DA:161,4
DA:162,4
DA:158,2
DA:160,2
DA:161,2
DA:162,2
DA:158,2
DA:160,2
DA:161,2
DA:162,2
DA:158,2
DA:160,2
DA:161,2
DA:162,2
DA:158,2
DA:160,2
DA:161,2
DA:162,2
DA:158,0
DA:160,0
DA:161,0
DA:162,0
DA:158,6
DA:160,6
DA:161,6
DA:162,6
DA:158,0
DA:160,0
DA:161,0
DA:162,0
DA:158,0
DA:160,0
DA:161,0
DA:162,0
DA:158,0
DA:160,0
DA:161,0
DA:162,0
DA:158,0
DA:160,0
DA:161,0
DA:162,0
DA:158,0
DA:160,0
DA:161,0
DA:162,0
DA:158,0
DA:160,0
DA:161,0
DA:162,0
DA:158,0
DA:160,0
DA:161,0
DA:162,0
DA:158,0
DA:160,0
DA:161,0
DA:162,0
DA:158,0
DA:160,0
DA:161,0
DA:162,0
DA:173,6
DA:175,6
DA:176,6
DA:173,2
DA:175,2
DA:176,2
DA:173,2
DA:175,2
DA:176,2
DA:173,2
DA:175,2
DA:176,2
DA:173,2
DA:175,2
DA:176,2
DA:173,2
DA:175,2
DA:176,2
DA:173,4
DA:175,4
DA:176,4
DA:173,4
DA:175,4
DA:176,4
DA:173,7
DA:175,7
DA:176,7
DA:173,4
DA:175,4
DA:176,4
DA:173,2
DA:175,2
DA:176,2
DA:180,6
DA:183,6
DA:185,0
DA:187,0
DA:191,0
DA:193,0
DA:194,0
DA:195,0
DA:197,0
DA:198,0
DA:199,0
DA:200,0
DA:202,6
DA:203,6
DA:204,6
DA:206,6
DA:180,2
DA:183,2
DA:185,0
DA:187,0
DA:191,0
DA:193,0
DA:194,0
DA:195,0
DA:197,0
DA:198,0
DA:199,0
DA:200,0
DA:202,2
DA:203,2
DA:204,2
DA:206,2
DA:180,2
DA:183,2
DA:185,0
DA:187,0
DA:191,0
DA:193,0
DA:194,0
DA:195,0
DA:197,0
DA:198,0
DA:199,0
DA:200,0
DA:202,2
DA:203,2
DA:204,2
DA:206,2
DA:180,2
DA:183,2
DA:185,0
DA:187,0
DA:191,0
DA:193,0
DA:194,0
DA:195,0
DA:197,0
DA:198,0
DA:199,0
DA:200,0
DA:202,2
DA:203,2
DA:204,2
DA:206,2
DA:180,2
DA:183,2
DA:185,0
DA:187,0
DA:191,0
DA:193,0
DA:194,0
DA:195,0
DA:197,0
DA:198,0
DA:199,0
DA:200,0
DA:202,2
DA:203,2
DA:204,2
DA:206,2
DA:180,2
DA:183,2
DA:185,0
DA:187,0
DA:191,0
DA:193,0
DA:194,0
DA:195,0
DA:197,0
DA:198,0
DA:199,0
DA:200,0
DA:202,2
DA:203,2
DA:204,2
DA:206,2
DA:180,4
DA:183,4
DA:185,0
DA:187,0
DA:191,0
DA:193,0
DA:194,0
DA:195,0
DA:197,0
DA:198,0
DA:199,0
DA:200,0
DA:202,4
DA:203,4
DA:204,4
DA:206,4
DA:180,4
DA:183,4
DA:185,0
DA:187,0
DA:191,0
DA:193,0
DA:194,0
DA:195,0
DA:197,0
DA:198,0
DA:199,0
DA:200,0
DA:202,4
DA:203,4
DA:204,4
DA:206,4
DA:180,7
DA:183,7
DA:185,0
DA:187,0
DA:191,0
DA:193,0
DA:194,0
DA:195,0
DA:197,0
DA:198,0
DA:199,0
DA:200,0
DA:202,7
DA:203,7
DA:204,7
DA:206,7
DA:180,4
DA:183,4
DA:185,0
DA:187,0
DA:191,0
DA:193,0
DA:194,0
DA:195,0
DA:197,0
DA:198,0
DA:199,0
DA:200,0
DA:202,4
DA:203,4
DA:204,4
DA:206,4
DA:180,2
DA:183,2
DA:185,0
DA:187,0
DA:191,0
DA:193,0
DA:194,0
DA:195,0
DA:197,0
DA:198,0
DA:199,0
DA:200,0
DA:202,2
DA:203,2
DA:204,2
DA:206,2
DA:211,2
DA:215,2
DA:216,2
DA:211,2
DA:215,2
DA:216,2
DA:211,0
DA:215,0
DA:216,0
DA:211,4
DA:215,4
DA:216,4
DA:211,7
DA:215,7
DA:216,7
DA:211,4
DA:215,4
DA:216,4
DA:211,4
DA:215,4
DA:216,4
DA:211,2
DA:215,2
DA:216,2
DA:211,2
DA:215,2
DA:216,2
DA:211,2
DA:215,2
DA:216,2
DA:211,2
DA:215,2
DA:216,2
DA:211,0
DA:215,0
DA:216,0
DA:211,6
DA:215,6
DA:216,6
DA:211,0
DA:215,0
DA:216,0
DA:211,0
DA:215,0
DA:216,0
DA:211,0
DA:215,0
DA:216,0
DA:211,0
DA:215,0
DA:216,0
DA:211,0
DA:215,0
DA:216,0
DA:211,0
DA:215,0
DA:216,0
DA:211,0
DA:215,0
DA:216,0
DA:211,0
DA:215,0
DA:216,0
DA:211,0
DA:215,0
DA:216,0
DA:235,6
DA:236,6
DA:235,2
DA:236,2
DA:235,2
DA:236,2
DA:235,2
DA:236,2
DA:235,2
DA:236,2
DA:235,2
DA:236,2
DA:235,4
DA:236,4
DA:235,4
DA:236,4
DA:235,7
DA:236,7
DA:235,4
DA:236,4
DA:235,2
DA:236,2
DA:239,123
DA:241,123
DA:243,123
DA:244,37
DA:245,123
DA:247,72
DA:267,6
DA:270,6
DA:273,0
DA:274,0
DA:275,0
DA:277,0
DA:278,0
DA:279,0
DA:281,6
DA:282,6
DA:284,6
DA:267,2
DA:270,2
DA:273,0
DA:274,0
DA:275,0
DA:277,0
DA:278,0
DA:279,0
DA:281,2
DA:282,2
DA:284,2
DA:267,2
DA:270,2
DA:273,0
DA:274,0
DA:275,0
DA:277,0
DA:278,0
DA:279,0
DA:281,2
DA:282,2
DA:284,2
DA:267,2
DA:270,2
DA:273,0
DA:274,0
DA:275,0
DA:277,0
DA:278,0
DA:279,0
DA:281,2
DA:282,2
DA:284,2
DA:267,2
DA:270,2
DA:273,0
DA:274,0
DA:275,0
DA:277,0
DA:278,0
DA:279,0
DA:281,2
DA:282,2
DA:284,2
DA:267,2
DA:270,2
DA:273,0
DA:274,0
DA:275,0
DA:277,0
DA:278,0
DA:279,0
DA:281,2
DA:282,2
DA:284,2
DA:267,4
DA:270,4
DA:273,0
DA:274,0
DA:275,0
DA:277,0
DA:278,0
DA:279,0
DA:281,4
DA:282,4
DA:284,4
DA:267,4
DA:270,4
DA:273,0
DA:274,0
DA:275,0
DA:277,0
DA:278,0
DA:279,0
DA:281,4
DA:282,4
DA:284,4
DA:267,7
DA:270,7
DA:273,0
DA:274,0
DA:275,0
DA:277,0
DA:278,0
DA:279,0
DA:281,7
DA:282,7
DA:284,7
DA:267,4
DA:270,4
DA:273,0
DA:274,0
DA:275,0
DA:277,0
DA:278,0
DA:279,0
DA:281,4
DA:282,4
DA:284,4
DA:267,2
DA:270,2
DA:273,0
DA:274,0
DA:275,0
DA:277,0
DA:278,0
DA:279,0
DA:281,2
DA:282,2
DA:284,2
DA:288,6
DA:290,6
DA:291,6
DA:288,2
DA:290,2
DA:291,2
DA:288,2
DA:290,2
DA:291,2
DA:288,2
DA:290,2
DA:291,2
DA:288,2
DA:290,2
DA:291,2
DA:288,2
DA:290,2
DA:291,2
DA:288,4
DA:290,4
DA:291,4
DA:288,4
DA:290,4
DA:291,4
DA:288,7
DA:290,7
DA:291,7
DA:288,4
DA:290,4
DA:291,4
DA:288,2
DA:290,2
DA:291,2
DA:368,2
DA:369,2
DA:435,6
DA:437,6
DA:447,6
DA:449,6
DA:451,6
DA:452,6
DA:454,6
DA:435,2
DA:437,2
DA:447,2
DA:449,2
DA:451,2
DA:452,2
DA:454,2
DA:435,2
DA:437,2
DA:447,2
DA:449,2
DA:451,2
DA:452,2
DA:454,2
DA:435,2
DA:437,2
DA:447,2
DA:449,2
DA:451,2
DA:452,2
DA:454,2
DA:435,2
DA:437,2
DA:447,2
DA:449,2
DA:451,2
DA:452,2
DA:454,2
DA:435,2
DA:437,2
DA:447,2
DA:449,2
DA:451,2
DA:452,2
DA:454,2
DA:435,4
DA:437,4
DA:447,4
DA:449,4
DA:451,4
DA:452,4
DA:454,4
DA:435,4
DA:437,4
DA:447,4
DA:449,4
DA:451,4
DA:452,4
DA:454,4
DA:435,7
DA:437,7
DA:447,7
DA:449,7
DA:451,7
DA:452,7
DA:454,7
DA:435,4
DA:437,4
DA:447,4
DA:449,4
DA:451,4
DA:452,4
DA:454,4
DA:435,2
DA:437,2
DA:447,2
DA:449,2
DA:451,2
DA:452,2
DA:454,2
DA:530,2
DA:533,2
DA:534,2
DA:555,2
DA:557,2
DA:558,2
DA:559,2
DA:560,2
DA:586,2
DA:588,2
DA:589,0
DA:590,2
end_of_record
SF:/home/eladubuntu/Git Projects/OS_2024-FINAL_PROJECT_MST/MSTStrategy.hpp
end_of_record
SF:/usr/include/c++/11/bits/ios_base.h
FN:129,_ZStorSt13_Ios_OpenmodeS_
FNDA:23,_ZStorSt13_Ios_OpenmodeS_
DA:129,23
DA:130,23
end_of_record
SF:/usr/include/c++/11/bits/allocator.h
FN:156,_ZNSaI4EdgeEC2Ev
FNDA:22,_ZNSaI4EdgeEC2Ev
FN:156,_ZNSaISt8functionIFvvEEEC2Ev
FNDA:14,_ZNSaISt8functionIFvvEEEC2Ev
FN:156,_ZNSaImEC2Ev
FNDA:2,_ZNSaImEC2Ev
FN:156,_ZNSaISt10unique_ptrI12ActiveObjectSt14default_deleteIS0_EEEC2Ev
FNDA:2,_ZNSaISt10unique_ptrI12ActiveObjectSt14default_deleteIS0_EEEC2Ev
FN:156,_ZNSaISt6threadEC2Ev
FNDA:2,_ZNSaISt6threadEC2Ev
FN:156,_ZNSaISt6vectorI4EdgeSaIS0_EEEC2Ev
FNDA:4,_ZNSaISt6vectorI4EdgeSaIS0_EEEC2Ev
FN:159,_ZNSaISt10unique_ptrI12ActiveObjectSt14default_deleteIS0_EEEC2ERKS4_
FNDA:6,_ZNSaISt10unique_ptrI12ActiveObjectSt14default_deleteIS0_EEEC2ERKS4_
FN:159,_ZNSaImEC2ERKS_
FNDA:14,_ZNSaImEC2ERKS_
FN:159,_ZNSaI4EdgeEC2ERKS0_
FNDA:8,_ZNSaI4EdgeEC2ERKS0_
FN:169,_ZNSaIPSt8functionIFvvEEEC2IS1_EERKSaIT_E
FNDA:28,_ZNSaIPSt8functionIFvvEEEC2IS1_EERKSaIT_E
FN:174,_ZNSaISt6vectorI4EdgeSaIS0_EEED2Ev
FNDA:4,_ZNSaISt6vectorI4EdgeSaIS0_EEED2Ev
FN:174,_ZNSaISt6threadED2Ev
FNDA:0,_ZNSaISt6threadED2Ev
FN:174,_ZNSaISt10unique_ptrI12ActiveObjectSt14default_deleteIS0_EEED2Ev
FNDA:6,_ZNSaISt10unique_ptrI12ActiveObjectSt14default_deleteIS0_EEED2Ev
FN:174,_ZNSaImED2Ev
FNDA:21,_ZNSaImED2Ev
FN:174,_ZNSaI4EdgeED2Ev
FNDA:30,_ZNSaI4EdgeED2Ev
FN:174,_ZNSaISt8functionIFvvEEED2Ev
FNDA:14,_ZNSaISt8functionIFvvEEED2Ev
FN:174,_ZNSaIPSt8functionIFvvEEED2Ev
FNDA:28,_ZNSaIPSt8functionIFvvEEED2Ev
FN:313,_ZNSt19__shrink_to_fit_auxISt6vectorImSaImEELb1EE8_S_do_itERS2_
FNDA:1,_ZNSt19__shrink_to_fit_auxISt6vectorImSaImEELb1EE8_S_do_itERS2_
FN:313,_ZNSt19__shrink_to_fit_auxISt6vectorISt10unique_ptrI12ActiveObjectSt14default_deleteIS2_EESaIS5_EELb1EE8_S_do_itERS7_
FNDA:2,_ZNSt19__shrink_to_fit_auxISt6vectorISt10unique_ptrI12ActiveObjectSt14default_deleteIS2_EESaIS5_EELb1EE8_S_do_itERS7_
DA:156,22
DA:156,14
DA:156,2
DA:156,2
DA:156,2
DA:156,4
DA:159,6
DA:160,6
DA:159,14
DA:160,14
DA:159,8
DA:160,8
DA:169,28
DA:174,28
DA:174,14
DA:174,30
DA:174,21
DA:174,6
DA:174,0
DA:174,4
DA:313,2
DA:318,4
DA:320,2
DA:321,2
DA:323,0
DA:324,0
DA:313,1
DA:318,2
DA:320,1
DA:321,1
DA:323,0
DA:324,0
end_of_record
SF:/usr/include/c++/11/bits/cpp_type_traits.h
FN:560,_ZSt12__miter_baseIN9__gnu_cxx17__normal_iteratorIPmSt6vectorImSaImEEEEET_S7_
FNDA:2,_ZSt12__miter_baseIN9__gnu_cxx17__normal_iteratorIPmSt6vectorImSaImEEEEET_S7_
FN:560,_ZSt12__miter_baseIPPSt8functionIFvvEEET_S5_
FNDA:0,_ZSt12__miter_baseIPPSt8functionIFvvEEET_S5_
DA:560,2
DA:561,2
DA:560,0
DA:561,0
end_of_record
SF:/usr/include/c++/11/ext/string_conversions.h
FN:99,_ZN9__gnu_cxx12__to_xstringINSt7__cxx1112basic_stringIcSt11char_traitsIcESaIcEEEcEET_PFiPT0_mPKS8_P13__va_list_tagEmSB_z
FNDA:2,_ZN9__gnu_cxx12__to_xstringINSt7__cxx1112basic_stringIcSt11char_traitsIcESaIcEEEcEET_PFiPT0_mPKS8_P13__va_list_tagEmSB_z
DA:99,2
DA:105,2
DA:109,2
DA:111,2
DA:113,2
DA:115,2
end_of_record
SF:/usr/include/c++/11/bits/std_thread.h
FN:86,_ZNSt6thread2idC2Ev
FNDA:28,_ZNSt6thread2idC2Ev
FN:127,_ZNSt6threadC2IM12ActiveObjectFvvEJPS1_EvEEOT_DpOT0_
FNDA:14,_ZNSt6threadC2IM12ActiveObjectFvvEJPS1_EvEEOT_DpOT0_
FN:149,_ZNSt6threadD2Ev
FNDA:14,_ZNSt6threadD2Ev
FN:175,_ZNKSt6thread8joinableEv
FNDA:14,_ZNKSt6thread8joinableEv
FN:206,_ZNSt6thread11_State_implINS_8_InvokerISt5tupleIJM12ActiveObjectFvvEPS3_EEEEEC2IJS5_S6_EEEDpOT_
FNDA:14,_ZNSt6thread11_State_implINS_8_InvokerISt5tupleIJM12ActiveObjectFvvEPS3_EEEEEC2IJS5_S6_EEEDpOT_
FN:211,_ZNSt6thread11_State_implINS_8_InvokerISt5tupleIJM12ActiveObjectFvvEPS3_EEEEE6_M_runEv
FNDA:14,_ZNSt6thread11_State_implINS_8_InvokerISt5tupleIJM12ActiveObjectFvvEPS3_EEEEE6_M_runEv
FN:243,_ZNSt6thread8_InvokerISt5tupleIJM12ActiveObjectFvvEPS2_EEEC2IJS4_S5_EEEDpOT_
FNDA:14,_ZNSt6thread8_InvokerISt5tupleIJM12ActiveObjectFvvEPS2_EEEC2IJS4_S5_EEEDpOT_
FN:258,_ZNSt6thread8_InvokerISt5tupleIJM12ActiveObjectFvvEPS2_EEE9_M_invokeIJLm0ELm1EEEEvSt12_Index_tupleIJXspT_EEE
FNDA:14,_ZNSt6thread8_InvokerISt5tupleIJM12ActiveObjectFvvEPS2_EEE9_M_invokeIJLm0ELm1EEEEvSt12_Index_tupleIJXspT_EEE
FN:262,_ZNSt6thread8_InvokerISt5tupleIJM12ActiveObjectFvvEPS2_EEEclEv
FNDA:14,_ZNSt6thread8_InvokerISt5tupleIJM12ActiveObjectFvvEPS2_EEEclEv
FN:287,_ZSteqNSt6thread2idES0_
FNDA:14,_ZSteqNSt6thread2idES0_
DA:86,28
DA:127,14
DA:128,14
DA:138,14
DA:143,14
DA:144,14
DA:146,14
DA:149,14
DA:151,14
DA:152,0
DA:153,14
DA:175,14
DA:176,14
DA:206,14
DA:207,14
DA:208,14
DA:211,14
DA:243,14
DA:244,14
DA:245,14
DA:258,14
DA:259,14
DA:262,14
DA:266,14
DA:287,14
DA:293,14
end_of_record
TN:
SF:/usr/include/c++/11/ext/aligned_buffer.h
FN:64,_ZN9__gnu_cxx16__aligned_membufISt4pairIKiSt8functionIFvvEEEE7_M_addrEv
FNDA:9,_ZN9__gnu_cxx16__aligned_membufISt4pairIKiSt8functionIFvvEEEE7_M_addrEv
FN:72,_ZN9__gnu_cxx16__aligned_membufISt4pairIKiSt8functionIFvvEEEE6_M_ptrEv
FNDA:9,_ZN9__gnu_cxx16__aligned_membufISt4pairIKiSt8functionIFvvEEEE6_M_ptrEv
DA:64,9
DA:65,9
DA:72,9
DA:73,9
end_of_record
SF:/usr/include/c++/11/bits/stl_uninitialized.h
FN:573,_ZNSt27__uninitialized_default_n_1ILb0EE18__uninit_default_nIPSt6vectorI4EdgeSaIS3_EEmEET_S7_T0_
FNDA:7,_ZNSt27__uninitialized_default_n_1ILb0EE18__uninit_default_nIPSt6vectorI4EdgeSaIS3_EEmEET_S7_T0_
FN:630,_ZSt25__uninitialized_default_nIPSt6vectorI4EdgeSaIS1_EEmET_S5_T0_
FNDA:7,_ZSt25__uninitialized_default_nIPSt6vectorI4EdgeSaIS1_EEmET_S5_T0_
FN:702,_ZSt27__uninitialized_default_n_aIPSt6vectorI4EdgeSaIS1_EEmS3_ET_S5_T0_RSaIT1_E
FNDA:7,_ZSt27__uninitialized_default_n_aIPSt6vectorI4EdgeSaIS1_EEmS3_ET_S5_T0_RSaIT1_E
FN:986,_ZSt19__relocate_object_aISt6vectorI4EdgeSaIS1_EES3_SaIS3_EEvPT_PT0_RT1_
FNDA:0,_ZSt19__relocate_object_aISt6vectorI4EdgeSaIS1_EES3_SaIS3_EEvPT_PT0_RT1_
FN:1018,_ZSt14__relocate_a_1IPSt6vectorI4EdgeSaIS1_EES4_SaIS3_EET0_T_S7_S6_RT1_
FNDA:7,_ZSt14__relocate_a_1IPSt6vectorI4EdgeSaIS1_EES4_SaIS3_EET0_T_S7_S6_RT1_
FN:1040,_ZSt12__relocate_aIPSt6vectorI4EdgeSaIS1_EES4_SaIS3_EET0_T_S7_S6_RT1_
FNDA:7,_ZSt12__relocate_aIPSt6vectorI4EdgeSaIS1_EES4_SaIS3_EET0_T_S7_S6_RT1_
DA:573,7
DA:575,7
DA:578,40
DA:579,33
DA:580,7
DA:630,7
DA:635,7
DA:640,7
DA:702,7
DA:704,7
DA:986,0
DA:994,0
DA:995,0
DA:996,0
DA:1018,7
DA:1030,7
DA:1031,7
DA:1032,0
DA:1034,7
DA:1040,7
DA:1046,7
DA:1048,7
end_of_record
SF:/usr/include/c++/11/bits/stl_vector.h
FN:97,_ZNSt12_Vector_baseISt6vectorI4EdgeSaIS1_EESaIS3_EE17_Vector_impl_dataC2Ev
FNDA:7,_ZNSt12_Vector_baseISt6vectorI4EdgeSaIS1_EESaIS3_EE17_Vector_impl_dataC2Ev
FN:97,_ZNSt12_Vector_baseI4EdgeSaIS0_EE17_Vector_impl_dataC2Ev
FNDA:47,_ZNSt12_Vector_baseI4EdgeSaIS0_EE17_Vector_impl_dataC2Ev
FN:102,_ZNSt12_Vector_baseI4EdgeSaIS0_EE17_Vector_impl_dataC2EOS3_
FNDA:0,_ZNSt12_Vector_baseI4EdgeSaIS0_EE17_Vector_impl_dataC2EOS3_
FN:131,_ZNSt12_Vector_baseISt6vectorI4EdgeSaIS1_EESaIS3_EE12_Vector_implC2Ev
FNDA:7,_ZNSt12_Vector_baseISt6vectorI4EdgeSaIS1_EESaIS3_EE12_Vector_implC2Ev
FN:131,_ZNSt12_Vector_baseI4EdgeSaIS0_EE12_Vector_implC2Ev
FNDA:39,_ZNSt12_Vector_baseI4EdgeSaIS0_EE12_Vector_implC2Ev
FN:143,_ZNSt12_Vector_baseI4EdgeSaIS0_EE12_Vector_implC2EOS3_
FNDA:0,_ZNSt12_Vector_baseI4EdgeSaIS0_EE12_Vector_implC2EOS3_
FN:276,_ZNSt12_Vector_baseISt6vectorI4EdgeSaIS1_EESaIS3_EE19_M_get_Tp_allocatorEv
FNDA:21,_ZNSt12_Vector_baseISt6vectorI4EdgeSaIS1_EESaIS3_EE19_M_get_Tp_allocatorEv
FN:276,_ZNSt12_Vector_baseI4EdgeSaIS0_EE19_M_get_Tp_allocatorEv
FNDA:189,_ZNSt12_Vector_baseI4EdgeSaIS0_EE19_M_get_Tp_allocatorEv
FN:280,_ZNKSt12_Vector_baseISt6vectorI4EdgeSaIS1_EESaIS3_EE19_M_get_Tp_allocatorEv
FNDA:28,_ZNKSt12_Vector_baseISt6vectorI4EdgeSaIS1_EESaIS3_EE19_M_get_Tp_allocatorEv
FN:288,_ZNSt12_Vector_baseISt6vectorI4EdgeSaIS1_EESaIS3_EEC2Ev
FNDA:7,_ZNSt12_Vector_baseISt6vectorI4EdgeSaIS1_EESaIS3_EEC2Ev
FN:288,_ZNSt12_Vector_baseI4EdgeSaIS0_EEC2Ev
FNDA:39,_ZNSt12_Vector_baseI4EdgeSaIS0_EEC2Ev
FN:308,_ZNSt12_Vector_baseI4EdgeSaIS0_EEC2EOS2_
FNDA:0,_ZNSt12_Vector_baseI4EdgeSaIS0_EEC2EOS2_
FN:333,_ZNSt12_Vector_baseISt6vectorI4EdgeSaIS1_EESaIS3_EED2Ev
FNDA:7,_ZNSt12_Vector_baseISt6vectorI4EdgeSaIS1_EESaIS3_EED2Ev
FN:333,_ZNSt12_Vector_baseI4EdgeSaIS0_EED2Ev
FNDA:47,_ZNSt12_Vector_baseI4EdgeSaIS0_EED2Ev
FN:343,_ZNSt12_Vector_baseISt6vectorI4EdgeSaIS1_EESaIS3_EE11_M_allocateEm
FNDA:7,_ZNSt12_Vector_baseISt6vectorI4EdgeSaIS1_EESaIS3_EE11_M_allocateEm
FN:350,_ZNSt12_Vector_baseI4EdgeSaIS0_EE13_M_deallocateEPS0_m
FNDA:114,_ZNSt12_Vector_baseI4EdgeSaIS0_EE13_M_deallocateEPS0_m
FN:350,_ZNSt12_Vector_baseISt6vectorI4EdgeSaIS1_EESaIS3_EE13_M_deallocateEPS3_m
FNDA:14,_ZNSt12_Vector_baseISt6vectorI4EdgeSaIS1_EESaIS3_EE13_M_deallocateEPS3_m
FN:453,_ZNSt6vectorIS_I4EdgeSaIS0_EESaIS2_EE14_S_do_relocateEPS2_S5_S5_RS3_St17integral_constantIbLb1EE
FNDA:7,_ZNSt6vectorIS_I4EdgeSaIS0_EESaIS2_EE14_S_do_relocateEPS2_S5_S5_RS3_St17integral_constantIbLb1EE
FN:465,_ZNSt6vectorIS_I4EdgeSaIS0_EESaIS2_EE11_S_relocateEPS2_S5_S5_RS3_
FNDA:7,_ZNSt6vectorIS_I4EdgeSaIS0_EESaIS2_EE11_S_relocateEPS2_S5_S5_RS3_
FN:487,_ZNSt6vectorIS_I4EdgeSaIS0_EESaIS2_EEC2Ev
FNDA:7,_ZNSt6vectorIS_I4EdgeSaIS0_EESaIS2_EEC2Ev
FN:487,_ZNSt6vectorI4EdgeSaIS0_EEC2Ev
FNDA:39,_ZNSt6vectorI4EdgeSaIS0_EEC2Ev
FN:572,_ZNSt6vectorI4EdgeSaIS0_EEC2EOS2_
FNDA:0,_ZNSt6vectorI4EdgeSaIS0_EEC2EOS2_
FN:678,_ZNSt6vectorI4EdgeSaIS0_EED2Ev
FNDA:47,_ZNSt6vectorI4EdgeSaIS0_EED2Ev
FN:678,_ZNSt6vectorIS_I4EdgeSaIS0_EESaIS2_EED2Ev
FNDA:7,_ZNSt6vectorIS_I4EdgeSaIS0_EESaIS2_EED2Ev
FN:820,_ZNKSt6vectorIS_I4EdgeSaIS0_EESaIS2_EE5beginEv
FNDA:4,_ZNKSt6vectorIS_I4EdgeSaIS0_EESaIS2_EE5beginEv
FN:838,_ZNKSt6vectorIS_I4EdgeSaIS0_EESaIS2_EE3endEv
FNDA:4,_ZNKSt6vectorIS_I4EdgeSaIS0_EESaIS2_EE3endEv
FN:918,_ZNKSt6vectorIS_I4EdgeSaIS0_EESaIS2_EE4sizeEv
FNDA:49,_ZNKSt6vectorIS_I4EdgeSaIS0_EESaIS2_EE4sizeEv
FN:923,_ZNKSt6vectorIS_I4EdgeSaIS0_EESaIS2_EE8max_sizeEv
FNDA:28,_ZNKSt6vectorIS_I4EdgeSaIS0_EESaIS2_EE8max_sizeEv
FN:937,_ZNSt6vectorIS_I4EdgeSaIS0_EESaIS2_EE6resizeEm
FNDA:7,_ZNSt6vectorIS_I4EdgeSaIS0_EESaIS2_EE6resizeEm
FN:1007,_ZNKSt6vectorIS_I4EdgeSaIS0_EESaIS2_EE5emptyEv
FNDA:4,_ZNKSt6vectorIS_I4EdgeSaIS0_EESaIS2_EE5emptyEv
FN:1756,_ZNKSt6vectorIS_I4EdgeSaIS0_EESaIS2_EE12_M_check_lenEmPKc
FNDA:7,_ZNKSt6vectorIS_I4EdgeSaIS0_EESaIS2_EE12_M_check_lenEmPKc
FN:1776,_ZNSt6vectorIS_I4EdgeSaIS0_EESaIS2_EE11_S_max_sizeERKS3_
FNDA:28,_ZNSt6vectorIS_I4EdgeSaIS0_EESaIS2_EE11_S_max_sizeERKS3_
FN:1792,_ZNSt6vectorIS_I4EdgeSaIS0_EESaIS2_EE15_M_erase_at_endEPS2_
FNDA:0,_ZNSt6vectorIS_I4EdgeSaIS0_EESaIS2_EE15_M_erase_at_endEPS2_
DA:97,47
DA:98,47
DA:99,47
DA:97,7
DA:98,7
DA:99,7
DA:102,0
DA:103,0
DA:104,0
DA:105,0
DA:131,39
DA:133,39
DA:134,39
DA:131,7
DA:133,7
DA:134,7
DA:143,0
DA:144,0
DA:145,0
DA:276,189
DA:277,189
DA:276,21
DA:277,21
DA:280,28
DA:281,28
DA:288,39
DA:288,7
DA:308,0
DA:333,47
DA:335,47
DA:336,47
DA:337,47
DA:333,7
DA:335,7
DA:336,7
DA:337,7
DA:343,7
DA:346,7
DA:350,114
DA:353,114
DA:354,75
DA:355,114
DA:350,14
DA:353,14
DA:354,7
DA:355,14
DA:453,7
DA:456,7
DA:465,7
DA:469,7
DA:487,39
DA:487,7
DA:572,0
DA:678,47
DA:680,47
DA:681,47
DA:683,47
DA:678,7
DA:680,7
DA:681,7
DA:683,7
DA:820,4
DA:821,4
DA:838,4
DA:839,4
DA:918,49
DA:919,49
DA:923,28
DA:924,28
DA:937,7
DA:939,7
DA:940,7
DA:941,0
DA:942,0
DA:943,7
DA:1007,4
DA:1008,4
DA:1756,7
DA:1758,7
DA:1759,0
DA:1761,7
DA:1762,7
DA:1776,28
DA:1781,28
DA:1783,28
DA:1784,28
DA:1792,0
DA:1794,0
DA:1796,0
DA:1797,0
DA:1798,0
DA:1801,0
end_of_record
SF:/usr/include/c++/11/bits/move.h
FN:49,_ZSt11__addressofISt5mutexEPT_RS1_
FNDA:118,_ZSt11__addressofISt5mutexEPT_RS1_
FN:49,_ZSt11__addressofISt6vectorI4EdgeSaIS1_EEEPT_RS4_
FNDA:66,_ZSt11__addressofISt6vectorI4EdgeSaIS1_EEEPT_RS4_
FN:77,_ZSt7forwardIZ4mainEUlvE0_EOT_RNSt16remove_referenceIS1_E4typeE
FNDA:3,_ZSt7forwardIZ4mainEUlvE0_EOT_RNSt16remove_referenceIS1_E4typeE
FN:77,_ZSt7forwardIiEOT_RNSt16remove_referenceIS0_E4typeE
FNDA:70,_ZSt7forwardIiEOT_RNSt16remove_referenceIS0_E4typeE
FN:77,_ZSt7forwardIRiEOT_RNSt16remove_referenceIS1_E4typeE
FNDA:23,_ZSt7forwardIRiEOT_RNSt16remove_referenceIS1_E4typeE
FN:77,_ZSt7forwardISt14default_deleteI5GraphEEOT_RNSt16remove_referenceIS3_E4typeE
FNDA:3,_ZSt7forwardISt14default_deleteI5GraphEEOT_RNSt16remove_referenceIS3_E4typeE
FN:77,_ZSt7forwardISt14default_deleteI4TreeEEOT_RNSt16remove_referenceIS3_E4typeE
FNDA:4,_ZSt7forwardISt14default_deleteI4TreeEEOT_RNSt16remove_referenceIS3_E4typeE
FN:77,_ZSt7forwardIZ16acceptConnectioniRSt10unique_ptrI5GraphSt14default_deleteIS1_EER10MSTFactoryRS0_I4TreeS2_IS8_EERS0_I12LFThreadPoolS2_ISC_EEEUlvE_EOT_RNSt16remove_referenceISH_E4typeE
FNDA:9,_ZSt7forwardIZ16acceptConnectioniRSt10unique_ptrI5GraphSt14default_deleteIS1_EER10MSTFactoryRS0_I4TreeS2_IS8_EERS0_I12LFThreadPoolS2_ISC_EEEUlvE_EOT_RNSt16remove_referenceISH_E4typeE
FN:77,_ZSt7forwardIZ4mainEUliE_EOT_RNSt16remove_referenceIS1_E4typeE
FNDA:4,_ZSt7forwardIZ4mainEUliE_EOT_RNSt16remove_referenceIS1_E4typeE
FN:77,_ZSt7forwardIR7ReactorEOT_RNSt16remove_referenceIS2_E4typeE
FNDA:1,_ZSt7forwardIR7ReactorEOT_RNSt16remove_referenceIS2_E4typeE
FN:77,_ZSt7forwardISt14default_deleteI12LFThreadPoolEEOT_RNSt16remove_referenceIS3_E4typeE
FNDA:1,_ZSt7forwardISt14default_deleteI12LFThreadPoolEEOT_RNSt16remove_referenceIS3_E4typeE
FN:77,_ZSt7forwardIRKZ16acceptConnectioniRSt10unique_ptrI5GraphSt14default_deleteIS1_EER10MSTFactoryRS0_I4TreeS2_IS8_EERS0_I12LFThreadPoolS2_ISC_EEEUlvE_EOT_RNSt16remove_referenceISJ_E4typeE
FNDA:18,_ZSt7forwardIRKZ16acceptConnectioniRSt10unique_ptrI5GraphSt14default_deleteIS1_EER10MSTFactoryRS0_I4TreeS2_IS8_EERS0_I12LFThreadPoolS2_ISC_EEEUlvE_EOT_RNSt16remove_referenceISJ_E4typeE
FN:77,_ZSt7forwardISt6vectorI4EdgeSaIS1_EEEOT_RNSt16remove_referenceIS4_E4typeE
FNDA:0,_ZSt7forwardISt6vectorI4EdgeSaIS1_EEEOT_RNSt16remove_referenceIS4_E4typeE
FN:77,_ZSt7forwardIRKZ4mainEUliE_EOT_RNSt16remove_referenceIS3_E4typeE
FNDA:0,_ZSt7forwardIRKZ4mainEUliE_EOT_RNSt16remove_referenceIS3_E4typeE
FN:77,_ZSt7forwardIRKZ4mainEUlvE0_EOT_RNSt16remove_referenceIS3_E4typeE
FNDA:2,_ZSt7forwardIRKZ4mainEUlvE0_EOT_RNSt16remove_referenceIS3_E4typeE
FN:77,_ZSt7forwardIRZ4mainEUliE_EOT_RNSt16remove_referenceIS2_E4typeE
FNDA:2,_ZSt7forwardIRZ4mainEUliE_EOT_RNSt16remove_referenceIS2_E4typeE
FN:77,_ZSt7forwardIRZ4mainEUlvE0_EOT_RNSt16remove_referenceIS2_E4typeE
FNDA:6,_ZSt7forwardIRZ4mainEUlvE0_EOT_RNSt16remove_referenceIS2_E4typeE
FN:77,_ZSt7forwardIRZ16acceptConnectioniRSt10unique_ptrI5GraphSt14default_deleteIS1_EER10MSTFactoryRS0_I4TreeS2_IS8_EERS0_I12LFThreadPoolS2_ISC_EEEUlvE_EOT_RNSt16remove_referenceISI_E4typeE
FNDA:6,_ZSt7forwardIRZ16acceptConnectioniRSt10unique_ptrI5GraphSt14default_deleteIS1_EER10MSTFactoryRS0_I4TreeS2_IS8_EERS0_I12LFThreadPoolS2_ISC_EEEUlvE_EOT_RNSt16remove_referenceISI_E4typeE
FN:104,_ZSt4moveIRNSt12_Vector_baseI4EdgeSaIS1_EE12_Vector_implEEONSt16remove_referenceIT_E4typeEOS7_
FNDA:0,_ZSt4moveIRNSt12_Vector_baseI4EdgeSaIS1_EE12_Vector_implEEONSt16remove_referenceIT_E4typeEOS7_
FN:104,_ZSt4moveIRP12LFThreadPoolEONSt16remove_referenceIT_E4typeEOS4_
FNDA:1,_ZSt4moveIRP12LFThreadPoolEONSt16remove_referenceIT_E4typeEOS4_
FN:104,_ZSt4moveIRP7ReactorEONSt16remove_referenceIT_E4typeEOS4_
FNDA:1,_ZSt4moveIRP7ReactorEONSt16remove_referenceIT_E4typeEOS4_
FN:104,_ZSt4moveIRPFvRKSt9_Any_dataOiEEONSt16remove_referenceIT_E4typeEOS8_
FNDA:3,_ZSt4moveIRPFvRKSt9_Any_dataOiEEONSt16remove_referenceIT_E4typeEOS8_
FN:104,_ZSt4moveIRSt9_Any_dataEONSt16remove_referenceIT_E4typeEOS3_
FNDA:15,_ZSt4moveIRSt9_Any_dataEONSt16remove_referenceIT_E4typeEOS3_
FN:104,_ZSt4moveIRP4TreeEONSt16remove_referenceIT_E4typeEOS4_
FNDA:9,_ZSt4moveIRP4TreeEONSt16remove_referenceIT_E4typeEOS4_
FN:104,_ZSt4moveIRP5GraphEONSt16remove_referenceIT_E4typeEOS4_
FNDA:5,_ZSt4moveIRP5GraphEONSt16remove_referenceIT_E4typeEOS4_
FN:104,_ZSt4moveIRPFbRSt9_Any_dataRKS0_St18_Manager_operationEEONSt16remove_referenceIT_E4typeEOS9_
FNDA:15,_ZSt4moveIRPFbRSt9_Any_dataRKS0_St18_Manager_operationEEONSt16remove_referenceIT_E4typeEOS9_
FN:104,_ZSt4moveIRSt6vectorI4EdgeSaIS1_EEEONSt16remove_referenceIT_E4typeEOS6_
FNDA:0,_ZSt4moveIRSt6vectorI4EdgeSaIS1_EEEONSt16remove_referenceIT_E4typeEOS6_
FN:104,_ZSt4moveIRP11MSTStrategyEONSt16remove_referenceIT_E4typeEOS4_
FNDA:4,_ZSt4moveIRP11MSTStrategyEONSt16remove_referenceIT_E4typeEOS4_
FN:104,_ZSt4moveIRNSt7__cxx1112basic_stringIcSt11char_traitsIcESaIcEEEEONSt16remove_referenceIT_E4typeEOS8_
FNDA:128,_ZSt4moveIRNSt7__cxx1112basic_stringIcSt11char_traitsIcESaIcEEEEONSt16remove_referenceIT_E4typeEOS8_
FN:104,_ZSt4moveIRSaIcEEONSt16remove_referenceIT_E4typeEOS3_
FNDA:0,_ZSt4moveIRSaIcEEONSt16remove_referenceIT_E4typeEOS3_
FN:196,_ZSt4swapIPFvRKSt9_Any_dataOiEENSt9enable_ifIXsrSt6__and_IJSt6__not_ISt15__is_tuple_likeIT_EESt21is_move_constructibleISA_ESt18is_move_assignableISA_EEE5valueEvE4typeERSA_SK_
FNDA:1,_ZSt4swapIPFvRKSt9_Any_dataOiEENSt9enable_ifIXsrSt6__and_IJSt6__not_ISt15__is_tuple_likeIT_EESt21is_move_constructibleISA_ESt18is_move_assignableISA_EEE5valueEvE4typeERSA_SK_
FN:196,_ZSt4swapISt9_Any_dataENSt9enable_ifIXsrSt6__and_IJSt6__not_ISt15__is_tuple_likeIT_EESt21is_move_constructibleIS5_ESt18is_move_assignableIS5_EEE5valueEvE4typeERS5_SF_
FNDA:5,_ZSt4swapISt9_Any_dataENSt9enable_ifIXsrSt6__and_IJSt6__not_ISt15__is_tuple_likeIT_EESt21is_move_constructibleIS5_ESt18is_move_assignableIS5_EEE5valueEvE4typeERS5_SF_
FN:196,_ZSt4swapIPFbRSt9_Any_dataRKS0_St18_Manager_operationEENSt9enable_ifIXsrSt6__and_IJSt6__not_ISt15__is_tuple_likeIT_EESt21is_move_constructibleISB_ESt18is_move_assignableISB_EEE5valueEvE4typeERSB_SL_
FNDA:5,_ZSt4swapIPFbRSt9_Any_dataRKS0_St18_Manager_operationEENSt9enable_ifIXsrSt6__and_IJSt6__not_ISt15__is_tuple_likeIT_EESt21is_move_constructibleISB_ESt18is_move_assignableISB_EEE5valueEvE4typeERSB_SL_
DA:49,66
DA:50,66
DA:49,118
DA:50,118
DA:77,0
DA:78,0
DA:77,0
DA:78,0
DA:77,2
DA:78,2
DA:77,2
DA:78,2
DA:77,18
DA:78,18
DA:77,6
DA:78,6
DA:77,6
DA:78,6
DA:77,3
DA:78,3
DA:77,1
DA:78,1
DA:77,1
DA:78,1
DA:77,4
DA:78,4
DA:77,9
DA:78,9
DA:77,4
DA:78,4
DA:77,3
DA:78,3
DA:77,23
DA:78,23
DA:77,70
DA:78,70
DA:104,0
DA:105,0
DA:104,0
DA:105,0
DA:104,3
DA:105,3
DA:104,15
DA:105,15
DA:104,15
DA:105,15
DA:104,1
DA:105,1
DA:104,1
DA:105,1
DA:104,9
DA:105,9
DA:104,5
DA:105,5
DA:104,4
DA:105,4
DA:104,128
DA:105,128
DA:104,0
DA:105,0
DA:196,1
DA:204,1
DA:205,1
DA:206,1
DA:207,1
DA:196,5
DA:204,5
DA:205,5
DA:206,5
DA:207,5
DA:196,5
DA:204,5
DA:205,5
DA:206,5
DA:207,5
end_of_record
SF:/usr/include/x86_64-linux-gnu/c++/11/bits/gthr-default.h
FN:300,_ZL18__gthread_active_pv
FNDA:233,_ZL18__gthread_active_pv
FN:746,_ZL20__gthread_mutex_lockP15pthread_mutex_t
FNDA:105,_ZL20__gthread_mutex_lockP15pthread_mutex_t
FN:755,_ZL23__gthread_mutex_trylockP15pthread_mutex_t
FNDA:13,_ZL23__gthread_mutex_trylockP15pthread_mutex_t
FN:776,_ZL22__gthread_mutex_unlockP15pthread_mutex_t
FNDA:115,_ZL22__gthread_mutex_unlockP15pthread_mutex_t
DA:300,233
DA:302,233
DA:746,105
DA:748,105
DA:749,105
DA:751,0
DA:755,13
DA:757,13
DA:758,13
DA:760,0
DA:776,115
DA:778,115
DA:779,115
DA:781,0
end_of_record
SF:/home/eladubuntu/Git Projects/OS_2024-FINAL_PROJECT_MST/LFServer.cpp
FN:21,_Z13signalHandleri
FNDA:1,_Z13signalHandleri
FN:32,_Z12sendResponseiRKNSt7__cxx1112basic_stringIcSt11char_traitsIcESaIcEEE
FNDA:29,_Z12sendResponseiRKNSt7__cxx1112basic_stringIcSt11char_traitsIcESaIcEEE
FN:40,_Z9scanGraphiRiS_RNSt7__cxx1118basic_stringstreamIcSt11char_traitsIcESaIcEEERSt10unique_ptrI5GraphSt14default_deleteIS8_EE
FNDA:4,_Z9scanGraphiRiS_RNSt7__cxx1118basic_stringstreamIcSt11char_traitsIcESaIcEEERSt10unique_ptrI5GraphSt14default_deleteIS8_EE
FN:52,_Z11scanSrcDestRNSt7__cxx1118basic_stringstreamIcSt11char_traitsIcESaIcEEERiS6_
FNDA:6,_Z11scanSrcDestRNSt7__cxx1118basic_stringstreamIcSt11char_traitsIcESaIcEEERiS6_
FN:63,_Z14handleCommandsiRSt10unique_ptrI5GraphSt14default_deleteIS0_EER10MSTFactoryRS_I4TreeS1_IS7_EE
FNDA:3,_Z14handleCommandsiRSt10unique_ptrI5GraphSt14default_deleteIS0_EER10MSTFactoryRS_I4TreeS1_IS7_EE
FN:318,_Z16acceptConnectioniRSt10unique_ptrI5GraphSt14default_deleteIS0_EER10MSTFactoryRS_I4TreeS1_IS7_EERS_I12LFThreadPoolS1_ISB_EE
FNDA:3,_Z16acceptConnectioniRSt10unique_ptrI5GraphSt14default_deleteIS0_EER10MSTFactoryRS_I4TreeS1_IS7_EERS_I12LFThreadPoolS1_ISB_EE
FN:342,_ZZ16acceptConnectioniRSt10unique_ptrI5GraphSt14default_deleteIS0_EER10MSTFactoryRS_I4TreeS1_IS7_EERS_I12LFThreadPoolS1_ISB_EEENKUlvE_clEv
FNDA:3,_ZZ16acceptConnectioniRSt10unique_ptrI5GraphSt14default_deleteIS0_EER10MSTFactoryRS_I4TreeS1_IS7_EERS_I12LFThreadPoolS1_ISB_EEENKUlvE_clEv
FN:353,main
FNDA:1,main
FN:364,_ZZ4mainENKUliE_clEi
FNDA:1,_ZZ4mainENKUliE_clEi
FN:424,_ZZ4mainENKUlvE0_clEv
FNDA:3,_ZZ4mainENKUlvE0_clEv
DA:21,1
DA:24,1
DA:25,1
DA:26,1
DA:28,1
DA:29,1
DA:32,29
DA:34,29
DA:36,0
DA:38,29
DA:40,4
DA:42,4
DA:44,1
DA:45,1
DA:48,3
DA:49,3
DA:52,6
DA:54,6
DA:56,2
DA:57,2
DA:60,4
DA:63,35
DA:70,35
DA:71,35
DA:73,2
DA:74,2
DA:77,2
DA:78,2
DA:79,2
DA:80,2
DA:84,0
DA:85,13
DA:88,33
DA:89,33
DA:90,33
DA:92,33
DA:93,33
DA:94,33
DA:95,33
DA:97,33
DA:99,5
DA:100,5
DA:102,1
DA:103,1
DA:106,4
DA:108,2
DA:109,2
DA:111,4
DA:113,2
DA:114,2
DA:117,4
DA:118,4
DA:120,1
DA:121,1
DA:125,15
DA:127,13
DA:130,13
DA:133,13
DA:134,13
DA:135,13
DA:136,13
DA:139,13
DA:142,1
DA:143,1
DA:145,1
DA:146,1
DA:147,1
DA:148,1
DA:152,0
DA:153,0
DA:159,12
DA:162,12
DA:164,0
DA:165,0
DA:166,2
DA:172,12
DA:174,2
DA:175,2
DA:176,2
DA:179,10
DA:181,3
DA:182,5
DA:184,28
DA:186,4
DA:187,4
DA:189,1
DA:190,1
DA:191,1
DA:194,3
DA:196,1
DA:198,1
DA:200,2
DA:202,1
DA:203,1
DA:206,2
DA:208,2
DA:210,2
DA:212,2
DA:213,4
DA:214,24
DA:216,4
DA:217,4
DA:219,1
DA:220,1
DA:221,1
DA:223,3
DA:225,1
DA:226,1
DA:228,2
DA:230,1
DA:231,1
DA:234,2
DA:236,2
DA:238,2
DA:239,2
DA:240,4
DA:242,20
DA:244,3
DA:245,3
DA:247,1
DA:248,1
DA:250,2
DA:252,2
DA:253,3
DA:255,17
DA:257,7
DA:258,7
DA:260,1
DA:261,1
DA:266,6
DA:268,6
DA:269,2
DA:270,4
DA:271,4
DA:272,7
DA:273,10
DA:275,3
DA:276,3
DA:278,1
DA:279,1
DA:281,2
DA:283,2
DA:284,3
DA:285,7
DA:287,4
DA:288,4
DA:290,2
DA:291,2
DA:294,2
DA:295,2
DA:296,4
DA:297,3
DA:299,1
DA:301,1
DA:302,1
DA:303,1
DA:304,1
DA:305,1
DA:306,1
DA:310,2
DA:313,19
DA:314,107
DA:315,3
DA:316,3
DA:318,3
DA:321,3
DA:322,3
DA:323,3
DA:326,3
DA:327,3
DA:328,3
DA:330,0
DA:331,0
DA:333,3
DA:335,3
DA:337,3
DA:338,3
DA:339,3
DA:340,3
DA:342,3
DA:344,3
DA:345,3
DA:346,3
DA:348,3
DA:349,3
DA:350,3
DA:351,3
DA:353,1
DA:355,1
DA:356,1
DA:357,1
DA:358,1
DA:359,1
DA:360,1
DA:364,1
DA:367,1
DA:368,1
DA:369,1
DA:370,1
DA:371,1
DA:372,1
DA:373,1
DA:374,1
DA:375,1
DA:376,2
DA:380,1
DA:383,1
DA:385,0
DA:386,0
DA:390,1
DA:392,0
DA:393,0
DA:397,1
DA:398,1
DA:399,1
DA:400,1
DA:403,1
DA:405,0
DA:406,0
DA:410,1
DA:412,0
DA:413,0
DA:417,1
DA:418,1
DA:419,1
DA:420,1
DA:423,1
DA:424,1
DA:425,3
DA:428,1
DA:429,1
DA:430,1
DA:433,224098
DA:436,0
end_of_record
SF:/usr/include/c++/11/bits/invoke.h
FN:60,_ZSt13__invoke_implIvRZ4mainEUliE_JiEET_St14__invoke_otherOT0_DpOT1_
FNDA:1,_ZSt13__invoke_implIvRZ4mainEUliE_JiEET_St14__invoke_otherOT0_DpOT1_
FN:60,_ZSt13__invoke_implIvRZ4mainEUlvE0_JEET_St14__invoke_otherOT0_DpOT1_
FNDA:3,_ZSt13__invoke_implIvRZ4mainEUlvE0_JEET_St14__invoke_otherOT0_DpOT1_
FN:60,_ZSt13__invoke_implIvRZ16acceptConnectioniRSt10unique_ptrI5GraphSt14default_deleteIS1_EER10MSTFactoryRS0_I4TreeS2_IS8_EERS0_I12LFThreadPoolS2_ISC_EEEUlvE_JEET_St14__invoke_otherOT0_DpOT1_
FNDA:3,_ZSt13__invoke_implIvRZ16acceptConnectioniRSt10unique_ptrI5GraphSt14default_deleteIS1_EER10MSTFactoryRS0_I4TreeS2_IS8_EERS0_I12LFThreadPoolS2_ISC_EEEUlvE_JEET_St14__invoke_otherOT0_DpOT1_
FN:104,_ZSt10__invoke_rIvRZ4mainEUliE_JiEENSt9enable_ifIX16is_invocable_r_vIT_T0_DpT1_EES3_E4typeEOS4_DpOS5_
FNDA:1,_ZSt10__invoke_rIvRZ4mainEUliE_JiEENSt9enable_ifIX16is_invocable_r_vIT_T0_DpT1_EES3_E4typeEOS4_DpOS5_
FN:104,_ZSt10__invoke_rIvRZ4mainEUlvE0_JEENSt9enable_ifIX16is_invocable_r_vIT_T0_DpT1_EES3_E4typeEOS4_DpOS5_
FNDA:3,_ZSt10__invoke_rIvRZ4mainEUlvE0_JEENSt9enable_ifIX16is_invocable_r_vIT_T0_DpT1_EES3_E4typeEOS4_DpOS5_
FN:104,_ZSt10__invoke_rIvRZ16acceptConnectioniRSt10unique_ptrI5GraphSt14default_deleteIS1_EER10MSTFactoryRS0_I4TreeS2_IS8_EERS0_I12LFThreadPoolS2_ISC_EEEUlvE_JEENSt9enable_ifIX16is_invocable_r_vIT_T0_DpT1_EESJ_E4typeEOSK_DpOSL_
FNDA:3,_ZSt10__invoke_rIvRZ16acceptConnectioniRSt10unique_ptrI5GraphSt14default_deleteIS1_EER10MSTFactoryRS0_I4TreeS2_IS8_EERS0_I12LFThreadPoolS2_ISC_EEEUlvE_JEENSt9enable_ifIX16is_invocable_r_vIT_T0_DpT1_EESJ_E4typeEOSK_DpOSL_
DA:60,1
DA:61,1
DA:60,3
DA:61,3
DA:60,3
DA:61,3
DA:104,1
DA:111,1
DA:117,1
DA:104,3
DA:111,3
DA:117,3
DA:104,3
DA:111,3
DA:117,3
end_of_record
SF:/usr/include/c++/11/bits/atomic_base.h
FN:104,_ZStanSt12memory_orderSt23__memory_order_modifier
FNDA:90,_ZStanSt12memory_orderSt23__memory_order_modifier
FN:347,_ZNKSt13__atomic_baseIiEcviEv
FNDA:3,_ZNKSt13__atomic_baseIiEcviEv
DA:104,90
DA:106,90
DA:347,3
DA:348,3
DA:459,7
DA:464,7
DA:465,7
DA:484,10
DA:488,10
end_of_record
SF:/usr/include/c++/11/iostream
end_of_record
SF:/home/eladubuntu/Git Projects/OS_2024-FINAL_PROJECT_MST/LFThreadPool.hpp
FN:116,_ZN12LFThreadPool11getOutputMxEv
FNDA:1,_ZN12LFThreadPool11getOutputMxEv
DA:116,1
end_of_record
SF:/home/eladubuntu/Git Projects/OS_2024-FINAL_PROJECT_MST/Reactor.hpp
FN:44,_ZN7ReactorC2Ev
FNDA:1,_ZN7ReactorC2Ev
DA:44,1
DA:46,17
DA:47,17
DA:48,1
end_of_record
SF:/usr/include/c++/11/bits/basic_string.tcc
FN:206,_ZNSt7__cxx1112basic_stringIcSt11char_traitsIcESaIcEE12_M_constructIPcEEvT_S7_St20forward_iterator_tag
FNDA:16,_ZNSt7__cxx1112basic_stringIcSt11char_traitsIcESaIcEE12_M_constructIPcEEvT_S7_St20forward_iterator_tag
FN:206,_ZNSt7__cxx1112basic_stringIcSt11char_traitsIcESaIcEE12_M_constructIPKcEEvT_S8_St20forward_iterator_tag
FNDA:56,_ZNSt7__cxx1112basic_stringIcSt11char_traitsIcESaIcEE12_M_constructIPKcEEvT_S8_St20forward_iterator_tag
FN:1169,_ZStplIcSt11char_traitsIcESaIcEENSt7__cxx1112basic_stringIT_T0_T1_EEPKS5_RKS8_
FNDA:2,_ZStplIcSt11char_traitsIcESaIcEENSt7__cxx1112basic_stringIT_T0_T1_EEPKS5_RKS8_
DA:206,16
DA:211,16
DA:212,0
DA:215,16
DA:217,16
DA:219,0
DA:220,0
DA:225,16
DA:226,0
DA:228,0
DA:229,0
DA:232,16
DA:233,16
DA:206,56
DA:211,56
DA:212,0
DA:215,56
DA:217,56
DA:219,16
