TN:
SF:/home/eladubuntu/Git Projects/OS_2024-FINAL_PROJECT_MST/ActiveObject.cpp
FN:4,_ZN12ActiveObjectD2Ev
FN:17,_ZN12ActiveObject3runEv
FN:25,_ZZN12ActiveObject3runEvENKUlvE_clEv
FNDA:150,_ZZN12ActiveObject3runEvENKUlvE_clEv
FNDA:14,_ZN12ActiveObject3runEv
FNDA:14,_ZN12ActiveObjectD2Ev
FNF:3
FNH:3
DA:4,14
DA:7,14
DA:10,14
DA:11,14
DA:12,14
DA:14,14
DA:15,14
DA:17,86
DA:22,86
DA:24,86
DA:25,236
DA:26,100
DA:27,72
DA:28,72
DA:29,86
DA:30,72
DA:32,158
LF:17
LH:17
end_of_record
TN:
SF:/home/eladubuntu/Git Projects/OS_2024-FINAL_PROJECT_MST/ActiveObject.hpp
FN:51,_ZN12ActiveObjectC2Ev
FN:63,_ZN12ActiveObject7enqueueIZ14handleCommandsiRSt6vectorISt10unique_ptrIS_St14default_deleteIS_EESaIS5_EERS2_I5GraphS3_IS9_EER10MSTFactoryRS2_I4TreeS3_ISF_EEEUlvE1_EEvT_
FN:63,_ZN12ActiveObject7enqueueIZ14handleCommandsiRSt6vectorISt10unique_ptrIS_St14default_deleteIS_EESaIS5_EERS2_I5GraphS3_IS9_EER10MSTFactoryRS2_I4TreeS3_ISF_EEEUlvE4_EEvT_
FN:63,_ZN12ActiveObject7enqueueIZ14handleCommandsiRSt6vectorISt10unique_ptrIS_St14default_deleteIS_EESaIS5_EERS2_I5GraphS3_IS9_EER10MSTFactoryRS2_I4TreeS3_ISF_EEEUlvE3_EEvT_
FN:63,_ZN12ActiveObject7enqueueIZ14handleCommandsiRSt6vectorISt10unique_ptrIS_St14default_deleteIS_EESaIS5_EERS2_I5GraphS3_IS9_EER10MSTFactoryRS2_I4TreeS3_ISF_EEEUlvE6_EEvT_
FN:63,_ZN12ActiveObject7enqueueIZ14handleCommandsiRSt6vectorISt10unique_ptrIS_St14default_deleteIS_EESaIS5_EERS2_I5GraphS3_IS9_EER10MSTFactoryRS2_I4TreeS3_ISF_EEEUlvE5_EEvT_
FN:63,_ZN12ActiveObject7enqueueIZ14handleCommandsiRSt6vectorISt10unique_ptrIS_St14default_deleteIS_EESaIS5_EERS2_I5GraphS3_IS9_EER10MSTFactoryRS2_I4TreeS3_ISF_EEEUlvE9_EEvT_
FN:63,_ZN12ActiveObject7enqueueIZ14handleCommandsiRSt6vectorISt10unique_ptrIS_St14default_deleteIS_EESaIS5_EERS2_I5GraphS3_IS9_EER10MSTFactoryRS2_I4TreeS3_ISF_EEEUlvE10_EEvT_
FN:63,_ZN12ActiveObject7enqueueIZ14handleCommandsiRSt6vectorISt10unique_ptrIS_St14default_deleteIS_EESaIS5_EERS2_I5GraphS3_IS9_EER10MSTFactoryRS2_I4TreeS3_ISF_EEEUlvE0_EEvT_
FN:63,_ZN12ActiveObject7enqueueIZ14handleCommandsiRSt6vectorISt10unique_ptrIS_St14default_deleteIS_EESaIS5_EERS2_I5GraphS3_IS9_EER10MSTFactoryRS2_I4TreeS3_ISF_EEEUlvE2_EEvT_
FN:63,_ZN12ActiveObject7enqueueIZ14handleCommandsiRSt6vectorISt10unique_ptrIS_St14default_deleteIS_EESaIS5_EERS2_I5GraphS3_IS9_EER10MSTFactoryRS2_I4TreeS3_ISF_EEEUlvE_EEvT_
FN:63,_ZN12ActiveObject7enqueueIZ14handleCommandsiRSt6vectorISt10unique_ptrIS_St14default_deleteIS_EESaIS5_EERS2_I5GraphS3_IS9_EER10MSTFactoryRS2_I4TreeS3_ISF_EEEUlvE8_EEvT_
FN:73,_ZN12ActiveObject14getOutputMutexEv
FNDA:4,_ZN12ActiveObject7enqueueIZ14handleCommandsiRSt6vectorISt10unique_ptrIS_St14default_deleteIS_EESaIS5_EERS2_I5GraphS3_IS9_EER10MSTFactoryRS2_I4TreeS3_ISF_EEEUlvE10_EEvT_
FNDA:6,_ZN12ActiveObject7enqueueIZ14handleCommandsiRSt6vectorISt10unique_ptrIS_St14default_deleteIS_EESaIS5_EERS2_I5GraphS3_IS9_EER10MSTFactoryRS2_I4TreeS3_ISF_EEEUlvE8_EEvT_
FNDA:8,_ZN12ActiveObject7enqueueIZ14handleCommandsiRSt6vectorISt10unique_ptrIS_St14default_deleteIS_EESaIS5_EERS2_I5GraphS3_IS9_EER10MSTFactoryRS2_I4TreeS3_ISF_EEEUlvE_EEvT_
FNDA:4,_ZN12ActiveObject7enqueueIZ14handleCommandsiRSt6vectorISt10unique_ptrIS_St14default_deleteIS_EESaIS5_EERS2_I5GraphS3_IS9_EER10MSTFactoryRS2_I4TreeS3_ISF_EEEUlvE2_EEvT_
FNDA:20,_ZN12ActiveObject7enqueueIZ14handleCommandsiRSt6vectorISt10unique_ptrIS_St14default_deleteIS_EESaIS5_EERS2_I5GraphS3_IS9_EER10MSTFactoryRS2_I4TreeS3_ISF_EEEUlvE0_EEvT_
FNDA:10,_ZN12ActiveObject7enqueueIZ14handleCommandsiRSt6vectorISt10unique_ptrIS_St14default_deleteIS_EESaIS5_EERS2_I5GraphS3_IS9_EER10MSTFactoryRS2_I4TreeS3_ISF_EEEUlvE6_EEvT_
FNDA:2,_ZN12ActiveObject14getOutputMutexEv
FNDA:4,_ZN12ActiveObject7enqueueIZ14handleCommandsiRSt6vectorISt10unique_ptrIS_St14default_deleteIS_EESaIS5_EERS2_I5GraphS3_IS9_EER10MSTFactoryRS2_I4TreeS3_ISF_EEEUlvE9_EEvT_
FNDA:4,_ZN12ActiveObject7enqueueIZ14handleCommandsiRSt6vectorISt10unique_ptrIS_St14default_deleteIS_EESaIS5_EERS2_I5GraphS3_IS9_EER10MSTFactoryRS2_I4TreeS3_ISF_EEEUlvE5_EEvT_
FNDA:14,_ZN12ActiveObjectC2Ev
FNDA:4,_ZN12ActiveObject7enqueueIZ14handleCommandsiRSt6vectorISt10unique_ptrIS_St14default_deleteIS_EESaIS5_EERS2_I5GraphS3_IS9_EER10MSTFactoryRS2_I4TreeS3_ISF_EEEUlvE1_EEvT_
FNDA:4,_ZN12ActiveObject7enqueueIZ14handleCommandsiRSt6vectorISt10unique_ptrIS_St14default_deleteIS_EESaIS5_EERS2_I5GraphS3_IS9_EER10MSTFactoryRS2_I4TreeS3_ISF_EEEUlvE3_EEvT_
FNDA:4,_ZN12ActiveObject7enqueueIZ14handleCommandsiRSt6vectorISt10unique_ptrIS_St14default_deleteIS_EESaIS5_EERS2_I5GraphS3_IS9_EER10MSTFactoryRS2_I4TreeS3_ISF_EEEUlvE4_EEvT_
FNF:13
FNH:13
DA:51,14
DA:63,72
DA:66,72
DA:68,72
DA:70,72
DA:71,72
DA:73,2
LF:7
LH:7
end_of_record
TN:
SF:/home/eladubuntu/Git Projects/OS_2024-FINAL_PROJECT_MST/Graph.cpp
FN:3,_ZN5Graph7addEdgeEiii
FNDA:30,_ZN5Graph7addEdgeEiii
FNF:1
FNH:1
DA:3,30
DA:5,30
DA:6,30
DA:7,30
LF:4
LH:4
end_of_record
TN:
SF:/home/eladubuntu/Git Projects/OS_2024-FINAL_PROJECT_MST/Graph.hpp
FN:22,_ZN5GraphC2Ev
FN:23,_ZN5GraphC2Eii
FN:24,_ZN5GraphD0Ev
FN:24,_ZN5GraphD2Ev
FN:28,_ZNK5Graph17getVerticesNumberEv
FN:29,_ZNK5Graph6getAdjEv
FNDA:9,_ZN5GraphC2Eii
FNDA:9,_ZN5GraphD0Ev
FNDA:12,_ZN5GraphC2Ev
FNDA:12,_ZNK5Graph17getVerticesNumberEv
FNDA:21,_ZN5GraphD2Ev
FNDA:60,_ZNK5Graph6getAdjEv
FNF:6
FNH:6
DA:22,12
DA:23,9
DA:24,30
DA:28,12
DA:29,60
LF:5
LH:5
end_of_record
TN:
SF:/home/eladubuntu/Git Projects/OS_2024-FINAL_PROJECT_MST/LFServer.cpp
FN:21,_Z13signalHandleri
FN:32,_Z12sendResponseiRKNSt7__cxx1112basic_stringIcSt11char_traitsIcESaIcEEE
FN:40,_Z9scanGraphiRiS_RNSt7__cxx1118basic_stringstreamIcSt11char_traitsIcESaIcEEERSt10unique_ptrI5GraphSt14default_deleteIS8_EE
FN:52,_Z11scanSrcDestRNSt7__cxx1118basic_stringstreamIcSt11char_traitsIcESaIcEEERiS6_
FN:63,_Z14handleCommandsiRSt10unique_ptrI5GraphSt14default_deleteIS0_EER10MSTFactoryRS_I4TreeS1_IS7_EE
FN:318,_Z16acceptConnectioniRSt10unique_ptrI5GraphSt14default_deleteIS0_EER10MSTFactoryRS_I4TreeS1_IS7_EERS_I12LFThreadPoolS1_ISB_EE
FN:342,_ZZ16acceptConnectioniRSt10unique_ptrI5GraphSt14default_deleteIS0_EER10MSTFactoryRS_I4TreeS1_IS7_EERS_I12LFThreadPoolS1_ISB_EEENKUlvE_clEv
FN:353,main
FN:364,_ZZ4mainENKUliE_clEi
FN:424,_ZZ4mainENKUlvE0_clEv
FNDA:3,_Z16acceptConnectioniRSt10unique_ptrI5GraphSt14default_deleteIS0_EER10MSTFactoryRS_I4TreeS1_IS7_EERS_I12LFThreadPoolS1_ISB_EE
FNDA:1,_Z13signalHandleri
FNDA:29,_Z12sendResponseiRKNSt7__cxx1112basic_stringIcSt11char_traitsIcESaIcEEE
FNDA:3,_Z14handleCommandsiRSt10unique_ptrI5GraphSt14default_deleteIS0_EER10MSTFactoryRS_I4TreeS1_IS7_EE
FNDA:3,_ZZ16acceptConnectioniRSt10unique_ptrI5GraphSt14default_deleteIS0_EER10MSTFactoryRS_I4TreeS1_IS7_EERS_I12LFThreadPoolS1_ISB_EEENKUlvE_clEv
FNDA:1,main
FNDA:6,_Z11scanSrcDestRNSt7__cxx1118basic_stringstreamIcSt11char_traitsIcESaIcEEERiS6_
FNDA:4,_Z9scanGraphiRiS_RNSt7__cxx1118basic_stringstreamIcSt11char_traitsIcESaIcEEERSt10unique_ptrI5GraphSt14default_deleteIS8_EE
FNDA:3,_ZZ4mainENKUlvE0_clEv
FNDA:1,_ZZ4mainENKUliE_clEi
FNF:10
FNH:10
DA:21,1
DA:24,1
DA:25,1
DA:26,1
DA:28,1
DA:29,1
DA:32,29
DA:34,29
DA:36,0
DA:38,29
DA:40,4
DA:42,4
DA:44,1
DA:45,1
DA:48,3
DA:49,3
DA:52,6
DA:54,6
DA:56,2
DA:57,2
DA:60,4
DA:63,35
DA:70,35
DA:71,35
DA:73,2
DA:74,2
DA:77,2
DA:78,2
DA:79,2
DA:80,2
DA:84,0
DA:85,13
DA:88,33
DA:89,33
DA:90,33
DA:92,33
DA:93,33
DA:94,33
DA:95,33
DA:97,33
DA:99,5
DA:100,5
DA:102,1
DA:103,1
DA:106,4
DA:108,2
DA:109,2
DA:111,4
DA:113,2
DA:114,2
DA:117,4
DA:118,4
DA:120,1
DA:121,1
DA:125,15
DA:127,13
DA:130,13
DA:133,13
DA:134,13
DA:135,13
DA:136,13
DA:139,13
DA:142,1
DA:143,1
DA:145,1
DA:146,1
DA:147,1
DA:148,1
DA:152,0
DA:153,0
DA:159,12
DA:162,12
DA:164,0
DA:165,0
DA:166,2
DA:172,12
DA:174,2
DA:175,2
DA:176,2
DA:179,10
DA:181,3
DA:182,5
DA:184,28
DA:186,4
DA:187,4
DA:189,1
DA:190,1
DA:191,1
DA:194,3
DA:196,1
DA:198,1
DA:200,2
DA:202,1
DA:203,1
DA:206,2
DA:208,2
DA:210,2
DA:212,2
DA:213,4
DA:214,24
DA:216,4
DA:217,4
DA:219,1
DA:220,1
DA:221,1
DA:223,3
DA:225,1
DA:226,1
DA:228,2
DA:230,1
DA:231,1
DA:234,2
DA:236,2
DA:238,2
DA:239,2
DA:240,4
DA:242,20
DA:244,3
DA:245,3
DA:247,1
DA:248,1
DA:250,2
DA:252,2
DA:253,3
DA:255,17
DA:257,7
DA:258,7
DA:260,1
DA:261,1
DA:266,6
DA:268,6
DA:269,2
DA:270,4
DA:271,4
DA:272,7
DA:273,10
DA:275,3
DA:276,3
DA:278,1
DA:279,1
DA:281,2
DA:283,2
DA:284,3
DA:285,7
DA:287,4
DA:288,4
DA:290,2
DA:291,2
DA:294,2
DA:295,2
DA:296,4
DA:297,3
DA:299,1
DA:301,1
DA:302,1
DA:303,1
DA:304,1
DA:305,1
DA:306,1
DA:310,2
DA:313,19
DA:314,107
DA:315,3
DA:316,3
DA:318,3
DA:321,3
DA:322,3
DA:323,3
DA:326,3
DA:327,3
DA:328,3
DA:330,0
DA:331,0
DA:333,3
DA:335,3
DA:337,3
DA:338,3
DA:339,3
DA:340,3
DA:342,3
DA:344,3
DA:345,3
DA:346,3
DA:348,3
DA:349,3
DA:350,3
DA:351,3
DA:353,1
DA:355,1
DA:356,1
DA:357,1
DA:358,1
DA:359,1
DA:360,1
DA:364,1
DA:367,1
DA:368,1
DA:369,1
DA:370,1
DA:371,1
DA:372,1
DA:373,1
DA:374,1
DA:375,1
DA:376,2
DA:380,1
DA:383,1
DA:385,0
DA:386,0
DA:390,1
DA:392,0
DA:393,0
DA:397,1
DA:398,1
DA:399,1
DA:400,1
DA:403,1
DA:405,0
DA:406,0
DA:410,1
DA:412,0
DA:413,0
DA:417,1
DA:418,1
DA:419,1
DA:420,1
DA:423,1
DA:424,1
DA:425,3
DA:428,1
DA:429,1
DA:430,1
DA:433,224098
DA:436,0
LF:234
LH:217
end_of_record
TN:
SF:/home/eladubuntu/Git Projects/OS_2024-FINAL_PROJECT_MST/LFThreadPool.cpp
FN:4,_ZN12LFThreadPoolC2EmR7Reactor
FN:23,_ZN12LFThreadPoolD2Ev
FN:36,_ZN12LFThreadPool16promoteNewLeaderEv
FN:69,_ZN12LFThreadPool12followerLoopEi
FN:103,_ZN12LFThreadPool5addFdEiSt8functionIFvvEE
FN:109,_ZN12LFThreadPool8stopPoolEv
FN:120,_ZN12LFThreadPool4joinEv
FNDA:1,_ZN12LFThreadPool8stopPoolEv
FNDA:10,_ZN12LFThreadPool12followerLoopEi
FNDA:1,_ZN12LFThreadPoolD2Ev
FNDA:3,_ZN12LFThreadPool5addFdEiSt8functionIFvvEE
FNDA:4,_ZN12LFThreadPool16promoteNewLeaderEv
FNDA:1,_ZN12LFThreadPool4joinEv
FNDA:1,_ZN12LFThreadPoolC2EmR7Reactor
FNF:7
FNH:7
DA:4,1
DA:5,1
DA:8,11
DA:11,10
DA:13,10
DA:15,10
DA:16,10
DA:17,10
DA:20,1
DA:21,1
DA:23,1
DA:26,1
DA:27,1
DA:28,1
DA:30,1
DA:32,1
DA:33,1
DA:34,1
DA:36,4
DA:39,4
DA:42,1
DA:43,1
DA:44,1
DA:45,1
DA:47,1
DA:48,1
DA:51,6
DA:54,6
DA:57,3
DA:58,3
DA:59,3
DA:60,3
DA:62,3
DA:63,3
DA:69,13
DA:74,13
DA:76,13
DA:77,13
DA:78,13
DA:81,13
DA:82,9
DA:85,4
DA:88,3
DA:89,3
DA:92,3
DA:94,3
DA:95,3
DA:96,3
DA:98,3
DA:99,3
DA:100,9
DA:103,3
DA:106,3
DA:107,3
DA:109,1
DA:112,1
DA:113,11
DA:115,10
DA:117,1
DA:118,1
DA:120,1
DA:122,11
DA:124,10
DA:126,10
DA:127,10
DA:128,10
DA:130,10
DA:131,10
DA:132,10
DA:134,1
LF:70
LH:70
end_of_record
TN:
SF:/home/eladubuntu/Git Projects/OS_2024-FINAL_PROJECT_MST/LFThreadPool.hpp
FN:116,_ZN12LFThreadPool11getOutputMxEv
FNDA:1,_ZN12LFThreadPool11getOutputMxEv
FNF:1
FNH:1
DA:116,1
LF:1
LH:1
end_of_record
TN:
SF:/home/eladubuntu/Git Projects/OS_2024-FINAL_PROJECT_MST/MSTFactory.cpp
FN:3,_ZN10MSTFactory11setStrategyEP11MSTStrategy
FN:12,_ZN10MSTFactory9createMSTERSt10unique_ptrI5GraphSt14default_deleteIS1_EE
FNDA:12,_ZN10MSTFactory11setStrategyEP11MSTStrategy
FNDA:12,_ZN10MSTFactory9createMSTERSt10unique_ptrI5GraphSt14default_deleteIS1_EE
FNF:2
FNH:2
DA:3,12
DA:5,12
DA:7,9
DA:9,12
DA:10,12
DA:12,12
DA:14,12
DA:15,24
DA:16,12
LF:9
LH:9
end_of_record
TN:
SF:/home/eladubuntu/Git Projects/OS_2024-FINAL_PROJECT_MST/MSTFactory.hpp
FN:25,_ZN10MSTFactory15destroyStrategyEv
FNDA:3,_ZN10MSTFactory15destroyStrategyEv
FNF:1
FNH:1
DA:25,3
LF:1
LH:1
end_of_record
TN:
SF:/home/eladubuntu/Git Projects/OS_2024-FINAL_PROJECT_MST/MSTStrategy.cpp
FN:3,_ZN12PrimStrategy6minKeyESt6vectorIiSaIiEES0_IbSaIbEEi
FN:17,_ZN12PrimStrategy7findMSTERK5Graph
FN:64,_ZN3DSU4findEi
FN:73,_ZN3DSU5uniteEii
FN:97,_ZN15KruskalStrategy7findMSTERK5Graph
FN:114,_ZZN15KruskalStrategy7findMSTERK5GraphENKUl4EdgeS3_E_clES3_S3_
FNDA:6,_ZN12PrimStrategy7findMSTERK5Graph
FNDA:96,_ZN3DSU4findEi
FNDA:6,_ZN15KruskalStrategy7findMSTERK5Graph
FNDA:21,_ZN3DSU5uniteEii
FNDA:45,_ZZN15KruskalStrategy7findMSTERK5GraphENKUl4EdgeS3_E_clES3_S3_
FNDA:21,_ZN12PrimStrategy6minKeyESt6vectorIiSaIiEES0_IbSaIbEEi
FNF:6
FNH:6
DA:3,21
DA:5,21
DA:6,117
DA:8,96
DA:10,36
DA:11,36
DA:14,21
DA:17,6
DA:19,6
DA:20,6
DA:22,6
DA:24,6
DA:26,6
DA:29,6
DA:31,6
DA:34,27
DA:37,21
DA:40,21
DA:44,63
DA:46,42
DA:47,42
DA:48,42
DA:50,24
DA:51,24
DA:56,27
DA:58,21
DA:61,12
DA:62,6
DA:64,96
DA:66,96
DA:68,84
DA:70,12
DA:73,21
DA:75,21
DA:76,21
DA:78,21
DA:80,21
DA:82,6
DA:84,15
DA:86,3
DA:90,12
DA:91,12
DA:94,21
DA:97,6
DA:98,6
DA:99,6
DA:100,6
DA:101,6
DA:104,6
DA:105,33
DA:106,81
DA:107,54
DA:108,27
DA:114,6
DA:115,45
DA:118,6
DA:121,27
DA:122,21
DA:124,21
DA:125,21
DA:127,21
DA:128,21
DA:129,21
DA:130,21
DA:139,12
DA:140,6
LF:66
LH:66
end_of_record
TN:
SF:/home/eladubuntu/Git Projects/OS_2024-FINAL_PROJECT_MST/MSTStrategy.hpp
FN:56,_ZN3DSUC2Ei
FNDA:6,_ZN3DSUC2Ei
FNF:1
FNH:1
DA:56,6
LF:1
LH:1
end_of_record
TN:
SF:/home/eladubuntu/Git Projects/OS_2024-FINAL_PROJECT_MST/PipelineServer.cpp
FN:34,_Z13signalHandleri
FN:47,_Z12sendResponseiRKNSt7__cxx1112basic_stringIcSt11char_traitsIcESaIcEEE
FN:56,_Z9scanGraphRiS_RNSt7__cxx1118basic_stringstreamIcSt11char_traitsIcESaIcEEERSt10unique_ptrI5GraphSt14default_deleteIS8_EE
FN:71,_Z11scanSrcDestRNSt7__cxx1118basic_stringstreamIcSt11char_traitsIcESaIcEEERSt6atomicIiES8_
FN:89,_Z14handleCommandsiRSt6vectorISt10unique_ptrI12ActiveObjectSt14default_deleteIS1_EESaIS4_EERS0_I5GraphS2_IS8_EER10MSTFactoryRS0_I4TreeS2_ISE_EE
FN:144,_ZZ14handleCommandsiRSt6vectorISt10unique_ptrI12ActiveObjectSt14default_deleteIS1_EESaIS4_EERS0_I5GraphS2_IS8_EER10MSTFactoryRS0_I4TreeS2_ISE_EEENKUlvE_clEv
FN:202,_ZZ14handleCommandsiRSt6vectorISt10unique_ptrI12ActiveObjectSt14default_deleteIS1_EESaIS4_EERS0_I5GraphS2_IS8_EER10MSTFactoryRS0_I4TreeS2_ISE_EEENKUlvE0_clEv
FN:226,_ZZ14handleCommandsiRSt6vectorISt10unique_ptrI12ActiveObjectSt14default_deleteIS1_EESaIS4_EERS0_I5GraphS2_IS8_EER10MSTFactoryRS0_I4TreeS2_ISE_EEENKUlvE1_clEv
FN:237,_ZZ14handleCommandsiRSt6vectorISt10unique_ptrI12ActiveObjectSt14default_deleteIS1_EESaIS4_EERS0_I5GraphS2_IS8_EER10MSTFactoryRS0_I4TreeS2_ISE_EEENKUlvE2_clEv
FN:256,_ZZ14handleCommandsiRSt6vectorISt10unique_ptrI12ActiveObjectSt14default_deleteIS1_EESaIS4_EERS0_I5GraphS2_IS8_EER10MSTFactoryRS0_I4TreeS2_ISE_EEENKUlvE3_clEv
FN:267,_ZZ14handleCommandsiRSt6vectorISt10unique_ptrI12ActiveObjectSt14default_deleteIS1_EESaIS4_EERS0_I5GraphS2_IS8_EER10MSTFactoryRS0_I4TreeS2_ISE_EEENKUlvE4_clEv
FN:286,_ZZ14handleCommandsiRSt6vectorISt10unique_ptrI12ActiveObjectSt14default_deleteIS1_EESaIS4_EERS0_I5GraphS2_IS8_EER10MSTFactoryRS0_I4TreeS2_ISE_EEENKUlvE5_clEv
FN:307,_ZZ14handleCommandsiRSt6vectorISt10unique_ptrI12ActiveObjectSt14default_deleteIS1_EESaIS4_EERS0_I5GraphS2_IS8_EER10MSTFactoryRS0_I4TreeS2_ISE_EEENKUlvE6_clEv
FN:316,_ZZ14handleCommandsiRSt6vectorISt10unique_ptrI12ActiveObjectSt14default_deleteIS1_EESaIS4_EERS0_I5GraphS2_IS8_EER10MSTFactoryRS0_I4TreeS2_ISE_EEENKUlvE7_clEv
FN:329,_ZZ14handleCommandsiRSt6vectorISt10unique_ptrI12ActiveObjectSt14default_deleteIS1_EESaIS4_EERS0_I5GraphS2_IS8_EER10MSTFactoryRS0_I4TreeS2_ISE_EEENKUlvE8_clEv
FN:350,_ZZ14handleCommandsiRSt6vectorISt10unique_ptrI12ActiveObjectSt14default_deleteIS1_EESaIS4_EERS0_I5GraphS2_IS8_EER10MSTFactoryRS0_I4TreeS2_ISE_EEENKUlvE9_clEv
FN:365,_ZZ14handleCommandsiRSt6vectorISt10unique_ptrI12ActiveObjectSt14default_deleteIS1_EESaIS4_EERS0_I5GraphS2_IS8_EER10MSTFactoryRS0_I4TreeS2_ISE_EEENKUlvE10_clEv
FN:400,_Z16acceptConnectioni
FN:422,main
FN:433,_ZZ4mainENKUliE_clEi
FN:516,_ZZ4mainENKUlPvE0_clES_
FNDA:20,_ZZ14handleCommandsiRSt6vectorISt10unique_ptrI12ActiveObjectSt14default_deleteIS1_EESaIS4_EERS0_I5GraphS2_IS8_EER10MSTFactoryRS0_I4TreeS2_ISE_EEENKUlvE0_clEv
FNDA:20,_ZZ14handleCommandsiRSt6vectorISt10unique_ptrI12ActiveObjectSt14default_deleteIS1_EESaIS4_EERS0_I5GraphS2_IS8_EER10MSTFactoryRS0_I4TreeS2_ISE_EEENKUlvE7_clEv
FNDA:6,_ZZ4mainENKUlPvE0_clES_
FNDA:4,_ZZ14handleCommandsiRSt6vectorISt10unique_ptrI12ActiveObjectSt14default_deleteIS1_EESaIS4_EERS0_I5GraphS2_IS8_EER10MSTFactoryRS0_I4TreeS2_ISE_EEENKUlvE3_clEv
FNDA:4,_ZZ14handleCommandsiRSt6vectorISt10unique_ptrI12ActiveObjectSt14default_deleteIS1_EESaIS4_EERS0_I5GraphS2_IS8_EER10MSTFactoryRS0_I4TreeS2_ISE_EEENKUlvE10_clEv
FNDA:4,_ZZ14handleCommandsiRSt6vectorISt10unique_ptrI12ActiveObjectSt14default_deleteIS1_EESaIS4_EERS0_I5GraphS2_IS8_EER10MSTFactoryRS0_I4TreeS2_ISE_EEENKUlvE1_clEv
FNDA:4,_ZZ14handleCommandsiRSt6vectorISt10unique_ptrI12ActiveObjectSt14default_deleteIS1_EESaIS4_EERS0_I5GraphS2_IS8_EER10MSTFactoryRS0_I4TreeS2_ISE_EEENKUlvE4_clEv
FNDA:8,_Z9scanGraphRiS_RNSt7__cxx1118basic_stringstreamIcSt11char_traitsIcESaIcEEERSt10unique_ptrI5GraphSt14default_deleteIS8_EE
FNDA:10,_ZZ14handleCommandsiRSt6vectorISt10unique_ptrI12ActiveObjectSt14default_deleteIS1_EESaIS4_EERS0_I5GraphS2_IS8_EER10MSTFactoryRS0_I4TreeS2_ISE_EEENKUlvE6_clEv
FNDA:4,_ZZ14handleCommandsiRSt6vectorISt10unique_ptrI12ActiveObjectSt14default_deleteIS1_EESaIS4_EERS0_I5GraphS2_IS8_EER10MSTFactoryRS0_I4TreeS2_ISE_EEENKUlvE2_clEv
FNDA:64,_Z12sendResponseiRKNSt7__cxx1112basic_stringIcSt11char_traitsIcESaIcEEE
FNDA:4,_ZZ14handleCommandsiRSt6vectorISt10unique_ptrI12ActiveObjectSt14default_deleteIS1_EESaIS4_EERS0_I5GraphS2_IS8_EER10MSTFactoryRS0_I4TreeS2_ISE_EEENKUlvE9_clEv
FNDA:2,_Z13signalHandleri
FNDA:6,_ZZ14handleCommandsiRSt6vectorISt10unique_ptrI12ActiveObjectSt14default_deleteIS1_EESaIS4_EERS0_I5GraphS2_IS8_EER10MSTFactoryRS0_I4TreeS2_ISE_EEENKUlvE8_clEv
FNDA:10,_Z11scanSrcDestRNSt7__cxx1118basic_stringstreamIcSt11char_traitsIcESaIcEEERSt6atomicIiES8_
FNDA:4,_ZZ14handleCommandsiRSt6vectorISt10unique_ptrI12ActiveObjectSt14default_deleteIS1_EESaIS4_EERS0_I5GraphS2_IS8_EER10MSTFactoryRS0_I4TreeS2_ISE_EEENKUlvE5_clEv
FNDA:2,_ZZ4mainENKUliE_clEi
FNDA:8,_ZZ14handleCommandsiRSt6vectorISt10unique_ptrI12ActiveObjectSt14default_deleteIS1_EESaIS4_EERS0_I5GraphS2_IS8_EER10MSTFactoryRS0_I4TreeS2_ISE_EEENKUlvE_clEv
FNDA:6,_Z14handleCommandsiRSt6vectorISt10unique_ptrI12ActiveObjectSt14default_deleteIS1_EESaIS4_EERS0_I5GraphS2_IS8_EER10MSTFactoryRS0_I4TreeS2_ISE_EE
FNDA:2,main
FNDA:8,_Z16acceptConnectioni
FNF:21
FNH:21
DA:34,2
DA:36,2
DA:37,2
DA:38,2
DA:40,2
DA:41,2
DA:42,2
DA:43,2
DA:44,2
DA:45,0
DA:47,64
DA:49,64
DA:51,0
DA:52,0
DA:53,0
DA:54,64
DA:56,8
DA:59,8
DA:61,2
DA:62,2
DA:63,2
DA:64,2
DA:66,6
DA:68,6
DA:71,10
DA:75,10
DA:78,4
DA:79,4
DA:83,6
DA:84,6
DA:86,6
DA:89,6
DA:90,6
DA:91,6
DA:92,6
DA:93,6
DA:95,62
DA:96,62
DA:97,62
DA:98,62
DA:99,4
DA:100,4
DA:101,4
DA:102,4
DA:103,4
DA:104,4
DA:105,0
DA:108,58
DA:109,58
DA:110,58
DA:112,58
DA:113,58
DA:115,58
DA:116,58
DA:117,58
DA:119,58
DA:121,58
DA:123,10
DA:126,10
DA:127,2
DA:128,2
DA:130,8
DA:131,4
DA:132,4
DA:134,8
DA:135,4
DA:136,4
DA:139,8
DA:140,8
DA:141,8
DA:142,8
DA:144,8
DA:145,8
DA:146,8
DA:147,8
DA:148,8
DA:149,8
DA:150,8
DA:154,8
DA:155,16
DA:156,8
DA:158,8
DA:159,8
DA:160,2
DA:161,2
DA:164,32
DA:165,28
DA:168,28
DA:169,28
DA:170,28
DA:171,28
DA:172,28
DA:173,28
DA:175,28
DA:176,2
DA:177,2
DA:178,2
DA:179,2
DA:180,2
DA:181,2
DA:182,0
DA:183,0
DA:187,26
DA:188,26
DA:189,0
DA:190,0
DA:191,0
DA:194,28
DA:196,26
DA:197,6
DA:198,6
DA:199,6
DA:202,20
DA:203,20
DA:204,20
DA:205,20
DA:209,6
DA:210,6
DA:211,6
DA:212,6
DA:213,6
DA:214,60
DA:215,6
DA:216,6
DA:217,2
DA:218,2
DA:221,4
DA:222,2
DA:223,2
DA:226,4
DA:227,4
DA:228,4
DA:229,4
DA:230,4
DA:233,4
DA:234,4
DA:235,4
DA:237,4
DA:238,4
DA:239,4
DA:240,4
DA:241,4
DA:242,4
DA:243,4
DA:244,48
DA:245,6
DA:246,6
DA:247,2
DA:248,2
DA:251,4
DA:252,2
DA:253,2
DA:256,4
DA:257,4
DA:258,4
DA:259,4
DA:260,4
DA:263,4
DA:264,4
DA:265,4
DA:267,4
DA:268,4
DA:269,4
DA:270,4
DA:271,4
DA:272,4
DA:273,4
DA:274,42
DA:275,6
DA:276,6
DA:277,2
DA:278,2
DA:282,4
DA:283,4
DA:284,4
DA:286,4
DA:287,4
DA:288,4
DA:289,4
DA:290,4
DA:291,4
DA:292,4
DA:293,36
DA:294,12
DA:295,12
DA:296,2
DA:297,2
DA:300,10
DA:301,10
DA:303,10
DA:304,10
DA:305,10
DA:307,10
DA:308,10
DA:309,10
DA:310,10
DA:311,10
DA:312,10
DA:315,10
DA:316,30
DA:317,10
DA:319,10
DA:320,4
DA:321,4
DA:325,6
DA:326,12
DA:327,6
DA:329,6
DA:330,6
DA:331,18
DA:333,6
DA:334,6
DA:335,6
DA:336,6
DA:337,6
DA:338,34
DA:339,6
DA:340,6
DA:341,2
DA:342,2
DA:346,4
DA:347,4
DA:348,4
DA:350,4
DA:351,4
DA:352,4
DA:353,4
DA:354,4
DA:355,4
DA:356,4
DA:357,4
DA:358,18
DA:359,6
DA:360,6
DA:361,2
DA:362,2
DA:365,4
DA:366,4
DA:367,4
DA:368,4
DA:369,4
DA:370,4
DA:371,4
DA:372,12
DA:373,2
DA:374,2
DA:375,2
DA:377,4
DA:378,4
DA:382,32
DA:383,58
DA:384,26
DA:386,32
DA:387,32
DA:388,32
DA:389,32
DA:390,136
DA:392,6
DA:397,6
DA:400,8
DA:403,8
DA:404,8
DA:405,6
DA:407,0
DA:408,0
DA:410,6
DA:412,6
DA:414,6
DA:415,6
DA:416,12
DA:417,6
DA:418,6
DA:422,2
DA:425,2
DA:426,2
DA:427,2
DA:428,2
DA:429,2
DA:430,2
DA:431,2
DA:432,2
DA:433,2
DA:437,8
DA:439,6
DA:440,6
DA:442,2
DA:443,2
DA:444,2
DA:445,2
DA:446,2
DA:447,2
DA:448,16
DA:451,14
DA:453,2
DA:454,2
DA:455,4
DA:460,2
DA:463,2
DA:465,0
DA:466,0
DA:470,2
DA:472,0
DA:473,0
DA:477,2
DA:478,2
DA:479,2
DA:480,2
DA:483,2
DA:485,0
DA:486,0
DA:490,2
DA:492,0
DA:493,0
DA:497,2
DA:498,2
DA:499,2
DA:501,16
DA:503,14
DA:508,8
DA:509,6
DA:511,0
DA:514,6
DA:516,6
DA:518,6
DA:519,6
DA:521,6
DA:523,6
DA:524,6
DA:525,6
DA:529,0
LF:330
LH:308
end_of_record
TN:
SF:/home/eladubuntu/Git Projects/OS_2024-FINAL_PROJECT_MST/Reactor.cpp
FN:3,_ZN7Reactor9addHandleEiSt8functionIFvvEE
FN:10,_ZN7Reactor12handleEventsEv
FNDA:1,_ZN7Reactor9addHandleEiSt8functionIFvvEE
FNDA:4,_ZN7Reactor12handleEventsEv
FNF:2
FNH:2
DA:3,1
DA:5,1
DA:6,1
DA:7,1
DA:8,1
DA:10,4
DA:13,4
DA:15,4
DA:18,3
DA:20,0
DA:21,0
DA:25,15
DA:28,12
DA:30,3
DA:32,3
DA:37,3
LF:16
LH:14
end_of_record
TN:
SF:/home/eladubuntu/Git Projects/OS_2024-FINAL_PROJECT_MST/Reactor.hpp
FN:44,_ZN7ReactorC2Ev
FNDA:1,_ZN7ReactorC2Ev
FNF:1
FNH:1
DA:44,1
DA:46,17
DA:47,17
DA:48,1
LF:4
LH:4
end_of_record
TN:
SF:/home/eladubuntu/Git Projects/OS_2024-FINAL_PROJECT_MST/ThreadContext.cpp
FN:3,_ZN13ThreadContext12createThreadESt8functionIFvvEE
FN:8,_ZZN13ThreadContext12createThreadESt8functionIFvvEEENKUlPvE_clES3_
FN:25,_ZN13ThreadContext6wakeUpEv
FN:33,_ZN13ThreadContext5sleepEv
FN:39,_ZN13ThreadContext13conditionWaitERKSt6atomicIbE
FN:43,_ZZN13ThreadContext13conditionWaitERKSt6atomicIbEENKUlvE_clEv
FNDA:26,_ZZN13ThreadContext13conditionWaitERKSt6atomicIbEENKUlvE_clEv
FNDA:10,_ZN13ThreadContext12createThreadESt8functionIFvvEE
FNDA:10,_ZZN13ThreadContext12createThreadESt8functionIFvvEEENKUlPvE_clES3_
FNDA:13,_ZN13ThreadContext13conditionWaitERKSt6atomicIbE
FNDA:4,_ZN13ThreadContext6wakeUpEv
FNDA:3,_ZN13ThreadContext5sleepEv
FNF:6
FNH:6
DA:3,10
DA:6,10
DA:8,10
DA:10,10
DA:13,10
DA:15,9
DA:16,10
DA:18,10
DA:19,0
DA:22,10
DA:25,4
DA:27,4
DA:29,4
DA:30,4
DA:31,4
DA:33,3
DA:35,3
DA:36,3
DA:37,3
DA:39,13
DA:42,13
DA:43,39
DA:44,13
LF:23
LH:22
end_of_record
TN:
SF:/home/eladubuntu/Git Projects/OS_2024-FINAL_PROJECT_MST/ThreadContext.hpp
FN:39,_ZN13ThreadContextC2Ev
FN:44,_ZN13ThreadContextD2Ev
FN:58,_ZN13ThreadContext9addHandleEiSt8functionIFvvEE
FN:64,_ZN13ThreadContext12executeEventEv
FN:66,_ZNK13ThreadContext5getIdEv
FN:71,_ZN13ThreadContextneERKS_
FN:85,_ZN13ThreadContext7isAwakeEv
FN:100,_ZN13ThreadContext6notifyEv
FN:103,_ZN13ThreadContext4joinEv
FN:104,_ZN13ThreadContext6cancelEv
FNDA:10,_ZN13ThreadContextD2Ev
FNDA:10,_ZN13ThreadContext6notifyEv
FNDA:3,_ZN13ThreadContext9addHandleEiSt8functionIFvvEE
FNDA:6,_ZN13ThreadContextneERKS_
FNDA:10,_ZN13ThreadContext6cancelEv
FNDA:10,_ZN13ThreadContext4joinEv
FNDA:3,_ZN13ThreadContext12executeEventEv
FNDA:10,_ZN13ThreadContextC2Ev
FNDA:40,_ZNK13ThreadContext5getIdEv
FNDA:4,_ZN13ThreadContext7isAwakeEv
FNF:10
FNH:10
DA:39,10
DA:44,10
DA:58,3
DA:64,3
DA:66,40
DA:71,6
DA:85,4
DA:100,10
DA:103,10
DA:104,10
LF:10
LH:10
end_of_record
TN:
SF:/home/eladubuntu/Git Projects/OS_2024-FINAL_PROJECT_MST/Tree.cpp
FN:11,_ZN4Tree4initESt6vectorI4EdgeSaIS1_EE
FN:23,_ZN4Tree11totalWeightEv
FN:36,_ZN4Tree8dijkstraEiRSt6vectorIiSaIiEE
FN:72,_ZN4Tree3dfsEiiRSt6vectorIiSaIiEES3_
FN:85,_ZN4Tree12shortestPathB5cxx11Eii
FN:107,_ZN4Tree15reconstructPathB5cxx11EiiRKSt6vectorIiSaIiEEi
FN:143,_ZN4Tree13floydWarshallEv
FN:171,_ZN4Tree20averageDistanceEdgesEv
FN:192,_ZN4Tree12farthestNodeEi
FN:214,_ZN4Tree8diameterEv
FN:225,_ZN4Tree7addEdgeEiii
FN:250,_ZN4Tree10removeEdgeEii
FN:255,_ZN4Tree8printMSTB5cxx11Ev
FN:261,_ZN4Tree8printMSTB5cxx11EiiiRSt6vectorIbSaIbEE
FNDA:6,_ZN4Tree8dijkstraEiRSt6vectorIiSaIiEE
FNDA:6,_ZN4Tree15reconstructPathB5cxx11EiiRKSt6vectorIiSaIiEEi
FNDA:10,_ZN4Tree12shortestPathB5cxx11Eii
FNDA:6,_ZN4Tree8diameterEv
FNDA:6,_ZN4Tree11totalWeightEv
FNDA:0,_ZN4Tree10removeEdgeEii
FNDA:42,_ZN4Tree7addEdgeEiii
FNDA:54,_ZN4Tree3dfsEiiRSt6vectorIiSaIiEES3_
FNDA:12,_ZN4Tree4initESt6vectorI4EdgeSaIS1_EE
FNDA:6,_ZN4Tree20averageDistanceEdgesEv
FNDA:54,_ZN4Tree8printMSTB5cxx11EiiiRSt6vectorIbSaIbEE
FNDA:12,_ZN4Tree12farthestNodeEi
FNDA:6,_ZN4Tree13floydWarshallEv
FNDA:12,_ZN4Tree8printMSTB5cxx11Ev
FNF:14
FNH:13
DA:11,12
DA:13,12
DA:14,12
DA:15,12
DA:17,54
DA:19,42
DA:21,12
DA:23,6
DA:25,6
DA:26,33
DA:28,69
DA:30,42
DA:33,6
DA:36,6
DA:39,6
DA:41,6
DA:43,6
DA:44,6
DA:45,6
DA:48,33
DA:51,27
DA:52,27
DA:55,69
DA:57,42
DA:58,42
DA:60,42
DA:63,21
DA:64,21
DA:65,21
DA:69,12
DA:70,6
DA:72,54
DA:74,138
DA:76,84
DA:78,42
DA:79,42
DA:80,42
DA:83,54
DA:85,10
DA:87,10
DA:89,0
DA:91,10
DA:93,4
DA:96,6
DA:97,6
DA:99,6
DA:101,0
DA:104,6
DA:105,6
DA:107,6
DA:109,6
DA:110,6
DA:112,0
DA:115,6
DA:116,26
DA:118,26
DA:119,26
DA:122,6
DA:124,0
DA:127,6
DA:128,6
DA:130,32
DA:132,26
DA:133,26
DA:135,20
DA:138,6
DA:139,6
DA:140,6
DA:143,6
DA:145,6
DA:146,33
DA:148,27
DA:149,69
DA:151,42
DA:155,33
DA:157,150
DA:159,690
DA:161,834
DA:162,267
DA:164,54
DA:169,6
DA:171,6
DA:173,6
DA:174,6
DA:175,6
DA:176,33
DA:178,75
DA:180,48
DA:182,48
DA:183,48
DA:188,6
DA:192,12
DA:194,12
DA:195,12
DA:196,12
DA:198,12
DA:200,12
DA:201,12
DA:202,66
DA:204,54
DA:206,21
DA:207,21
DA:211,24
DA:212,12
DA:214,6
DA:217,6
DA:220,6
DA:222,6
DA:225,42
DA:227,42
DA:229,0
DA:230,0
DA:233,42
DA:235,0
DA:236,0
DA:239,42
DA:241,0
DA:242,0
DA:245,42
DA:246,42
DA:247,42
DA:248,42
DA:250,0
DA:252,0
DA:255,12
DA:257,12
DA:258,36
DA:259,12
DA:261,54
DA:263,54
DA:264,54
DA:265,12
DA:268,54
DA:270,138
DA:272,84
DA:275,42
DA:278,42
DA:281,42
DA:284,42
DA:285,42
DA:288,54
DA:289,12
DA:292,54
DA:293,0
LF:144
LH:131
end_of_record
TN:
SF:/home/eladubuntu/Git Projects/OS_2024-FINAL_PROJECT_MST/Tree.hpp
FN:24,_ZN4TreeC2ESt6vectorI4EdgeSaIS1_EE
FNDA:12,_ZN4TreeC2ESt6vectorI4EdgeSaIS1_EE
FNF:1
FNH:1
DA:24,12
LF:1
LH:1
end_of_record
TN:
SF:/usr/include/c++/11/atomic
FN:76,_ZNSt6atomicIbEC2Eb
FN:86,_ZNKSt6atomicIbEcvbEv
FN:103,_ZNSt6atomicIbE5storeEbSt12memory_order
FN:111,_ZNKSt6atomicIbE4loadESt12memory_order
FNDA:74,_ZNKSt6atomicIbEcvbEv
FNDA:26,_ZNSt6atomicIbEC2Eb
FNDA:363,_ZNKSt6atomicIbE4loadESt12memory_order
FNDA:96,_ZNSt6atomicIbE5storeEbSt12memory_order
FNF:4
FNH:4
DA:76,26
DA:86,74
DA:87,148
DA:103,96
DA:104,96
DA:111,363
DA:112,726
LF:7
LH:7
end_of_record
TN:
SF:/usr/include/c++/11/bits/alloc_traits.h
FN:463,_ZNSt16allocator_traitsISaIiEE8allocateERS0_m
FN:463,_ZNSt16allocator_traitsISaISt4pairIiiEEE8allocateERS2_m
FN:463,_ZNSt16allocator_traitsISaISt10shared_ptrI13ThreadContextEEE8allocateERS3_m
FN:463,_ZNSt16allocator_traitsISaISt6vectorI4EdgeSaIS1_EEEE8allocateERS4_m
FN:463,_ZNSt16allocator_traitsISaI4EdgeEE8allocateERS1_m
FN:463,_ZNSt16allocator_traitsISaISt13_Rb_tree_nodeISt4pairIKiSt8functionIFvvEEEEEE8allocateERS8_m
FN:463,_ZNSt16allocator_traitsISaImEE8allocateERS0_m
FN:463,_ZNSt16allocator_traitsISaISt6vectorIiSaIiEEEE8allocateERS3_m
FN:463,_ZNSt16allocator_traitsISaIPSt8functionIFvvEEEE8allocateERS4_m
FN:463,_ZNSt16allocator_traitsISaISt10unique_ptrI12ActiveObjectSt14default_deleteIS1_EEEE8allocateERS5_m
FN:463,_ZNSt16allocator_traitsISaISt23_Sp_counted_ptr_inplaceI13ThreadContextSaIS1_ELN9__gnu_cxx12_Lock_policyE2EEEE8allocateERS6_m
FN:463,_ZNSt16allocator_traitsISaISt8functionIFvvEEEE8allocateERS3_m
FN:495,_ZNSt16allocator_traitsISaImEE10deallocateERS0_Pmm
FN:495,_ZNSt16allocator_traitsISaISt6vectorIiSaIiEEEE10deallocateERS3_PS2_m
FN:495,_ZNSt16allocator_traitsISaISt13_Rb_tree_nodeISt4pairIKiSt8functionIFvvEEEEEE10deallocateERS8_PS7_m
FN:495,_ZNSt16allocator_traitsISaISt23_Sp_counted_ptr_inplaceI13ThreadContextSaIS1_ELN9__gnu_cxx12_Lock_policyE2EEEE10deallocateERS6_PS5_m
FN:495,_ZNSt16allocator_traitsISaISt6vectorI4EdgeSaIS1_EEEE10deallocateERS4_PS3_m
FN:495,_ZNSt16allocator_traitsISaIPSt8functionIFvvEEEE10deallocateERS4_PS3_m
FN:495,_ZNSt16allocator_traitsISaIiEE10deallocateERS0_Pim
FN:495,_ZNSt16allocator_traitsISaISt4pairIiiEEE10deallocateERS2_PS1_m
FN:495,_ZNSt16allocator_traitsISaISt10unique_ptrI12ActiveObjectSt14default_deleteIS1_EEEE10deallocateERS5_PS4_m
FN:495,_ZNSt16allocator_traitsISaISt8functionIFvvEEEE10deallocateERS3_PS2_m
FN:495,_ZNSt16allocator_traitsISaISt6threadEE10deallocateERS1_PS0_m
FN:495,_ZNSt16allocator_traitsISaISt10shared_ptrI13ThreadContextEEE10deallocateERS3_PS2_m
FN:495,_ZNSt16allocator_traitsISaI4EdgeEE10deallocateERS1_PS0_m
FN:511,_ZNSt16allocator_traitsISaImEE9constructImJRKmEEEvRS0_PT_DpOT0_
FN:511,_ZNSt16allocator_traitsISaIiEE9constructIiJiEEEvRS0_PT_DpOT0_
FN:511,_ZNSt16allocator_traitsISaISt6vectorI4EdgeSaIS1_EEEE9constructIS3_JS3_EEEvRS4_PT_DpOT0_
FN:511,_ZNSt16allocator_traitsISaISt4pairIiiEEE9constructIS1_JS1_EEEvRS2_PT_DpOT0_
FN:511,_ZNSt16allocator_traitsISaISt8functionIFvvEEEE9constructIS2_JRZ14handleCommandsiRSt6vectorISt10unique_ptrI12ActiveObjectSt14default_deleteIS8_EESaISB_EERS7_I5GraphS9_ISF_EER10MSTFactoryRS7_I4TreeS9_ISL_EEEUlvE10_EEEvRS3_PT_DpOT0_
FN:511,_ZNSt16allocator_traitsISaISt8functionIFvvEEEE9constructIS2_JRZ14handleCommandsiRSt6vectorISt10unique_ptrI12ActiveObjectSt14default_deleteIS8_EESaISB_EERS7_I5GraphS9_ISF_EER10MSTFactoryRS7_I4TreeS9_ISL_EEEUlvE2_EEEvRS3_PT_DpOT0_
FN:511,_ZNSt16allocator_traitsISaISt8functionIFvvEEEE9constructIS2_JRZ14handleCommandsiRSt6vectorISt10unique_ptrI12ActiveObjectSt14default_deleteIS8_EESaISB_EERS7_I5GraphS9_ISF_EER10MSTFactoryRS7_I4TreeS9_ISL_EEEUlvE8_EEEvRS3_PT_DpOT0_
FN:511,_ZNSt16allocator_traitsISaISt8functionIFvvEEEE9constructIS2_JRZ14handleCommandsiRSt6vectorISt10unique_ptrI12ActiveObjectSt14default_deleteIS8_EESaISB_EERS7_I5GraphS9_ISF_EER10MSTFactoryRS7_I4TreeS9_ISL_EEEUlvE4_EEEvRS3_PT_DpOT0_
FN:511,_ZNSt16allocator_traitsISaISt8functionIFvvEEEE9constructIS2_JRZ14handleCommandsiRSt6vectorISt10unique_ptrI12ActiveObjectSt14default_deleteIS8_EESaISB_EERS7_I5GraphS9_ISF_EER10MSTFactoryRS7_I4TreeS9_ISL_EEEUlvE9_EEEvRS3_PT_DpOT0_
FN:511,_ZNSt16allocator_traitsISaISt8functionIFvvEEEE9constructIS2_JRZ14handleCommandsiRSt6vectorISt10unique_ptrI12ActiveObjectSt14default_deleteIS8_EESaISB_EERS7_I5GraphS9_ISF_EER10MSTFactoryRS7_I4TreeS9_ISL_EEEUlvE5_EEEvRS3_PT_DpOT0_
FN:511,_ZNSt16allocator_traitsISaI4EdgeEE9constructIS0_JS0_EEEvRS1_PT_DpOT0_
FN:511,_ZNSt16allocator_traitsISaISt6vectorIiSaIiEEEE9constructIS2_JRKS2_EEEvRS3_PT_DpOT0_
FN:511,_ZNSt16allocator_traitsISaISt13_Rb_tree_nodeISt4pairIKiSt8functionIFvvEEEEEE9constructIS6_JRKSt21piecewise_construct_tSt5tupleIJRS2_EESE_IJEEEEEvRS8_PT_DpOT0_
FN:511,_ZNSt16allocator_traitsISaISt8functionIFvvEEEE9constructIS2_JRZ14handleCommandsiRSt6vectorISt10unique_ptrI12ActiveObjectSt14default_deleteIS8_EESaISB_EERS7_I5GraphS9_ISF_EER10MSTFactoryRS7_I4TreeS9_ISL_EEEUlvE0_EEEvRS3_PT_DpOT0_
FN:511,_ZNSt16allocator_traitsISaISt8functionIFvvEEEE9constructIS2_JRZ14handleCommandsiRSt6vectorISt10unique_ptrI12ActiveObjectSt14default_deleteIS8_EESaISB_EERS7_I5GraphS9_ISF_EER10MSTFactoryRS7_I4TreeS9_ISL_EEEUlvE6_EEEvRS3_PT_DpOT0_
FN:511,_ZNSt16allocator_traitsISaI13ThreadContextEE9constructIS0_JEEEvRS1_PT_DpOT0_
FN:511,_ZNSt16allocator_traitsISaI4EdgeEE9constructIS0_JRKS0_EEEvRS1_PT_DpOT0_
FN:511,_ZNSt16allocator_traitsISaISt8functionIFvvEEEE9constructIS2_JRZ14handleCommandsiRSt6vectorISt10unique_ptrI12ActiveObjectSt14default_deleteIS8_EESaISB_EERS7_I5GraphS9_ISF_EER10MSTFactoryRS7_I4TreeS9_ISL_EEEUlvE1_EEEvRS3_PT_DpOT0_
FN:511,_ZNSt16allocator_traitsISaISt8functionIFvvEEEE9constructIS2_JRZ14handleCommandsiRSt6vectorISt10unique_ptrI12ActiveObjectSt14default_deleteIS8_EESaISB_EERS7_I5GraphS9_ISF_EER10MSTFactoryRS7_I4TreeS9_ISL_EEEUlvE_EEEvRS3_PT_DpOT0_
FN:511,_ZNSt16allocator_traitsISaISt10unique_ptrI12ActiveObjectSt14default_deleteIS1_EEEE9constructIS4_JS4_EEEvRS5_PT_DpOT0_
FN:511,_ZNSt16allocator_traitsISaISt8functionIFvvEEEE9constructIS2_JRZ14handleCommandsiRSt6vectorISt10unique_ptrI12ActiveObjectSt14default_deleteIS8_EESaISB_EERS7_I5GraphS9_ISF_EER10MSTFactoryRS7_I4TreeS9_ISL_EEEUlvE3_EEEvRS3_PT_DpOT0_
FN:531,_ZNSt16allocator_traitsISaISt6vectorI4EdgeSaIS1_EEEE7destroyIS3_EEvRS4_PT_
FN:531,_ZNSt16allocator_traitsISaISt4pairIiiEEE7destroyIS1_EEvRS2_PT_
FN:531,_ZNSt16allocator_traitsISaISt10unique_ptrI12ActiveObjectSt14default_deleteIS1_EEEE7destroyIS4_EEvRS5_PT_
FN:531,_ZNSt16allocator_traitsISaISt13_Rb_tree_nodeISt4pairIKiSt8functionIFvvEEEEEE7destroyIS6_EEvRS8_PT_
FN:531,_ZNSt16allocator_traitsISaISt8functionIFvvEEEE7destroyIS2_EEvRS3_PT_
FN:531,_ZNSt16allocator_traitsISaISt6vectorIiSaIiEEEE7destroyIS2_EEvRS3_PT_
FN:531,_ZNSt16allocator_traitsISaI13ThreadContextEE7destroyIS0_EEvRS1_PT_
FN:547,_ZNSt16allocator_traitsISaImEE8max_sizeERKS0_
FN:547,_ZNSt16allocator_traitsISaISt8functionIFvvEEEE8max_sizeERKS3_
FN:547,_ZNSt16allocator_traitsISaIiEE8max_sizeERKS0_
FN:547,_ZNSt16allocator_traitsISaISt10shared_ptrI13ThreadContextEEE8max_sizeERKS3_
FN:547,_ZNSt16allocator_traitsISaISt4pairIiiEEE8max_sizeERKS2_
FN:547,_ZNSt16allocator_traitsISaI4EdgeEE8max_sizeERKS1_
FN:547,_ZNSt16allocator_traitsISaISt10unique_ptrI12ActiveObjectSt14default_deleteIS1_EEEE8max_sizeERKS5_
FN:547,_ZNSt16allocator_traitsISaISt6vectorI4EdgeSaIS1_EEEE8max_sizeERKS4_
FN:547,_ZNSt16allocator_traitsISaISt6vectorIiSaIiEEEE8max_sizeERKS3_
FN:562,_ZNSt16allocator_traitsISaI4EdgeEE37select_on_container_copy_constructionERKS1_
FN:562,_ZNSt16allocator_traitsISaIiEE37select_on_container_copy_constructionERKS0_
FN:562,_ZNSt16allocator_traitsISaImEE37select_on_container_copy_constructionERKS0_
FN:562,_ZNSt16allocator_traitsISaIcEE37select_on_container_copy_constructionERKS0_
FN:678,_ZSt15__alloc_on_copyISaIiEEvRT_RKS1_
FN:710,_ZSt15__alloc_on_moveISaIiEEvRT_S2_
FN:737,_ZSt15__alloc_on_swapISaISt10unique_ptrI12ActiveObjectSt14default_deleteIS1_EEEEvRT_S7_
FN:737,_ZSt15__alloc_on_swapISaImEEvRT_S2_
FN:845,_ZSt8_DestroyIP4EdgeS0_EvT_S2_RSaIT0_E
FN:845,_ZSt8_DestroyIPSt6threadS0_EvT_S2_RSaIT0_E
FN:845,_ZSt8_DestroyIPiiEvT_S1_RSaIT0_E
FN:845,_ZSt8_DestroyIPSt10unique_ptrI12ActiveObjectSt14default_deleteIS1_EES4_EvT_S6_RSaIT0_E
FN:845,_ZSt8_DestroyIPSt6vectorI4EdgeSaIS1_EES3_EvT_S5_RSaIT0_E
FN:845,_ZSt8_DestroyIPSt10shared_ptrI13ThreadContextES2_EvT_S4_RSaIT0_E
FN:845,_ZSt8_DestroyIPSt6vectorIiSaIiEES2_EvT_S4_RSaIT0_E
FN:845,_ZSt8_DestroyIPSt4pairIiiES1_EvT_S3_RSaIT0_E
FN:845,_ZSt8_DestroyIPmmEvT_S1_RSaIT0_E
FN:845,_ZSt8_DestroyIPSt8functionIFvvEES2_EvT_S4_RSaIT0_E
FN:845,_ZSt8_DestroyIN9__gnu_cxx17__normal_iteratorIPiSt6vectorIiSaIiEEEEiEvT_S7_RSaIT0_E
FNDA:0,_ZNSt16allocator_traitsISaISt8functionIFvvEEEE8max_sizeERKS3_
FNDA:0,_ZNSt16allocator_traitsISaISt6vectorI4EdgeSaIS1_EEEE9constructIS3_JS3_EEEvRS4_PT_DpOT0_
FNDA:0,_ZNSt16allocator_traitsISaISt6vectorI4EdgeSaIS1_EEEE7destroyIS3_EEvRS4_PT_
FNDA:0,_ZSt15__alloc_on_moveISaIiEEvRT_S2_
FNDA:26,_ZNSt16allocator_traitsISaIiEE9constructIiJiEEEvRS0_PT_DpOT0_
FNDA:6,_ZNSt16allocator_traitsISaImEE9constructImJRKmEEEvRS0_PT_DpOT0_
FNDA:14,_ZNSt16allocator_traitsISaImEE8max_sizeERKS0_
FNDA:45,_ZNSt16allocator_traitsISaImEE10deallocateERS0_Pmm
FNDA:134,_ZNSt16allocator_traitsISaIiEE8allocateERS0_m
FNDA:0,_ZSt8_DestroyIPSt6threadS0_EvT_S2_RSaIT0_E
FNDA:1,_ZNSt16allocator_traitsISaISt13_Rb_tree_nodeISt4pairIKiSt8functionIFvvEEEEEE8allocateERS8_m
FNDA:14,_ZNSt16allocator_traitsISaISt10unique_ptrI12ActiveObjectSt14default_deleteIS1_EEEE7destroyIS4_EEvRS5_PT_
FNDA:141,_ZSt8_DestroyIP4EdgeS0_EvT_S2_RSaIT0_E
FNDA:120,_ZSt8_DestroyIPiiEvT_S1_RSaIT0_E
FNDA:6,_ZNSt16allocator_traitsISaISt6vectorIiSaIiEEEE10deallocateERS3_PS2_m
FNDA:27,_ZNSt16allocator_traitsISaISt4pairIiiEEE7destroyIS1_EEvRS2_PT_
FNDA:24,_ZNSt16allocator_traitsISaI4EdgeEE37select_on_container_copy_constructionERKS1_
FNDA:225,_ZNSt16allocator_traitsISaI4EdgeEE8allocateERS1_m
FNDA:106,_ZNSt16allocator_traitsISaIiEE8max_sizeERKS0_
FNDA:4,_ZNSt16allocator_traitsISaISt8functionIFvvEEEE9constructIS2_JRZ14handleCommandsiRSt6vectorISt10unique_ptrI12ActiveObjectSt14default_deleteIS8_EESaISB_EERS7_I5GraphS9_ISF_EER10MSTFactoryRS7_I4TreeS9_ISL_EEEUlvE2_EEEvRS3_PT_DpOT0_
FNDA:21,_ZNSt16allocator_traitsISaISt6vectorI4EdgeSaIS1_EEEE8allocateERS4_m
FNDA:1,_ZNSt16allocator_traitsISaISt10shared_ptrI13ThreadContextEEE8allocateERS3_m
FNDA:4,_ZNSt16allocator_traitsISaISt8functionIFvvEEEE9constructIS2_JRZ14handleCommandsiRSt6vectorISt10unique_ptrI12ActiveObjectSt14default_deleteIS8_EESaISB_EERS7_I5GraphS9_ISF_EER10MSTFactoryRS7_I4TreeS9_ISL_EEEUlvE10_EEEvRS3_PT_DpOT0_
FNDA:6,_ZNSt16allocator_traitsISaISt4pairIiiEEE8allocateERS2_m
FNDA:27,_ZNSt16allocator_traitsISaISt4pairIiiEEE9constructIS1_JS1_EEEvRS2_PT_DpOT0_
FNDA:2,_ZSt15__alloc_on_swapISaImEEvRT_S2_
FNDA:1,_ZNSt16allocator_traitsISaISt13_Rb_tree_nodeISt4pairIKiSt8functionIFvvEEEEEE10deallocateERS8_PS7_m
FNDA:72,_ZNSt16allocator_traitsISaISt8functionIFvvEEEE7destroyIS2_EEvRS3_PT_
FNDA:2,_ZSt15__alloc_on_swapISaISt10unique_ptrI12ActiveObjectSt14default_deleteIS1_EEEEvRT_S7_
FNDA:1,_ZNSt16allocator_traitsISaISt13_Rb_tree_nodeISt4pairIKiSt8functionIFvvEEEEEE7destroyIS6_EEvRS8_PT_
FNDA:1,_ZNSt16allocator_traitsISaISt10shared_ptrI13ThreadContextEEE8max_sizeERKS3_
FNDA:4,_ZSt8_DestroyIPSt10unique_ptrI12ActiveObjectSt14default_deleteIS1_EES4_EvT_S6_RSaIT0_E
FNDA:6,_ZNSt16allocator_traitsISaISt8functionIFvvEEEE9constructIS2_JRZ14handleCommandsiRSt6vectorISt10unique_ptrI12ActiveObjectSt14default_deleteIS8_EESaISB_EERS7_I5GraphS9_ISF_EER10MSTFactoryRS7_I4TreeS9_ISL_EEEUlvE8_EEEvRS3_PT_DpOT0_
FNDA:12,_ZNSt16allocator_traitsISaISt4pairIiiEEE8max_sizeERKS2_
FNDA:14,_ZNSt16allocator_traitsISaIPSt8functionIFvvEEEE8allocateERS4_m
FNDA:4,_ZNSt16allocator_traitsISaISt8functionIFvvEEEE9constructIS2_JRZ14handleCommandsiRSt6vectorISt10unique_ptrI12ActiveObjectSt14default_deleteIS8_EESaISB_EERS7_I5GraphS9_ISF_EER10MSTFactoryRS7_I4TreeS9_ISL_EEEUlvE5_EEEvRS3_PT_DpOT0_
FNDA:6,_ZNSt16allocator_traitsISaISt6vectorIiSaIiEEEE8allocateERS3_m
FNDA:48,_ZNSt16allocator_traitsISaIiEE37select_on_container_copy_constructionERKS0_
FNDA:45,_ZNSt16allocator_traitsISaImEE8allocateERS0_m
FNDA:2,_ZSt8_DestroyIPSt10shared_ptrI13ThreadContextES2_EvT_S4_RSaIT0_E
FNDA:4,_ZNSt16allocator_traitsISaISt8functionIFvvEEEE9constructIS2_JRZ14handleCommandsiRSt6vectorISt10unique_ptrI12ActiveObjectSt14default_deleteIS8_EESaISB_EERS7_I5GraphS9_ISF_EER10MSTFactoryRS7_I4TreeS9_ISL_EEEUlvE9_EEEvRS3_PT_DpOT0_
FNDA:21,_ZSt8_DestroyIPSt6vectorI4EdgeSaIS1_EES3_EvT_S5_RSaIT0_E
FNDA:4,_ZNSt16allocator_traitsISaISt8functionIFvvEEEE9constructIS2_JRZ14handleCommandsiRSt6vectorISt10unique_ptrI12ActiveObjectSt14default_deleteIS8_EESaISB_EERS7_I5GraphS9_ISF_EER10MSTFactoryRS7_I4TreeS9_ISL_EEEUlvE4_EEEvRS3_PT_DpOT0_
FNDA:10,_ZNSt16allocator_traitsISaISt8functionIFvvEEEE9constructIS2_JRZ14handleCommandsiRSt6vectorISt10unique_ptrI12ActiveObjectSt14default_deleteIS8_EESaISB_EERS7_I5GraphS9_ISF_EER10MSTFactoryRS7_I4TreeS9_ISL_EEEUlvE6_EEEvRS3_PT_DpOT0_
FNDA:6,_ZNSt16allocator_traitsISaISt4pairIiiEEE10deallocateERS2_PS1_m
FNDA:6,_ZSt8_DestroyIPSt4pairIiiES1_EvT_S3_RSaIT0_E
FNDA:18,_ZNSt16allocator_traitsISaISt10unique_ptrI12ActiveObjectSt14default_deleteIS1_EEEE8max_sizeERKS5_
FNDA:0,_ZSt15__alloc_on_copyISaIiEEvRT_RKS1_
FNDA:20,_ZNSt16allocator_traitsISaISt8functionIFvvEEEE9constructIS2_JRZ14handleCommandsiRSt6vectorISt10unique_ptrI12ActiveObjectSt14default_deleteIS8_EESaISB_EERS7_I5GraphS9_ISF_EER10MSTFactoryRS7_I4TreeS9_ISL_EEEUlvE0_EEEvRS3_PT_DpOT0_
FNDA:21,_ZNSt16allocator_traitsISaImEE37select_on_container_copy_constructionERKS0_
FNDA:18,_ZSt8_DestroyIPSt6vectorIiSaIiEES2_EvT_S4_RSaIT0_E
FNDA:0,_ZNSt16allocator_traitsISaISt6vectorIiSaIiEEEE9constructIS2_JRKS2_EEEvRS3_PT_DpOT0_
FNDA:1,_ZNSt16allocator_traitsISaISt13_Rb_tree_nodeISt4pairIKiSt8functionIFvvEEEEEE9constructIS6_JRKSt21piecewise_construct_tSt5tupleIJRS2_EESE_IJEEEEEvRS8_PT_DpOT0_
FNDA:14,_ZNSt16allocator_traitsISaIPSt8functionIFvvEEEE10deallocateERS4_PS3_m
FNDA:134,_ZNSt16allocator_traitsISaIiEE10deallocateERS0_Pim
FNDA:21,_ZNSt16allocator_traitsISaISt6vectorI4EdgeSaIS1_EEEE10deallocateERS4_PS3_m
FNDA:165,_ZNSt16allocator_traitsISaI4EdgeEE9constructIS0_JS0_EEEvRS1_PT_DpOT0_
FNDA:402,_ZNSt16allocator_traitsISaI4EdgeEE8max_sizeERKS1_
FNDA:8,_ZNSt16allocator_traitsISaISt10unique_ptrI12ActiveObjectSt14default_deleteIS1_EEEE8allocateERS5_m
FNDA:10,_ZNSt16allocator_traitsISaISt23_Sp_counted_ptr_inplaceI13ThreadContextSaIS1_ELN9__gnu_cxx12_Lock_policyE2EEEE10deallocateERS6_PS5_m
FNDA:84,_ZNSt16allocator_traitsISaISt6vectorI4EdgeSaIS1_EEEE8max_sizeERKS4_
FNDA:14,_ZNSt16allocator_traitsISaISt8functionIFvvEEEE8allocateERS3_m
FNDA:4,_ZSt8_DestroyIPmmEvT_S1_RSaIT0_E
FNDA:10,_ZNSt16allocator_traitsISaI13ThreadContextEE9constructIS0_JEEEvRS1_PT_DpOT0_
FNDA:10,_ZNSt16allocator_traitsISaISt23_Sp_counted_ptr_inplaceI13ThreadContextSaIS1_ELN9__gnu_cxx12_Lock_policyE2EEEE8allocateERS6_m
FNDA:14,_ZNSt16allocator_traitsISaISt8functionIFvvEEEE10deallocateERS3_PS2_m
FNDA:12,_ZNSt16allocator_traitsISaISt6vectorIiSaIiEEEE8max_sizeERKS3_
FNDA:8,_ZNSt16allocator_traitsISaISt10unique_ptrI12ActiveObjectSt14default_deleteIS1_EEEE10deallocateERS5_PS4_m
FNDA:0,_ZNSt16allocator_traitsISaISt6vectorIiSaIiEEEE7destroyIS2_EEvRS3_PT_
FNDA:48,_ZNSt16allocator_traitsISaI4EdgeEE9constructIS0_JRKS0_EEEvRS1_PT_DpOT0_
FNDA:4,_ZNSt16allocator_traitsISaISt8functionIFvvEEEE9constructIS2_JRZ14handleCommandsiRSt6vectorISt10unique_ptrI12ActiveObjectSt14default_deleteIS8_EESaISB_EERS7_I5GraphS9_ISF_EER10MSTFactoryRS7_I4TreeS9_ISL_EEEUlvE3_EEEvRS3_PT_DpOT0_
FNDA:6,_ZNSt16allocator_traitsISaIcEE37select_on_container_copy_constructionERKS0_
FNDA:10,_ZNSt16allocator_traitsISaI13ThreadContextEE7destroyIS0_EEvRS1_PT_
FNDA:0,_ZSt8_DestroyIN9__gnu_cxx17__normal_iteratorIPiSt6vectorIiSaIiEEEEiEvT_S7_RSaIT0_E
FNDA:225,_ZNSt16allocator_traitsISaI4EdgeEE10deallocateERS1_PS0_m
FNDA:28,_ZNSt16allocator_traitsISaISt10unique_ptrI12ActiveObjectSt14default_deleteIS1_EEEE9constructIS4_JS4_EEEvRS5_PT_DpOT0_
FNDA:1,_ZNSt16allocator_traitsISaISt10shared_ptrI13ThreadContextEEE10deallocateERS3_PS2_m
FNDA:14,_ZSt8_DestroyIPSt8functionIFvvEES2_EvT_S4_RSaIT0_E
FNDA:8,_ZNSt16allocator_traitsISaISt8functionIFvvEEEE9constructIS2_JRZ14handleCommandsiRSt6vectorISt10unique_ptrI12ActiveObjectSt14default_deleteIS8_EESaISB_EERS7_I5GraphS9_ISF_EER10MSTFactoryRS7_I4TreeS9_ISL_EEEUlvE_EEEvRS3_PT_DpOT0_
FNDA:0,_ZNSt16allocator_traitsISaISt6threadEE10deallocateERS1_PS0_m
FNDA:4,_ZNSt16allocator_traitsISaISt8functionIFvvEEEE9constructIS2_JRZ14handleCommandsiRSt6vectorISt10unique_ptrI12ActiveObjectSt14default_deleteIS8_EESaISB_EERS7_I5GraphS9_ISF_EER10MSTFactoryRS7_I4TreeS9_ISL_EEEUlvE1_EEEvRS3_PT_DpOT0_
FNF:81
FNH:71
DA:463,485
DA:464,485
DA:495,485
DA:496,485
DA:511,383
DA:516,383
DA:520,383
DA:531,124
DA:535,124
DA:539,124
DA:547,649
DA:550,649
DA:562,99
DA:563,99
DA:678,0
DA:688,0
DA:710,0
DA:716,0
DA:720,0
DA:737,4
DA:750,4
DA:845,330
DA:848,330
DA:849,330
LF:24
LH:19
end_of_record
TN:
SF:/usr/include/c++/11/bits/allocated_ptr.h
FN:53,_ZNSt15__allocated_ptrISaISt23_Sp_counted_ptr_inplaceI13ThreadContextSaIS1_ELN9__gnu_cxx12_Lock_policyE2EEEEC2ERS6_PS5_
FN:71,_ZNSt15__allocated_ptrISaISt23_Sp_counted_ptr_inplaceI13ThreadContextSaIS1_ELN9__gnu_cxx12_Lock_policyE2EEEED2Ev
FN:79,_ZNSt15__allocated_ptrISaISt23_Sp_counted_ptr_inplaceI13ThreadContextSaIS1_ELN9__gnu_cxx12_Lock_policyE2EEEEaSEDn
FN:86,_ZNSt15__allocated_ptrISaISt23_Sp_counted_ptr_inplaceI13ThreadContextSaIS1_ELN9__gnu_cxx12_Lock_policyE2EEEE3getEv
FN:96,_ZSt18__allocate_guardedISaISt23_Sp_counted_ptr_inplaceI13ThreadContextSaIS1_ELN9__gnu_cxx12_Lock_policyE2EEEESt15__allocated_ptrIT_ERS8_
FNDA:10,_ZNSt15__allocated_ptrISaISt23_Sp_counted_ptr_inplaceI13ThreadContextSaIS1_ELN9__gnu_cxx12_Lock_policyE2EEEEaSEDn
FNDA:10,_ZNSt15__allocated_ptrISaISt23_Sp_counted_ptr_inplaceI13ThreadContextSaIS1_ELN9__gnu_cxx12_Lock_policyE2EEEE3getEv
FNDA:20,_ZNSt15__allocated_ptrISaISt23_Sp_counted_ptr_inplaceI13ThreadContextSaIS1_ELN9__gnu_cxx12_Lock_policyE2EEEEC2ERS6_PS5_
FNDA:20,_ZNSt15__allocated_ptrISaISt23_Sp_counted_ptr_inplaceI13ThreadContextSaIS1_ELN9__gnu_cxx12_Lock_policyE2EEEED2Ev
FNDA:10,_ZSt18__allocate_guardedISaISt23_Sp_counted_ptr_inplaceI13ThreadContextSaIS1_ELN9__gnu_cxx12_Lock_policyE2EEEESt15__allocated_ptrIT_ERS8_
FNF:5
FNH:5
DA:53,20
DA:54,20
DA:55,20
DA:71,20
DA:73,20
DA:74,10
DA:75,20
DA:79,10
DA:81,10
DA:82,10
DA:86,10
DA:96,10
DA:98,10
LF:13
LH:13
end_of_record
TN:
SF:/usr/include/c++/11/bits/allocator.h
FN:156,_ZNSaISt6threadEC2Ev
FN:156,_ZNSaISt13_Rb_tree_nodeISt4pairIKiSt8functionIFvvEEEEEC2Ev
FN:156,_ZNSaImEC2Ev
FN:156,_ZNSaISt6vectorI4EdgeSaIS0_EEEC2Ev
FN:156,_ZNSaI13ThreadContextEC2Ev
FN:156,_ZNSaISt10shared_ptrI13ThreadContextEEC2Ev
FN:156,_ZNSaISt10unique_ptrI12ActiveObjectSt14default_deleteIS0_EEEC2Ev
FN:156,_ZNSaIbEC2Ev
FN:156,_ZNSaI4EdgeEC2Ev
FN:156,_ZNSaISt6vectorIiSaIiEEEC2Ev
FN:156,_ZNSaIiEC2Ev
FN:156,_ZNSaISt4pairIiiEEC2Ev
FN:156,_ZNSaISt8functionIFvvEEEC2Ev
FN:159,_ZNSaI4EdgeEC2ERKS0_
FN:159,_ZNSaI13ThreadContextEC2ERKS0_
FN:159,_ZNSaImEC2ERKS_
FN:159,_ZNSaISt10unique_ptrI12ActiveObjectSt14default_deleteIS0_EEEC2ERKS4_
FN:159,_ZNSaIiEC2ERKS_
FN:159,_ZNSaISt10shared_ptrI13ThreadContextEEC2ERKS2_
FN:169,_ZNSaIbEC2ImEERKSaIT_E
FN:169,_ZNSaISt23_Sp_counted_ptr_inplaceI13ThreadContextSaIS0_ELN9__gnu_cxx12_Lock_policyE2EEEC2IS0_EERKSaIT_E
FN:169,_ZNSaIPSt8functionIFvvEEEC2IS1_EERKSaIT_E
FN:169,_ZNSaImEC2IbEERKSaIT_E
FN:174,_ZNSaISt10unique_ptrI12ActiveObjectSt14default_deleteIS0_EEED2Ev
FN:174,_ZNSaISt23_Sp_counted_ptr_inplaceI13ThreadContextSaIS0_ELN9__gnu_cxx12_Lock_policyE2EEED2Ev
FN:174,_ZNSaIiED2Ev
FN:174,_ZNSaISt4pairIiiEED2Ev
FN:174,_ZNSaISt6vectorI4EdgeSaIS0_EEED2Ev
FN:174,_ZNSaI4EdgeED2Ev
FN:174,_ZNSaISt13_Rb_tree_nodeISt4pairIKiSt8functionIFvvEEEEED2Ev
FN:174,_ZNSaIPSt8functionIFvvEEED2Ev
FN:174,_ZNSaISt6vectorIiSaIiEEED2Ev
FN:174,_ZNSaISt8functionIFvvEEED2Ev
FN:174,_ZNSaISt6threadED2Ev
FN:174,_ZNSaISt10shared_ptrI13ThreadContextEED2Ev
FN:174,_ZNSaImED2Ev
FN:174,_ZNSaI13ThreadContextED2Ev
FN:174,_ZNSaIbED2Ev
FN:209,_ZStneRKSaIiES1_
FN:313,_ZNSt19__shrink_to_fit_auxISt6vectorISt10unique_ptrI12ActiveObjectSt14default_deleteIS2_EESaIS5_EELb1EE8_S_do_itERS7_
FN:313,_ZNSt19__shrink_to_fit_auxISt6vectorImSaImEELb1EE8_S_do_itERS2_
FNDA:105,_ZNSaImED2Ev
FNDA:39,_ZNSaIbED2Ev
FNDA:40,_ZNSaI13ThreadContextED2Ev
FNDA:39,_ZNSaImEC2IbEERKSaIT_E
FNDA:14,_ZNSaISt8functionIFvvEEEC2Ev
FNDA:2,_ZNSt19__shrink_to_fit_auxISt6vectorImSaImEELb1EE8_S_do_itERS2_
FNDA:3,_ZNSaISt10shared_ptrI13ThreadContextEED2Ev
FNDA:14,_ZNSaISt8functionIFvvEEED2Ev
FNDA:228,_ZNSaIiEC2ERKS_
FNDA:0,_ZNSaISt6threadED2Ev
FNDA:72,_ZNSaIiEC2Ev
FNDA:12,_ZNSaISt6vectorIiSaIiEEEC2Ev
FNDA:0,_ZStneRKSaIiES1_
FNDA:2,_ZNSaISt10shared_ptrI13ThreadContextEEC2ERKS2_
FNDA:6,_ZNSaISt4pairIiiEEC2Ev
FNDA:66,_ZNSaImEC2ERKS_
FNDA:1,_ZNSaISt10shared_ptrI13ThreadContextEEC2Ev
FNDA:28,_ZNSaIPSt8functionIFvvEEED2Ev
FNDA:20,_ZNSaISt23_Sp_counted_ptr_inplaceI13ThreadContextSaIS0_ELN9__gnu_cxx12_Lock_policyE2EEEC2IS0_EERKSaIT_E
FNDA:10,_ZNSaI13ThreadContextEC2Ev
FNDA:1,_ZNSaISt13_Rb_tree_nodeISt4pairIKiSt8functionIFvvEEEEED2Ev
FNDA:2,_ZNSaImEC2Ev
FNDA:21,_ZNSaISt6vectorI4EdgeSaIS0_EEEC2Ev
FNDA:165,_ZNSaI4EdgeED2Ev
FNDA:12,_ZNSaISt6vectorIiSaIiEEED2Ev
FNDA:28,_ZNSaIPSt8functionIFvvEEEC2IS1_EERKSaIT_E
FNDA:117,_ZNSaI4EdgeEC2Ev
FNDA:6,_ZNSaISt10unique_ptrI12ActiveObjectSt14default_deleteIS0_EEEC2ERKS4_
FNDA:18,_ZNSaIbEC2Ev
FNDA:2,_ZNSaISt10unique_ptrI12ActiveObjectSt14default_deleteIS0_EEEC2Ev
FNDA:6,_ZNSaISt4pairIiiEED2Ev
FNDA:300,_ZNSaIiED2Ev
FNDA:48,_ZNSaI4EdgeEC2ERKS0_
FNDA:20,_ZNSaISt23_Sp_counted_ptr_inplaceI13ThreadContextSaIS0_ELN9__gnu_cxx12_Lock_policyE2EEED2Ev
FNDA:6,_ZNSaISt10unique_ptrI12ActiveObjectSt14default_deleteIS0_EEED2Ev
FNDA:30,_ZNSaI13ThreadContextEC2ERKS0_
FNDA:2,_ZNSt19__shrink_to_fit_auxISt6vectorISt10unique_ptrI12ActiveObjectSt14default_deleteIS2_EESaIS5_EELb1EE8_S_do_itERS7_
FNDA:1,_ZNSaISt13_Rb_tree_nodeISt4pairIKiSt8functionIFvvEEEEEC2Ev
FNDA:21,_ZNSaIbEC2ImEERKSaIT_E
FNDA:2,_ZNSaISt6threadEC2Ev
FNDA:21,_ZNSaISt6vectorI4EdgeSaIS0_EEED2Ev
FNF:41
FNH:39
DA:156,278
DA:159,380
DA:160,380
DA:169,108
DA:174,760
DA:209,0
DA:210,0
DA:313,4
DA:318,8
DA:320,4
DA:321,4
DA:323,0
DA:324,0
LF:13
LH:9
end_of_record
TN:
SF:/usr/include/c++/11/bits/atomic_base.h
FN:104,_ZStanSt12memory_orderSt23__memory_order_modifier
FN:345,_ZNSt13__atomic_baseIbEC1Eb
FN:347,_ZNKSt13__atomic_baseIiEcviEv
FNDA:26,_ZNSt13__atomic_baseIbEC1Eb
FNDA:3,_ZNKSt13__atomic_baseIiEcviEv
FNDA:640,_ZStanSt12memory_orderSt23__memory_order_modifier
FNF:3
FNH:3
DA:104,640
DA:106,640
DA:345,26
DA:347,3
DA:348,3
DA:459,139
DA:464,139
DA:465,139
DA:484,501
DA:488,501
LF:10
LH:10
end_of_record
TN:
SF:/usr/include/c++/11/bits/basic_string.h
FN:251,_ZNSt7__cxx1112basic_stringIcSt11char_traitsIcESaIcEE16_M_construct_auxIPcEEvT_S7_St12__false_type
FN:271,_ZNSt7__cxx1112basic_stringIcSt11char_traitsIcESaIcEE12_M_constructIPcEEvT_S7_
FN:533,_ZNSt7__cxx1112basic_stringIcSt11char_traitsIcESaIcEEC2IS3_EEPKcRKS3_
FN:553,_ZNSt7__cxx1112basic_stringIcSt11char_traitsIcESaIcEEC2IS3_EEmcRKS3_
FN:638,_ZNSt7__cxx1112basic_stringIcSt11char_traitsIcESaIcEEC2IPcvEET_S7_RKS3_
FN:6132,_ZStplIcSt11char_traitsIcESaIcEENSt7__cxx1112basic_stringIT_T0_T1_EERKS8_PKS5_
FN:6172,_ZStplIcSt11char_traitsIcESaIcEENSt7__cxx1112basic_stringIT_T0_T1_EEOS8_S9_
FN:6194,_ZStplIcSt11char_traitsIcESaIcEENSt7__cxx1112basic_stringIT_T0_T1_EEPKS5_OS8_
FN:6206,_ZStplIcSt11char_traitsIcESaIcEENSt7__cxx1112basic_stringIT_T0_T1_EEOS8_PKS5_
FN:6212,_ZStplIcSt11char_traitsIcESaIcEENSt7__cxx1112basic_stringIT_T0_T1_EEOS8_S5_
FN:6248,_ZSteqIcSt11char_traitsIcESaIcEEbRKNSt7__cxx1112basic_stringIT_T0_T1_EEPKS5_
FN:6660,_ZNSt7__cxx119to_stringEi
FN:6721,_ZNSt7__cxx119to_stringEf
FNDA:6,_ZNSt7__cxx119to_stringEf
FNDA:172,_ZNSt7__cxx1112basic_stringIcSt11char_traitsIcESaIcEEC2IS3_EEPKcRKS3_
FNDA:250,_ZNSt7__cxx1112basic_stringIcSt11char_traitsIcESaIcEEC2IS3_EEmcRKS3_
FNDA:145,_ZStplIcSt11char_traitsIcESaIcEENSt7__cxx1112basic_stringIT_T0_T1_EEOS8_S9_
FNDA:48,_ZStplIcSt11char_traitsIcESaIcEENSt7__cxx1112basic_stringIT_T0_T1_EERKS8_PKS5_
FNDA:29,_ZStplIcSt11char_traitsIcESaIcEENSt7__cxx1112basic_stringIT_T0_T1_EEPKS5_OS8_
FNDA:392,_ZSteqIcSt11char_traitsIcESaIcEEbRKNSt7__cxx1112basic_stringIT_T0_T1_EEPKS5_
FNDA:6,_ZNSt7__cxx1112basic_stringIcSt11char_traitsIcESaIcEE12_M_constructIPcEEvT_S7_
FNDA:208,_ZNSt7__cxx119to_stringEi
FNDA:6,_ZNSt7__cxx1112basic_stringIcSt11char_traitsIcESaIcEE16_M_construct_auxIPcEEvT_S7_St12__false_type
FNDA:6,_ZNSt7__cxx1112basic_stringIcSt11char_traitsIcESaIcEEC2IPcvEET_S7_RKS3_
FNDA:2,_ZStplIcSt11char_traitsIcESaIcEENSt7__cxx1112basic_stringIT_T0_T1_EEOS8_S5_
FNDA:204,_ZStplIcSt11char_traitsIcESaIcEENSt7__cxx1112basic_stringIT_T0_T1_EEOS8_PKS5_
FNF:13
FNH:13
DA:251,6
DA:255,6
DA:256,6
DA:271,6
DA:274,6
DA:275,6
DA:533,172
DA:534,172
DA:536,172
DA:539,172
DA:540,172
DA:553,250
DA:554,250
DA:555,250
DA:638,6
DA:640,6
DA:641,6
DA:6132,48
DA:6135,48
DA:6136,48
DA:6137,48
DA:6138,0
DA:6172,145
DA:6177,145
DA:6179,145
DA:6182,145
DA:6185,145
DA:6186,145
DA:6187,0
DA:6189,145
DA:6194,29
DA:6196,29
DA:6206,204
DA:6208,204
DA:6212,2
DA:6214,2
DA:6248,392
DA:6250,392
DA:6660,208
DA:6662,208
DA:6663,208
DA:6664,208
DA:6665,208
DA:6666,208
DA:6667,208
DA:6668,0
DA:6721,6
DA:6723,6
DA:6726,6
LF:49
LH:46
end_of_record
TN:
SF:/usr/include/c++/11/bits/basic_string.tcc
FN:206,_ZNSt7__cxx1112basic_stringIcSt11char_traitsIcESaIcEE12_M_constructIPKcEEvT_S8_St20forward_iterator_tag
FN:206,_ZNSt7__cxx1112basic_stringIcSt11char_traitsIcESaIcEE12_M_constructIPcEEvT_S7_St20forward_iterator_tag
FN:1169,_ZStplIcSt11char_traitsIcESaIcEENSt7__cxx1112basic_stringIT_T0_T1_EEPKS5_RKS8_
FNDA:172,_ZNSt7__cxx1112basic_stringIcSt11char_traitsIcESaIcEE12_M_constructIPKcEEvT_S8_St20forward_iterator_tag
FNDA:54,_ZNSt7__cxx1112basic_stringIcSt11char_traitsIcESaIcEE12_M_constructIPcEEvT_S7_St20forward_iterator_tag
FNDA:6,_ZStplIcSt11char_traitsIcESaIcEENSt7__cxx1112basic_stringIT_T0_T1_EEPKS5_RKS8_
FNF:3
FNH:3
DA:206,226
DA:211,226
DA:212,0
DA:215,226
DA:217,226
DA:219,62
DA:220,62
DA:225,226
DA:226,0
DA:228,0
DA:229,0
DA:232,226
DA:233,226
DA:1169,6
DA:1178,6
DA:1179,12
DA:1181,6
DA:1182,6
DA:1183,6
DA:1184,6
DA:1185,0
LF:21
LH:16
end_of_record
TN:
SF:/usr/include/c++/11/bits/char_traits.h
FN:106,_ZN9__gnu_cxx11char_traitsIcE2eqERKcS3_
FN:167,_ZN9__gnu_cxx11char_traitsIcE6lengthEPKc
FN:393,_ZNSt11char_traitsIcE6lengthEPKc
FN:429,_ZNSt11char_traitsIcE4copyEPcPKcm
FNDA:0,_ZN9__gnu_cxx11char_traitsIcE6lengthEPKc
FNDA:0,_ZN9__gnu_cxx11char_traitsIcE2eqERKcS3_
FNDA:0,_ZNSt11char_traitsIcE4copyEPcPKcm
FNDA:178,_ZNSt11char_traitsIcE6lengthEPKc
FNF:4
FNH:1
DA:106,0
DA:107,0
DA:167,0
DA:170,0
DA:171,0
DA:172,0
DA:173,0
DA:290,178
DA:393,178
DA:396,178
DA:397,0
DA:399,178
DA:429,0
DA:431,0
DA:432,0
DA:437,0
LF:16
LH:4
end_of_record
TN:
SF:/usr/include/c++/11/bits/charconv.h
FN:47,_ZNSt8__detail14__to_chars_lenIjEEjT_i
FN:72,_ZNSt8__detail18__to_chars_10_implIjEEvPcjT_
FNDA:208,_ZNSt8__detail14__to_chars_lenIjEEjT_i
FNDA:208,_ZNSt8__detail18__to_chars_10_implIjEEvPcjT_
FNF:2
FNH:2
DA:47,208
DA:52,208
DA:53,208
DA:54,208
DA:55,208
DA:58,208
DA:59,15
DA:60,0
DA:61,0
DA:62,0
DA:63,0
DA:72,208
DA:83,208
DA:84,208
DA:86,0
DA:87,0
DA:88,0
DA:89,0
DA:90,0
DA:92,208
DA:94,15
DA:95,15
DA:96,15
DA:99,193
DA:100,208
LF:25
LH:16
end_of_record
TN:
SF:/usr/include/c++/11/bits/cpp_type_traits.h
FN:560,_ZSt12__miter_baseIN9__gnu_cxx17__normal_iteratorIPK4EdgeSt6vectorIS2_SaIS2_EEEEET_S9_
FN:560,_ZSt12__miter_baseIPiET_S1_
FN:560,_ZSt12__miter_baseIN9__gnu_cxx17__normal_iteratorIPmSt6vectorImSaImEEEEET_S7_
FN:560,_ZSt12__miter_baseISt19_Bit_const_iteratorET_S1_
FN:560,_ZSt12__miter_baseIN9__gnu_cxx17__normal_iteratorIPKiSt6vectorIiSaIiEEEEET_S8_
FN:560,_ZSt12__miter_baseIN9__gnu_cxx17__normal_iteratorIP4EdgeSt6vectorIS2_SaIS2_EEEEET_S8_
FN:560,_ZSt12__miter_baseIPmET_S1_
FN:560,_ZSt12__miter_baseIPSt6vectorIiSaIiEEET_S4_
FN:560,_ZSt12__miter_baseIPPSt8functionIFvvEEET_S5_
FNDA:20,_ZSt12__miter_baseIN9__gnu_cxx17__normal_iteratorIP4EdgeSt6vectorIS2_SaIS2_EEEEET_S8_
FNDA:4,_ZSt12__miter_baseIN9__gnu_cxx17__normal_iteratorIPmSt6vectorImSaImEEEEET_S7_
FNDA:96,_ZSt12__miter_baseIN9__gnu_cxx17__normal_iteratorIPKiSt6vectorIiSaIiEEEEET_S8_
FNDA:42,_ZSt12__miter_baseISt19_Bit_const_iteratorET_S1_
FNDA:0,_ZSt12__miter_baseIPiET_S1_
FNDA:48,_ZSt12__miter_baseIN9__gnu_cxx17__normal_iteratorIPK4EdgeSt6vectorIS2_SaIS2_EEEEET_S9_
FNDA:0,_ZSt12__miter_baseIPSt6vectorIiSaIiEEET_S4_
FNDA:0,_ZSt12__miter_baseIPPSt8functionIFvvEEET_S5_
FNDA:42,_ZSt12__miter_baseIPmET_S1_
FNF:9
FNH:6
DA:560,252
DA:561,252
LF:2
LH:2
end_of_record
TN:
SF:/usr/include/c++/11/bits/deque.tcc
FN:164,_ZNSt5dequeISt8functionIFvvEESaIS2_EE12emplace_backIJRZ14handleCommandsiRSt6vectorISt10unique_ptrI12ActiveObjectSt14default_deleteIS8_EESaISB_EERS7_I5GraphS9_ISF_EER10MSTFactoryRS7_I4TreeS9_ISL_EEEUlvE1_EEERS2_DpOT_
FN:164,_ZNSt5dequeISt8functionIFvvEESaIS2_EE12emplace_backIJRZ14handleCommandsiRSt6vectorISt10unique_ptrI12ActiveObjectSt14default_deleteIS8_EESaISB_EERS7_I5GraphS9_ISF_EER10MSTFactoryRS7_I4TreeS9_ISL_EEEUlvE10_EEERS2_DpOT_
FN:164,_ZNSt5dequeISt8functionIFvvEESaIS2_EE12emplace_backIJRZ14handleCommandsiRSt6vectorISt10unique_ptrI12ActiveObjectSt14default_deleteIS8_EESaISB_EERS7_I5GraphS9_ISF_EER10MSTFactoryRS7_I4TreeS9_ISL_EEEUlvE2_EEERS2_DpOT_
FN:164,_ZNSt5dequeISt8functionIFvvEESaIS2_EE12emplace_backIJRZ14handleCommandsiRSt6vectorISt10unique_ptrI12ActiveObjectSt14default_deleteIS8_EESaISB_EERS7_I5GraphS9_ISF_EER10MSTFactoryRS7_I4TreeS9_ISL_EEEUlvE9_EEERS2_DpOT_
FN:164,_ZNSt5dequeISt8functionIFvvEESaIS2_EE12emplace_backIJRZ14handleCommandsiRSt6vectorISt10unique_ptrI12ActiveObjectSt14default_deleteIS8_EESaISB_EERS7_I5GraphS9_ISF_EER10MSTFactoryRS7_I4TreeS9_ISL_EEEUlvE6_EEERS2_DpOT_
FN:164,_ZNSt5dequeISt8functionIFvvEESaIS2_EE12emplace_backIJRZ14handleCommandsiRSt6vectorISt10unique_ptrI12ActiveObjectSt14default_deleteIS8_EESaISB_EERS7_I5GraphS9_ISF_EER10MSTFactoryRS7_I4TreeS9_ISL_EEEUlvE_EEERS2_DpOT_
FN:164,_ZNSt5dequeISt8functionIFvvEESaIS2_EE12emplace_backIJRZ14handleCommandsiRSt6vectorISt10unique_ptrI12ActiveObjectSt14default_deleteIS8_EESaISB_EERS7_I5GraphS9_ISF_EER10MSTFactoryRS7_I4TreeS9_ISL_EEEUlvE5_EEERS2_DpOT_
FN:164,_ZNSt5dequeISt8functionIFvvEESaIS2_EE12emplace_backIJRZ14handleCommandsiRSt6vectorISt10unique_ptrI12ActiveObjectSt14default_deleteIS8_EESaISB_EERS7_I5GraphS9_ISF_EER10MSTFactoryRS7_I4TreeS9_ISL_EEEUlvE0_EEERS2_DpOT_
FN:164,_ZNSt5dequeISt8functionIFvvEESaIS2_EE12emplace_backIJRZ14handleCommandsiRSt6vectorISt10unique_ptrI12ActiveObjectSt14default_deleteIS8_EESaISB_EERS7_I5GraphS9_ISF_EER10MSTFactoryRS7_I4TreeS9_ISL_EEEUlvE4_EEERS2_DpOT_
FN:164,_ZNSt5dequeISt8functionIFvvEESaIS2_EE12emplace_backIJRZ14handleCommandsiRSt6vectorISt10unique_ptrI12ActiveObjectSt14default_deleteIS8_EESaISB_EERS7_I5GraphS9_ISF_EER10MSTFactoryRS7_I4TreeS9_ISL_EEEUlvE3_EEERS2_DpOT_
FN:164,_ZNSt5dequeISt8functionIFvvEESaIS2_EE12emplace_backIJRZ14handleCommandsiRSt6vectorISt10unique_ptrI12ActiveObjectSt14default_deleteIS8_EESaISB_EERS7_I5GraphS9_ISF_EER10MSTFactoryRS7_I4TreeS9_ISL_EEEUlvE8_EEERS2_DpOT_
FN:484,_ZNSt5dequeISt8functionIFvvEESaIS2_EE16_M_push_back_auxIJRZ14handleCommandsiRSt6vectorISt10unique_ptrI12ActiveObjectSt14default_deleteIS8_EESaISB_EERS7_I5GraphS9_ISF_EER10MSTFactoryRS7_I4TreeS9_ISL_EEEUlvE3_EEEvDpOT_
FN:484,_ZNSt5dequeISt8functionIFvvEESaIS2_EE16_M_push_back_auxIJRZ14handleCommandsiRSt6vectorISt10unique_ptrI12ActiveObjectSt14default_deleteIS8_EESaISB_EERS7_I5GraphS9_ISF_EER10MSTFactoryRS7_I4TreeS9_ISL_EEEUlvE8_EEEvDpOT_
FN:484,_ZNSt5dequeISt8functionIFvvEESaIS2_EE16_M_push_back_auxIJRZ14handleCommandsiRSt6vectorISt10unique_ptrI12ActiveObjectSt14default_deleteIS8_EESaISB_EERS7_I5GraphS9_ISF_EER10MSTFactoryRS7_I4TreeS9_ISL_EEEUlvE_EEEvDpOT_
FN:484,_ZNSt5dequeISt8functionIFvvEESaIS2_EE16_M_push_back_auxIJRZ14handleCommandsiRSt6vectorISt10unique_ptrI12ActiveObjectSt14default_deleteIS8_EESaISB_EERS7_I5GraphS9_ISF_EER10MSTFactoryRS7_I4TreeS9_ISL_EEEUlvE10_EEEvDpOT_
FN:484,_ZNSt5dequeISt8functionIFvvEESaIS2_EE16_M_push_back_auxIJRZ14handleCommandsiRSt6vectorISt10unique_ptrI12ActiveObjectSt14default_deleteIS8_EESaISB_EERS7_I5GraphS9_ISF_EER10MSTFactoryRS7_I4TreeS9_ISL_EEEUlvE2_EEEvDpOT_
FN:484,_ZNSt5dequeISt8functionIFvvEESaIS2_EE16_M_push_back_auxIJRZ14handleCommandsiRSt6vectorISt10unique_ptrI12ActiveObjectSt14default_deleteIS8_EESaISB_EERS7_I5GraphS9_ISF_EER10MSTFactoryRS7_I4TreeS9_ISL_EEEUlvE0_EEEvDpOT_
FN:484,_ZNSt5dequeISt8functionIFvvEESaIS2_EE16_M_push_back_auxIJRZ14handleCommandsiRSt6vectorISt10unique_ptrI12ActiveObjectSt14default_deleteIS8_EESaISB_EERS7_I5GraphS9_ISF_EER10MSTFactoryRS7_I4TreeS9_ISL_EEEUlvE5_EEEvDpOT_
FN:484,_ZNSt5dequeISt8functionIFvvEESaIS2_EE16_M_push_back_auxIJRZ14handleCommandsiRSt6vectorISt10unique_ptrI12ActiveObjectSt14default_deleteIS8_EESaISB_EERS7_I5GraphS9_ISF_EER10MSTFactoryRS7_I4TreeS9_ISL_EEEUlvE9_EEEvDpOT_
FN:484,_ZNSt5dequeISt8functionIFvvEESaIS2_EE16_M_push_back_auxIJRZ14handleCommandsiRSt6vectorISt10unique_ptrI12ActiveObjectSt14default_deleteIS8_EESaISB_EERS7_I5GraphS9_ISF_EER10MSTFactoryRS7_I4TreeS9_ISL_EEEUlvE6_EEEvDpOT_
FN:484,_ZNSt5dequeISt8functionIFvvEESaIS2_EE16_M_push_back_auxIJRZ14handleCommandsiRSt6vectorISt10unique_ptrI12ActiveObjectSt14default_deleteIS8_EESaISB_EERS7_I5GraphS9_ISF_EER10MSTFactoryRS7_I4TreeS9_ISL_EEEUlvE4_EEEvDpOT_
FN:484,_ZNSt5dequeISt8functionIFvvEESaIS2_EE16_M_push_back_auxIJRZ14handleCommandsiRSt6vectorISt10unique_ptrI12ActiveObjectSt14default_deleteIS8_EESaISB_EERS7_I5GraphS9_ISF_EER10MSTFactoryRS7_I4TreeS9_ISL_EEEUlvE1_EEEvDpOT_
FN:576,_ZNSt5dequeISt8functionIFvvEESaIS2_EE16_M_pop_front_auxEv
FN:859,_ZNSt5dequeISt8functionIFvvEESaIS2_EE19_M_destroy_data_auxESt15_Deque_iteratorIS2_RS2_PS2_ES8_
FN:931,_ZNSt5dequeISt8functionIFvvEESaIS2_EE17_M_reallocate_mapEmb
FNDA:4,_ZNSt5dequeISt8functionIFvvEESaIS2_EE12emplace_backIJRZ14handleCommandsiRSt6vectorISt10unique_ptrI12ActiveObjectSt14default_deleteIS8_EESaISB_EERS7_I5GraphS9_ISF_EER10MSTFactoryRS7_I4TreeS9_ISL_EEEUlvE4_EEERS2_DpOT_
FNDA:4,_ZNSt5dequeISt8functionIFvvEESaIS2_EE12emplace_backIJRZ14handleCommandsiRSt6vectorISt10unique_ptrI12ActiveObjectSt14default_deleteIS8_EESaISB_EERS7_I5GraphS9_ISF_EER10MSTFactoryRS7_I4TreeS9_ISL_EEEUlvE3_EEERS2_DpOT_
FNDA:0,_ZNSt5dequeISt8functionIFvvEESaIS2_EE16_M_push_back_auxIJRZ14handleCommandsiRSt6vectorISt10unique_ptrI12ActiveObjectSt14default_deleteIS8_EESaISB_EERS7_I5GraphS9_ISF_EER10MSTFactoryRS7_I4TreeS9_ISL_EEEUlvE2_EEEvDpOT_
FNDA:6,_ZNSt5dequeISt8functionIFvvEESaIS2_EE12emplace_backIJRZ14handleCommandsiRSt6vectorISt10unique_ptrI12ActiveObjectSt14default_deleteIS8_EESaISB_EERS7_I5GraphS9_ISF_EER10MSTFactoryRS7_I4TreeS9_ISL_EEEUlvE8_EEERS2_DpOT_
FNDA:0,_ZNSt5dequeISt8functionIFvvEESaIS2_EE16_M_push_back_auxIJRZ14handleCommandsiRSt6vectorISt10unique_ptrI12ActiveObjectSt14default_deleteIS8_EESaISB_EERS7_I5GraphS9_ISF_EER10MSTFactoryRS7_I4TreeS9_ISL_EEEUlvE1_EEEvDpOT_
FNDA:0,_ZNSt5dequeISt8functionIFvvEESaIS2_EE16_M_push_back_auxIJRZ14handleCommandsiRSt6vectorISt10unique_ptrI12ActiveObjectSt14default_deleteIS8_EESaISB_EERS7_I5GraphS9_ISF_EER10MSTFactoryRS7_I4TreeS9_ISL_EEEUlvE0_EEEvDpOT_
FNDA:4,_ZNSt5dequeISt8functionIFvvEESaIS2_EE12emplace_backIJRZ14handleCommandsiRSt6vectorISt10unique_ptrI12ActiveObjectSt14default_deleteIS8_EESaISB_EERS7_I5GraphS9_ISF_EER10MSTFactoryRS7_I4TreeS9_ISL_EEEUlvE5_EEERS2_DpOT_
FNDA:0,_ZNSt5dequeISt8functionIFvvEESaIS2_EE17_M_reallocate_mapEmb
FNDA:0,_ZNSt5dequeISt8functionIFvvEESaIS2_EE16_M_push_back_auxIJRZ14handleCommandsiRSt6vectorISt10unique_ptrI12ActiveObjectSt14default_deleteIS8_EESaISB_EERS7_I5GraphS9_ISF_EER10MSTFactoryRS7_I4TreeS9_ISL_EEEUlvE4_EEEvDpOT_
FNDA:20,_ZNSt5dequeISt8functionIFvvEESaIS2_EE12emplace_backIJRZ14handleCommandsiRSt6vectorISt10unique_ptrI12ActiveObjectSt14default_deleteIS8_EESaISB_EERS7_I5GraphS9_ISF_EER10MSTFactoryRS7_I4TreeS9_ISL_EEEUlvE0_EEERS2_DpOT_
FNDA:4,_ZNSt5dequeISt8functionIFvvEESaIS2_EE12emplace_backIJRZ14handleCommandsiRSt6vectorISt10unique_ptrI12ActiveObjectSt14default_deleteIS8_EESaISB_EERS7_I5GraphS9_ISF_EER10MSTFactoryRS7_I4TreeS9_ISL_EEEUlvE2_EEERS2_DpOT_
FNDA:10,_ZNSt5dequeISt8functionIFvvEESaIS2_EE12emplace_backIJRZ14handleCommandsiRSt6vectorISt10unique_ptrI12ActiveObjectSt14default_deleteIS8_EESaISB_EERS7_I5GraphS9_ISF_EER10MSTFactoryRS7_I4TreeS9_ISL_EEEUlvE6_EEERS2_DpOT_
FNDA:4,_ZNSt5dequeISt8functionIFvvEESaIS2_EE12emplace_backIJRZ14handleCommandsiRSt6vectorISt10unique_ptrI12ActiveObjectSt14default_deleteIS8_EESaISB_EERS7_I5GraphS9_ISF_EER10MSTFactoryRS7_I4TreeS9_ISL_EEEUlvE9_EEERS2_DpOT_
FNDA:0,_ZNSt5dequeISt8functionIFvvEESaIS2_EE16_M_push_back_auxIJRZ14handleCommandsiRSt6vectorISt10unique_ptrI12ActiveObjectSt14default_deleteIS8_EESaISB_EERS7_I5GraphS9_ISF_EER10MSTFactoryRS7_I4TreeS9_ISL_EEEUlvE10_EEEvDpOT_
FNDA:8,_ZNSt5dequeISt8functionIFvvEESaIS2_EE12emplace_backIJRZ14handleCommandsiRSt6vectorISt10unique_ptrI12ActiveObjectSt14default_deleteIS8_EESaISB_EERS7_I5GraphS9_ISF_EER10MSTFactoryRS7_I4TreeS9_ISL_EEEUlvE_EEERS2_DpOT_
FNDA:0,_ZNSt5dequeISt8functionIFvvEESaIS2_EE16_M_push_back_auxIJRZ14handleCommandsiRSt6vectorISt10unique_ptrI12ActiveObjectSt14default_deleteIS8_EESaISB_EERS7_I5GraphS9_ISF_EER10MSTFactoryRS7_I4TreeS9_ISL_EEEUlvE3_EEEvDpOT_
FNDA:0,_ZNSt5dequeISt8functionIFvvEESaIS2_EE16_M_push_back_auxIJRZ14handleCommandsiRSt6vectorISt10unique_ptrI12ActiveObjectSt14default_deleteIS8_EESaISB_EERS7_I5GraphS9_ISF_EER10MSTFactoryRS7_I4TreeS9_ISL_EEEUlvE8_EEEvDpOT_
FNDA:4,_ZNSt5dequeISt8functionIFvvEESaIS2_EE12emplace_backIJRZ14handleCommandsiRSt6vectorISt10unique_ptrI12ActiveObjectSt14default_deleteIS8_EESaISB_EERS7_I5GraphS9_ISF_EER10MSTFactoryRS7_I4TreeS9_ISL_EEEUlvE1_EEERS2_DpOT_
FNDA:0,_ZNSt5dequeISt8functionIFvvEESaIS2_EE16_M_push_back_auxIJRZ14handleCommandsiRSt6vectorISt10unique_ptrI12ActiveObjectSt14default_deleteIS8_EESaISB_EERS7_I5GraphS9_ISF_EER10MSTFactoryRS7_I4TreeS9_ISL_EEEUlvE5_EEEvDpOT_
FNDA:0,_ZNSt5dequeISt8functionIFvvEESaIS2_EE16_M_push_back_auxIJRZ14handleCommandsiRSt6vectorISt10unique_ptrI12ActiveObjectSt14default_deleteIS8_EESaISB_EERS7_I5GraphS9_ISF_EER10MSTFactoryRS7_I4TreeS9_ISL_EEEUlvE_EEEvDpOT_
FNDA:14,_ZNSt5dequeISt8functionIFvvEESaIS2_EE19_M_destroy_data_auxESt15_Deque_iteratorIS2_RS2_PS2_ES8_
FNDA:0,_ZNSt5dequeISt8functionIFvvEESaIS2_EE16_M_pop_front_auxEv
FNDA:4,_ZNSt5dequeISt8functionIFvvEESaIS2_EE12emplace_backIJRZ14handleCommandsiRSt6vectorISt10unique_ptrI12ActiveObjectSt14default_deleteIS8_EESaISB_EERS7_I5GraphS9_ISF_EER10MSTFactoryRS7_I4TreeS9_ISL_EEEUlvE10_EEERS2_DpOT_
FNDA:0,_ZNSt5dequeISt8functionIFvvEESaIS2_EE16_M_push_back_auxIJRZ14handleCommandsiRSt6vectorISt10unique_ptrI12ActiveObjectSt14default_deleteIS8_EESaISB_EERS7_I5GraphS9_ISF_EER10MSTFactoryRS7_I4TreeS9_ISL_EEEUlvE9_EEEvDpOT_
FNDA:0,_ZNSt5dequeISt8functionIFvvEESaIS2_EE16_M_push_back_auxIJRZ14handleCommandsiRSt6vectorISt10unique_ptrI12ActiveObjectSt14default_deleteIS8_EESaISB_EERS7_I5GraphS9_ISF_EER10MSTFactoryRS7_I4TreeS9_ISL_EEEUlvE6_EEEvDpOT_
FNF:25
FNH:12
DA:164,72
DA:167,72
DA:168,72
DA:170,72
DA:173,72
DA:176,0
DA:178,72
DA:484,0
DA:492,0
DA:493,0
DA:496,0
DA:497,0
DA:501,0
DA:507,0
DA:509,0
DA:511,0
DA:513,0
DA:514,0
DA:516,0
DA:576,0
DA:579,0
DA:581,0
DA:582,0
DA:583,0
DA:584,0
DA:859,14
DA:862,14
DA:863,14
DA:864,0
DA:865,0
DA:867,14
DA:869,0
DA:870,0
DA:871,0
DA:872,0
DA:875,14
DA:876,14
DA:877,14
DA:931,0
DA:934,0
DA:935,0
DA:936,0
DA:939,0
DA:941,0
DA:942,0
DA:943,0
DA:944,0
DA:945,0
DA:946,0
DA:949,0
DA:950,0
DA:951,0
DA:955,0
DA:956,0
DA:959,0
DA:960,0
DA:961,0
DA:962,0
DA:963,0
DA:965,0
DA:967,0
DA:968,0
DA:971,0
DA:972,0
DA:973,0
LF:65
LH:13
end_of_record
TN:
SF:/usr/include/c++/11/bits/invoke.h
FN:60,_ZSt13__invoke_implIvRZ14handleCommandsiRSt6vectorISt10unique_ptrI12ActiveObjectSt14default_deleteIS2_EESaIS5_EERS1_I5GraphS3_IS9_EER10MSTFactoryRS1_I4TreeS3_ISF_EEEUlvE3_JEET_St14__invoke_otherOT0_DpOT1_
FN:60,_ZSt13__invoke_implIvRZ4mainEUlvE0_JEET_St14__invoke_otherOT0_DpOT1_
FN:60,_ZSt13__invoke_implIvRZ14handleCommandsiRSt6vectorISt10unique_ptrI12ActiveObjectSt14default_deleteIS2_EESaIS5_EERS1_I5GraphS3_IS9_EER10MSTFactoryRS1_I4TreeS3_ISF_EEEUlvE5_JEET_St14__invoke_otherOT0_DpOT1_
FN:60,_ZSt13__invoke_implIvRZ14handleCommandsiRSt6vectorISt10unique_ptrI12ActiveObjectSt14default_deleteIS2_EESaIS5_EERS1_I5GraphS3_IS9_EER10MSTFactoryRS1_I4TreeS3_ISF_EEEUlvE2_JEET_St14__invoke_otherOT0_DpOT1_
FN:60,_ZSt13__invoke_implIvRZ14handleCommandsiRSt6vectorISt10unique_ptrI12ActiveObjectSt14default_deleteIS2_EESaIS5_EERS1_I5GraphS3_IS9_EER10MSTFactoryRS1_I4TreeS3_ISF_EEEUlvE10_JEET_St14__invoke_otherOT0_DpOT1_
FN:60,_ZSt13__invoke_implIvRZ14handleCommandsiRSt6vectorISt10unique_ptrI12ActiveObjectSt14default_deleteIS2_EESaIS5_EERS1_I5GraphS3_IS9_EER10MSTFactoryRS1_I4TreeS3_ISF_EEEUlvE8_JEET_St14__invoke_otherOT0_DpOT1_
FN:60,_ZSt13__invoke_implIvRZ4mainEUliE_JiEET_St14__invoke_otherOT0_DpOT1_
FN:60,_ZSt13__invoke_implIvRSt5_BindIFM12LFThreadPoolFviEPS1_mEEJEET_St14__invoke_otherOT0_DpOT1_
FN:60,_ZSt13__invoke_implIvRZ14handleCommandsiRSt6vectorISt10unique_ptrI12ActiveObjectSt14default_deleteIS2_EESaIS5_EERS1_I5GraphS3_IS9_EER10MSTFactoryRS1_I4TreeS3_ISF_EEEUlvE_JEET_St14__invoke_otherOT0_DpOT1_
FN:60,_ZSt13__invoke_implIvRZ14handleCommandsiRSt6vectorISt10unique_ptrI12ActiveObjectSt14default_deleteIS2_EESaIS5_EERS1_I5GraphS3_IS9_EER10MSTFactoryRS1_I4TreeS3_ISF_EEEUlvE0_JEET_St14__invoke_otherOT0_DpOT1_
FN:60,_ZSt13__invoke_implIvRZ14handleCommandsiRSt6vectorISt10unique_ptrI12ActiveObjectSt14default_deleteIS2_EESaIS5_EERS1_I5GraphS3_IS9_EER10MSTFactoryRS1_I4TreeS3_ISF_EEEUlvE6_JEET_St14__invoke_otherOT0_DpOT1_
FN:60,_ZSt13__invoke_implIvRZ16acceptConnectioniRSt10unique_ptrI5GraphSt14default_deleteIS1_EER10MSTFactoryRS0_I4TreeS2_IS8_EERS0_I12LFThreadPoolS2_ISC_EEEUlvE_JEET_St14__invoke_otherOT0_DpOT1_
FN:60,_ZSt13__invoke_implIvRZ14handleCommandsiRSt6vectorISt10unique_ptrI12ActiveObjectSt14default_deleteIS2_EESaIS5_EERS1_I5GraphS3_IS9_EER10MSTFactoryRS1_I4TreeS3_ISF_EEEUlvE9_JEET_St14__invoke_otherOT0_DpOT1_
FN:60,_ZSt13__invoke_implIvRZ14handleCommandsiRSt6vectorISt10unique_ptrI12ActiveObjectSt14default_deleteIS2_EESaIS5_EERS1_I5GraphS3_IS9_EER10MSTFactoryRS1_I4TreeS3_ISF_EEEUlvE4_JEET_St14__invoke_otherOT0_DpOT1_
FN:60,_ZSt13__invoke_implIvRZ14handleCommandsiRSt6vectorISt10unique_ptrI12ActiveObjectSt14default_deleteIS2_EESaIS5_EERS1_I5GraphS3_IS9_EER10MSTFactoryRS1_I4TreeS3_ISF_EEEUlvE1_JEET_St14__invoke_otherOT0_DpOT1_
FN:71,_ZSt13__invoke_implIvM12ActiveObjectFvvEPS0_JEET_St21__invoke_memfun_derefOT0_OT1_DpOT2_
FN:71,_ZSt13__invoke_implIvRM12LFThreadPoolFviERPS0_JRmEET_St21__invoke_memfun_derefOT0_OT1_DpOT2_
FN:90,_ZSt8__invokeIRM12LFThreadPoolFviEJRPS0_RmEENSt15__invoke_resultIT_JDpT0_EE4typeEOS8_DpOS9_
FN:90,_ZSt8__invokeIM12ActiveObjectFvvEJPS0_EENSt15__invoke_resultIT_JDpT0_EE4typeEOS5_DpOS6_
FN:104,_ZSt10__invoke_rIvRZ14handleCommandsiRSt6vectorISt10unique_ptrI12ActiveObjectSt14default_deleteIS2_EESaIS5_EERS1_I5GraphS3_IS9_EER10MSTFactoryRS1_I4TreeS3_ISF_EEEUlvE3_JEENSt9enable_ifIX16is_invocable_r_vIT_T0_DpT1_EESM_E4typeEOSN_DpOSO_
FN:104,_ZSt10__invoke_rIvRSt5_BindIFM12LFThreadPoolFviEPS1_mEEJEENSt9enable_ifIX16is_invocable_r_vIT_T0_DpT1_EES9_E4typeEOSA_DpOSB_
FN:104,_ZSt10__invoke_rIvRZ14handleCommandsiRSt6vectorISt10unique_ptrI12ActiveObjectSt14default_deleteIS2_EESaIS5_EERS1_I5GraphS3_IS9_EER10MSTFactoryRS1_I4TreeS3_ISF_EEEUlvE9_JEENSt9enable_ifIX16is_invocable_r_vIT_T0_DpT1_EESM_E4typeEOSN_DpOSO_
FN:104,_ZSt10__invoke_rIvRZ16acceptConnectioniRSt10unique_ptrI5GraphSt14default_deleteIS1_EER10MSTFactoryRS0_I4TreeS2_IS8_EERS0_I12LFThreadPoolS2_ISC_EEEUlvE_JEENSt9enable_ifIX16is_invocable_r_vIT_T0_DpT1_EESJ_E4typeEOSK_DpOSL_
FN:104,_ZSt10__invoke_rIvRZ14handleCommandsiRSt6vectorISt10unique_ptrI12ActiveObjectSt14default_deleteIS2_EESaIS5_EERS1_I5GraphS3_IS9_EER10MSTFactoryRS1_I4TreeS3_ISF_EEEUlvE0_JEENSt9enable_ifIX16is_invocable_r_vIT_T0_DpT1_EESM_E4typeEOSN_DpOSO_
FN:104,_ZSt10__invoke_rIvRZ14handleCommandsiRSt6vectorISt10unique_ptrI12ActiveObjectSt14default_deleteIS2_EESaIS5_EERS1_I5GraphS3_IS9_EER10MSTFactoryRS1_I4TreeS3_ISF_EEEUlvE6_JEENSt9enable_ifIX16is_invocable_r_vIT_T0_DpT1_EESM_E4typeEOSN_DpOSO_
FN:104,_ZSt10__invoke_rIvRZ14handleCommandsiRSt6vectorISt10unique_ptrI12ActiveObjectSt14default_deleteIS2_EESaIS5_EERS1_I5GraphS3_IS9_EER10MSTFactoryRS1_I4TreeS3_ISF_EEEUlvE10_JEENSt9enable_ifIX16is_invocable_r_vIT_T0_DpT1_EESM_E4typeEOSN_DpOSO_
FN:104,_ZSt10__invoke_rIvRZ4mainEUliE_JiEENSt9enable_ifIX16is_invocable_r_vIT_T0_DpT1_EES3_E4typeEOS4_DpOS5_
FN:104,_ZSt10__invoke_rIvRZ14handleCommandsiRSt6vectorISt10unique_ptrI12ActiveObjectSt14default_deleteIS2_EESaIS5_EERS1_I5GraphS3_IS9_EER10MSTFactoryRS1_I4TreeS3_ISF_EEEUlvE2_JEENSt9enable_ifIX16is_invocable_r_vIT_T0_DpT1_EESM_E4typeEOSN_DpOSO_
FN:104,_ZSt10__invoke_rIvRZ4mainEUlvE0_JEENSt9enable_ifIX16is_invocable_r_vIT_T0_DpT1_EES3_E4typeEOS4_DpOS5_
FN:104,_ZSt10__invoke_rIvRZ14handleCommandsiRSt6vectorISt10unique_ptrI12ActiveObjectSt14default_deleteIS2_EESaIS5_EERS1_I5GraphS3_IS9_EER10MSTFactoryRS1_I4TreeS3_ISF_EEEUlvE1_JEENSt9enable_ifIX16is_invocable_r_vIT_T0_DpT1_EESM_E4typeEOSN_DpOSO_
FN:104,_ZSt10__invoke_rIvRZ14handleCommandsiRSt6vectorISt10unique_ptrI12ActiveObjectSt14default_deleteIS2_EESaIS5_EERS1_I5GraphS3_IS9_EER10MSTFactoryRS1_I4TreeS3_ISF_EEEUlvE4_JEENSt9enable_ifIX16is_invocable_r_vIT_T0_DpT1_EESM_E4typeEOSN_DpOSO_
FN:104,_ZSt10__invoke_rIvRZ14handleCommandsiRSt6vectorISt10unique_ptrI12ActiveObjectSt14default_deleteIS2_EESaIS5_EERS1_I5GraphS3_IS9_EER10MSTFactoryRS1_I4TreeS3_ISF_EEEUlvE8_JEENSt9enable_ifIX16is_invocable_r_vIT_T0_DpT1_EESM_E4typeEOSN_DpOSO_
FN:104,_ZSt10__invoke_rIvRZ14handleCommandsiRSt6vectorISt10unique_ptrI12ActiveObjectSt14default_deleteIS2_EESaIS5_EERS1_I5GraphS3_IS9_EER10MSTFactoryRS1_I4TreeS3_ISF_EEEUlvE_JEENSt9enable_ifIX16is_invocable_r_vIT_T0_DpT1_EESM_E4typeEOSN_DpOSO_
FN:104,_ZSt10__invoke_rIvRZ14handleCommandsiRSt6vectorISt10unique_ptrI12ActiveObjectSt14default_deleteIS2_EESaIS5_EERS1_I5GraphS3_IS9_EER10MSTFactoryRS1_I4TreeS3_ISF_EEEUlvE5_JEENSt9enable_ifIX16is_invocable_r_vIT_T0_DpT1_EESM_E4typeEOSN_DpOSO_
FNDA:4,_ZSt13__invoke_implIvRZ14handleCommandsiRSt6vectorISt10unique_ptrI12ActiveObjectSt14default_deleteIS2_EESaIS5_EERS1_I5GraphS3_IS9_EER10MSTFactoryRS1_I4TreeS3_ISF_EEEUlvE2_JEET_St14__invoke_otherOT0_DpOT1_
FNDA:4,_ZSt13__invoke_implIvRZ14handleCommandsiRSt6vectorISt10unique_ptrI12ActiveObjectSt14default_deleteIS2_EESaIS5_EERS1_I5GraphS3_IS9_EER10MSTFactoryRS1_I4TreeS3_ISF_EEEUlvE5_JEET_St14__invoke_otherOT0_DpOT1_
FNDA:4,_ZSt13__invoke_implIvRZ14handleCommandsiRSt6vectorISt10unique_ptrI12ActiveObjectSt14default_deleteIS2_EESaIS5_EERS1_I5GraphS3_IS9_EER10MSTFactoryRS1_I4TreeS3_ISF_EEEUlvE10_JEET_St14__invoke_otherOT0_DpOT1_
FNDA:20,_ZSt10__invoke_rIvRZ14handleCommandsiRSt6vectorISt10unique_ptrI12ActiveObjectSt14default_deleteIS2_EESaIS5_EERS1_I5GraphS3_IS9_EER10MSTFactoryRS1_I4TreeS3_ISF_EEEUlvE0_JEENSt9enable_ifIX16is_invocable_r_vIT_T0_DpT1_EESM_E4typeEOSN_DpOSO_
FNDA:3,_ZSt13__invoke_implIvRZ4mainEUlvE0_JEET_St14__invoke_otherOT0_DpOT1_
FNDA:3,_ZSt10__invoke_rIvRZ16acceptConnectioniRSt10unique_ptrI5GraphSt14default_deleteIS1_EER10MSTFactoryRS0_I4TreeS2_IS8_EERS0_I12LFThreadPoolS2_ISC_EEEUlvE_JEENSt9enable_ifIX16is_invocable_r_vIT_T0_DpT1_EESJ_E4typeEOSK_DpOSL_
FNDA:4,_ZSt10__invoke_rIvRZ14handleCommandsiRSt6vectorISt10unique_ptrI12ActiveObjectSt14default_deleteIS2_EESaIS5_EERS1_I5GraphS3_IS9_EER10MSTFactoryRS1_I4TreeS3_ISF_EEEUlvE9_JEENSt9enable_ifIX16is_invocable_r_vIT_T0_DpT1_EESM_E4typeEOSN_DpOSO_
FNDA:4,_ZSt13__invoke_implIvRZ14handleCommandsiRSt6vectorISt10unique_ptrI12ActiveObjectSt14default_deleteIS2_EESaIS5_EERS1_I5GraphS3_IS9_EER10MSTFactoryRS1_I4TreeS3_ISF_EEEUlvE3_JEET_St14__invoke_otherOT0_DpOT1_
FNDA:4,_ZSt10__invoke_rIvRZ14handleCommandsiRSt6vectorISt10unique_ptrI12ActiveObjectSt14default_deleteIS2_EESaIS5_EERS1_I5GraphS3_IS9_EER10MSTFactoryRS1_I4TreeS3_ISF_EEEUlvE3_JEENSt9enable_ifIX16is_invocable_r_vIT_T0_DpT1_EESM_E4typeEOSN_DpOSO_
FNDA:10,_ZSt10__invoke_rIvRSt5_BindIFM12LFThreadPoolFviEPS1_mEEJEENSt9enable_ifIX16is_invocable_r_vIT_T0_DpT1_EES9_E4typeEOSA_DpOSB_
FNDA:20,_ZSt13__invoke_implIvRZ14handleCommandsiRSt6vectorISt10unique_ptrI12ActiveObjectSt14default_deleteIS2_EESaIS5_EERS1_I5GraphS3_IS9_EER10MSTFactoryRS1_I4TreeS3_ISF_EEEUlvE0_JEET_St14__invoke_otherOT0_DpOT1_
FNDA:10,_ZSt8__invokeIRM12LFThreadPoolFviEJRPS0_RmEENSt15__invoke_resultIT_JDpT0_EE4typeEOS8_DpOS9_
FNDA:8,_ZSt13__invoke_implIvRZ14handleCommandsiRSt6vectorISt10unique_ptrI12ActiveObjectSt14default_deleteIS2_EESaIS5_EERS1_I5GraphS3_IS9_EER10MSTFactoryRS1_I4TreeS3_ISF_EEEUlvE_JEET_St14__invoke_otherOT0_DpOT1_
FNDA:14,_ZSt13__invoke_implIvM12ActiveObjectFvvEPS0_JEET_St21__invoke_memfun_derefOT0_OT1_DpOT2_
FNDA:10,_ZSt13__invoke_implIvRSt5_BindIFM12LFThreadPoolFviEPS1_mEEJEET_St14__invoke_otherOT0_DpOT1_
FNDA:4,_ZSt10__invoke_rIvRZ14handleCommandsiRSt6vectorISt10unique_ptrI12ActiveObjectSt14default_deleteIS2_EESaIS5_EERS1_I5GraphS3_IS9_EER10MSTFactoryRS1_I4TreeS3_ISF_EEEUlvE10_JEENSt9enable_ifIX16is_invocable_r_vIT_T0_DpT1_EESM_E4typeEOSN_DpOSO_
FNDA:3,_ZSt13__invoke_implIvRZ4mainEUliE_JiEET_St14__invoke_otherOT0_DpOT1_
FNDA:10,_ZSt10__invoke_rIvRZ14handleCommandsiRSt6vectorISt10unique_ptrI12ActiveObjectSt14default_deleteIS2_EESaIS5_EERS1_I5GraphS3_IS9_EER10MSTFactoryRS1_I4TreeS3_ISF_EEEUlvE6_JEENSt9enable_ifIX16is_invocable_r_vIT_T0_DpT1_EESM_E4typeEOSN_DpOSO_
FNDA:6,_ZSt13__invoke_implIvRZ14handleCommandsiRSt6vectorISt10unique_ptrI12ActiveObjectSt14default_deleteIS2_EESaIS5_EERS1_I5GraphS3_IS9_EER10MSTFactoryRS1_I4TreeS3_ISF_EEEUlvE8_JEET_St14__invoke_otherOT0_DpOT1_
FNDA:4,_ZSt13__invoke_implIvRZ14handleCommandsiRSt6vectorISt10unique_ptrI12ActiveObjectSt14default_deleteIS2_EESaIS5_EERS1_I5GraphS3_IS9_EER10MSTFactoryRS1_I4TreeS3_ISF_EEEUlvE9_JEET_St14__invoke_otherOT0_DpOT1_
FNDA:3,_ZSt13__invoke_implIvRZ16acceptConnectioniRSt10unique_ptrI5GraphSt14default_deleteIS1_EER10MSTFactoryRS0_I4TreeS2_IS8_EERS0_I12LFThreadPoolS2_ISC_EEEUlvE_JEET_St14__invoke_otherOT0_DpOT1_
FNDA:10,_ZSt13__invoke_implIvRM12LFThreadPoolFviERPS0_JRmEET_St21__invoke_memfun_derefOT0_OT1_DpOT2_
FNDA:3,_ZSt10__invoke_rIvRZ4mainEUlvE0_JEENSt9enable_ifIX16is_invocable_r_vIT_T0_DpT1_EES3_E4typeEOS4_DpOS5_
FNDA:4,_ZSt10__invoke_rIvRZ14handleCommandsiRSt6vectorISt10unique_ptrI12ActiveObjectSt14default_deleteIS2_EESaIS5_EERS1_I5GraphS3_IS9_EER10MSTFactoryRS1_I4TreeS3_ISF_EEEUlvE2_JEENSt9enable_ifIX16is_invocable_r_vIT_T0_DpT1_EESM_E4typeEOSN_DpOSO_
FNDA:10,_ZSt13__invoke_implIvRZ14handleCommandsiRSt6vectorISt10unique_ptrI12ActiveObjectSt14default_deleteIS2_EESaIS5_EERS1_I5GraphS3_IS9_EER10MSTFactoryRS1_I4TreeS3_ISF_EEEUlvE6_JEET_St14__invoke_otherOT0_DpOT1_
FNDA:3,_ZSt10__invoke_rIvRZ4mainEUliE_JiEENSt9enable_ifIX16is_invocable_r_vIT_T0_DpT1_EES3_E4typeEOS4_DpOS5_
FNDA:4,_ZSt10__invoke_rIvRZ14handleCommandsiRSt6vectorISt10unique_ptrI12ActiveObjectSt14default_deleteIS2_EESaIS5_EERS1_I5GraphS3_IS9_EER10MSTFactoryRS1_I4TreeS3_ISF_EEEUlvE5_JEENSt9enable_ifIX16is_invocable_r_vIT_T0_DpT1_EESM_E4typeEOSN_DpOSO_
FNDA:8,_ZSt10__invoke_rIvRZ14handleCommandsiRSt6vectorISt10unique_ptrI12ActiveObjectSt14default_deleteIS2_EESaIS5_EERS1_I5GraphS3_IS9_EER10MSTFactoryRS1_I4TreeS3_ISF_EEEUlvE_JEENSt9enable_ifIX16is_invocable_r_vIT_T0_DpT1_EESM_E4typeEOSN_DpOSO_
FNDA:14,_ZSt8__invokeIM12ActiveObjectFvvEJPS0_EENSt15__invoke_resultIT_JDpT0_EE4typeEOS5_DpOS6_
FNDA:4,_ZSt13__invoke_implIvRZ14handleCommandsiRSt6vectorISt10unique_ptrI12ActiveObjectSt14default_deleteIS2_EESaIS5_EERS1_I5GraphS3_IS9_EER10MSTFactoryRS1_I4TreeS3_ISF_EEEUlvE1_JEET_St14__invoke_otherOT0_DpOT1_
FNDA:4,_ZSt10__invoke_rIvRZ14handleCommandsiRSt6vectorISt10unique_ptrI12ActiveObjectSt14default_deleteIS2_EESaIS5_EERS1_I5GraphS3_IS9_EER10MSTFactoryRS1_I4TreeS3_ISF_EEEUlvE4_JEENSt9enable_ifIX16is_invocable_r_vIT_T0_DpT1_EESM_E4typeEOSN_DpOSO_
FNDA:6,_ZSt10__invoke_rIvRZ14handleCommandsiRSt6vectorISt10unique_ptrI12ActiveObjectSt14default_deleteIS2_EESaIS5_EERS1_I5GraphS3_IS9_EER10MSTFactoryRS1_I4TreeS3_ISF_EEEUlvE8_JEENSt9enable_ifIX16is_invocable_r_vIT_T0_DpT1_EESM_E4typeEOSN_DpOSO_
FNDA:4,_ZSt10__invoke_rIvRZ14handleCommandsiRSt6vectorISt10unique_ptrI12ActiveObjectSt14default_deleteIS2_EESaIS5_EERS1_I5GraphS3_IS9_EER10MSTFactoryRS1_I4TreeS3_ISF_EEEUlvE1_JEENSt9enable_ifIX16is_invocable_r_vIT_T0_DpT1_EESM_E4typeEOSN_DpOSO_
FNDA:4,_ZSt13__invoke_implIvRZ14handleCommandsiRSt6vectorISt10unique_ptrI12ActiveObjectSt14default_deleteIS2_EESaIS5_EERS1_I5GraphS3_IS9_EER10MSTFactoryRS1_I4TreeS3_ISF_EEEUlvE4_JEET_St14__invoke_otherOT0_DpOT1_
FNF:34
FNH:34
DA:60,91
DA:61,91
DA:71,24
DA:74,24
DA:90,24
DA:96,24
DA:97,23
DA:104,91
DA:111,91
DA:117,90
LF:10
LH:10
end_of_record
TN:
SF:/usr/include/c++/11/bits/ios_base.h
FN:129,_ZStorSt13_Ios_OpenmodeS_
FNDA:91,_ZStorSt13_Ios_OpenmodeS_
FNF:1
FNH:1
DA:129,91
DA:130,91
LF:2
LH:2
end_of_record
TN:
SF:/usr/include/c++/11/bits/move.h
FN:49,_ZSt11__addressofISt6vectorISt10unique_ptrI12ActiveObjectSt14default_deleteIS2_EESaIS5_EEEPT_RS8_
FN:49,_ZSt11__addressofISt10unique_ptrI5GraphSt14default_deleteIS1_EEEPT_RS5_
FN:49,_ZSt11__addressofISt10unique_ptrI12ActiveObjectSt14default_deleteIS1_EEEPT_RS5_
FN:49,_ZSt11__addressofImEPT_RS0_
FN:49,_ZSt11__addressofISt8functionIFvvEEEPT_RS3_
FN:49,_ZSt11__addressofISt6vectorI4EdgeSaIS1_EEEPT_RS4_
FN:49,_ZSt11__addressofISt6threadEPT_RS1_
FN:49,_ZSt11__addressofISaISt23_Sp_counted_ptr_inplaceI13ThreadContextSaIS1_ELN9__gnu_cxx12_Lock_policyE2EEEEPT_RS7_
FN:49,_ZSt11__addressofISt10unique_ptrI4TreeSt14default_deleteIS1_EEEPT_RS5_
FN:49,_ZSt11__addressofISt5mutexEPT_RS1_
FN:49,_ZSt11__addressofI10MSTFactoryEPT_RS1_
FN:49,_ZSt11__addressofISt4pairIiiEEPT_RS2_
FN:49,_ZSt11__addressofISt6vectorIiSaIiEEEPT_RS3_
FN:49,_ZSt11__addressofISt10shared_ptrI13ThreadContextEEPT_RS3_
FN:77,_ZSt7forwardIRP12LFThreadPoolEOT_RNSt16remove_referenceIS3_E4typeE
FN:77,_ZSt7forwardIRZ14handleCommandsiRSt6vectorISt10unique_ptrI12ActiveObjectSt14default_deleteIS2_EESaIS5_EERS1_I5GraphS3_IS9_EER10MSTFactoryRS1_I4TreeS3_ISF_EEEUlvE1_EOT_RNSt16remove_referenceISL_E4typeE
FN:77,_ZSt7forwardIRKZ14handleCommandsiRSt6vectorISt10unique_ptrI12ActiveObjectSt14default_deleteIS2_EESaIS5_EERS1_I5GraphS3_IS9_EER10MSTFactoryRS1_I4TreeS3_ISF_EEEUlvE2_EOT_RNSt16remove_referenceISM_E4typeE
FN:77,_ZSt7forwardIRKiEOT_RNSt16remove_referenceIS2_E4typeE
FN:77,_ZSt7forwardIR7ReactorEOT_RNSt16remove_referenceIS2_E4typeE
FN:77,_ZSt7forwardISt14default_deleteI4TreeEEOT_RNSt16remove_referenceIS3_E4typeE
FN:77,_ZSt7forwardIRKSt5_BindIFM12LFThreadPoolFviEPS1_mEEEOT_RNSt16remove_referenceIS9_E4typeE
FN:77,_ZSt7forwardIRKZ14handleCommandsiRSt6vectorISt10unique_ptrI12ActiveObjectSt14default_deleteIS2_EESaIS5_EERS1_I5GraphS3_IS9_EER10MSTFactoryRS1_I4TreeS3_ISF_EEEUlvE4_EOT_RNSt16remove_referenceISM_E4typeE
FN:77,_ZSt7forwardIRSt8functionIFvvEEEOT_RNSt16remove_referenceIS4_E4typeE
FN:77,_ZSt7forwardIRZ14handleCommandsiRSt6vectorISt10unique_ptrI12ActiveObjectSt14default_deleteIS2_EESaIS5_EERS1_I5GraphS3_IS9_EER10MSTFactoryRS1_I4TreeS3_ISF_EEEUlvE3_EOT_RNSt16remove_referenceISL_E4typeE
FN:77,_ZSt7forwardIRZ16acceptConnectioniRSt10unique_ptrI5GraphSt14default_deleteIS1_EER10MSTFactoryRS0_I4TreeS2_IS8_EERS0_I12LFThreadPoolS2_ISC_EEEUlvE_EOT_RNSt16remove_referenceISI_E4typeE
FN:77,_ZSt7forwardIZ16acceptConnectioniRSt10unique_ptrI5GraphSt14default_deleteIS1_EER10MSTFactoryRS0_I4TreeS2_IS8_EERS0_I12LFThreadPoolS2_ISC_EEEUlvE_EOT_RNSt16remove_referenceISH_E4typeE
FN:77,_ZSt7forwardIRM12LFThreadPoolFviEEOT_RNSt16remove_referenceIS4_E4typeE
FN:77,_ZSt7forwardIRKZ4mainEUliE_EOT_RNSt16remove_referenceIS3_E4typeE
FN:77,_ZSt7forwardIRKZ4mainEUlvE0_EOT_RNSt16remove_referenceIS3_E4typeE
FN:77,_ZSt7forwardISt5_BindIFM12LFThreadPoolFviEPS1_mEEEOT_RNSt16remove_referenceIS7_E4typeE
FN:77,_ZSt7forwardIRKZ16acceptConnectioniRSt10unique_ptrI5GraphSt14default_deleteIS1_EER10MSTFactoryRS0_I4TreeS2_IS8_EERS0_I12LFThreadPoolS2_ISC_EEEUlvE_EOT_RNSt16remove_referenceISJ_E4typeE
FN:77,_ZSt7forwardIRSt5_BindIFM12LFThreadPoolFviEPS1_mEEEOT_RNSt16remove_referenceIS8_E4typeE
FN:77,_ZSt7forwardIP12ActiveObjectEOT_RNSt16remove_referenceIS2_E4typeE
FN:77,_ZSt7forwardIRZ14handleCommandsiRSt6vectorISt10unique_ptrI12ActiveObjectSt14default_deleteIS2_EESaIS5_EERS1_I5GraphS3_IS9_EER10MSTFactoryRS1_I4TreeS3_ISF_EEEUlvE5_EOT_RNSt16remove_referenceISL_E4typeE
FN:77,_ZSt7forwardIRK4EdgeEOT_RNSt16remove_referenceIS3_E4typeE
FN:77,_ZSt7forwardIM12LFThreadPoolFviEEOT_RNSt16remove_referenceIS3_E4typeE
FN:77,_ZSt7forwardIRPSt18_Rb_tree_node_baseEOT_RNSt16remove_referenceIS3_E4typeE
FN:77,_ZSt7forwardIiEOT_RNSt16remove_referenceIS0_E4typeE
FN:77,_ZSt7forwardIRZ14handleCommandsiRSt6vectorISt10unique_ptrI12ActiveObjectSt14default_deleteIS2_EESaIS5_EERS1_I5GraphS3_IS9_EER10MSTFactoryRS1_I4TreeS3_ISF_EEEUlvE9_EOT_RNSt16remove_referenceISL_E4typeE
FN:77,_ZSt7forwardISt6vectorIiSaIiEEEOT_RNSt16remove_referenceIS3_E4typeE
FN:77,_ZSt7forwardIRKZ14handleCommandsiRSt6vectorISt10unique_ptrI12ActiveObjectSt14default_deleteIS2_EESaIS5_EERS1_I5GraphS3_IS9_EER10MSTFactoryRS1_I4TreeS3_ISF_EEEUlvE3_EOT_RNSt16remove_referenceISM_E4typeE
FN:77,_ZSt7forwardIRZ14handleCommandsiRSt6vectorISt10unique_ptrI12ActiveObjectSt14default_deleteIS2_EESaIS5_EERS1_I5GraphS3_IS9_EER10MSTFactoryRS1_I4TreeS3_ISF_EEEUlvE_EOT_RNSt16remove_referenceISL_E4typeE
FN:77,_ZSt7forwardIRZ14handleCommandsiRSt6vectorISt10unique_ptrI12ActiveObjectSt14default_deleteIS2_EESaIS5_EERS1_I5GraphS3_IS9_EER10MSTFactoryRS1_I4TreeS3_ISF_EEEUlvE6_EOT_RNSt16remove_referenceISL_E4typeE
FN:77,_ZSt7forwardISt14default_deleteI12LFThreadPoolEEOT_RNSt16remove_referenceIS3_E4typeE
FN:77,_ZSt7forwardIRSt6vectorI4EdgeSaIS1_EEEOT_RNSt16remove_referenceIS5_E4typeE
FN:77,_ZSt7forwardIRKZ14handleCommandsiRSt6vectorISt10unique_ptrI12ActiveObjectSt14default_deleteIS2_EESaIS5_EERS1_I5GraphS3_IS9_EER10MSTFactoryRS1_I4TreeS3_ISF_EEEUlvE5_EOT_RNSt16remove_referenceISM_E4typeE
FN:77,_ZSt7forwardIRKZ14handleCommandsiRSt6vectorISt10unique_ptrI12ActiveObjectSt14default_deleteIS2_EESaIS5_EERS1_I5GraphS3_IS9_EER10MSTFactoryRS1_I4TreeS3_ISF_EEEUlvE8_EOT_RNSt16remove_referenceISM_E4typeE
FN:77,_ZSt7forwardIRZ14handleCommandsiRSt6vectorISt10unique_ptrI12ActiveObjectSt14default_deleteIS2_EESaIS5_EERS1_I5GraphS3_IS9_EER10MSTFactoryRS1_I4TreeS3_ISF_EEEUlvE4_EOT_RNSt16remove_referenceISL_E4typeE
FN:77,_ZSt7forwardISt14default_deleteI9functArgsEEOT_RNSt16remove_referenceIS3_E4typeE
FN:77,_ZSt7forwardIRKZ14handleCommandsiRSt6vectorISt10unique_ptrI12ActiveObjectSt14default_deleteIS2_EESaIS5_EERS1_I5GraphS3_IS9_EER10MSTFactoryRS1_I4TreeS3_ISF_EEEUlvE1_EOT_RNSt16remove_referenceISM_E4typeE
FN:77,_ZSt7forwardIRZ4mainEUliE_EOT_RNSt16remove_referenceIS2_E4typeE
FN:77,_ZSt7forwardIZ4mainEUliE_EOT_RNSt16remove_referenceIS1_E4typeE
FN:77,_ZSt7forwardIRSt6vectorISt10unique_ptrI12ActiveObjectSt14default_deleteIS2_EESaIS5_EEEOT_RNSt16remove_referenceIS9_E4typeE
FN:77,_ZSt7forwardIRKZ14handleCommandsiRSt6vectorISt10unique_ptrI12ActiveObjectSt14default_deleteIS2_EESaIS5_EERS1_I5GraphS3_IS9_EER10MSTFactoryRS1_I4TreeS3_ISF_EEEUlvE_EOT_RNSt16remove_referenceISM_E4typeE
FN:77,_ZSt7forwardISt14default_deleteI5GraphEEOT_RNSt16remove_referenceIS3_E4typeE
FN:77,_ZSt7forwardIRZ14handleCommandsiRSt6vectorISt10unique_ptrI12ActiveObjectSt14default_deleteIS2_EESaIS5_EERS1_I5GraphS3_IS9_EER10MSTFactoryRS1_I4TreeS3_ISF_EEEUlvE0_EOT_RNSt16remove_referenceISL_E4typeE
FN:77,_ZSt7forwardIRKmEOT_RNSt16remove_referenceIS2_E4typeE
FN:77,_ZSt7forwardIRZ14handleCommandsiRSt6vectorISt10unique_ptrI12ActiveObjectSt14default_deleteIS2_EESaIS5_EERS1_I5GraphS3_IS9_EER10MSTFactoryRS1_I4TreeS3_ISF_EEEUlvE10_EOT_RNSt16remove_referenceISL_E4typeE
FN:77,_ZSt7forwardIRKSt6vectorIiSaIiEEEOT_RNSt16remove_referenceIS5_E4typeE
FN:77,_ZSt7forwardIRSt10unique_ptrI5GraphSt14default_deleteIS1_EEEOT_RNSt16remove_referenceIS6_E4typeE
FN:77,_ZSt7forwardIRKZ14handleCommandsiRSt6vectorISt10unique_ptrI12ActiveObjectSt14default_deleteIS2_EESaIS5_EERS1_I5GraphS3_IS9_EER10MSTFactoryRS1_I4TreeS3_ISF_EEEUlvE6_EOT_RNSt16remove_referenceISM_E4typeE
FN:77,_ZSt7forwardISt4pairIiiEEOT_RNSt16remove_referenceIS2_E4typeE
FN:77,_ZSt7forwardIR10MSTFactoryEOT_RNSt16remove_referenceIS2_E4typeE
FN:77,_ZSt7forwardIZ4mainEUlvE0_EOT_RNSt16remove_referenceIS1_E4typeE
FN:77,_ZSt7forwardIRKSt21piecewise_construct_tEOT_RNSt16remove_referenceIS3_E4typeE
FN:77,_ZSt7forwardIRKZ14handleCommandsiRSt6vectorISt10unique_ptrI12ActiveObjectSt14default_deleteIS2_EESaIS5_EERS1_I5GraphS3_IS9_EER10MSTFactoryRS1_I4TreeS3_ISF_EEEUlvE10_EOT_RNSt16remove_referenceISM_E4typeE
FN:77,_ZSt7forwardISt5tupleIJEEEOT_RNSt16remove_referenceIS2_E4typeE
FN:77,_ZSt7forwardIP12LFThreadPoolEOT_RNSt16remove_referenceIS2_E4typeE
FN:77,_ZSt7forwardISt6vectorI4EdgeSaIS1_EEEOT_RNSt16remove_referenceIS4_E4typeE
FN:77,_ZSt7forwardISt14default_deleteISt8functionIFvvEEEEOT_RNSt16remove_referenceIS5_E4typeE
FN:77,_ZSt7forwardI4EdgeEOT_RNSt16remove_referenceIS1_E4typeE
FN:77,_ZSt7forwardISt10unique_ptrI12ActiveObjectSt14default_deleteIS1_EEEOT_RNSt16remove_referenceIS5_E4typeE
FN:77,_ZSt7forwardISt14default_deleteI11MSTStrategyEEOT_RNSt16remove_referenceIS3_E4typeE
FN:77,_ZSt7forwardIRKZ14handleCommandsiRSt6vectorISt10unique_ptrI12ActiveObjectSt14default_deleteIS2_EESaIS5_EERS1_I5GraphS3_IS9_EER10MSTFactoryRS1_I4TreeS3_ISF_EEEUlvE0_EOT_RNSt16remove_referenceISM_E4typeE
FN:77,_ZSt7forwardIRSt10unique_ptrI4TreeSt14default_deleteIS1_EEEOT_RNSt16remove_referenceIS6_E4typeE
FN:77,_ZSt7forwardIRiEOT_RNSt16remove_referenceIS1_E4typeE
FN:77,_ZSt7forwardISt5tupleIJRKiEEEOT_RNSt16remove_referenceIS4_E4typeE
FN:77,_ZSt7forwardIM12ActiveObjectFvvEEOT_RNSt16remove_referenceIS3_E4typeE
FN:77,_ZSt7forwardIRPSt13_Rb_tree_nodeISt4pairIKiSt8functionIFvvEEEEEOT_RNSt16remove_referenceISA_E4typeE
FN:77,_ZSt7forwardIRKZ14handleCommandsiRSt6vectorISt10unique_ptrI12ActiveObjectSt14default_deleteIS2_EESaIS5_EERS1_I5GraphS3_IS9_EER10MSTFactoryRS1_I4TreeS3_ISF_EEEUlvE9_EOT_RNSt16remove_referenceISM_E4typeE
FN:77,_ZSt7forwardIRZ14handleCommandsiRSt6vectorISt10unique_ptrI12ActiveObjectSt14default_deleteIS2_EESaIS5_EERS1_I5GraphS3_IS9_EER10MSTFactoryRS1_I4TreeS3_ISF_EEEUlvE2_EOT_RNSt16remove_referenceISL_E4typeE
FN:77,_ZSt7forwardIRmEOT_RNSt16remove_referenceIS1_E4typeE
FN:77,_ZSt7forwardIRZ4mainEUlvE0_EOT_RNSt16remove_referenceIS2_E4typeE
FN:77,_ZSt7forwardIRZ14handleCommandsiRSt6vectorISt10unique_ptrI12ActiveObjectSt14default_deleteIS2_EESaIS5_EERS1_I5GraphS3_IS9_EER10MSTFactoryRS1_I4TreeS3_ISF_EEEUlvE8_EOT_RNSt16remove_referenceISL_E4typeE
FN:104,_ZSt4moveIRPFvRKSt9_Any_dataEEONSt16remove_referenceIT_E4typeEOS7_
FN:104,_ZSt4moveIRP9functArgsEONSt16remove_referenceIT_E4typeEOS4_
FN:104,_ZSt4moveIRSt12__shared_ptrI13ThreadContextLN9__gnu_cxx12_Lock_policyE2EEEONSt16remove_referenceIT_E4typeEOS7_
FN:104,_ZSt4moveIRSaIiEEONSt16remove_referenceIT_E4typeEOS3_
FN:104,_ZSt4moveIRPSt8functionIFvvEEEONSt16remove_referenceIT_E4typeEOS6_
FN:104,_ZSt4moveIRNSt12_Vector_baseI4EdgeSaIS1_EE12_Vector_implEEONSt16remove_referenceIT_E4typeEOS7_
FN:104,_ZSt4moveIRP13ThreadContextEONSt16remove_referenceIT_E4typeEOS4_
FN:104,_ZSt4moveIRSaIcEEONSt16remove_referenceIT_E4typeEOS3_
FN:104,_ZSt4moveIRPFvRKSt9_Any_dataOiEEONSt16remove_referenceIT_E4typeEOS8_
FN:104,_ZSt4moveIRNSt7__cxx1112basic_stringIcSt11char_traitsIcESaIcEEEEONSt16remove_referenceIT_E4typeEOS8_
FN:104,_ZSt4moveIRSt8functionIFvvEEEONSt16remove_referenceIT_E4typeEOS5_
FN:104,_ZSt4moveIRN9__gnu_cxx5__ops15_Iter_comp_iterISt7greaterISt4pairIiiEEEEEONSt16remove_referenceIT_E4typeEOSA_
FN:104,_ZSt4moveIRiEONSt16remove_referenceIT_E4typeEOS2_
FN:104,_ZSt4moveIRSt6vectorIiSaIiEEEONSt16remove_referenceIT_E4typeEOS5_
FN:104,_ZSt4moveIR4EdgeEONSt16remove_referenceIT_E4typeEOS3_
FN:104,_ZSt4moveIRM12LFThreadPoolFviEEONSt16remove_referenceIT_E4typeEOS5_
FN:104,_ZSt4moveIRP12ActiveObjectEONSt16remove_referenceIT_E4typeEOS4_
FN:104,_ZSt4moveIRP5GraphEONSt16remove_referenceIT_E4typeEOS4_
FN:104,_ZSt4moveIRPNSt6thread6_StateEEONSt16remove_referenceIT_E4typeEOS5_
FN:104,_ZSt4moveIRP7ReactorEONSt16remove_referenceIT_E4typeEOS4_
FN:104,_ZSt4moveIRP11MSTStrategyEONSt16remove_referenceIT_E4typeEOS4_
FN:104,_ZSt4moveIRP4TreeEONSt16remove_referenceIT_E4typeEOS4_
FN:104,_ZSt4moveIRSt7greaterISt4pairIiiEEEONSt16remove_referenceIT_E4typeEOS6_
FN:104,_ZSt4moveIRPFbRSt9_Any_dataRKS0_St18_Manager_operationEEONSt16remove_referenceIT_E4typeEOS9_
FN:104,_ZSt4moveIRZN15KruskalStrategy7findMSTERK5GraphEUl4EdgeS4_E_EONSt16remove_referenceIT_E4typeEOS8_
FN:104,_ZSt4moveIRSt5tupleIJP12ActiveObjectSt14default_deleteIS1_EEEEONSt16remove_referenceIT_E4typeEOS8_
FN:104,_ZSt4moveIRSt10unique_ptrI12ActiveObjectSt14default_deleteIS1_EEEONSt16remove_referenceIT_E4typeEOS7_
FN:104,_ZSt4moveIRSt9_Any_dataEONSt16remove_referenceIT_E4typeEOS3_
FN:104,_ZSt4moveIRSt5tupleIJM12ActiveObjectFvvEPS1_EEEONSt16remove_referenceIT_E4typeEOS8_
FN:104,_ZSt4moveIRN9__gnu_cxx17__normal_iteratorIPSt10unique_ptrI12ActiveObjectSt14default_deleteIS3_EESt6vectorIS6_SaIS6_EEEEEONSt16remove_referenceIT_E4typeEOSE_
FN:104,_ZSt4moveIRSt4pairIiiEEONSt16remove_referenceIT_E4typeEOS4_
FN:104,_ZSt4moveIRPSt6vectorIiSaIiEEEONSt16remove_referenceIT_E4typeEOS6_
FN:104,_ZSt4moveIRSt10shared_ptrI13ThreadContextEEONSt16remove_referenceIT_E4typeEOS5_
FN:104,_ZSt4moveIRN9__gnu_cxx5__ops15_Iter_comp_iterIZN15KruskalStrategy7findMSTERK5GraphEUl4EdgeS7_E_EEEONSt16remove_referenceIT_E4typeEOSC_
FN:104,_ZSt4moveIRSt6vectorI4EdgeSaIS1_EEEONSt16remove_referenceIT_E4typeEOS6_
FN:104,_ZSt4moveIRNSt12_Vector_baseIiSaIiEE12_Vector_implEEONSt16remove_referenceIT_E4typeEOS6_
FN:104,_ZSt4moveIRP12LFThreadPoolEONSt16remove_referenceIT_E4typeEOS4_
FN:104,_ZSt4moveIRN9__gnu_cxx17__normal_iteratorIPmSt6vectorImSaImEEEEEONSt16remove_referenceIT_E4typeEOS9_
FN:196,_ZSt4swapIPFvRKSt9_Any_dataOiEENSt9enable_ifIXsrSt6__and_IJSt6__not_ISt15__is_tuple_likeIT_EESt21is_move_constructibleISA_ESt18is_move_assignableISA_EEE5valueEvE4typeERSA_SK_
FN:196,_ZSt4swapISt9_Any_dataENSt9enable_ifIXsrSt6__and_IJSt6__not_ISt15__is_tuple_likeIT_EESt21is_move_constructibleIS5_ESt18is_move_assignableIS5_EEE5valueEvE4typeERS5_SF_
FN:196,_ZSt4swapIPFbRSt9_Any_dataRKS0_St18_Manager_operationEENSt9enable_ifIXsrSt6__and_IJSt6__not_ISt15__is_tuple_likeIT_EESt21is_move_constructibleISB_ESt18is_move_assignableISB_EEE5valueEvE4typeERSB_SL_
FN:196,_ZSt4swapIPFvRKSt9_Any_dataEENSt9enable_ifIXsrSt6__and_IJSt6__not_ISt15__is_tuple_likeIT_EESt21is_move_constructibleIS9_ESt18is_move_assignableIS9_EEE5valueEvE4typeERS9_SJ_
FN:196,_ZSt4swapIP13ThreadContextENSt9enable_ifIXsrSt6__and_IJSt6__not_ISt15__is_tuple_likeIT_EESt21is_move_constructibleIS6_ESt18is_move_assignableIS6_EEE5valueEvE4typeERS6_SG_
FN:196,_ZSt4swapIiENSt9enable_ifIXsrSt6__and_IJSt6__not_ISt15__is_tuple_likeIT_EESt21is_move_constructibleIS4_ESt18is_move_assignableIS4_EEE5valueEvE4typeERS4_SE_
FN:196,_ZSt4swapI4EdgeENSt9enable_ifIXsrSt6__and_IJSt6__not_ISt15__is_tuple_likeIT_EESt21is_move_constructibleIS5_ESt18is_move_assignableIS5_EEE5valueEvE4typeERS5_SF_
FNDA:90,_ZSt7forwardIRmEOT_RNSt16remove_referenceIS1_E4typeE
FNDA:36,_ZSt7forwardIRZ14handleCommandsiRSt6vectorISt10unique_ptrI12ActiveObjectSt14default_deleteIS2_EESaIS5_EERS1_I5GraphS3_IS9_EER10MSTFactoryRS1_I4TreeS3_ISF_EEEUlvE2_EOT_RNSt16remove_referenceISL_E4typeE
FNDA:20,_ZSt11__addressofISt10shared_ptrI13ThreadContextEEPT_RS3_
FNDA:0,_ZSt7forwardIRKZ14handleCommandsiRSt6vectorISt10unique_ptrI12ActiveObjectSt14default_deleteIS2_EESaIS5_EERS1_I5GraphS3_IS9_EER10MSTFactoryRS1_I4TreeS3_ISF_EEEUlvE9_EOT_RNSt16remove_referenceISM_E4typeE
FNDA:54,_ZSt7forwardIRZ14handleCommandsiRSt6vectorISt10unique_ptrI12ActiveObjectSt14default_deleteIS2_EESaIS5_EERS1_I5GraphS3_IS9_EER10MSTFactoryRS1_I4TreeS3_ISF_EEEUlvE8_EOT_RNSt16remove_referenceISL_E4typeE
FNDA:4,_ZSt4moveIRN9__gnu_cxx17__normal_iteratorIPmSt6vectorImSaImEEEEEONSt16remove_referenceIT_E4typeEOS9_
FNDA:6,_ZSt7forwardIRZ4mainEUlvE0_EOT_RNSt16remove_referenceIS2_E4typeE
FNDA:5,_ZSt7forwardISt5tupleIJRKiEEEOT_RNSt16remove_referenceIS4_E4typeE
FNDA:112,_ZSt7forwardIM12ActiveObjectFvvEEOT_RNSt16remove_referenceIS3_E4typeE
FNDA:69,_ZSt7forwardIRiEOT_RNSt16remove_referenceIS1_E4typeE
FNDA:0,_ZSt4moveIRNSt12_Vector_baseIiSaIiEE12_Vector_implEEONSt16remove_referenceIT_E4typeEOS6_
FNDA:54,_ZSt11__addressofISt6vectorIiSaIiEEEPT_RS3_
FNDA:1,_ZSt4moveIRP12LFThreadPoolEONSt16remove_referenceIT_E4typeEOS4_
FNDA:1,_ZSt7forwardIRPSt13_Rb_tree_nodeISt4pairIKiSt8functionIFvvEEEEEOT_RNSt16remove_referenceISA_E4typeE
FNDA:657,_ZSt7forwardI4EdgeEOT_RNSt16remove_referenceIS1_E4typeE
FNDA:10,_ZSt7forwardISt14default_deleteISt8functionIFvvEEEEOT_RNSt16remove_referenceIS5_E4typeE
FNDA:12,_ZSt7forwardISt14default_deleteI11MSTStrategyEEOT_RNSt16remove_referenceIS3_E4typeE
FNDA:78,_ZSt7forwardISt10unique_ptrI12ActiveObjectSt14default_deleteIS1_EEEOT_RNSt16remove_referenceIS5_E4typeE
FNDA:50,_ZSt7forwardIP12LFThreadPoolEOT_RNSt16remove_referenceIS2_E4typeE
FNDA:0,_ZSt7forwardISt6vectorI4EdgeSaIS1_EEEOT_RNSt16remove_referenceIS4_E4typeE
FNDA:0,_ZSt4moveIRSt6vectorI4EdgeSaIS1_EEEONSt16remove_referenceIT_E4typeEOS6_
FNDA:6,_ZSt7forwardIRSt10unique_ptrI4TreeSt14default_deleteIS1_EEEOT_RNSt16remove_referenceIS6_E4typeE
FNDA:0,_ZSt11__addressofISt4pairIiiEEPT_RS2_
FNDA:11,_ZSt4moveIRN9__gnu_cxx5__ops15_Iter_comp_iterIZN15KruskalStrategy7findMSTERK5GraphEUl4EdgeS7_E_EEEONSt16remove_referenceIT_E4typeEOSC_
FNDA:10,_ZSt4moveIRSt10shared_ptrI13ThreadContextEEONSt16remove_referenceIT_E4typeEOS5_
FNDA:0,_ZSt7forwardIRKZ14handleCommandsiRSt6vectorISt10unique_ptrI12ActiveObjectSt14default_deleteIS2_EESaIS5_EERS1_I5GraphS3_IS9_EER10MSTFactoryRS1_I4TreeS3_ISF_EEEUlvE0_EOT_RNSt16remove_referenceISM_E4typeE
FNDA:6,_ZSt7forwardIR10MSTFactoryEOT_RNSt16remove_referenceIS2_E4typeE
FNDA:87,_ZSt7forwardISt4pairIiiEEOT_RNSt16remove_referenceIS2_E4typeE
FNDA:0,_ZSt4swapI4EdgeENSt9enable_ifIXsrSt6__and_IJSt6__not_ISt15__is_tuple_likeIT_EESt21is_move_constructibleIS5_ESt18is_move_assignableIS5_EEE5valueEvE4typeERS5_SF_
FNDA:27,_ZSt7forwardIRKSt6vectorIiSaIiEEEOT_RNSt16remove_referenceIS5_E4typeE
FNDA:0,_ZSt7forwardIRKZ14handleCommandsiRSt6vectorISt10unique_ptrI12ActiveObjectSt14default_deleteIS2_EESaIS5_EERS1_I5GraphS3_IS9_EER10MSTFactoryRS1_I4TreeS3_ISF_EEEUlvE6_EOT_RNSt16remove_referenceISM_E4typeE
FNDA:6,_ZSt7forwardIRSt10unique_ptrI5GraphSt14default_deleteIS1_EEEOT_RNSt16remove_referenceIS6_E4typeE
FNDA:0,_ZSt7forwardIRKZ14handleCommandsiRSt6vectorISt10unique_ptrI12ActiveObjectSt14default_deleteIS2_EESaIS5_EERS1_I5GraphS3_IS9_EER10MSTFactoryRS1_I4TreeS3_ISF_EEEUlvE10_EOT_RNSt16remove_referenceISM_E4typeE
FNDA:5,_ZSt7forwardISt5tupleIJEEEOT_RNSt16remove_referenceIS2_E4typeE
FNDA:5,_ZSt7forwardIRKSt21piecewise_construct_tEOT_RNSt16remove_referenceIS3_E4typeE
FNDA:24,_ZSt4moveIRPSt6vectorIiSaIiEEEONSt16remove_referenceIT_E4typeEOS6_
FNDA:3,_ZSt7forwardIZ4mainEUlvE0_EOT_RNSt16remove_referenceIS1_E4typeE
FNDA:180,_ZSt7forwardIRZ14handleCommandsiRSt6vectorISt10unique_ptrI12ActiveObjectSt14default_deleteIS2_EESaIS5_EERS1_I5GraphS3_IS9_EER10MSTFactoryRS1_I4TreeS3_ISF_EEEUlvE0_EOT_RNSt16remove_referenceISL_E4typeE
FNDA:9,_ZSt7forwardISt14default_deleteI5GraphEEOT_RNSt16remove_referenceIS3_E4typeE
FNDA:12,_ZSt4swapIiENSt9enable_ifIXsrSt6__and_IJSt6__not_ISt15__is_tuple_likeIT_EESt21is_move_constructibleIS4_ESt18is_move_assignableIS4_EEE5valueEvE4typeERS4_SE_
FNDA:6,_ZSt11__addressofI10MSTFactoryEPT_RS1_
FNDA:18,_ZSt7forwardIRKmEOT_RNSt16remove_referenceIS2_E4typeE
FNDA:159,_ZSt4moveIRSt4pairIiiEEONSt16remove_referenceIT_E4typeEOS4_
FNDA:36,_ZSt7forwardIRZ14handleCommandsiRSt6vectorISt10unique_ptrI12ActiveObjectSt14default_deleteIS2_EESaIS5_EERS1_I5GraphS3_IS9_EER10MSTFactoryRS1_I4TreeS3_ISF_EEEUlvE10_EOT_RNSt16remove_referenceISL_E4typeE
FNDA:4,_ZSt4moveIRN9__gnu_cxx17__normal_iteratorIPSt10unique_ptrI12ActiveObjectSt14default_deleteIS3_EESt6vectorIS6_SaIS6_EEEEEONSt16remove_referenceIT_E4typeEOSE_
FNDA:12,_ZSt7forwardIZ4mainEUliE_EOT_RNSt16remove_referenceIS1_E4typeE
FNDA:237,_ZSt4moveIRSt9_Any_dataEONSt16remove_referenceIT_E4typeEOS3_
FNDA:6,_ZSt7forwardIRZ4mainEUliE_EOT_RNSt16remove_referenceIS2_E4typeE
FNDA:0,_ZSt7forwardIRKZ14handleCommandsiRSt6vectorISt10unique_ptrI12ActiveObjectSt14default_deleteIS2_EESaIS5_EERS1_I5GraphS3_IS9_EER10MSTFactoryRS1_I4TreeS3_ISF_EEEUlvE1_EOT_RNSt16remove_referenceISM_E4typeE
FNDA:6,_ZSt11__addressofISt10unique_ptrI4TreeSt14default_deleteIS1_EEEPT_RS5_
FNDA:0,_ZSt7forwardIRKZ14handleCommandsiRSt6vectorISt10unique_ptrI12ActiveObjectSt14default_deleteIS2_EESaIS5_EERS1_I5GraphS3_IS9_EER10MSTFactoryRS1_I4TreeS3_ISF_EEEUlvE_EOT_RNSt16remove_referenceISM_E4typeE
FNDA:28,_ZSt4moveIRSt5tupleIJM12ActiveObjectFvvEPS1_EEEONSt16remove_referenceIT_E4typeEOS8_
FNDA:616,_ZSt11__addressofISt5mutexEPT_RS1_
FNDA:6,_ZSt7forwardIRSt6vectorISt10unique_ptrI12ActiveObjectSt14default_deleteIS2_EESaIS5_EEEOT_RNSt16remove_referenceIS9_E4typeE
FNDA:28,_ZSt4moveIRSt5tupleIJP12ActiveObjectSt14default_deleteIS1_EEEEONSt16remove_referenceIT_E4typeEOS8_
FNDA:20,_ZSt11__addressofISaISt23_Sp_counted_ptr_inplaceI13ThreadContextSaIS1_ELN9__gnu_cxx12_Lock_policyE2EEEEPT_RS7_
FNDA:28,_ZSt4moveIRSt10unique_ptrI12ActiveObjectSt14default_deleteIS1_EEEONSt16remove_referenceIT_E4typeEOS7_
FNDA:0,_ZSt7forwardIRKZ14handleCommandsiRSt6vectorISt10unique_ptrI12ActiveObjectSt14default_deleteIS2_EESaIS5_EERS1_I5GraphS3_IS9_EER10MSTFactoryRS1_I4TreeS3_ISF_EEEUlvE8_EOT_RNSt16remove_referenceISM_E4typeE
FNDA:23,_ZSt4moveIRZN15KruskalStrategy7findMSTERK5GraphEUl4EdgeS4_E_EONSt16remove_referenceIT_E4typeEOS8_
FNDA:6,_ZSt7forwardISt14default_deleteI9functArgsEEOT_RNSt16remove_referenceIS3_E4typeE
FNDA:36,_ZSt7forwardIRZ14handleCommandsiRSt6vectorISt10unique_ptrI12ActiveObjectSt14default_deleteIS2_EESaIS5_EERS1_I5GraphS3_IS9_EER10MSTFactoryRS1_I4TreeS3_ISF_EEEUlvE4_EOT_RNSt16remove_referenceISL_E4typeE
FNDA:0,_ZSt7forwardIRKZ14handleCommandsiRSt6vectorISt10unique_ptrI12ActiveObjectSt14default_deleteIS2_EESaIS5_EERS1_I5GraphS3_IS9_EER10MSTFactoryRS1_I4TreeS3_ISF_EEEUlvE5_EOT_RNSt16remove_referenceISM_E4typeE
FNDA:12,_ZSt7forwardIRSt6vectorI4EdgeSaIS1_EEEOT_RNSt16remove_referenceIS5_E4typeE
FNDA:1,_ZSt7forwardISt14default_deleteI12LFThreadPoolEEOT_RNSt16remove_referenceIS3_E4typeE
FNDA:237,_ZSt4moveIRPFbRSt9_Any_dataRKS0_St18_Manager_operationEEONSt16remove_referenceIT_E4typeEOS9_
FNDA:198,_ZSt11__addressofISt6vectorI4EdgeSaIS1_EEEPT_RS4_
FNDA:0,_ZSt11__addressofISt6threadEPT_RS1_
FNDA:36,_ZSt7forwardIRZ14handleCommandsiRSt6vectorISt10unique_ptrI12ActiveObjectSt14default_deleteIS2_EESaIS5_EERS1_I5GraphS3_IS9_EER10MSTFactoryRS1_I4TreeS3_ISF_EEEUlvE9_EOT_RNSt16remove_referenceISL_E4typeE
FNDA:76,_ZSt4swapIPFvRKSt9_Any_dataEENSt9enable_ifIXsrSt6__and_IJSt6__not_ISt15__is_tuple_likeIT_EESt21is_move_constructibleIS9_ESt18is_move_assignableIS9_EEE5valueEvE4typeERS9_SJ_
FNDA:0,_ZSt7forwardISt6vectorIiSaIiEEEOT_RNSt16remove_referenceIS3_E4typeE
FNDA:216,_ZSt7forwardIiEOT_RNSt16remove_referenceIS0_E4typeE
FNDA:79,_ZSt4swapIPFbRSt9_Any_dataRKS0_St18_Manager_operationEENSt9enable_ifIXsrSt6__and_IJSt6__not_ISt15__is_tuple_likeIT_EESt21is_move_constructibleISB_ESt18is_move_assignableISB_EEE5valueEvE4typeERSB_SL_
FNDA:27,_ZSt4moveIRP4TreeEONSt16remove_referenceIT_E4typeEOS4_
FNDA:54,_ZSt4moveIRSt7greaterISt4pairIiiEEEONSt16remove_referenceIT_E4typeEOS6_
FNDA:90,_ZSt7forwardIRZ14handleCommandsiRSt6vectorISt10unique_ptrI12ActiveObjectSt14default_deleteIS2_EESaIS5_EERS1_I5GraphS3_IS9_EER10MSTFactoryRS1_I4TreeS3_ISF_EEEUlvE6_EOT_RNSt16remove_referenceISL_E4typeE
FNDA:21,_ZSt4swapIP13ThreadContextENSt9enable_ifIXsrSt6__and_IJSt6__not_ISt15__is_tuple_likeIT_EESt21is_move_constructibleIS6_ESt18is_move_assignableIS6_EEE5valueEvE4typeERS6_SG_
FNDA:0,_ZSt11__addressofISt8functionIFvvEEEPT_RS3_
FNDA:72,_ZSt7forwardIRZ14handleCommandsiRSt6vectorISt10unique_ptrI12ActiveObjectSt14default_deleteIS2_EESaIS5_EERS1_I5GraphS3_IS9_EER10MSTFactoryRS1_I4TreeS3_ISF_EEEUlvE_EOT_RNSt16remove_referenceISL_E4typeE
FNDA:0,_ZSt7forwardIRKZ14handleCommandsiRSt6vectorISt10unique_ptrI12ActiveObjectSt14default_deleteIS2_EESaIS5_EERS1_I5GraphS3_IS9_EER10MSTFactoryRS1_I4TreeS3_ISF_EEEUlvE3_EOT_RNSt16remove_referenceISM_E4typeE
FNDA:10,_ZSt7forwardIM12LFThreadPoolFviEEOT_RNSt16remove_referenceIS3_E4typeE
FNDA:12,_ZSt4moveIRP11MSTStrategyEONSt16remove_referenceIT_E4typeEOS4_
FNDA:1,_ZSt7forwardIRPSt18_Rb_tree_node_baseEOT_RNSt16remove_referenceIS3_E4typeE
FNDA:36,_ZSt7forwardIRZ14handleCommandsiRSt6vectorISt10unique_ptrI12ActiveObjectSt14default_deleteIS2_EESaIS5_EERS1_I5GraphS3_IS9_EER10MSTFactoryRS1_I4TreeS3_ISF_EEEUlvE5_EOT_RNSt16remove_referenceISL_E4typeE
FNDA:15,_ZSt4moveIRP5GraphEONSt16remove_referenceIT_E4typeEOS4_
FNDA:1,_ZSt4moveIRP7ReactorEONSt16remove_referenceIT_E4typeEOS4_
FNDA:96,_ZSt11__addressofImEPT_RS0_
FNDA:0,_ZSt4moveIRPNSt6thread6_StateEEONSt16remove_referenceIT_E4typeEOS5_
FNDA:135,_ZSt7forwardIRK4EdgeEOT_RNSt16remove_referenceIS3_E4typeE
FNDA:56,_ZSt11__addressofISt10unique_ptrI12ActiveObjectSt14default_deleteIS1_EEEPT_RS5_
FNDA:144,_ZSt4moveIRSt8functionIFvvEEEONSt16remove_referenceIT_E4typeEOS5_
FNDA:380,_ZSt4moveIRNSt7__cxx1112basic_stringIcSt11char_traitsIcESaIcEEEEONSt16remove_referenceIT_E4typeEOS8_
FNDA:30,_ZSt7forwardISt5_BindIFM12LFThreadPoolFviEPS1_mEEEOT_RNSt16remove_referenceIS7_E4typeE
FNDA:2,_ZSt7forwardIRKZ4mainEUlvE0_EOT_RNSt16remove_referenceIS3_E4typeE
FNDA:9,_ZSt4moveIRPFvRKSt9_Any_dataOiEEONSt16remove_referenceIT_E4typeEOS8_
FNDA:10,_ZSt4moveIRM12LFThreadPoolFviEEONSt16remove_referenceIT_E4typeEOS5_
FNDA:220,_ZSt4moveIR4EdgeEONSt16remove_referenceIT_E4typeEOS3_
FNDA:14,_ZSt4moveIRP12ActiveObjectEONSt16remove_referenceIT_E4typeEOS4_
FNDA:20,_ZSt7forwardIRSt5_BindIFM12LFThreadPoolFviEPS1_mEEEOT_RNSt16remove_referenceIS8_E4typeE
FNDA:0,_ZSt4moveIRSt6vectorIiSaIiEEEONSt16remove_referenceIT_E4typeEOS5_
FNDA:140,_ZSt7forwardIP12ActiveObjectEOT_RNSt16remove_referenceIS2_E4typeE
FNDA:18,_ZSt7forwardIRKZ16acceptConnectioniRSt10unique_ptrI5GraphSt14default_deleteIS1_EER10MSTFactoryRS0_I4TreeS2_IS8_EERS0_I12LFThreadPoolS2_ISC_EEEUlvE_EOT_RNSt16remove_referenceISJ_E4typeE
FNDA:0,_ZSt4moveIRN9__gnu_cxx5__ops15_Iter_comp_iterISt7greaterISt4pairIiiEEEEEONSt16remove_referenceIT_E4typeEOSA_
FNDA:62,_ZSt4moveIRiEONSt16remove_referenceIT_E4typeEOS2_
FNDA:0,_ZSt4moveIRSaIcEEONSt16remove_referenceIT_E4typeEOS3_
FNDA:63,_ZSt4moveIRP13ThreadContextEONSt16remove_referenceIT_E4typeEOS4_
FNDA:6,_ZSt7forwardIRZ16acceptConnectioniRSt10unique_ptrI5GraphSt14default_deleteIS1_EER10MSTFactoryRS0_I4TreeS2_IS8_EERS0_I12LFThreadPoolS2_ISC_EEEUlvE_EOT_RNSt16remove_referenceISI_E4typeE
FNDA:0,_ZSt4moveIRNSt12_Vector_baseI4EdgeSaIS1_EE12_Vector_implEEONSt16remove_referenceIT_E4typeEOS7_
FNDA:79,_ZSt4swapISt9_Any_dataENSt9enable_ifIXsrSt6__and_IJSt6__not_ISt15__is_tuple_likeIT_EESt21is_move_constructibleIS5_ESt18is_move_assignableIS5_EEE5valueEvE4typeERS5_SF_
FNDA:10,_ZSt4moveIRPSt8functionIFvvEEEONSt16remove_referenceIT_E4typeEOS6_
FNDA:3,_ZSt4swapIPFvRKSt9_Any_dataOiEENSt9enable_ifIXsrSt6__and_IJSt6__not_ISt15__is_tuple_likeIT_EESt21is_move_constructibleISA_ESt18is_move_assignableISA_EEE5valueEvE4typeERSA_SK_
FNDA:0,_ZSt7forwardIRKZ4mainEUliE_EOT_RNSt16remove_referenceIS3_E4typeE
FNDA:10,_ZSt7forwardIRM12LFThreadPoolFviEEOT_RNSt16remove_referenceIS4_E4typeE
FNDA:9,_ZSt7forwardIZ16acceptConnectioniRSt10unique_ptrI5GraphSt14default_deleteIS1_EER10MSTFactoryRS0_I4TreeS2_IS8_EERS0_I12LFThreadPoolS2_ISC_EEEUlvE_EOT_RNSt16remove_referenceISH_E4typeE
FNDA:1,_ZSt7forwardIR7ReactorEOT_RNSt16remove_referenceIS2_E4typeE
FNDA:1,_ZSt7forwardIRKiEOT_RNSt16remove_referenceIS2_E4typeE
FNDA:2,_ZSt4moveIRP9functArgsEONSt16remove_referenceIT_E4typeEOS4_
FNDA:0,_ZSt7forwardIRKZ14handleCommandsiRSt6vectorISt10unique_ptrI12ActiveObjectSt14default_deleteIS2_EESaIS5_EERS1_I5GraphS3_IS9_EER10MSTFactoryRS1_I4TreeS3_ISF_EEEUlvE2_EOT_RNSt16remove_referenceISM_E4typeE
FNDA:10,_ZSt7forwardIRSt8functionIFvvEEEOT_RNSt16remove_referenceIS4_E4typeE
FNDA:36,_ZSt7forwardIRZ14handleCommandsiRSt6vectorISt10unique_ptrI12ActiveObjectSt14default_deleteIS2_EESaIS5_EERS1_I5GraphS3_IS9_EER10MSTFactoryRS1_I4TreeS3_ISF_EEEUlvE3_EOT_RNSt16remove_referenceISL_E4typeE
FNDA:6,_ZSt11__addressofISt10unique_ptrI5GraphSt14default_deleteIS1_EEEPT_RS5_
FNDA:0,_ZSt4moveIRSaIiEEONSt16remove_referenceIT_E4typeEOS3_
FNDA:20,_ZSt7forwardIRKSt5_BindIFM12LFThreadPoolFviEPS1_mEEEOT_RNSt16remove_referenceIS9_E4typeE
FNDA:0,_ZSt7forwardIRKZ14handleCommandsiRSt6vectorISt10unique_ptrI12ActiveObjectSt14default_deleteIS2_EESaIS5_EERS1_I5GraphS3_IS9_EER10MSTFactoryRS1_I4TreeS3_ISF_EEEUlvE4_EOT_RNSt16remove_referenceISM_E4typeE
FNDA:10,_ZSt4moveIRSt12__shared_ptrI13ThreadContextLN9__gnu_cxx12_Lock_policyE2EEEONSt16remove_referenceIT_E4typeEOS7_
FNDA:12,_ZSt7forwardISt14default_deleteI4TreeEEOT_RNSt16remove_referenceIS3_E4typeE
FNDA:30,_ZSt7forwardIRP12LFThreadPoolEOT_RNSt16remove_referenceIS3_E4typeE
FNDA:228,_ZSt4moveIRPFvRKSt9_Any_dataEEONSt16remove_referenceIT_E4typeEOS7_
FNDA:6,_ZSt11__addressofISt6vectorISt10unique_ptrI12ActiveObjectSt14default_deleteIS2_EESaIS5_EEEPT_RS8_
FNDA:36,_ZSt7forwardIRZ14handleCommandsiRSt6vectorISt10unique_ptrI12ActiveObjectSt14default_deleteIS2_EESaIS5_EERS1_I5GraphS3_IS9_EER10MSTFactoryRS1_I4TreeS3_ISF_EEEUlvE1_EOT_RNSt16remove_referenceISL_E4typeE
FNF:129
FNH:103
DA:49,1084
DA:50,1084
DA:77,2624
DA:78,2624
DA:104,2055
DA:105,2055
DA:196,270
DA:204,270
DA:205,270
DA:206,270
DA:207,270
LF:11
LH:11
end_of_record
TN:
SF:/usr/include/c++/11/bits/predefined_ops.h
FN:150,_ZN9__gnu_cxx5__ops15_Iter_comp_iterIZN15KruskalStrategy7findMSTERK5GraphEUl4EdgeS6_E_EC2ES7_
FN:157,_ZN9__gnu_cxx5__ops15_Iter_comp_iterIZN15KruskalStrategy7findMSTERK5GraphEUl4EdgeS6_E_EclINS_17__normal_iteratorIPS6_St6vectorIS6_SaIS6_EEEESF_EEbT_T0_
FN:157,_ZN9__gnu_cxx5__ops15_Iter_comp_iterISt7greaterISt4pairIiiEEEclINS_17__normal_iteratorIPS4_St6vectorIS4_SaIS4_EEEESD_EEbT_T0_
FN:164,_ZN9__gnu_cxx5__ops16__iter_comp_iterIZN15KruskalStrategy7findMSTERK5GraphEUl4EdgeS6_E_EENS0_15_Iter_comp_iterIT_EES9_
FN:174,_ZN9__gnu_cxx5__ops14_Iter_comp_valISt7greaterISt4pairIiiEEEC2ES5_
FN:187,_ZN9__gnu_cxx5__ops14_Iter_comp_valISt7greaterISt4pairIiiEEEC2EONS0_15_Iter_comp_iterIS5_EE
FN:187,_ZN9__gnu_cxx5__ops14_Iter_comp_valIZN15KruskalStrategy7findMSTERK5GraphEUl4EdgeS6_E_EC2EONS0_15_Iter_comp_iterIS7_EE
FN:195,_ZN9__gnu_cxx5__ops14_Iter_comp_valISt7greaterISt4pairIiiEEEclINS_17__normal_iteratorIPS4_St6vectorIS4_SaIS4_EEEES4_EEbT_RT0_
FN:195,_ZN9__gnu_cxx5__ops14_Iter_comp_valIZN15KruskalStrategy7findMSTERK5GraphEUl4EdgeS6_E_EclINS_17__normal_iteratorIPS6_St6vectorIS6_SaIS6_EEEES6_EEbT_RT0_
FN:231,_ZN9__gnu_cxx5__ops14_Val_comp_iterIZN15KruskalStrategy7findMSTERK5GraphEUl4EdgeS6_E_EC2EONS0_15_Iter_comp_iterIS7_EE
FN:239,_ZN9__gnu_cxx5__ops14_Val_comp_iterIZN15KruskalStrategy7findMSTERK5GraphEUl4EdgeS6_E_EclIS6_NS_17__normal_iteratorIPS6_St6vectorIS6_SaIS6_EEEEEEbRT_T0_
FN:252,_ZN9__gnu_cxx5__ops15__val_comp_iterIZN15KruskalStrategy7findMSTERK5GraphEUl4EdgeS6_E_EENS0_14_Val_comp_iterIT_EENS0_15_Iter_comp_iterIS9_EE
FNDA:0,_ZN9__gnu_cxx5__ops14_Iter_comp_valIZN15KruskalStrategy7findMSTERK5GraphEUl4EdgeS6_E_EC2EONS0_15_Iter_comp_iterIS7_EE
FNDA:0,_ZN9__gnu_cxx5__ops14_Iter_comp_valIZN15KruskalStrategy7findMSTERK5GraphEUl4EdgeS6_E_EclINS_17__normal_iteratorIPS6_St6vectorIS6_SaIS6_EEEES6_EEbT_RT0_
FNDA:6,_ZN9__gnu_cxx5__ops16__iter_comp_iterIZN15KruskalStrategy7findMSTERK5GraphEUl4EdgeS6_E_EENS0_15_Iter_comp_iterIT_EES9_
FNDA:0,_ZN9__gnu_cxx5__ops14_Iter_comp_valISt7greaterISt4pairIiiEEEclINS_17__normal_iteratorIPS4_St6vectorIS4_SaIS4_EEEES4_EEbT_RT0_
FNDA:6,_ZN9__gnu_cxx5__ops15_Iter_comp_iterIZN15KruskalStrategy7findMSTERK5GraphEUl4EdgeS6_E_EC2ES7_
FNDA:21,_ZN9__gnu_cxx5__ops15_Iter_comp_iterIZN15KruskalStrategy7findMSTERK5GraphEUl4EdgeS6_E_EclINS_17__normal_iteratorIPS6_St6vectorIS6_SaIS6_EEEESF_EEbT_T0_
FNDA:0,_ZN9__gnu_cxx5__ops14_Iter_comp_valISt7greaterISt4pairIiiEEEC2EONS0_15_Iter_comp_iterIS5_EE
FNDA:11,_ZN9__gnu_cxx5__ops14_Val_comp_iterIZN15KruskalStrategy7findMSTERK5GraphEUl4EdgeS6_E_EC2EONS0_15_Iter_comp_iterIS7_EE
FNDA:11,_ZN9__gnu_cxx5__ops15__val_comp_iterIZN15KruskalStrategy7findMSTERK5GraphEUl4EdgeS6_E_EENS0_14_Val_comp_iterIT_EENS0_15_Iter_comp_iterIS9_EE
FNDA:27,_ZN9__gnu_cxx5__ops14_Iter_comp_valISt7greaterISt4pairIiiEEEC2ES5_
FNDA:24,_ZN9__gnu_cxx5__ops14_Val_comp_iterIZN15KruskalStrategy7findMSTERK5GraphEUl4EdgeS6_E_EclIS6_NS_17__normal_iteratorIPS6_St6vectorIS6_SaIS6_EEEEEEbRT_T0_
FNDA:0,_ZN9__gnu_cxx5__ops15_Iter_comp_iterISt7greaterISt4pairIiiEEEclINS_17__normal_iteratorIPS4_St6vectorIS4_SaIS4_EEEESD_EEbT_T0_
FNF:12
FNH:7
DA:150,6
DA:151,6
DA:152,6
DA:157,21
DA:158,21
DA:164,6
DA:165,6
DA:174,27
DA:175,27
DA:176,27
DA:187,0
DA:188,0
DA:189,0
DA:195,0
DA:196,0
DA:231,11
DA:232,11
DA:233,11
DA:239,24
DA:240,24
DA:252,11
DA:253,11
LF:22
LH:17
end_of_record
TN:
SF:/usr/include/c++/11/bits/ptr_traits.h
FN:159,_ZSt12__to_addressISt23_Sp_counted_ptr_inplaceI13ThreadContextSaIS1_ELN9__gnu_cxx12_Lock_policyE2EEEPT_S7_
FNDA:10,_ZSt12__to_addressISt23_Sp_counted_ptr_inplaceI13ThreadContextSaIS1_ELN9__gnu_cxx12_Lock_policyE2EEEPT_S7_
FNF:1
FNH:1
DA:159,10
DA:162,10
LF:2
LH:2
end_of_record
TN:
SF:/usr/include/c++/11/bits/refwrap.h
FN:304,_ZNSt17reference_wrapperISt10unique_ptrI4TreeSt14default_deleteIS1_EEE6_S_funERS4_
FN:304,_ZNSt17reference_wrapperISt10unique_ptrI5GraphSt14default_deleteIS1_EEE6_S_funERS4_
FN:304,_ZNSt17reference_wrapperI10MSTFactoryE6_S_funERS0_
FN:304,_ZNSt17reference_wrapperISt6vectorISt10unique_ptrI12ActiveObjectSt14default_deleteIS2_EESaIS5_EEE6_S_funERS7_
FN:321,_ZNSt17reference_wrapperISt6vectorISt10unique_ptrI12ActiveObjectSt14default_deleteIS2_EESaIS5_EEEC2IRS7_vPS7_EEOT_
FN:321,_ZNSt17reference_wrapperISt10unique_ptrI5GraphSt14default_deleteIS1_EEEC2IRS4_vPS4_EEOT_
FN:321,_ZNSt17reference_wrapperISt10unique_ptrI4TreeSt14default_deleteIS1_EEEC2IRS4_vPS4_EEOT_
FN:321,_ZNSt17reference_wrapperI10MSTFactoryEC2IRS0_vPS0_EEOT_
FN:332,_ZNKSt17reference_wrapperISt10unique_ptrI5GraphSt14default_deleteIS1_EEEcvRS4_Ev
FN:332,_ZNKSt17reference_wrapperISt10unique_ptrI4TreeSt14default_deleteIS1_EEEcvRS4_Ev
FN:332,_ZNKSt17reference_wrapperISt6vectorISt10unique_ptrI12ActiveObjectSt14default_deleteIS2_EESaIS5_EEEcvRS7_Ev
FN:332,_ZNKSt17reference_wrapperI10MSTFactoryEcvRS0_Ev
FN:337,_ZNKSt17reference_wrapperISt10unique_ptrI5GraphSt14default_deleteIS1_EEE3getEv
FN:337,_ZNKSt17reference_wrapperISt6vectorISt10unique_ptrI12ActiveObjectSt14default_deleteIS2_EESaIS5_EEE3getEv
FN:337,_ZNKSt17reference_wrapperI10MSTFactoryE3getEv
FN:337,_ZNKSt17reference_wrapperISt10unique_ptrI4TreeSt14default_deleteIS1_EEE3getEv
FN:364,_ZSt3refISt6vectorISt10unique_ptrI12ActiveObjectSt14default_deleteIS2_EESaIS5_EEESt17reference_wrapperIT_ERS9_
FN:364,_ZSt3refI10MSTFactoryESt17reference_wrapperIT_ERS2_
FN:364,_ZSt3refISt10unique_ptrI5GraphSt14default_deleteIS1_EEESt17reference_wrapperIT_ERS6_
FN:364,_ZSt3refISt10unique_ptrI4TreeSt14default_deleteIS1_EEESt17reference_wrapperIT_ERS6_
FNDA:6,_ZNKSt17reference_wrapperISt10unique_ptrI4TreeSt14default_deleteIS1_EEEcvRS4_Ev
FNDA:6,_ZNKSt17reference_wrapperISt6vectorISt10unique_ptrI12ActiveObjectSt14default_deleteIS2_EESaIS5_EEEcvRS7_Ev
FNDA:6,_ZNKSt17reference_wrapperI10MSTFactoryEcvRS0_Ev
FNDA:6,_ZSt3refISt10unique_ptrI4TreeSt14default_deleteIS1_EEESt17reference_wrapperIT_ERS6_
FNDA:6,_ZNSt17reference_wrapperISt6vectorISt10unique_ptrI12ActiveObjectSt14default_deleteIS2_EESaIS5_EEE6_S_funERS7_
FNDA:6,_ZNSt17reference_wrapperI10MSTFactoryE6_S_funERS0_
FNDA:6,_ZNSt17reference_wrapperI10MSTFactoryEC2IRS0_vPS0_EEOT_
FNDA:6,_ZNKSt17reference_wrapperISt10unique_ptrI4TreeSt14default_deleteIS1_EEE3getEv
FNDA:6,_ZNSt17reference_wrapperISt10unique_ptrI4TreeSt14default_deleteIS1_EEEC2IRS4_vPS4_EEOT_
FNDA:6,_ZNSt17reference_wrapperISt10unique_ptrI5GraphSt14default_deleteIS1_EEE6_S_funERS4_
FNDA:6,_ZNKSt17reference_wrapperISt10unique_ptrI5GraphSt14default_deleteIS1_EEE3getEv
FNDA:6,_ZNSt17reference_wrapperISt10unique_ptrI4TreeSt14default_deleteIS1_EEE6_S_funERS4_
FNDA:6,_ZSt3refISt6vectorISt10unique_ptrI12ActiveObjectSt14default_deleteIS2_EESaIS5_EEESt17reference_wrapperIT_ERS9_
FNDA:6,_ZSt3refI10MSTFactoryESt17reference_wrapperIT_ERS2_
FNDA:6,_ZNKSt17reference_wrapperISt10unique_ptrI5GraphSt14default_deleteIS1_EEEcvRS4_Ev
FNDA:6,_ZNSt17reference_wrapperISt6vectorISt10unique_ptrI12ActiveObjectSt14default_deleteIS2_EESaIS5_EEEC2IRS7_vPS7_EEOT_
FNDA:6,_ZNSt17reference_wrapperISt10unique_ptrI5GraphSt14default_deleteIS1_EEEC2IRS4_vPS4_EEOT_
FNDA:6,_ZNKSt17reference_wrapperISt6vectorISt10unique_ptrI12ActiveObjectSt14default_deleteIS2_EESaIS5_EEE3getEv
FNDA:6,_ZNKSt17reference_wrapperI10MSTFactoryE3getEv
FNDA:6,_ZSt3refISt10unique_ptrI5GraphSt14default_deleteIS1_EEESt17reference_wrapperIT_ERS6_
FNF:20
FNH:20
DA:304,24
DA:321,24
DA:323,24
DA:324,24
DA:332,24
DA:333,24
DA:337,24
DA:338,24
DA:364,24
DA:365,24
LF:10
LH:10
end_of_record
TN:
SF:/usr/include/c++/11/bits/shared_ptr.h
FN:148,_ZNSt10shared_ptrI13ThreadContextEC2Ev
FN:150,_ZNSt10shared_ptrI13ThreadContextEC2ERKS1_
FN:359,_ZNSt10shared_ptrI13ThreadContextEaSERKS1_
FN:383,_ZNSt10shared_ptrI13ThreadContextEaSEOS1_
FN:408,_ZNSt10shared_ptrI13ThreadContextEC2ISaIS0_EJEEESt20_Sp_alloc_shared_tagIT_EDpOT0_
FN:443,_ZSteqI13ThreadContextEbRKSt10shared_ptrIT_EDn
FN:858,_ZSt15allocate_sharedI13ThreadContextSaIS0_EJEESt10shared_ptrIT_ERKT0_DpOT1_
FN:875,_ZSt11make_sharedI13ThreadContextJEESt10shared_ptrIT_EDpOT0_
FNDA:10,_ZSt11make_sharedI13ThreadContextJEESt10shared_ptrIT_EDpOT0_
FNDA:3,_ZNSt10shared_ptrI13ThreadContextEC2ERKS1_
FNDA:10,_ZNSt10shared_ptrI13ThreadContextEaSEOS1_
FNDA:4,_ZNSt10shared_ptrI13ThreadContextEaSERKS1_
FNDA:10,_ZSt15allocate_sharedI13ThreadContextSaIS0_EJEESt10shared_ptrIT_ERKT0_DpOT1_
FNDA:10,_ZNSt10shared_ptrI13ThreadContextEC2ISaIS0_EJEEESt20_Sp_alloc_shared_tagIT_EDpOT0_
FNDA:11,_ZNSt10shared_ptrI13ThreadContextEC2Ev
FNDA:4,_ZSteqI13ThreadContextEbRKSt10shared_ptrIT_EDn
FNF:8
FNH:8
DA:148,11
DA:150,3
DA:359,4
DA:383,10
DA:385,10
DA:386,10
DA:408,10
DA:409,10
DA:410,10
DA:443,4
DA:444,4
DA:858,10
DA:863,10
DA:875,10
DA:878,20
DA:879,20
LF:16
LH:16
end_of_record
TN:
SF:/usr/include/c++/11/bits/shared_ptr_base.h
FN:126,_ZNSt16_Sp_counted_baseILN9__gnu_cxx12_Lock_policyE2EEC2Ev
FN:130,_ZNSt16_Sp_counted_baseILN9__gnu_cxx12_Lock_policyE2EED2Ev
FN:130,_ZNSt16_Sp_counted_baseILN9__gnu_cxx12_Lock_policyE2EED0Ev
FN:140,_ZNSt16_Sp_counted_baseILN9__gnu_cxx12_Lock_policyE2EE10_M_destroyEv
FN:147,_ZNSt16_Sp_counted_baseILN9__gnu_cxx12_Lock_policyE2EE15_M_add_ref_copyEv
FN:161,_ZNSt16_Sp_counted_baseILN9__gnu_cxx12_Lock_policyE2EE10_M_releaseEv
FN:385,_ZNSt14_Sp_ebo_helperILi0ESaI13ThreadContextELb1EEC2ERKS1_
FN:389,_ZNSt14_Sp_ebo_helperILi0ESaI13ThreadContextELb1EE6_S_getERS2_
FN:479,_ZNSt19_Sp_make_shared_tag5_S_tiEv
FN:502,_ZNSt23_Sp_counted_ptr_inplaceI13ThreadContextSaIS0_ELN9__gnu_cxx12_Lock_policyE2EE5_ImplC2ES1_
FN:504,_ZNSt23_Sp_counted_ptr_inplaceI13ThreadContextSaIS0_ELN9__gnu_cxx12_Lock_policyE2EE5_Impl8_M_allocEv
FN:514,_ZNSt23_Sp_counted_ptr_inplaceI13ThreadContextSaIS0_ELN9__gnu_cxx12_Lock_policyE2EEC2IJEEES1_DpOT_
FN:523,_ZNSt23_Sp_counted_ptr_inplaceI13ThreadContextSaIS0_ELN9__gnu_cxx12_Lock_policyE2EED0Ev
FN:523,_ZNSt23_Sp_counted_ptr_inplaceI13ThreadContextSaIS0_ELN9__gnu_cxx12_Lock_policyE2EED2Ev
FN:526,_ZNSt23_Sp_counted_ptr_inplaceI13ThreadContextSaIS0_ELN9__gnu_cxx12_Lock_policyE2EE10_M_disposeEv
FN:533,_ZNSt23_Sp_counted_ptr_inplaceI13ThreadContextSaIS0_ELN9__gnu_cxx12_Lock_policyE2EE10_M_destroyEv
FN:546,_ZNSt23_Sp_counted_ptr_inplaceI13ThreadContextSaIS0_ELN9__gnu_cxx12_Lock_policyE2EE14_M_get_deleterERKSt9type_info
FN:565,_ZNSt23_Sp_counted_ptr_inplaceI13ThreadContextSaIS0_ELN9__gnu_cxx12_Lock_policyE2EE6_M_ptrEv
FN:587,_ZNSt14__shared_countILN9__gnu_cxx12_Lock_policyE2EEC2Ev
FN:643,_ZNSt14__shared_countILN9__gnu_cxx12_Lock_policyE2EEC2I13ThreadContextSaIS4_EJEEERPT_St20_Sp_alloc_shared_tagIT0_EDpOT1_
FN:702,_ZNSt14__shared_countILN9__gnu_cxx12_Lock_policyE2EED2Ev
FN:708,_ZNSt14__shared_countILN9__gnu_cxx12_Lock_policyE2EEC2ERKS2_
FN:716,_ZNSt14__shared_countILN9__gnu_cxx12_Lock_policyE2EEaSERKS2_
FN:731,_ZNSt14__shared_countILN9__gnu_cxx12_Lock_policyE2EE7_M_swapERS2_
FN:977,_ZNKSt19__shared_ptr_accessI13ThreadContextLN9__gnu_cxx12_Lock_policyE2ELb0ELb0EEdeEv
FN:984,_ZNKSt19__shared_ptr_accessI13ThreadContextLN9__gnu_cxx12_Lock_policyE2ELb0ELb0EEptEv
FN:992,_ZNKSt19__shared_ptr_accessI13ThreadContextLN9__gnu_cxx12_Lock_policyE2ELb0ELb0EE6_M_getEv
FN:1092,_ZNSt12__shared_ptrI13ThreadContextLN9__gnu_cxx12_Lock_policyE2EEC2Ev
FN:1152,_ZNSt12__shared_ptrI13ThreadContextLN9__gnu_cxx12_Lock_policyE2EEC2ERKS3_
FN:1153,_ZNSt12__shared_ptrI13ThreadContextLN9__gnu_cxx12_Lock_policyE2EEaSERKS3_
FN:1154,_ZNSt12__shared_ptrI13ThreadContextLN9__gnu_cxx12_Lock_policyE2EED2Ev
FN:1161,_ZNSt12__shared_ptrI13ThreadContextLN9__gnu_cxx12_Lock_policyE2EEC2EOS3_
FN:1248,_ZNSt12__shared_ptrI13ThreadContextLN9__gnu_cxx12_Lock_policyE2EEaSEOS3_
FN:1271,_ZNSt12__shared_ptrI13ThreadContextLN9__gnu_cxx12_Lock_policyE2EE5resetEv
FN:1295,_ZNKSt12__shared_ptrI13ThreadContextLN9__gnu_cxx12_Lock_policyE2EE3getEv
FN:1299,_ZNKSt12__shared_ptrI13ThreadContextLN9__gnu_cxx12_Lock_policyE2EEcvbEv
FN:1314,_ZNSt12__shared_ptrI13ThreadContextLN9__gnu_cxx12_Lock_policyE2EE4swapERS3_
FN:1341,_ZNSt12__shared_ptrI13ThreadContextLN9__gnu_cxx12_Lock_policyE2EEC2ISaIS0_EJEEESt20_Sp_alloc_shared_tagIT_EDpOT0_
FN:1386,_ZNSt12__shared_ptrI13ThreadContextLN9__gnu_cxx12_Lock_policyE2EE31_M_enable_shared_from_this_withIS0_S0_EENSt9enable_ifIXntsrNS3_15__has_esft_baseIT0_vEE5valueEvE4typeEPT_
FNDA:0,_ZNSt16_Sp_counted_baseILN9__gnu_cxx12_Lock_policyE2EE10_M_destroyEv
FNDA:3,_ZNSt12__shared_ptrI13ThreadContextLN9__gnu_cxx12_Lock_policyE2EEC2ERKS3_
FNDA:4,_ZNSt14__shared_countILN9__gnu_cxx12_Lock_policyE2EEaSERKS2_
FNDA:11,_ZNSt12__shared_ptrI13ThreadContextLN9__gnu_cxx12_Lock_policyE2EE5resetEv
FNDA:10,_ZNSt14__shared_countILN9__gnu_cxx12_Lock_policyE2EEC2I13ThreadContextSaIS4_EJEEERPT_St20_Sp_alloc_shared_tagIT0_EDpOT1_
FNDA:31,_ZNSt14__shared_countILN9__gnu_cxx12_Lock_policyE2EE7_M_swapERS2_
FNDA:0,_ZNSt23_Sp_counted_ptr_inplaceI13ThreadContextSaIS0_ELN9__gnu_cxx12_Lock_policyE2EED0Ev
FNDA:45,_ZNSt14__shared_countILN9__gnu_cxx12_Lock_policyE2EED2Ev
FNDA:4,_ZNSt12__shared_ptrI13ThreadContextLN9__gnu_cxx12_Lock_policyE2EEaSERKS3_
FNDA:10,_ZNSt12__shared_ptrI13ThreadContextLN9__gnu_cxx12_Lock_policyE2EE31_M_enable_shared_from_this_withIS0_S0_EENSt9enable_ifIXntsrNS3_15__has_esft_baseIT0_vEE5valueEvE4typeEPT_
FNDA:30,_ZNSt23_Sp_counted_ptr_inplaceI13ThreadContextSaIS0_ELN9__gnu_cxx12_Lock_policyE2EE6_M_ptrEv
FNDA:32,_ZNSt14__shared_countILN9__gnu_cxx12_Lock_policyE2EEC2Ev
FNDA:10,_ZNSt16_Sp_counted_baseILN9__gnu_cxx12_Lock_policyE2EED2Ev
FNDA:21,_ZNSt12__shared_ptrI13ThreadContextLN9__gnu_cxx12_Lock_policyE2EE4swapERS3_
FNDA:121,_ZNKSt19__shared_ptr_accessI13ThreadContextLN9__gnu_cxx12_Lock_policyE2ELb0ELb0EE6_M_getEv
FNDA:10,_ZNSt23_Sp_counted_ptr_inplaceI13ThreadContextSaIS0_ELN9__gnu_cxx12_Lock_policyE2EE10_M_disposeEv
FNDA:0,_ZNSt23_Sp_counted_ptr_inplaceI13ThreadContextSaIS0_ELN9__gnu_cxx12_Lock_policyE2EE14_M_get_deleterERKSt9type_info
FNDA:22,_ZNSt12__shared_ptrI13ThreadContextLN9__gnu_cxx12_Lock_policyE2EEC2Ev
FNDA:10,_ZNSt12__shared_ptrI13ThreadContextLN9__gnu_cxx12_Lock_policyE2EEaSEOS3_
FNDA:10,_ZNSt12__shared_ptrI13ThreadContextLN9__gnu_cxx12_Lock_policyE2EEC2EOS3_
FNDA:10,_ZNSt23_Sp_counted_ptr_inplaceI13ThreadContextSaIS0_ELN9__gnu_cxx12_Lock_policyE2EED2Ev
FNDA:10,_ZNSt12__shared_ptrI13ThreadContextLN9__gnu_cxx12_Lock_policyE2EEC2ISaIS0_EJEEESt20_Sp_alloc_shared_tagIT_EDpOT0_
FNDA:20,_ZNSt23_Sp_counted_ptr_inplaceI13ThreadContextSaIS0_ELN9__gnu_cxx12_Lock_policyE2EE5_Impl8_M_allocEv
FNDA:20,_ZNSt14_Sp_ebo_helperILi0ESaI13ThreadContextELb1EE6_S_getERS2_
FNDA:45,_ZNSt12__shared_ptrI13ThreadContextLN9__gnu_cxx12_Lock_policyE2EED2Ev
FNDA:10,_ZNSt23_Sp_counted_ptr_inplaceI13ThreadContextSaIS0_ELN9__gnu_cxx12_Lock_policyE2EE5_ImplC2ES1_
FNDA:17,_ZNSt16_Sp_counted_baseILN9__gnu_cxx12_Lock_policyE2EE10_M_releaseEv
FNDA:4,_ZNKSt12__shared_ptrI13ThreadContextLN9__gnu_cxx12_Lock_policyE2EEcvbEv
FNDA:10,_ZNSt14_Sp_ebo_helperILi0ESaI13ThreadContextELb1EEC2ERKS1_
FNDA:109,_ZNKSt19__shared_ptr_accessI13ThreadContextLN9__gnu_cxx12_Lock_policyE2ELb0ELb0EEptEv
FNDA:0,_ZNSt19_Sp_make_shared_tag5_S_tiEv
FNDA:10,_ZNSt16_Sp_counted_baseILN9__gnu_cxx12_Lock_policyE2EEC2Ev
FNDA:7,_ZNSt16_Sp_counted_baseILN9__gnu_cxx12_Lock_policyE2EE15_M_add_ref_copyEv
FNDA:3,_ZNSt14__shared_countILN9__gnu_cxx12_Lock_policyE2EEC2ERKS2_
FNDA:122,_ZNKSt12__shared_ptrI13ThreadContextLN9__gnu_cxx12_Lock_policyE2EE3getEv
FNDA:12,_ZNKSt19__shared_ptr_accessI13ThreadContextLN9__gnu_cxx12_Lock_policyE2ELb0ELb0EEdeEv
FNDA:10,_ZNSt23_Sp_counted_ptr_inplaceI13ThreadContextSaIS0_ELN9__gnu_cxx12_Lock_policyE2EEC2IJEEES1_DpOT_
FNDA:0,_ZNSt16_Sp_counted_baseILN9__gnu_cxx12_Lock_policyE2EED0Ev
FNDA:10,_ZNSt23_Sp_counted_ptr_inplaceI13ThreadContextSaIS0_ELN9__gnu_cxx12_Lock_policyE2EE10_M_destroyEv
FNF:39
FNH:34
DA:126,10
DA:127,10
DA:130,10
DA:131,10
DA:140,0
DA:141,0
DA:147,7
DA:148,7
DA:161,17
DA:165,34
DA:168,10
DA:180,10
DA:181,10
DA:184,10
DA:187,17
DA:385,10
DA:389,20
DA:479,0
DA:482,0
DA:502,10
DA:504,20
DA:514,10
DA:515,10
DA:519,10
DA:521,10
DA:523,10
DA:526,10
DA:528,10
DA:529,10
DA:533,10
DA:535,10
DA:536,10
DA:537,10
DA:538,10
DA:546,0
DA:548,0
DA:553,0
DA:554,0
DA:556,0
DA:561,0
DA:562,0
DA:565,30
DA:587,32
DA:588,32
DA:643,10
DA:647,10
DA:648,10
DA:649,10
DA:650,10
DA:652,10
DA:653,10
DA:654,10
DA:655,10
DA:702,45
DA:704,45
DA:705,14
DA:706,45
DA:708,3
DA:709,3
DA:711,3
DA:712,3
DA:713,3
DA:716,4
DA:718,4
DA:719,4
DA:721,4
DA:722,4
DA:723,4
DA:724,3
DA:725,4
DA:727,4
DA:731,31
DA:733,31
DA:734,31
DA:735,31
DA:736,31
DA:977,12
DA:979,12
DA:980,12
DA:984,109
DA:987,109
DA:992,121
DA:993,121
DA:1092,22
DA:1093,22
DA:1094,22
DA:1152,3
DA:1153,4
DA:1154,45
DA:1161,10
DA:1162,10
DA:1164,10
DA:1165,10
DA:1166,10
DA:1248,10
DA:1250,10
DA:1251,10
DA:1271,11
DA:1272,11
DA:1295,122
DA:1296,122
DA:1299,4
DA:1300,4
DA:1314,21
DA:1316,21
DA:1317,21
DA:1318,21
DA:1341,10
DA:1342,10
DA:1343,10
DA:1386,10
DA:1387,10
LF:112
LH:101
end_of_record
TN:
SF:/usr/include/c++/11/bits/std_function.h
FN:85,_ZNSt9_Any_data9_M_accessEv
FN:86,_ZNKSt9_Any_data9_M_accessEv
FN:90,_ZNSt9_Any_data9_M_accessIPZ14handleCommandsiRSt6vectorISt10unique_ptrI12ActiveObjectSt14default_deleteIS3_EESaIS6_EERS2_I5GraphS4_ISA_EER10MSTFactoryRS2_I4TreeS4_ISG_EEEUlvE_EERT_v
FN:90,_ZNSt9_Any_data9_M_accessIPKSt9type_infoEERT_v
FN:90,_ZNSt9_Any_data9_M_accessIPZ14handleCommandsiRSt6vectorISt10unique_ptrI12ActiveObjectSt14default_deleteIS3_EESaIS6_EERS2_I5GraphS4_ISA_EER10MSTFactoryRS2_I4TreeS4_ISG_EEEUlvE4_EERT_v
FN:90,_ZNSt9_Any_data9_M_accessIPZ14handleCommandsiRSt6vectorISt10unique_ptrI12ActiveObjectSt14default_deleteIS3_EESaIS6_EERS2_I5GraphS4_ISA_EER10MSTFactoryRS2_I4TreeS4_ISG_EEEUlvE5_EERT_v
FN:90,_ZNSt9_Any_data9_M_accessIPZ14handleCommandsiRSt6vectorISt10unique_ptrI12ActiveObjectSt14default_deleteIS3_EESaIS6_EERS2_I5GraphS4_ISA_EER10MSTFactoryRS2_I4TreeS4_ISG_EEEUlvE10_EERT_v
FN:90,_ZNSt9_Any_data9_M_accessIPZ16acceptConnectioniRSt10unique_ptrI5GraphSt14default_deleteIS2_EER10MSTFactoryRS1_I4TreeS3_IS9_EERS1_I12LFThreadPoolS3_ISD_EEEUlvE_EERT_v
FN:90,_ZNSt9_Any_data9_M_accessIPZ4mainEUliE_EERT_v
FN:90,_ZNSt9_Any_data9_M_accessIPZ14handleCommandsiRSt6vectorISt10unique_ptrI12ActiveObjectSt14default_deleteIS3_EESaIS6_EERS2_I5GraphS4_ISA_EER10MSTFactoryRS2_I4TreeS4_ISG_EEEUlvE9_EERT_v
FN:90,_ZNSt9_Any_data9_M_accessIPZ14handleCommandsiRSt6vectorISt10unique_ptrI12ActiveObjectSt14default_deleteIS3_EESaIS6_EERS2_I5GraphS4_ISA_EER10MSTFactoryRS2_I4TreeS4_ISG_EEEUlvE2_EERT_v
FN:90,_ZNSt9_Any_data9_M_accessIPSt5_BindIFM12LFThreadPoolFviEPS2_mEEEERT_v
FN:90,_ZNSt9_Any_data9_M_accessIPZ4mainEUlvE0_EERT_v
FN:90,_ZNSt9_Any_data9_M_accessIPZ14handleCommandsiRSt6vectorISt10unique_ptrI12ActiveObjectSt14default_deleteIS3_EESaIS6_EERS2_I5GraphS4_ISA_EER10MSTFactoryRS2_I4TreeS4_ISG_EEEUlvE6_EERT_v
FN:90,_ZNSt9_Any_data9_M_accessIPZ14handleCommandsiRSt6vectorISt10unique_ptrI12ActiveObjectSt14default_deleteIS3_EESaIS6_EERS2_I5GraphS4_ISA_EER10MSTFactoryRS2_I4TreeS4_ISG_EEEUlvE0_EERT_v
FN:90,_ZNSt9_Any_data9_M_accessIPZ14handleCommandsiRSt6vectorISt10unique_ptrI12ActiveObjectSt14default_deleteIS3_EESaIS6_EERS2_I5GraphS4_ISA_EER10MSTFactoryRS2_I4TreeS4_ISG_EEEUlvE1_EERT_v
FN:90,_ZNSt9_Any_data9_M_accessIPZ14handleCommandsiRSt6vectorISt10unique_ptrI12ActiveObjectSt14default_deleteIS3_EESaIS6_EERS2_I5GraphS4_ISA_EER10MSTFactoryRS2_I4TreeS4_ISG_EEEUlvE8_EERT_v
FN:90,_ZNSt9_Any_data9_M_accessIPZ14handleCommandsiRSt6vectorISt10unique_ptrI12ActiveObjectSt14default_deleteIS3_EESaIS6_EERS2_I5GraphS4_ISA_EER10MSTFactoryRS2_I4TreeS4_ISG_EEEUlvE3_EERT_v
FN:95,_ZNKSt9_Any_data9_M_accessIPZ14handleCommandsiRSt6vectorISt10unique_ptrI12ActiveObjectSt14default_deleteIS3_EESaIS6_EERS2_I5GraphS4_ISA_EER10MSTFactoryRS2_I4TreeS4_ISG_EEEUlvE8_EERKT_v
FN:95,_ZNKSt9_Any_data9_M_accessIPZ14handleCommandsiRSt6vectorISt10unique_ptrI12ActiveObjectSt14default_deleteIS3_EESaIS6_EERS2_I5GraphS4_ISA_EER10MSTFactoryRS2_I4TreeS4_ISG_EEEUlvE2_EERKT_v
FN:95,_ZNKSt9_Any_data9_M_accessIPZ14handleCommandsiRSt6vectorISt10unique_ptrI12ActiveObjectSt14default_deleteIS3_EESaIS6_EERS2_I5GraphS4_ISA_EER10MSTFactoryRS2_I4TreeS4_ISG_EEEUlvE1_EERKT_v
FN:95,_ZNKSt9_Any_data9_M_accessIPZ4mainEUlvE0_EERKT_v
FN:95,_ZNKSt9_Any_data9_M_accessIPZ14handleCommandsiRSt6vectorISt10unique_ptrI12ActiveObjectSt14default_deleteIS3_EESaIS6_EERS2_I5GraphS4_ISA_EER10MSTFactoryRS2_I4TreeS4_ISG_EEEUlvE6_EERKT_v
FN:95,_ZNKSt9_Any_data9_M_accessIPZ14handleCommandsiRSt6vectorISt10unique_ptrI12ActiveObjectSt14default_deleteIS3_EESaIS6_EERS2_I5GraphS4_ISA_EER10MSTFactoryRS2_I4TreeS4_ISG_EEEUlvE10_EERKT_v
FN:95,_ZNKSt9_Any_data9_M_accessIPZ4mainEUliE_EERKT_v
FN:95,_ZNKSt9_Any_data9_M_accessIPZ14handleCommandsiRSt6vectorISt10unique_ptrI12ActiveObjectSt14default_deleteIS3_EESaIS6_EERS2_I5GraphS4_ISA_EER10MSTFactoryRS2_I4TreeS4_ISG_EEEUlvE9_EERKT_v
FN:95,_ZNKSt9_Any_data9_M_accessIPZ14handleCommandsiRSt6vectorISt10unique_ptrI12ActiveObjectSt14default_deleteIS3_EESaIS6_EERS2_I5GraphS4_ISA_EER10MSTFactoryRS2_I4TreeS4_ISG_EEEUlvE4_EERKT_v
FN:95,_ZNKSt9_Any_data9_M_accessIPZ14handleCommandsiRSt6vectorISt10unique_ptrI12ActiveObjectSt14default_deleteIS3_EESaIS6_EERS2_I5GraphS4_ISA_EER10MSTFactoryRS2_I4TreeS4_ISG_EEEUlvE0_EERKT_v
FN:95,_ZNKSt9_Any_data9_M_accessIPSt5_BindIFM12LFThreadPoolFviEPS2_mEEEERKT_v
FN:95,_ZNKSt9_Any_data9_M_accessIPZ16acceptConnectioniRSt10unique_ptrI5GraphSt14default_deleteIS2_EER10MSTFactoryRS1_I4TreeS3_IS9_EERS1_I12LFThreadPoolS3_ISD_EEEUlvE_EERKT_v
FN:95,_ZNKSt9_Any_data9_M_accessIPZ14handleCommandsiRSt6vectorISt10unique_ptrI12ActiveObjectSt14default_deleteIS3_EESaIS6_EERS2_I5GraphS4_ISA_EER10MSTFactoryRS2_I4TreeS4_ISG_EEEUlvE_EERKT_v
FN:95,_ZNKSt9_Any_data9_M_accessIPZ14handleCommandsiRSt6vectorISt10unique_ptrI12ActiveObjectSt14default_deleteIS3_EESaIS6_EERS2_I5GraphS4_ISA_EER10MSTFactoryRS2_I4TreeS4_ISG_EEEUlvE5_EERKT_v
FN:95,_ZNKSt9_Any_data9_M_accessIPZ14handleCommandsiRSt6vectorISt10unique_ptrI12ActiveObjectSt14default_deleteIS3_EESaIS6_EERS2_I5GraphS4_ISA_EER10MSTFactoryRS2_I4TreeS4_ISG_EEEUlvE3_EERKT_v
FN:134,_ZNSt14_Function_base13_Base_managerIZ14handleCommandsiRSt6vectorISt10unique_ptrI12ActiveObjectSt14default_deleteIS3_EESaIS6_EERS2_I5GraphS4_ISA_EER10MSTFactoryRS2_I4TreeS4_ISG_EEEUlvE2_E14_M_get_pointerERKSt9_Any_data
FN:134,_ZNSt14_Function_base13_Base_managerIZ14handleCommandsiRSt6vectorISt10unique_ptrI12ActiveObjectSt14default_deleteIS3_EESaIS6_EERS2_I5GraphS4_ISA_EER10MSTFactoryRS2_I4TreeS4_ISG_EEEUlvE4_E14_M_get_pointerERKSt9_Any_data
FN:134,_ZNSt14_Function_base13_Base_managerIZ14handleCommandsiRSt6vectorISt10unique_ptrI12ActiveObjectSt14default_deleteIS3_EESaIS6_EERS2_I5GraphS4_ISA_EER10MSTFactoryRS2_I4TreeS4_ISG_EEEUlvE6_E14_M_get_pointerERKSt9_Any_data
FN:134,_ZNSt14_Function_base13_Base_managerIZ14handleCommandsiRSt6vectorISt10unique_ptrI12ActiveObjectSt14default_deleteIS3_EESaIS6_EERS2_I5GraphS4_ISA_EER10MSTFactoryRS2_I4TreeS4_ISG_EEEUlvE8_E14_M_get_pointerERKSt9_Any_data
FN:134,_ZNSt14_Function_base13_Base_managerIZ4mainEUlvE0_E14_M_get_pointerERKSt9_Any_data
FN:134,_ZNSt14_Function_base13_Base_managerIZ4mainEUliE_E14_M_get_pointerERKSt9_Any_data
FN:134,_ZNSt14_Function_base13_Base_managerIZ14handleCommandsiRSt6vectorISt10unique_ptrI12ActiveObjectSt14default_deleteIS3_EESaIS6_EERS2_I5GraphS4_ISA_EER10MSTFactoryRS2_I4TreeS4_ISG_EEEUlvE10_E14_M_get_pointerERKSt9_Any_data
FN:134,_ZNSt14_Function_base13_Base_managerIZ14handleCommandsiRSt6vectorISt10unique_ptrI12ActiveObjectSt14default_deleteIS3_EESaIS6_EERS2_I5GraphS4_ISA_EER10MSTFactoryRS2_I4TreeS4_ISG_EEEUlvE9_E14_M_get_pointerERKSt9_Any_data
FN:134,_ZNSt14_Function_base13_Base_managerIZ16acceptConnectioniRSt10unique_ptrI5GraphSt14default_deleteIS2_EER10MSTFactoryRS1_I4TreeS3_IS9_EERS1_I12LFThreadPoolS3_ISD_EEEUlvE_E14_M_get_pointerERKSt9_Any_data
FN:134,_ZNSt14_Function_base13_Base_managerIZ14handleCommandsiRSt6vectorISt10unique_ptrI12ActiveObjectSt14default_deleteIS3_EESaIS6_EERS2_I5GraphS4_ISA_EER10MSTFactoryRS2_I4TreeS4_ISG_EEEUlvE0_E14_M_get_pointerERKSt9_Any_data
FN:134,_ZNSt14_Function_base13_Base_managerIZ14handleCommandsiRSt6vectorISt10unique_ptrI12ActiveObjectSt14default_deleteIS3_EESaIS6_EERS2_I5GraphS4_ISA_EER10MSTFactoryRS2_I4TreeS4_ISG_EEEUlvE_E14_M_get_pointerERKSt9_Any_data
FN:134,_ZNSt14_Function_base13_Base_managerIZ14handleCommandsiRSt6vectorISt10unique_ptrI12ActiveObjectSt14default_deleteIS3_EESaIS6_EERS2_I5GraphS4_ISA_EER10MSTFactoryRS2_I4TreeS4_ISG_EEEUlvE5_E14_M_get_pointerERKSt9_Any_data
FN:134,_ZNSt14_Function_base13_Base_managerIZ14handleCommandsiRSt6vectorISt10unique_ptrI12ActiveObjectSt14default_deleteIS3_EESaIS6_EERS2_I5GraphS4_ISA_EER10MSTFactoryRS2_I4TreeS4_ISG_EEEUlvE1_E14_M_get_pointerERKSt9_Any_data
FN:134,_ZNSt14_Function_base13_Base_managerIZ14handleCommandsiRSt6vectorISt10unique_ptrI12ActiveObjectSt14default_deleteIS3_EESaIS6_EERS2_I5GraphS4_ISA_EER10MSTFactoryRS2_I4TreeS4_ISG_EEEUlvE3_E14_M_get_pointerERKSt9_Any_data
FN:134,_ZNSt14_Function_base13_Base_managerISt5_BindIFM12LFThreadPoolFviEPS2_mEEE14_M_get_pointerERKSt9_Any_data
FN:158,_ZNSt14_Function_base13_Base_managerIZ14handleCommandsiRSt6vectorISt10unique_ptrI12ActiveObjectSt14default_deleteIS3_EESaIS6_EERS2_I5GraphS4_ISA_EER10MSTFactoryRS2_I4TreeS4_ISG_EEEUlvE8_E9_M_createIRKSK_EEvRSt9_Any_dataOT_St17integral_constantIbLb0EE
FN:158,_ZNSt14_Function_base13_Base_managerIZ4mainEUliE_E9_M_createIRKS1_EEvRSt9_Any_dataOT_St17integral_constantIbLb0EE
FN:158,_ZNSt14_Function_base13_Base_managerIZ14handleCommandsiRSt6vectorISt10unique_ptrI12ActiveObjectSt14default_deleteIS3_EESaIS6_EERS2_I5GraphS4_ISA_EER10MSTFactoryRS2_I4TreeS4_ISG_EEEUlvE2_E9_M_createIRSK_EEvRSt9_Any_dataOT_St17integral_constantIbLb0EE
FN:158,_ZNSt14_Function_base13_Base_managerIZ14handleCommandsiRSt6vectorISt10unique_ptrI12ActiveObjectSt14default_deleteIS3_EESaIS6_EERS2_I5GraphS4_ISA_EER10MSTFactoryRS2_I4TreeS4_ISG_EEEUlvE3_E9_M_createIRSK_EEvRSt9_Any_dataOT_St17integral_constantIbLb0EE
FN:158,_ZNSt14_Function_base13_Base_managerIZ14handleCommandsiRSt6vectorISt10unique_ptrI12ActiveObjectSt14default_deleteIS3_EESaIS6_EERS2_I5GraphS4_ISA_EER10MSTFactoryRS2_I4TreeS4_ISG_EEEUlvE9_E9_M_createIRSK_EEvRSt9_Any_dataOT_St17integral_constantIbLb0EE
FN:158,_ZNSt14_Function_base13_Base_managerIZ14handleCommandsiRSt6vectorISt10unique_ptrI12ActiveObjectSt14default_deleteIS3_EESaIS6_EERS2_I5GraphS4_ISA_EER10MSTFactoryRS2_I4TreeS4_ISG_EEEUlvE1_E9_M_createIRSK_EEvRSt9_Any_dataOT_St17integral_constantIbLb0EE
FN:158,_ZNSt14_Function_base13_Base_managerIZ14handleCommandsiRSt6vectorISt10unique_ptrI12ActiveObjectSt14default_deleteIS3_EESaIS6_EERS2_I5GraphS4_ISA_EER10MSTFactoryRS2_I4TreeS4_ISG_EEEUlvE2_E9_M_createIRKSK_EEvRSt9_Any_dataOT_St17integral_constantIbLb0EE
FN:158,_ZNSt14_Function_base13_Base_managerIZ16acceptConnectioniRSt10unique_ptrI5GraphSt14default_deleteIS2_EER10MSTFactoryRS1_I4TreeS3_IS9_EERS1_I12LFThreadPoolS3_ISD_EEEUlvE_E9_M_createIRKSH_EEvRSt9_Any_dataOT_St17integral_constantIbLb0EE
FN:158,_ZNSt14_Function_base13_Base_managerIZ14handleCommandsiRSt6vectorISt10unique_ptrI12ActiveObjectSt14default_deleteIS3_EESaIS6_EERS2_I5GraphS4_ISA_EER10MSTFactoryRS2_I4TreeS4_ISG_EEEUlvE9_E9_M_createIRKSK_EEvRSt9_Any_dataOT_St17integral_constantIbLb0EE
FN:158,_ZNSt14_Function_base13_Base_managerISt5_BindIFM12LFThreadPoolFviEPS2_mEEE9_M_createIS7_EEvRSt9_Any_dataOT_St17integral_constantIbLb0EE
FN:158,_ZNSt14_Function_base13_Base_managerIZ4mainEUlvE0_E9_M_createIRKS1_EEvRSt9_Any_dataOT_St17integral_constantIbLb0EE
FN:158,_ZNSt14_Function_base13_Base_managerIZ16acceptConnectioniRSt10unique_ptrI5GraphSt14default_deleteIS2_EER10MSTFactoryRS1_I4TreeS3_IS9_EERS1_I12LFThreadPoolS3_ISD_EEEUlvE_E9_M_createISH_EEvRSt9_Any_dataOT_St17integral_constantIbLb0EE
FN:158,_ZNSt14_Function_base13_Base_managerIZ14handleCommandsiRSt6vectorISt10unique_ptrI12ActiveObjectSt14default_deleteIS3_EESaIS6_EERS2_I5GraphS4_ISA_EER10MSTFactoryRS2_I4TreeS4_ISG_EEEUlvE3_E9_M_createIRKSK_EEvRSt9_Any_dataOT_St17integral_constantIbLb0EE
FN:158,_ZNSt14_Function_base13_Base_managerIZ14handleCommandsiRSt6vectorISt10unique_ptrI12ActiveObjectSt14default_deleteIS3_EESaIS6_EERS2_I5GraphS4_ISA_EER10MSTFactoryRS2_I4TreeS4_ISG_EEEUlvE10_E9_M_createIRSK_EEvRSt9_Any_dataOT_St17integral_constantIbLb0EE
FN:158,_ZNSt14_Function_base13_Base_managerIZ14handleCommandsiRSt6vectorISt10unique_ptrI12ActiveObjectSt14default_deleteIS3_EESaIS6_EERS2_I5GraphS4_ISA_EER10MSTFactoryRS2_I4TreeS4_ISG_EEEUlvE8_E9_M_createIRSK_EEvRSt9_Any_dataOT_St17integral_constantIbLb0EE
FN:158,_ZNSt14_Function_base13_Base_managerIZ14handleCommandsiRSt6vectorISt10unique_ptrI12ActiveObjectSt14default_deleteIS3_EESaIS6_EERS2_I5GraphS4_ISA_EER10MSTFactoryRS2_I4TreeS4_ISG_EEEUlvE0_E9_M_createIRSK_EEvRSt9_Any_dataOT_St17integral_constantIbLb0EE
FN:158,_ZNSt14_Function_base13_Base_managerIZ14handleCommandsiRSt6vectorISt10unique_ptrI12ActiveObjectSt14default_deleteIS3_EESaIS6_EERS2_I5GraphS4_ISA_EER10MSTFactoryRS2_I4TreeS4_ISG_EEEUlvE10_E9_M_createIRKSK_EEvRSt9_Any_dataOT_St17integral_constantIbLb0EE
FN:158,_ZNSt14_Function_base13_Base_managerIZ14handleCommandsiRSt6vectorISt10unique_ptrI12ActiveObjectSt14default_deleteIS3_EESaIS6_EERS2_I5GraphS4_ISA_EER10MSTFactoryRS2_I4TreeS4_ISG_EEEUlvE_E9_M_createIRSK_EEvRSt9_Any_dataOT_St17integral_constantIbLb0EE
FN:158,_ZNSt14_Function_base13_Base_managerIZ14handleCommandsiRSt6vectorISt10unique_ptrI12ActiveObjectSt14default_deleteIS3_EESaIS6_EERS2_I5GraphS4_ISA_EER10MSTFactoryRS2_I4TreeS4_ISG_EEEUlvE6_E9_M_createIRSK_EEvRSt9_Any_dataOT_St17integral_constantIbLb0EE
FN:158,_ZNSt14_Function_base13_Base_managerIZ14handleCommandsiRSt6vectorISt10unique_ptrI12ActiveObjectSt14default_deleteIS3_EESaIS6_EERS2_I5GraphS4_ISA_EER10MSTFactoryRS2_I4TreeS4_ISG_EEEUlvE4_E9_M_createIRSK_EEvRSt9_Any_dataOT_St17integral_constantIbLb0EE
FN:158,_ZNSt14_Function_base13_Base_managerIZ14handleCommandsiRSt6vectorISt10unique_ptrI12ActiveObjectSt14default_deleteIS3_EESaIS6_EERS2_I5GraphS4_ISA_EER10MSTFactoryRS2_I4TreeS4_ISG_EEEUlvE5_E9_M_createIRKSK_EEvRSt9_Any_dataOT_St17integral_constantIbLb0EE
FN:158,_ZNSt14_Function_base13_Base_managerIZ14handleCommandsiRSt6vectorISt10unique_ptrI12ActiveObjectSt14default_deleteIS3_EESaIS6_EERS2_I5GraphS4_ISA_EER10MSTFactoryRS2_I4TreeS4_ISG_EEEUlvE5_E9_M_createIRSK_EEvRSt9_Any_dataOT_St17integral_constantIbLb0EE
FN:158,_ZNSt14_Function_base13_Base_managerISt5_BindIFM12LFThreadPoolFviEPS2_mEEE9_M_createIRKS7_EEvRSt9_Any_dataOT_St17integral_constantIbLb0EE
FN:158,_ZNSt14_Function_base13_Base_managerIZ4mainEUliE_E9_M_createIS1_EEvRSt9_Any_dataOT_St17integral_constantIbLb0EE
FN:158,_ZNSt14_Function_base13_Base_managerIZ14handleCommandsiRSt6vectorISt10unique_ptrI12ActiveObjectSt14default_deleteIS3_EESaIS6_EERS2_I5GraphS4_ISA_EER10MSTFactoryRS2_I4TreeS4_ISG_EEEUlvE6_E9_M_createIRKSK_EEvRSt9_Any_dataOT_St17integral_constantIbLb0EE
FN:158,_ZNSt14_Function_base13_Base_managerIZ4mainEUlvE0_E9_M_createIS1_EEvRSt9_Any_dataOT_St17integral_constantIbLb0EE
FN:158,_ZNSt14_Function_base13_Base_managerIZ14handleCommandsiRSt6vectorISt10unique_ptrI12ActiveObjectSt14default_deleteIS3_EESaIS6_EERS2_I5GraphS4_ISA_EER10MSTFactoryRS2_I4TreeS4_ISG_EEEUlvE4_E9_M_createIRKSK_EEvRSt9_Any_dataOT_St17integral_constantIbLb0EE
FN:158,_ZNSt14_Function_base13_Base_managerIZ14handleCommandsiRSt6vectorISt10unique_ptrI12ActiveObjectSt14default_deleteIS3_EESaIS6_EERS2_I5GraphS4_ISA_EER10MSTFactoryRS2_I4TreeS4_ISG_EEEUlvE0_E9_M_createIRKSK_EEvRSt9_Any_dataOT_St17integral_constantIbLb0EE
FN:158,_ZNSt14_Function_base13_Base_managerIZ14handleCommandsiRSt6vectorISt10unique_ptrI12ActiveObjectSt14default_deleteIS3_EESaIS6_EERS2_I5GraphS4_ISA_EER10MSTFactoryRS2_I4TreeS4_ISG_EEEUlvE1_E9_M_createIRKSK_EEvRSt9_Any_dataOT_St17integral_constantIbLb0EE
FN:158,_ZNSt14_Function_base13_Base_managerIZ14handleCommandsiRSt6vectorISt10unique_ptrI12ActiveObjectSt14default_deleteIS3_EESaIS6_EERS2_I5GraphS4_ISA_EER10MSTFactoryRS2_I4TreeS4_ISG_EEEUlvE_E9_M_createIRKSK_EEvRSt9_Any_dataOT_St17integral_constantIbLb0EE
FN:173,_ZNSt14_Function_base13_Base_managerIZ14handleCommandsiRSt6vectorISt10unique_ptrI12ActiveObjectSt14default_deleteIS3_EESaIS6_EERS2_I5GraphS4_ISA_EER10MSTFactoryRS2_I4TreeS4_ISG_EEEUlvE2_E10_M_destroyERSt9_Any_dataSt17integral_constantIbLb0EE
FN:173,_ZNSt14_Function_base13_Base_managerIZ4mainEUlvE0_E10_M_destroyERSt9_Any_dataSt17integral_constantIbLb0EE
FN:173,_ZNSt14_Function_base13_Base_managerIZ14handleCommandsiRSt6vectorISt10unique_ptrI12ActiveObjectSt14default_deleteIS3_EESaIS6_EERS2_I5GraphS4_ISA_EER10MSTFactoryRS2_I4TreeS4_ISG_EEEUlvE6_E10_M_destroyERSt9_Any_dataSt17integral_constantIbLb0EE
FN:173,_ZNSt14_Function_base13_Base_managerIZ14handleCommandsiRSt6vectorISt10unique_ptrI12ActiveObjectSt14default_deleteIS3_EESaIS6_EERS2_I5GraphS4_ISA_EER10MSTFactoryRS2_I4TreeS4_ISG_EEEUlvE9_E10_M_destroyERSt9_Any_dataSt17integral_constantIbLb0EE
FN:173,_ZNSt14_Function_base13_Base_managerIZ14handleCommandsiRSt6vectorISt10unique_ptrI12ActiveObjectSt14default_deleteIS3_EESaIS6_EERS2_I5GraphS4_ISA_EER10MSTFactoryRS2_I4TreeS4_ISG_EEEUlvE8_E10_M_destroyERSt9_Any_dataSt17integral_constantIbLb0EE
FN:173,_ZNSt14_Function_base13_Base_managerISt5_BindIFM12LFThreadPoolFviEPS2_mEEE10_M_destroyERSt9_Any_dataSt17integral_constantIbLb0EE
FN:173,_ZNSt14_Function_base13_Base_managerIZ14handleCommandsiRSt6vectorISt10unique_ptrI12ActiveObjectSt14default_deleteIS3_EESaIS6_EERS2_I5GraphS4_ISA_EER10MSTFactoryRS2_I4TreeS4_ISG_EEEUlvE0_E10_M_destroyERSt9_Any_dataSt17integral_constantIbLb0EE
FN:173,_ZNSt14_Function_base13_Base_managerIZ14handleCommandsiRSt6vectorISt10unique_ptrI12ActiveObjectSt14default_deleteIS3_EESaIS6_EERS2_I5GraphS4_ISA_EER10MSTFactoryRS2_I4TreeS4_ISG_EEEUlvE10_E10_M_destroyERSt9_Any_dataSt17integral_constantIbLb0EE
FN:173,_ZNSt14_Function_base13_Base_managerIZ4mainEUliE_E10_M_destroyERSt9_Any_dataSt17integral_constantIbLb0EE
FN:173,_ZNSt14_Function_base13_Base_managerIZ14handleCommandsiRSt6vectorISt10unique_ptrI12ActiveObjectSt14default_deleteIS3_EESaIS6_EERS2_I5GraphS4_ISA_EER10MSTFactoryRS2_I4TreeS4_ISG_EEEUlvE_E10_M_destroyERSt9_Any_dataSt17integral_constantIbLb0EE
FN:173,_ZNSt14_Function_base13_Base_managerIZ14handleCommandsiRSt6vectorISt10unique_ptrI12ActiveObjectSt14default_deleteIS3_EESaIS6_EERS2_I5GraphS4_ISA_EER10MSTFactoryRS2_I4TreeS4_ISG_EEEUlvE3_E10_M_destroyERSt9_Any_dataSt17integral_constantIbLb0EE
FN:173,_ZNSt14_Function_base13_Base_managerIZ14handleCommandsiRSt6vectorISt10unique_ptrI12ActiveObjectSt14default_deleteIS3_EESaIS6_EERS2_I5GraphS4_ISA_EER10MSTFactoryRS2_I4TreeS4_ISG_EEEUlvE1_E10_M_destroyERSt9_Any_dataSt17integral_constantIbLb0EE
FN:173,_ZNSt14_Function_base13_Base_managerIZ16acceptConnectioniRSt10unique_ptrI5GraphSt14default_deleteIS2_EER10MSTFactoryRS1_I4TreeS3_IS9_EERS1_I12LFThreadPoolS3_ISD_EEEUlvE_E10_M_destroyERSt9_Any_dataSt17integral_constantIbLb0EE
FN:173,_ZNSt14_Function_base13_Base_managerIZ14handleCommandsiRSt6vectorISt10unique_ptrI12ActiveObjectSt14default_deleteIS3_EESaIS6_EERS2_I5GraphS4_ISA_EER10MSTFactoryRS2_I4TreeS4_ISG_EEEUlvE4_E10_M_destroyERSt9_Any_dataSt17integral_constantIbLb0EE
FN:173,_ZNSt14_Function_base13_Base_managerIZ14handleCommandsiRSt6vectorISt10unique_ptrI12ActiveObjectSt14default_deleteIS3_EESaIS6_EERS2_I5GraphS4_ISA_EER10MSTFactoryRS2_I4TreeS4_ISG_EEEUlvE5_E10_M_destroyERSt9_Any_dataSt17integral_constantIbLb0EE
FN:180,_ZNSt14_Function_base13_Base_managerIZ14handleCommandsiRSt6vectorISt10unique_ptrI12ActiveObjectSt14default_deleteIS3_EESaIS6_EERS2_I5GraphS4_ISA_EER10MSTFactoryRS2_I4TreeS4_ISG_EEEUlvE5_E10_M_managerERSt9_Any_dataRKSM_St18_Manager_operation
FN:180,_ZNSt14_Function_base13_Base_managerIZ14handleCommandsiRSt6vectorISt10unique_ptrI12ActiveObjectSt14default_deleteIS3_EESaIS6_EERS2_I5GraphS4_ISA_EER10MSTFactoryRS2_I4TreeS4_ISG_EEEUlvE6_E10_M_managerERSt9_Any_dataRKSM_St18_Manager_operation
FN:180,_ZNSt14_Function_base13_Base_managerIZ14handleCommandsiRSt6vectorISt10unique_ptrI12ActiveObjectSt14default_deleteIS3_EESaIS6_EERS2_I5GraphS4_ISA_EER10MSTFactoryRS2_I4TreeS4_ISG_EEEUlvE10_E10_M_managerERSt9_Any_dataRKSM_St18_Manager_operation
FN:180,_ZNSt14_Function_base13_Base_managerIZ14handleCommandsiRSt6vectorISt10unique_ptrI12ActiveObjectSt14default_deleteIS3_EESaIS6_EERS2_I5GraphS4_ISA_EER10MSTFactoryRS2_I4TreeS4_ISG_EEEUlvE8_E10_M_managerERSt9_Any_dataRKSM_St18_Manager_operation
FN:180,_ZNSt14_Function_base13_Base_managerISt5_BindIFM12LFThreadPoolFviEPS2_mEEE10_M_managerERSt9_Any_dataRKS9_St18_Manager_operation
FN:180,_ZNSt14_Function_base13_Base_managerIZ14handleCommandsiRSt6vectorISt10unique_ptrI12ActiveObjectSt14default_deleteIS3_EESaIS6_EERS2_I5GraphS4_ISA_EER10MSTFactoryRS2_I4TreeS4_ISG_EEEUlvE2_E10_M_managerERSt9_Any_dataRKSM_St18_Manager_operation
FN:180,_ZNSt14_Function_base13_Base_managerIZ4mainEUliE_E10_M_managerERSt9_Any_dataRKS3_St18_Manager_operation
FN:180,_ZNSt14_Function_base13_Base_managerIZ14handleCommandsiRSt6vectorISt10unique_ptrI12ActiveObjectSt14default_deleteIS3_EESaIS6_EERS2_I5GraphS4_ISA_EER10MSTFactoryRS2_I4TreeS4_ISG_EEEUlvE1_E10_M_managerERSt9_Any_dataRKSM_St18_Manager_operation
FN:180,_ZNSt14_Function_base13_Base_managerIZ14handleCommandsiRSt6vectorISt10unique_ptrI12ActiveObjectSt14default_deleteIS3_EESaIS6_EERS2_I5GraphS4_ISA_EER10MSTFactoryRS2_I4TreeS4_ISG_EEEUlvE4_E10_M_managerERSt9_Any_dataRKSM_St18_Manager_operation
FN:180,_ZNSt14_Function_base13_Base_managerIZ16acceptConnectioniRSt10unique_ptrI5GraphSt14default_deleteIS2_EER10MSTFactoryRS1_I4TreeS3_IS9_EERS1_I12LFThreadPoolS3_ISD_EEEUlvE_E10_M_managerERSt9_Any_dataRKSJ_St18_Manager_operation
FN:180,_ZNSt14_Function_base13_Base_managerIZ14handleCommandsiRSt6vectorISt10unique_ptrI12ActiveObjectSt14default_deleteIS3_EESaIS6_EERS2_I5GraphS4_ISA_EER10MSTFactoryRS2_I4TreeS4_ISG_EEEUlvE9_E10_M_managerERSt9_Any_dataRKSM_St18_Manager_operation
FN:180,_ZNSt14_Function_base13_Base_managerIZ4mainEUlvE0_E10_M_managerERSt9_Any_dataRKS3_St18_Manager_operation
FN:180,_ZNSt14_Function_base13_Base_managerIZ14handleCommandsiRSt6vectorISt10unique_ptrI12ActiveObjectSt14default_deleteIS3_EESaIS6_EERS2_I5GraphS4_ISA_EER10MSTFactoryRS2_I4TreeS4_ISG_EEEUlvE3_E10_M_managerERSt9_Any_dataRKSM_St18_Manager_operation
FN:180,_ZNSt14_Function_base13_Base_managerIZ14handleCommandsiRSt6vectorISt10unique_ptrI12ActiveObjectSt14default_deleteIS3_EESaIS6_EERS2_I5GraphS4_ISA_EER10MSTFactoryRS2_I4TreeS4_ISG_EEEUlvE0_E10_M_managerERSt9_Any_dataRKSM_St18_Manager_operation
FN:180,_ZNSt14_Function_base13_Base_managerIZ14handleCommandsiRSt6vectorISt10unique_ptrI12ActiveObjectSt14default_deleteIS3_EESaIS6_EERS2_I5GraphS4_ISA_EER10MSTFactoryRS2_I4TreeS4_ISG_EEEUlvE_E10_M_managerERSt9_Any_dataRKSM_St18_Manager_operation
FN:211,_ZNSt14_Function_base13_Base_managerIZ14handleCommandsiRSt6vectorISt10unique_ptrI12ActiveObjectSt14default_deleteIS3_EESaIS6_EERS2_I5GraphS4_ISA_EER10MSTFactoryRS2_I4TreeS4_ISG_EEEUlvE2_E15_M_init_functorIRSK_EEvRSt9_Any_dataOT_
FN:211,_ZNSt14_Function_base13_Base_managerIZ4mainEUlvE0_E15_M_init_functorIRKS1_EEvRSt9_Any_dataOT_
FN:211,_ZNSt14_Function_base13_Base_managerIZ14handleCommandsiRSt6vectorISt10unique_ptrI12ActiveObjectSt14default_deleteIS3_EESaIS6_EERS2_I5GraphS4_ISA_EER10MSTFactoryRS2_I4TreeS4_ISG_EEEUlvE10_E15_M_init_functorIRSK_EEvRSt9_Any_dataOT_
FN:211,_ZNSt14_Function_base13_Base_managerIZ14handleCommandsiRSt6vectorISt10unique_ptrI12ActiveObjectSt14default_deleteIS3_EESaIS6_EERS2_I5GraphS4_ISA_EER10MSTFactoryRS2_I4TreeS4_ISG_EEEUlvE8_E15_M_init_functorIRKSK_EEvRSt9_Any_dataOT_
FN:211,_ZNSt14_Function_base13_Base_managerIZ14handleCommandsiRSt6vectorISt10unique_ptrI12ActiveObjectSt14default_deleteIS3_EESaIS6_EERS2_I5GraphS4_ISA_EER10MSTFactoryRS2_I4TreeS4_ISG_EEEUlvE3_E15_M_init_functorIRSK_EEvRSt9_Any_dataOT_
FN:211,_ZNSt14_Function_base13_Base_managerIZ14handleCommandsiRSt6vectorISt10unique_ptrI12ActiveObjectSt14default_deleteIS3_EESaIS6_EERS2_I5GraphS4_ISA_EER10MSTFactoryRS2_I4TreeS4_ISG_EEEUlvE4_E15_M_init_functorIRKSK_EEvRSt9_Any_dataOT_
FN:211,_ZNSt14_Function_base13_Base_managerIZ14handleCommandsiRSt6vectorISt10unique_ptrI12ActiveObjectSt14default_deleteIS3_EESaIS6_EERS2_I5GraphS4_ISA_EER10MSTFactoryRS2_I4TreeS4_ISG_EEEUlvE2_E15_M_init_functorIRKSK_EEvRSt9_Any_dataOT_
FN:211,_ZNSt14_Function_base13_Base_managerIZ4mainEUliE_E15_M_init_functorIRKS1_EEvRSt9_Any_dataOT_
FN:211,_ZNSt14_Function_base13_Base_managerIZ4mainEUliE_E15_M_init_functorIS1_EEvRSt9_Any_dataOT_
FN:211,_ZNSt14_Function_base13_Base_managerIZ14handleCommandsiRSt6vectorISt10unique_ptrI12ActiveObjectSt14default_deleteIS3_EESaIS6_EERS2_I5GraphS4_ISA_EER10MSTFactoryRS2_I4TreeS4_ISG_EEEUlvE6_E15_M_init_functorIRSK_EEvRSt9_Any_dataOT_
FN:211,_ZNSt14_Function_base13_Base_managerIZ14handleCommandsiRSt6vectorISt10unique_ptrI12ActiveObjectSt14default_deleteIS3_EESaIS6_EERS2_I5GraphS4_ISA_EER10MSTFactoryRS2_I4TreeS4_ISG_EEEUlvE1_E15_M_init_functorIRKSK_EEvRSt9_Any_dataOT_
FN:211,_ZNSt14_Function_base13_Base_managerIZ14handleCommandsiRSt6vectorISt10unique_ptrI12ActiveObjectSt14default_deleteIS3_EESaIS6_EERS2_I5GraphS4_ISA_EER10MSTFactoryRS2_I4TreeS4_ISG_EEEUlvE5_E15_M_init_functorIRSK_EEvRSt9_Any_dataOT_
FN:211,_ZNSt14_Function_base13_Base_managerIZ14handleCommandsiRSt6vectorISt10unique_ptrI12ActiveObjectSt14default_deleteIS3_EESaIS6_EERS2_I5GraphS4_ISA_EER10MSTFactoryRS2_I4TreeS4_ISG_EEEUlvE0_E15_M_init_functorIRSK_EEvRSt9_Any_dataOT_
FN:211,_ZNSt14_Function_base13_Base_managerIZ14handleCommandsiRSt6vectorISt10unique_ptrI12ActiveObjectSt14default_deleteIS3_EESaIS6_EERS2_I5GraphS4_ISA_EER10MSTFactoryRS2_I4TreeS4_ISG_EEEUlvE6_E15_M_init_functorIRKSK_EEvRSt9_Any_dataOT_
FN:211,_ZNSt14_Function_base13_Base_managerIZ14handleCommandsiRSt6vectorISt10unique_ptrI12ActiveObjectSt14default_deleteIS3_EESaIS6_EERS2_I5GraphS4_ISA_EER10MSTFactoryRS2_I4TreeS4_ISG_EEEUlvE8_E15_M_init_functorIRSK_EEvRSt9_Any_dataOT_
FN:211,_ZNSt14_Function_base13_Base_managerIZ14handleCommandsiRSt6vectorISt10unique_ptrI12ActiveObjectSt14default_deleteIS3_EESaIS6_EERS2_I5GraphS4_ISA_EER10MSTFactoryRS2_I4TreeS4_ISG_EEEUlvE5_E15_M_init_functorIRKSK_EEvRSt9_Any_dataOT_
FN:211,_ZNSt14_Function_base13_Base_managerIZ14handleCommandsiRSt6vectorISt10unique_ptrI12ActiveObjectSt14default_deleteIS3_EESaIS6_EERS2_I5GraphS4_ISA_EER10MSTFactoryRS2_I4TreeS4_ISG_EEEUlvE10_E15_M_init_functorIRKSK_EEvRSt9_Any_dataOT_
FN:211,_ZNSt14_Function_base13_Base_managerIZ14handleCommandsiRSt6vectorISt10unique_ptrI12ActiveObjectSt14default_deleteIS3_EESaIS6_EERS2_I5GraphS4_ISA_EER10MSTFactoryRS2_I4TreeS4_ISG_EEEUlvE9_E15_M_init_functorIRSK_EEvRSt9_Any_dataOT_
FN:211,_ZNSt14_Function_base13_Base_managerIZ14handleCommandsiRSt6vectorISt10unique_ptrI12ActiveObjectSt14default_deleteIS3_EESaIS6_EERS2_I5GraphS4_ISA_EER10MSTFactoryRS2_I4TreeS4_ISG_EEEUlvE9_E15_M_init_functorIRKSK_EEvRSt9_Any_dataOT_
FN:211,_ZNSt14_Function_base13_Base_managerIZ14handleCommandsiRSt6vectorISt10unique_ptrI12ActiveObjectSt14default_deleteIS3_EESaIS6_EERS2_I5GraphS4_ISA_EER10MSTFactoryRS2_I4TreeS4_ISG_EEEUlvE4_E15_M_init_functorIRSK_EEvRSt9_Any_dataOT_
FN:211,_ZNSt14_Function_base13_Base_managerIZ14handleCommandsiRSt6vectorISt10unique_ptrI12ActiveObjectSt14default_deleteIS3_EESaIS6_EERS2_I5GraphS4_ISA_EER10MSTFactoryRS2_I4TreeS4_ISG_EEEUlvE_E15_M_init_functorIRSK_EEvRSt9_Any_dataOT_
FN:211,_ZNSt14_Function_base13_Base_managerIZ14handleCommandsiRSt6vectorISt10unique_ptrI12ActiveObjectSt14default_deleteIS3_EESaIS6_EERS2_I5GraphS4_ISA_EER10MSTFactoryRS2_I4TreeS4_ISG_EEEUlvE3_E15_M_init_functorIRKSK_EEvRSt9_Any_dataOT_
FN:211,_ZNSt14_Function_base13_Base_managerIZ4mainEUlvE0_E15_M_init_functorIS1_EEvRSt9_Any_dataOT_
FN:211,_ZNSt14_Function_base13_Base_managerISt5_BindIFM12LFThreadPoolFviEPS2_mEEE15_M_init_functorIS7_EEvRSt9_Any_dataOT_
FN:211,_ZNSt14_Function_base13_Base_managerIZ14handleCommandsiRSt6vectorISt10unique_ptrI12ActiveObjectSt14default_deleteIS3_EESaIS6_EERS2_I5GraphS4_ISA_EER10MSTFactoryRS2_I4TreeS4_ISG_EEEUlvE_E15_M_init_functorIRKSK_EEvRSt9_Any_dataOT_
FN:211,_ZNSt14_Function_base13_Base_managerIZ16acceptConnectioniRSt10unique_ptrI5GraphSt14default_deleteIS2_EER10MSTFactoryRS1_I4TreeS3_IS9_EERS1_I12LFThreadPoolS3_ISD_EEEUlvE_E15_M_init_functorISH_EEvRSt9_Any_dataOT_
FN:211,_ZNSt14_Function_base13_Base_managerIZ16acceptConnectioniRSt10unique_ptrI5GraphSt14default_deleteIS2_EER10MSTFactoryRS1_I4TreeS3_IS9_EERS1_I12LFThreadPoolS3_ISD_EEEUlvE_E15_M_init_functorIRKSH_EEvRSt9_Any_dataOT_
FN:211,_ZNSt14_Function_base13_Base_managerIZ14handleCommandsiRSt6vectorISt10unique_ptrI12ActiveObjectSt14default_deleteIS3_EESaIS6_EERS2_I5GraphS4_ISA_EER10MSTFactoryRS2_I4TreeS4_ISG_EEEUlvE0_E15_M_init_functorIRKSK_EEvRSt9_Any_dataOT_
FN:211,_ZNSt14_Function_base13_Base_managerISt5_BindIFM12LFThreadPoolFviEPS2_mEEE15_M_init_functorIRKS7_EEvRSt9_Any_dataOT_
FN:211,_ZNSt14_Function_base13_Base_managerIZ14handleCommandsiRSt6vectorISt10unique_ptrI12ActiveObjectSt14default_deleteIS3_EESaIS6_EERS2_I5GraphS4_ISA_EER10MSTFactoryRS2_I4TreeS4_ISG_EEEUlvE1_E15_M_init_functorIRSK_EEvRSt9_Any_dataOT_
FN:235,_ZNSt14_Function_base13_Base_managerIZ4mainEUlvE0_E21_M_not_empty_functionIS1_EEbRKT_
FN:235,_ZNSt14_Function_base13_Base_managerIZ14handleCommandsiRSt6vectorISt10unique_ptrI12ActiveObjectSt14default_deleteIS3_EESaIS6_EERS2_I5GraphS4_ISA_EER10MSTFactoryRS2_I4TreeS4_ISG_EEEUlvE_E21_M_not_empty_functionISK_EEbRKT_
FN:235,_ZNSt14_Function_base13_Base_managerIZ14handleCommandsiRSt6vectorISt10unique_ptrI12ActiveObjectSt14default_deleteIS3_EESaIS6_EERS2_I5GraphS4_ISA_EER10MSTFactoryRS2_I4TreeS4_ISG_EEEUlvE5_E21_M_not_empty_functionISK_EEbRKT_
FN:235,_ZNSt14_Function_base13_Base_managerIZ16acceptConnectioniRSt10unique_ptrI5GraphSt14default_deleteIS2_EER10MSTFactoryRS1_I4TreeS3_IS9_EERS1_I12LFThreadPoolS3_ISD_EEEUlvE_E21_M_not_empty_functionISH_EEbRKT_
FN:235,_ZNSt14_Function_base13_Base_managerIZ14handleCommandsiRSt6vectorISt10unique_ptrI12ActiveObjectSt14default_deleteIS3_EESaIS6_EERS2_I5GraphS4_ISA_EER10MSTFactoryRS2_I4TreeS4_ISG_EEEUlvE2_E21_M_not_empty_functionISK_EEbRKT_
FN:235,_ZNSt14_Function_base13_Base_managerIZ14handleCommandsiRSt6vectorISt10unique_ptrI12ActiveObjectSt14default_deleteIS3_EESaIS6_EERS2_I5GraphS4_ISA_EER10MSTFactoryRS2_I4TreeS4_ISG_EEEUlvE3_E21_M_not_empty_functionISK_EEbRKT_
FN:235,_ZNSt14_Function_base13_Base_managerIZ14handleCommandsiRSt6vectorISt10unique_ptrI12ActiveObjectSt14default_deleteIS3_EESaIS6_EERS2_I5GraphS4_ISA_EER10MSTFactoryRS2_I4TreeS4_ISG_EEEUlvE10_E21_M_not_empty_functionISK_EEbRKT_
FN:235,_ZNSt14_Function_base13_Base_managerISt5_BindIFM12LFThreadPoolFviEPS2_mEEE21_M_not_empty_functionIS7_EEbRKT_
FN:235,_ZNSt14_Function_base13_Base_managerIZ14handleCommandsiRSt6vectorISt10unique_ptrI12ActiveObjectSt14default_deleteIS3_EESaIS6_EERS2_I5GraphS4_ISA_EER10MSTFactoryRS2_I4TreeS4_ISG_EEEUlvE0_E21_M_not_empty_functionISK_EEbRKT_
FN:235,_ZNSt14_Function_base13_Base_managerIZ14handleCommandsiRSt6vectorISt10unique_ptrI12ActiveObjectSt14default_deleteIS3_EESaIS6_EERS2_I5GraphS4_ISA_EER10MSTFactoryRS2_I4TreeS4_ISG_EEEUlvE6_E21_M_not_empty_functionISK_EEbRKT_
FN:235,_ZNSt14_Function_base13_Base_managerIZ14handleCommandsiRSt6vectorISt10unique_ptrI12ActiveObjectSt14default_deleteIS3_EESaIS6_EERS2_I5GraphS4_ISA_EER10MSTFactoryRS2_I4TreeS4_ISG_EEEUlvE1_E21_M_not_empty_functionISK_EEbRKT_
FN:235,_ZNSt14_Function_base13_Base_managerIZ14handleCommandsiRSt6vectorISt10unique_ptrI12ActiveObjectSt14default_deleteIS3_EESaIS6_EERS2_I5GraphS4_ISA_EER10MSTFactoryRS2_I4TreeS4_ISG_EEEUlvE9_E21_M_not_empty_functionISK_EEbRKT_
FN:235,_ZNSt14_Function_base13_Base_managerIZ4mainEUliE_E21_M_not_empty_functionIS1_EEbRKT_
FN:235,_ZNSt14_Function_base13_Base_managerIZ14handleCommandsiRSt6vectorISt10unique_ptrI12ActiveObjectSt14default_deleteIS3_EESaIS6_EERS2_I5GraphS4_ISA_EER10MSTFactoryRS2_I4TreeS4_ISG_EEEUlvE4_E21_M_not_empty_functionISK_EEbRKT_
FN:235,_ZNSt14_Function_base13_Base_managerIZ14handleCommandsiRSt6vectorISt10unique_ptrI12ActiveObjectSt14default_deleteIS3_EESaIS6_EERS2_I5GraphS4_ISA_EER10MSTFactoryRS2_I4TreeS4_ISG_EEEUlvE8_E21_M_not_empty_functionISK_EEbRKT_
FN:239,_ZNSt14_Function_baseC2Ev
FN:241,_ZNSt14_Function_baseD2Ev
FN:247,_ZNKSt14_Function_base8_M_emptyEv
FN:267,_ZNSt17_Function_handlerIFvvEZ14handleCommandsiRSt6vectorISt10unique_ptrI12ActiveObjectSt14default_deleteIS3_EESaIS6_EERS2_I5GraphS4_ISA_EER10MSTFactoryRS2_I4TreeS4_ISG_EEEUlvE_E10_M_managerERSt9_Any_dataRKSM_St18_Manager_operation
FN:267,_ZNSt17_Function_handlerIFvvEZ14handleCommandsiRSt6vectorISt10unique_ptrI12ActiveObjectSt14default_deleteIS3_EESaIS6_EERS2_I5GraphS4_ISA_EER10MSTFactoryRS2_I4TreeS4_ISG_EEEUlvE1_E10_M_managerERSt9_Any_dataRKSM_St18_Manager_operation
FN:267,_ZNSt17_Function_handlerIFvvEZ14handleCommandsiRSt6vectorISt10unique_ptrI12ActiveObjectSt14default_deleteIS3_EESaIS6_EERS2_I5GraphS4_ISA_EER10MSTFactoryRS2_I4TreeS4_ISG_EEEUlvE2_E10_M_managerERSt9_Any_dataRKSM_St18_Manager_operation
FN:267,_ZNSt17_Function_handlerIFvvEZ14handleCommandsiRSt6vectorISt10unique_ptrI12ActiveObjectSt14default_deleteIS3_EESaIS6_EERS2_I5GraphS4_ISA_EER10MSTFactoryRS2_I4TreeS4_ISG_EEEUlvE6_E10_M_managerERSt9_Any_dataRKSM_St18_Manager_operation
FN:267,_ZNSt17_Function_handlerIFviEZ4mainEUliE_E10_M_managerERSt9_Any_dataRKS3_St18_Manager_operation
FN:267,_ZNSt17_Function_handlerIFvvEZ14handleCommandsiRSt6vectorISt10unique_ptrI12ActiveObjectSt14default_deleteIS3_EESaIS6_EERS2_I5GraphS4_ISA_EER10MSTFactoryRS2_I4TreeS4_ISG_EEEUlvE10_E10_M_managerERSt9_Any_dataRKSM_St18_Manager_operation
FN:267,_ZNSt17_Function_handlerIFvvEZ14handleCommandsiRSt6vectorISt10unique_ptrI12ActiveObjectSt14default_deleteIS3_EESaIS6_EERS2_I5GraphS4_ISA_EER10MSTFactoryRS2_I4TreeS4_ISG_EEEUlvE0_E10_M_managerERSt9_Any_dataRKSM_St18_Manager_operation
FN:267,_ZNSt17_Function_handlerIFvvEZ14handleCommandsiRSt6vectorISt10unique_ptrI12ActiveObjectSt14default_deleteIS3_EESaIS6_EERS2_I5GraphS4_ISA_EER10MSTFactoryRS2_I4TreeS4_ISG_EEEUlvE3_E10_M_managerERSt9_Any_dataRKSM_St18_Manager_operation
FN:267,_ZNSt17_Function_handlerIFvvESt5_BindIFM12LFThreadPoolFviEPS2_mEEE10_M_managerERSt9_Any_dataRKS9_St18_Manager_operation
FN:267,_ZNSt17_Function_handlerIFvvEZ14handleCommandsiRSt6vectorISt10unique_ptrI12ActiveObjectSt14default_deleteIS3_EESaIS6_EERS2_I5GraphS4_ISA_EER10MSTFactoryRS2_I4TreeS4_ISG_EEEUlvE5_E10_M_managerERSt9_Any_dataRKSM_St18_Manager_operation
FN:267,_ZNSt17_Function_handlerIFvvEZ14handleCommandsiRSt6vectorISt10unique_ptrI12ActiveObjectSt14default_deleteIS3_EESaIS6_EERS2_I5GraphS4_ISA_EER10MSTFactoryRS2_I4TreeS4_ISG_EEEUlvE4_E10_M_managerERSt9_Any_dataRKSM_St18_Manager_operation
FN:267,_ZNSt17_Function_handlerIFvvEZ14handleCommandsiRSt6vectorISt10unique_ptrI12ActiveObjectSt14default_deleteIS3_EESaIS6_EERS2_I5GraphS4_ISA_EER10MSTFactoryRS2_I4TreeS4_ISG_EEEUlvE8_E10_M_managerERSt9_Any_dataRKSM_St18_Manager_operation
FN:267,_ZNSt17_Function_handlerIFvvEZ16acceptConnectioniRSt10unique_ptrI5GraphSt14default_deleteIS2_EER10MSTFactoryRS1_I4TreeS3_IS9_EERS1_I12LFThreadPoolS3_ISD_EEEUlvE_E10_M_managerERSt9_Any_dataRKSJ_St18_Manager_operation
FN:267,_ZNSt17_Function_handlerIFvvEZ4mainEUlvE0_E10_M_managerERSt9_Any_dataRKS3_St18_Manager_operation
FN:267,_ZNSt17_Function_handlerIFvvEZ14handleCommandsiRSt6vectorISt10unique_ptrI12ActiveObjectSt14default_deleteIS3_EESaIS6_EERS2_I5GraphS4_ISA_EER10MSTFactoryRS2_I4TreeS4_ISG_EEEUlvE9_E10_M_managerERSt9_Any_dataRKSM_St18_Manager_operation
FN:288,_ZNSt17_Function_handlerIFvvEZ16acceptConnectioniRSt10unique_ptrI5GraphSt14default_deleteIS2_EER10MSTFactoryRS1_I4TreeS3_IS9_EERS1_I12LFThreadPoolS3_ISD_EEEUlvE_E9_M_invokeERKSt9_Any_data
FN:288,_ZNSt17_Function_handlerIFvvEZ14handleCommandsiRSt6vectorISt10unique_ptrI12ActiveObjectSt14default_deleteIS3_EESaIS6_EERS2_I5GraphS4_ISA_EER10MSTFactoryRS2_I4TreeS4_ISG_EEEUlvE8_E9_M_invokeERKSt9_Any_data
FN:288,_ZNSt17_Function_handlerIFvvEZ14handleCommandsiRSt6vectorISt10unique_ptrI12ActiveObjectSt14default_deleteIS3_EESaIS6_EERS2_I5GraphS4_ISA_EER10MSTFactoryRS2_I4TreeS4_ISG_EEEUlvE1_E9_M_invokeERKSt9_Any_data
FN:288,_ZNSt17_Function_handlerIFvvEZ14handleCommandsiRSt6vectorISt10unique_ptrI12ActiveObjectSt14default_deleteIS3_EESaIS6_EERS2_I5GraphS4_ISA_EER10MSTFactoryRS2_I4TreeS4_ISG_EEEUlvE10_E9_M_invokeERKSt9_Any_data
FN:288,_ZNSt17_Function_handlerIFvvEZ4mainEUlvE0_E9_M_invokeERKSt9_Any_data
FN:288,_ZNSt17_Function_handlerIFvvEZ14handleCommandsiRSt6vectorISt10unique_ptrI12ActiveObjectSt14default_deleteIS3_EESaIS6_EERS2_I5GraphS4_ISA_EER10MSTFactoryRS2_I4TreeS4_ISG_EEEUlvE0_E9_M_invokeERKSt9_Any_data
FN:288,_ZNSt17_Function_handlerIFvvEZ14handleCommandsiRSt6vectorISt10unique_ptrI12ActiveObjectSt14default_deleteIS3_EESaIS6_EERS2_I5GraphS4_ISA_EER10MSTFactoryRS2_I4TreeS4_ISG_EEEUlvE6_E9_M_invokeERKSt9_Any_data
FN:288,_ZNSt17_Function_handlerIFvvEZ14handleCommandsiRSt6vectorISt10unique_ptrI12ActiveObjectSt14default_deleteIS3_EESaIS6_EERS2_I5GraphS4_ISA_EER10MSTFactoryRS2_I4TreeS4_ISG_EEEUlvE9_E9_M_invokeERKSt9_Any_data
FN:288,_ZNSt17_Function_handlerIFvvEZ14handleCommandsiRSt6vectorISt10unique_ptrI12ActiveObjectSt14default_deleteIS3_EESaIS6_EERS2_I5GraphS4_ISA_EER10MSTFactoryRS2_I4TreeS4_ISG_EEEUlvE2_E9_M_invokeERKSt9_Any_data
FN:288,_ZNSt17_Function_handlerIFvvEZ14handleCommandsiRSt6vectorISt10unique_ptrI12ActiveObjectSt14default_deleteIS3_EESaIS6_EERS2_I5GraphS4_ISA_EER10MSTFactoryRS2_I4TreeS4_ISG_EEEUlvE5_E9_M_invokeERKSt9_Any_data
FN:288,_ZNSt17_Function_handlerIFvvEZ14handleCommandsiRSt6vectorISt10unique_ptrI12ActiveObjectSt14default_deleteIS3_EESaIS6_EERS2_I5GraphS4_ISA_EER10MSTFactoryRS2_I4TreeS4_ISG_EEEUlvE3_E9_M_invokeERKSt9_Any_data
FN:288,_ZNSt17_Function_handlerIFvvEZ14handleCommandsiRSt6vectorISt10unique_ptrI12ActiveObjectSt14default_deleteIS3_EESaIS6_EERS2_I5GraphS4_ISA_EER10MSTFactoryRS2_I4TreeS4_ISG_EEEUlvE4_E9_M_invokeERKSt9_Any_data
FN:288,_ZNSt17_Function_handlerIFvvEZ14handleCommandsiRSt6vectorISt10unique_ptrI12ActiveObjectSt14default_deleteIS3_EESaIS6_EERS2_I5GraphS4_ISA_EER10MSTFactoryRS2_I4TreeS4_ISG_EEEUlvE_E9_M_invokeERKSt9_Any_data
FN:288,_ZNSt17_Function_handlerIFvvESt5_BindIFM12LFThreadPoolFviEPS2_mEEE9_M_invokeERKSt9_Any_data
FN:288,_ZNSt17_Function_handlerIFviEZ4mainEUliE_E9_M_invokeERKSt9_Any_dataOi
FN:368,_ZNSt8functionIFvvEEC2Ev
FN:368,_ZNSt8functionIFviEEC2Ev
FN:386,_ZNSt8functionIFvvEEC2ERKS1_
FN:404,_ZNSt8functionIFvvEEC2EOS1_
FN:435,_ZNSt8functionIFvvEEC2IRZ14handleCommandsiRSt6vectorISt10unique_ptrI12ActiveObjectSt14default_deleteIS5_EESaIS8_EERS4_I5GraphS6_ISC_EER10MSTFactoryRS4_I4TreeS6_ISI_EEEUlvE1_vEEOT_
FN:435,_ZNSt8functionIFvvEEC2IRZ14handleCommandsiRSt6vectorISt10unique_ptrI12ActiveObjectSt14default_deleteIS5_EESaIS8_EERS4_I5GraphS6_ISC_EER10MSTFactoryRS4_I4TreeS6_ISI_EEEUlvE5_vEEOT_
FN:435,_ZNSt8functionIFvvEEC2ISt5_BindIFM12LFThreadPoolFviEPS4_mEEvEEOT_
FN:435,_ZNSt8functionIFvvEEC2IZ16acceptConnectioniRSt10unique_ptrI5GraphSt14default_deleteIS4_EER10MSTFactoryRS3_I4TreeS5_ISB_EERS3_I12LFThreadPoolS5_ISF_EEEUlvE_vEEOT_
FN:435,_ZNSt8functionIFvvEEC2IRZ14handleCommandsiRSt6vectorISt10unique_ptrI12ActiveObjectSt14default_deleteIS5_EESaIS8_EERS4_I5GraphS6_ISC_EER10MSTFactoryRS4_I4TreeS6_ISI_EEEUlvE9_vEEOT_
FN:435,_ZNSt8functionIFvvEEC2IRZ14handleCommandsiRSt6vectorISt10unique_ptrI12ActiveObjectSt14default_deleteIS5_EESaIS8_EERS4_I5GraphS6_ISC_EER10MSTFactoryRS4_I4TreeS6_ISI_EEEUlvE3_vEEOT_
FN:435,_ZNSt8functionIFvvEEC2IRZ14handleCommandsiRSt6vectorISt10unique_ptrI12ActiveObjectSt14default_deleteIS5_EESaIS8_EERS4_I5GraphS6_ISC_EER10MSTFactoryRS4_I4TreeS6_ISI_EEEUlvE4_vEEOT_
FN:435,_ZNSt8functionIFvvEEC2IRZ14handleCommandsiRSt6vectorISt10unique_ptrI12ActiveObjectSt14default_deleteIS5_EESaIS8_EERS4_I5GraphS6_ISC_EER10MSTFactoryRS4_I4TreeS6_ISI_EEEUlvE10_vEEOT_
FN:435,_ZNSt8functionIFvvEEC2IRZ14handleCommandsiRSt6vectorISt10unique_ptrI12ActiveObjectSt14default_deleteIS5_EESaIS8_EERS4_I5GraphS6_ISC_EER10MSTFactoryRS4_I4TreeS6_ISI_EEEUlvE6_vEEOT_
FN:435,_ZNSt8functionIFvvEEC2IRZ14handleCommandsiRSt6vectorISt10unique_ptrI12ActiveObjectSt14default_deleteIS5_EESaIS8_EERS4_I5GraphS6_ISC_EER10MSTFactoryRS4_I4TreeS6_ISI_EEEUlvE_vEEOT_
FN:435,_ZNSt8functionIFvvEEC2IZ4mainEUlvE0_vEEOT_
FN:435,_ZNSt8functionIFvvEEC2IRZ14handleCommandsiRSt6vectorISt10unique_ptrI12ActiveObjectSt14default_deleteIS5_EESaIS8_EERS4_I5GraphS6_ISC_EER10MSTFactoryRS4_I4TreeS6_ISI_EEEUlvE0_vEEOT_
FN:435,_ZNSt8functionIFvvEEC2IRZ14handleCommandsiRSt6vectorISt10unique_ptrI12ActiveObjectSt14default_deleteIS5_EESaIS8_EERS4_I5GraphS6_ISC_EER10MSTFactoryRS4_I4TreeS6_ISI_EEEUlvE8_vEEOT_
FN:435,_ZNSt8functionIFvvEEC2IRZ14handleCommandsiRSt6vectorISt10unique_ptrI12ActiveObjectSt14default_deleteIS5_EESaIS8_EERS4_I5GraphS6_ISC_EER10MSTFactoryRS4_I4TreeS6_ISI_EEEUlvE2_vEEOT_
FN:435,_ZNSt8functionIFviEEC2IZ4mainEUliE_vEEOT_
FN:469,_ZNSt8functionIFvvEEaSERKS1_
FN:487,_ZNSt8functionIFvvEEaSEOS1_
FN:530,_ZNSt8functionIFviEEaSIZ4mainEUliE_EENSt9enable_ifIXsrNS1_9_CallableIT_NS4_IXntsrSt7is_sameINSt9remove_cvINSt16remove_referenceIS6_E4typeEE4typeES1_E5valueESt5decayIS6_EE4type4typeESt15__invoke_resultIRSJ_JiEEEE5valueERS1_E4typeEOS6_
FN:555,_ZNSt8functionIFvvEE4swapERS1_
FN:555,_ZNSt8functionIFviEE4swapERS1_
FN:572,_ZNKSt8functionIFvvEEcvbEv
FN:586,_ZNKSt8functionIFviEEclEi
FN:586,_ZNKSt8functionIFvvEEclEv
FNDA:4,_ZNSt14_Function_base13_Base_managerIZ14handleCommandsiRSt6vectorISt10unique_ptrI12ActiveObjectSt14default_deleteIS3_EESaIS6_EERS2_I5GraphS4_ISA_EER10MSTFactoryRS2_I4TreeS4_ISG_EEEUlvE9_E10_M_managerERSt9_Any_dataRKSM_St18_Manager_operation
FNDA:8,_ZNSt14_Function_base13_Base_managerIZ14handleCommandsiRSt6vectorISt10unique_ptrI12ActiveObjectSt14default_deleteIS3_EESaIS6_EERS2_I5GraphS4_ISA_EER10MSTFactoryRS2_I4TreeS4_ISG_EEEUlvE_E14_M_get_pointerERKSt9_Any_data
FNDA:40,_ZNSt9_Any_data9_M_accessIPZ14handleCommandsiRSt6vectorISt10unique_ptrI12ActiveObjectSt14default_deleteIS3_EESaIS6_EERS2_I5GraphS4_ISA_EER10MSTFactoryRS2_I4TreeS4_ISG_EEEUlvE0_EERT_v
FNDA:4,_ZNSt8functionIFvvEEaSERKS1_
FNDA:10,_ZNSt14_Function_base13_Base_managerIZ14handleCommandsiRSt6vectorISt10unique_ptrI12ActiveObjectSt14default_deleteIS3_EESaIS6_EERS2_I5GraphS4_ISA_EER10MSTFactoryRS2_I4TreeS4_ISG_EEEUlvE6_E9_M_createIRSK_EEvRSt9_Any_dataOT_St17integral_constantIbLb0EE
FNDA:0,_ZNSt14_Function_base13_Base_managerIZ14handleCommandsiRSt6vectorISt10unique_ptrI12ActiveObjectSt14default_deleteIS3_EESaIS6_EERS2_I5GraphS4_ISA_EER10MSTFactoryRS2_I4TreeS4_ISG_EEEUlvE3_E15_M_init_functorIRKSK_EEvRSt9_Any_dataOT_
FNDA:4,_ZNSt17_Function_handlerIFvvEZ14handleCommandsiRSt6vectorISt10unique_ptrI12ActiveObjectSt14default_deleteIS3_EESaIS6_EERS2_I5GraphS4_ISA_EER10MSTFactoryRS2_I4TreeS4_ISG_EEEUlvE4_E9_M_invokeERKSt9_Any_data
FNDA:281,_ZNSt14_Function_baseD2Ev
FNDA:8,_ZNSt14_Function_base13_Base_managerIZ14handleCommandsiRSt6vectorISt10unique_ptrI12ActiveObjectSt14default_deleteIS3_EESaIS6_EERS2_I5GraphS4_ISA_EER10MSTFactoryRS2_I4TreeS4_ISG_EEEUlvE_E15_M_init_functorIRSK_EEvRSt9_Any_dataOT_
FNDA:21,_ZNSt14_Function_base13_Base_managerIZ16acceptConnectioniRSt10unique_ptrI5GraphSt14default_deleteIS2_EER10MSTFactoryRS1_I4TreeS3_IS9_EERS1_I12LFThreadPoolS3_ISD_EEEUlvE_E10_M_managerERSt9_Any_dataRKSJ_St18_Manager_operation
FNDA:4,_ZNSt17_Function_handlerIFvvEZ14handleCommandsiRSt6vectorISt10unique_ptrI12ActiveObjectSt14default_deleteIS3_EESaIS6_EERS2_I5GraphS4_ISA_EER10MSTFactoryRS2_I4TreeS4_ISG_EEEUlvE5_E9_M_invokeERKSt9_Any_data
FNDA:4,_ZNSt17_Function_handlerIFvvEZ14handleCommandsiRSt6vectorISt10unique_ptrI12ActiveObjectSt14default_deleteIS3_EESaIS6_EERS2_I5GraphS4_ISA_EER10MSTFactoryRS2_I4TreeS4_ISG_EEEUlvE3_E9_M_invokeERKSt9_Any_data
FNDA:4,_ZNSt17_Function_handlerIFvvEZ14handleCommandsiRSt6vectorISt10unique_ptrI12ActiveObjectSt14default_deleteIS3_EESaIS6_EERS2_I5GraphS4_ISA_EER10MSTFactoryRS2_I4TreeS4_ISG_EEEUlvE3_E10_M_managerERSt9_Any_dataRKSM_St18_Manager_operation
FNDA:10,_ZNSt14_Function_base13_Base_managerIZ14handleCommandsiRSt6vectorISt10unique_ptrI12ActiveObjectSt14default_deleteIS3_EESaIS6_EERS2_I5GraphS4_ISA_EER10MSTFactoryRS2_I4TreeS4_ISG_EEEUlvE6_E21_M_not_empty_functionISK_EEbRKT_
FNDA:1,_ZNSt8functionIFvvEEC2IZ4mainEUlvE0_vEEOT_
FNDA:12,_ZNKSt9_Any_data9_M_accessIPZ16acceptConnectioniRSt10unique_ptrI5GraphSt14default_deleteIS2_EER10MSTFactoryRS1_I4TreeS3_IS9_EERS1_I12LFThreadPoolS3_ISD_EEEUlvE_EERKT_v
FNDA:0,_ZNSt14_Function_base13_Base_managerIZ14handleCommandsiRSt6vectorISt10unique_ptrI12ActiveObjectSt14default_deleteIS3_EESaIS6_EERS2_I5GraphS4_ISA_EER10MSTFactoryRS2_I4TreeS4_ISG_EEEUlvE5_E9_M_createIRKSK_EEvRSt9_Any_dataOT_St17integral_constantIbLb0EE
FNDA:4,_ZNSt14_Function_base13_Base_managerIZ14handleCommandsiRSt6vectorISt10unique_ptrI12ActiveObjectSt14default_deleteIS3_EESaIS6_EERS2_I5GraphS4_ISA_EER10MSTFactoryRS2_I4TreeS4_ISG_EEEUlvE4_E9_M_createIRSK_EEvRSt9_Any_dataOT_St17integral_constantIbLb0EE
FNDA:1,_ZNSt14_Function_base13_Base_managerIZ4mainEUlvE0_E15_M_init_functorIS1_EEvRSt9_Any_dataOT_
FNDA:281,_ZNSt14_Function_baseC2Ev
FNDA:30,_ZNSt17_Function_handlerIFvvESt5_BindIFM12LFThreadPoolFviEPS2_mEEE10_M_managerERSt9_Any_dataRKS9_St18_Manager_operation
FNDA:4,_ZNKSt9_Any_data9_M_accessIPZ14handleCommandsiRSt6vectorISt10unique_ptrI12ActiveObjectSt14default_deleteIS3_EESaIS6_EERS2_I5GraphS4_ISA_EER10MSTFactoryRS2_I4TreeS4_ISG_EEEUlvE9_EERKT_v
FNDA:20,_ZNSt14_Function_base13_Base_managerIZ14handleCommandsiRSt6vectorISt10unique_ptrI12ActiveObjectSt14default_deleteIS3_EESaIS6_EERS2_I5GraphS4_ISA_EER10MSTFactoryRS2_I4TreeS4_ISG_EEEUlvE0_E9_M_createIRSK_EEvRSt9_Any_dataOT_St17integral_constantIbLb0EE
FNDA:0,_ZNSt14_Function_base13_Base_managerIZ14handleCommandsiRSt6vectorISt10unique_ptrI12ActiveObjectSt14default_deleteIS3_EESaIS6_EERS2_I5GraphS4_ISA_EER10MSTFactoryRS2_I4TreeS4_ISG_EEEUlvE10_E9_M_createIRKSK_EEvRSt9_Any_dataOT_St17integral_constantIbLb0EE
FNDA:20,_ZNSt9_Any_data9_M_accessIPZ14handleCommandsiRSt6vectorISt10unique_ptrI12ActiveObjectSt14default_deleteIS3_EESaIS6_EERS2_I5GraphS4_ISA_EER10MSTFactoryRS2_I4TreeS4_ISG_EEEUlvE6_EERT_v
FNDA:183,_ZNKSt14_Function_base8_M_emptyEv
FNDA:0,_ZNSt14_Function_base13_Base_managerIZ14handleCommandsiRSt6vectorISt10unique_ptrI12ActiveObjectSt14default_deleteIS3_EESaIS6_EERS2_I5GraphS4_ISA_EER10MSTFactoryRS2_I4TreeS4_ISG_EEEUlvE9_E15_M_init_functorIRKSK_EEvRSt9_Any_dataOT_
FNDA:4,_ZNKSt9_Any_data9_M_accessIPZ14handleCommandsiRSt6vectorISt10unique_ptrI12ActiveObjectSt14default_deleteIS3_EESaIS6_EERS2_I5GraphS4_ISA_EER10MSTFactoryRS2_I4TreeS4_ISG_EEEUlvE4_EERKT_v
FNDA:8,_ZNSt8functionIFvvEEC2IRZ14handleCommandsiRSt6vectorISt10unique_ptrI12ActiveObjectSt14default_deleteIS5_EESaIS8_EERS4_I5GraphS6_ISC_EER10MSTFactoryRS4_I4TreeS6_ISI_EEEUlvE_vEEOT_
FNDA:20,_ZNSt14_Function_base13_Base_managerIZ14handleCommandsiRSt6vectorISt10unique_ptrI12ActiveObjectSt14default_deleteIS3_EESaIS6_EERS2_I5GraphS4_ISA_EER10MSTFactoryRS2_I4TreeS4_ISG_EEEUlvE0_E10_M_destroyERSt9_Any_dataSt17integral_constantIbLb0EE
FNDA:4,_ZNSt9_Any_data9_M_accessIPZ4mainEUlvE0_EERT_v
FNDA:4,_ZNSt14_Function_base13_Base_managerIZ14handleCommandsiRSt6vectorISt10unique_ptrI12ActiveObjectSt14default_deleteIS3_EESaIS6_EERS2_I5GraphS4_ISA_EER10MSTFactoryRS2_I4TreeS4_ISG_EEEUlvE9_E15_M_init_functorIRSK_EEvRSt9_Any_dataOT_
FNDA:8,_ZNSt14_Function_base13_Base_managerIZ14handleCommandsiRSt6vectorISt10unique_ptrI12ActiveObjectSt14default_deleteIS3_EESaIS6_EERS2_I5GraphS4_ISA_EER10MSTFactoryRS2_I4TreeS4_ISG_EEEUlvE_E9_M_createIRSK_EEvRSt9_Any_dataOT_St17integral_constantIbLb0EE
FNDA:20,_ZNKSt9_Any_data9_M_accessIPSt5_BindIFM12LFThreadPoolFviEPS2_mEEEERKT_v
FNDA:4,_ZNSt17_Function_handlerIFvvEZ14handleCommandsiRSt6vectorISt10unique_ptrI12ActiveObjectSt14default_deleteIS3_EESaIS6_EERS2_I5GraphS4_ISA_EER10MSTFactoryRS2_I4TreeS4_ISG_EEEUlvE9_E9_M_invokeERKSt9_Any_data
FNDA:4,_ZNSt17_Function_handlerIFvvEZ14handleCommandsiRSt6vectorISt10unique_ptrI12ActiveObjectSt14default_deleteIS3_EESaIS6_EERS2_I5GraphS4_ISA_EER10MSTFactoryRS2_I4TreeS4_ISG_EEEUlvE2_E9_M_invokeERKSt9_Any_data
FNDA:20,_ZNKSt9_Any_data9_M_accessIPZ14handleCommandsiRSt6vectorISt10unique_ptrI12ActiveObjectSt14default_deleteIS3_EESaIS6_EERS2_I5GraphS4_ISA_EER10MSTFactoryRS2_I4TreeS4_ISG_EEEUlvE0_EERKT_v
FNDA:20,_ZNSt14_Function_base13_Base_managerIZ14handleCommandsiRSt6vectorISt10unique_ptrI12ActiveObjectSt14default_deleteIS3_EESaIS6_EERS2_I5GraphS4_ISA_EER10MSTFactoryRS2_I4TreeS4_ISG_EEEUlvE0_E21_M_not_empty_functionISK_EEbRKT_
FNDA:4,_ZNSt14_Function_base13_Base_managerIZ14handleCommandsiRSt6vectorISt10unique_ptrI12ActiveObjectSt14default_deleteIS3_EESaIS6_EERS2_I5GraphS4_ISA_EER10MSTFactoryRS2_I4TreeS4_ISG_EEEUlvE4_E10_M_managerERSt9_Any_dataRKSM_St18_Manager_operation
FNDA:10,_ZNSt17_Function_handlerIFvvEZ14handleCommandsiRSt6vectorISt10unique_ptrI12ActiveObjectSt14default_deleteIS3_EESaIS6_EERS2_I5GraphS4_ISA_EER10MSTFactoryRS2_I4TreeS4_ISG_EEEUlvE6_E9_M_invokeERKSt9_Any_data
FNDA:4,_ZNSt14_Function_base13_Base_managerIZ14handleCommandsiRSt6vectorISt10unique_ptrI12ActiveObjectSt14default_deleteIS3_EESaIS6_EERS2_I5GraphS4_ISA_EER10MSTFactoryRS2_I4TreeS4_ISG_EEEUlvE4_E15_M_init_functorIRSK_EEvRSt9_Any_dataOT_
FNDA:4,_ZNSt14_Function_base13_Base_managerIZ14handleCommandsiRSt6vectorISt10unique_ptrI12ActiveObjectSt14default_deleteIS3_EESaIS6_EERS2_I5GraphS4_ISA_EER10MSTFactoryRS2_I4TreeS4_ISG_EEEUlvE10_E10_M_destroyERSt9_Any_dataSt17integral_constantIbLb0EE
FNDA:20,_ZNSt17_Function_handlerIFvvEZ14handleCommandsiRSt6vectorISt10unique_ptrI12ActiveObjectSt14default_deleteIS3_EESaIS6_EERS2_I5GraphS4_ISA_EER10MSTFactoryRS2_I4TreeS4_ISG_EEEUlvE0_E10_M_managerERSt9_Any_dataRKSM_St18_Manager_operation
FNDA:4,_ZNSt14_Function_base13_Base_managerIZ14handleCommandsiRSt6vectorISt10unique_ptrI12ActiveObjectSt14default_deleteIS3_EESaIS6_EERS2_I5GraphS4_ISA_EER10MSTFactoryRS2_I4TreeS4_ISG_EEEUlvE1_E10_M_destroyERSt9_Any_dataSt17integral_constantIbLb0EE
FNDA:10,_ZNSt17_Function_handlerIFvvESt5_BindIFM12LFThreadPoolFviEPS2_mEEE9_M_invokeERKSt9_Any_data
FNDA:4,_ZNSt14_Function_base13_Base_managerIZ14handleCommandsiRSt6vectorISt10unique_ptrI12ActiveObjectSt14default_deleteIS3_EESaIS6_EERS2_I5GraphS4_ISA_EER10MSTFactoryRS2_I4TreeS4_ISG_EEEUlvE4_E21_M_not_empty_functionISK_EEbRKT_
FNDA:0,_ZNSt14_Function_base13_Base_managerIZ14handleCommandsiRSt6vectorISt10unique_ptrI12ActiveObjectSt14default_deleteIS3_EESaIS6_EERS2_I5GraphS4_ISA_EER10MSTFactoryRS2_I4TreeS4_ISG_EEEUlvE4_E9_M_createIRKSK_EEvRSt9_Any_dataOT_St17integral_constantIbLb0EE
FNDA:12,_ZNSt14_Function_base13_Base_managerIZ16acceptConnectioniRSt10unique_ptrI5GraphSt14default_deleteIS2_EER10MSTFactoryRS1_I4TreeS3_IS9_EERS1_I12LFThreadPoolS3_ISD_EEEUlvE_E10_M_destroyERSt9_Any_dataSt17integral_constantIbLb0EE
FNDA:8,_ZNSt14_Function_base13_Base_managerIZ14handleCommandsiRSt6vectorISt10unique_ptrI12ActiveObjectSt14default_deleteIS3_EESaIS6_EERS2_I5GraphS4_ISA_EER10MSTFactoryRS2_I4TreeS4_ISG_EEEUlvE_E10_M_managerERSt9_Any_dataRKSM_St18_Manager_operation
FNDA:21,_ZNSt17_Function_handlerIFvvEZ16acceptConnectioniRSt10unique_ptrI5GraphSt14default_deleteIS2_EER10MSTFactoryRS1_I4TreeS3_IS9_EERS1_I12LFThreadPoolS3_ISD_EEEUlvE_E10_M_managerERSt9_Any_dataRKSJ_St18_Manager_operation
FNDA:20,_ZNSt14_Function_base13_Base_managerIZ14handleCommandsiRSt6vectorISt10unique_ptrI12ActiveObjectSt14default_deleteIS3_EESaIS6_EERS2_I5GraphS4_ISA_EER10MSTFactoryRS2_I4TreeS4_ISG_EEEUlvE0_E10_M_managerERSt9_Any_dataRKSM_St18_Manager_operation
FNDA:3,_ZNSt8functionIFviEE4swapERS1_
FNDA:3,_ZNSt14_Function_base13_Base_managerIZ4mainEUliE_E21_M_not_empty_functionIS1_EEbRKT_
FNDA:0,_ZNSt14_Function_base13_Base_managerIZ14handleCommandsiRSt6vectorISt10unique_ptrI12ActiveObjectSt14default_deleteIS3_EESaIS6_EERS2_I5GraphS4_ISA_EER10MSTFactoryRS2_I4TreeS4_ISG_EEEUlvE0_E15_M_init_functorIRKSK_EEvRSt9_Any_dataOT_
FNDA:92,_ZNKSt8functionIFvvEEcvbEv
FNDA:3,_ZNSt8functionIFviEEC2IZ4mainEUliE_vEEOT_
FNDA:4,_ZNSt17_Function_handlerIFvvEZ14handleCommandsiRSt6vectorISt10unique_ptrI12ActiveObjectSt14default_deleteIS3_EESaIS6_EERS2_I5GraphS4_ISA_EER10MSTFactoryRS2_I4TreeS4_ISG_EEEUlvE9_E10_M_managerERSt9_Any_dataRKSM_St18_Manager_operation
FNDA:6,_ZNSt14_Function_base13_Base_managerIZ14handleCommandsiRSt6vectorISt10unique_ptrI12ActiveObjectSt14default_deleteIS3_EESaIS6_EERS2_I5GraphS4_ISA_EER10MSTFactoryRS2_I4TreeS4_ISG_EEEUlvE8_E21_M_not_empty_functionISK_EEbRKT_
FNDA:4,_ZNSt14_Function_base13_Base_managerIZ14handleCommandsiRSt6vectorISt10unique_ptrI12ActiveObjectSt14default_deleteIS3_EESaIS6_EERS2_I5GraphS4_ISA_EER10MSTFactoryRS2_I4TreeS4_ISG_EEEUlvE1_E15_M_init_functorIRSK_EEvRSt9_Any_dataOT_
FNDA:20,_ZNSt14_Function_base13_Base_managerISt5_BindIFM12LFThreadPoolFviEPS2_mEEE14_M_get_pointerERKSt9_Any_data
FNDA:3,_ZNSt17_Function_handlerIFviEZ4mainEUliE_E9_M_invokeERKSt9_Any_dataOi
FNDA:0,_ZNSt14_Function_base13_Base_managerIZ14handleCommandsiRSt6vectorISt10unique_ptrI12ActiveObjectSt14default_deleteIS3_EESaIS6_EERS2_I5GraphS4_ISA_EER10MSTFactoryRS2_I4TreeS4_ISG_EEEUlvE0_E9_M_createIRKSK_EEvRSt9_Any_dataOT_St17integral_constantIbLb0EE
FNDA:4,_ZNKSt9_Any_data9_M_accessIPZ14handleCommandsiRSt6vectorISt10unique_ptrI12ActiveObjectSt14default_deleteIS3_EESaIS6_EERS2_I5GraphS4_ISA_EER10MSTFactoryRS2_I4TreeS4_ISG_EEEUlvE3_EERKT_v
FNDA:0,_ZNSt14_Function_base13_Base_managerIZ14handleCommandsiRSt6vectorISt10unique_ptrI12ActiveObjectSt14default_deleteIS3_EESaIS6_EERS2_I5GraphS4_ISA_EER10MSTFactoryRS2_I4TreeS4_ISG_EEEUlvE1_E9_M_createIRKSK_EEvRSt9_Any_dataOT_St17integral_constantIbLb0EE
FNDA:4,_ZNSt14_Function_base13_Base_managerIZ14handleCommandsiRSt6vectorISt10unique_ptrI12ActiveObjectSt14default_deleteIS3_EESaIS6_EERS2_I5GraphS4_ISA_EER10MSTFactoryRS2_I4TreeS4_ISG_EEEUlvE3_E14_M_get_pointerERKSt9_Any_data
FNDA:88,_ZNKSt8functionIFvvEEclEv
FNDA:72,_ZNSt8functionIFvvEEaSEOS1_
FNDA:20,_ZNSt8functionIFvvEEC2ERKS1_
FNDA:4,_ZNSt14_Function_base13_Base_managerIZ14handleCommandsiRSt6vectorISt10unique_ptrI12ActiveObjectSt14default_deleteIS3_EESaIS6_EERS2_I5GraphS4_ISA_EER10MSTFactoryRS2_I4TreeS4_ISG_EEEUlvE4_E10_M_destroyERSt9_Any_dataSt17integral_constantIbLb0EE
FNDA:0,_ZNSt14_Function_base13_Base_managerIZ14handleCommandsiRSt6vectorISt10unique_ptrI12ActiveObjectSt14default_deleteIS3_EESaIS6_EERS2_I5GraphS4_ISA_EER10MSTFactoryRS2_I4TreeS4_ISG_EEEUlvE_E9_M_createIRKSK_EEvRSt9_Any_dataOT_St17integral_constantIbLb0EE
FNDA:8,_ZNSt9_Any_data9_M_accessIPZ14handleCommandsiRSt6vectorISt10unique_ptrI12ActiveObjectSt14default_deleteIS3_EESaIS6_EERS2_I5GraphS4_ISA_EER10MSTFactoryRS2_I4TreeS4_ISG_EEEUlvE3_EERT_v
FNDA:3,_ZNSt17_Function_handlerIFvvEZ4mainEUlvE0_E10_M_managerERSt9_Any_dataRKS3_St18_Manager_operation
FNDA:10,_ZNSt14_Function_base13_Base_managerISt5_BindIFM12LFThreadPoolFviEPS2_mEEE15_M_init_functorIRKS7_EEvRSt9_Any_dataOT_
FNDA:4,_ZNSt14_Function_base13_Base_managerIZ14handleCommandsiRSt6vectorISt10unique_ptrI12ActiveObjectSt14default_deleteIS3_EESaIS6_EERS2_I5GraphS4_ISA_EER10MSTFactoryRS2_I4TreeS4_ISG_EEEUlvE5_E10_M_destroyERSt9_Any_dataSt17integral_constantIbLb0EE
FNDA:97,_ZNSt8functionIFvvEEC2Ev
FNDA:10,_ZNSt14_Function_base13_Base_managerISt5_BindIFM12LFThreadPoolFviEPS2_mEEE9_M_createIRKS7_EEvRSt9_Any_dataOT_St17integral_constantIbLb0EE
FNDA:3,_ZNSt14_Function_base13_Base_managerIZ4mainEUliE_E10_M_destroyERSt9_Any_dataSt17integral_constantIbLb0EE
FNDA:3,_ZNSt14_Function_base13_Base_managerIZ4mainEUliE_E9_M_createIS1_EEvRSt9_Any_dataOT_St17integral_constantIbLb0EE
FNDA:0,_ZNSt14_Function_base13_Base_managerIZ14handleCommandsiRSt6vectorISt10unique_ptrI12ActiveObjectSt14default_deleteIS3_EESaIS6_EERS2_I5GraphS4_ISA_EER10MSTFactoryRS2_I4TreeS4_ISG_EEEUlvE_E15_M_init_functorIRKSK_EEvRSt9_Any_dataOT_
FNDA:20,_ZNSt8functionIFvvEEC2IRZ14handleCommandsiRSt6vectorISt10unique_ptrI12ActiveObjectSt14default_deleteIS5_EESaIS8_EERS4_I5GraphS6_ISC_EER10MSTFactoryRS4_I4TreeS6_ISI_EEEUlvE0_vEEOT_
FNDA:0,_ZNSt14_Function_base13_Base_managerIZ14handleCommandsiRSt6vectorISt10unique_ptrI12ActiveObjectSt14default_deleteIS3_EESaIS6_EERS2_I5GraphS4_ISA_EER10MSTFactoryRS2_I4TreeS4_ISG_EEEUlvE6_E9_M_createIRKSK_EEvRSt9_Any_dataOT_St17integral_constantIbLb0EE
FNDA:4,_ZNSt14_Function_base13_Base_managerIZ14handleCommandsiRSt6vectorISt10unique_ptrI12ActiveObjectSt14default_deleteIS3_EESaIS6_EERS2_I5GraphS4_ISA_EER10MSTFactoryRS2_I4TreeS4_ISG_EEEUlvE1_E14_M_get_pointerERKSt9_Any_data
FNDA:8,_ZNSt9_Any_data9_M_accessIPZ14handleCommandsiRSt6vectorISt10unique_ptrI12ActiveObjectSt14default_deleteIS3_EESaIS6_EERS2_I5GraphS4_ISA_EER10MSTFactoryRS2_I4TreeS4_ISG_EEEUlvE1_EERT_v
FNDA:4,_ZNSt17_Function_handlerIFvvEZ14handleCommandsiRSt6vectorISt10unique_ptrI12ActiveObjectSt14default_deleteIS3_EESaIS6_EERS2_I5GraphS4_ISA_EER10MSTFactoryRS2_I4TreeS4_ISG_EEEUlvE5_E10_M_managerERSt9_Any_dataRKSM_St18_Manager_operation
FNDA:10,_ZNSt14_Function_base13_Base_managerISt5_BindIFM12LFThreadPoolFviEPS2_mEEE15_M_init_functorIS7_EEvRSt9_Any_dataOT_
FNDA:4,_ZNSt14_Function_base13_Base_managerIZ14handleCommandsiRSt6vectorISt10unique_ptrI12ActiveObjectSt14default_deleteIS3_EESaIS6_EERS2_I5GraphS4_ISA_EER10MSTFactoryRS2_I4TreeS4_ISG_EEEUlvE5_E14_M_get_pointerERKSt9_Any_data
FNDA:4,_ZNSt14_Function_base13_Base_managerIZ14handleCommandsiRSt6vectorISt10unique_ptrI12ActiveObjectSt14default_deleteIS3_EESaIS6_EERS2_I5GraphS4_ISA_EER10MSTFactoryRS2_I4TreeS4_ISG_EEEUlvE5_E9_M_createIRSK_EEvRSt9_Any_dataOT_St17integral_constantIbLb0EE
FNDA:8,_ZNSt17_Function_handlerIFvvEZ14handleCommandsiRSt6vectorISt10unique_ptrI12ActiveObjectSt14default_deleteIS3_EESaIS6_EERS2_I5GraphS4_ISA_EER10MSTFactoryRS2_I4TreeS4_ISG_EEEUlvE_E9_M_invokeERKSt9_Any_data
FNDA:4,_ZNSt14_Function_base13_Base_managerIZ14handleCommandsiRSt6vectorISt10unique_ptrI12ActiveObjectSt14default_deleteIS3_EESaIS6_EERS2_I5GraphS4_ISA_EER10MSTFactoryRS2_I4TreeS4_ISG_EEEUlvE1_E21_M_not_empty_functionISK_EEbRKT_
FNDA:8,_ZNKSt9_Any_data9_M_accessIPZ14handleCommandsiRSt6vectorISt10unique_ptrI12ActiveObjectSt14default_deleteIS3_EESaIS6_EERS2_I5GraphS4_ISA_EER10MSTFactoryRS2_I4TreeS4_ISG_EEEUlvE_EERKT_v
FNDA:6,_ZNSt17_Function_handlerIFvvEZ14handleCommandsiRSt6vectorISt10unique_ptrI12ActiveObjectSt14default_deleteIS3_EESaIS6_EERS2_I5GraphS4_ISA_EER10MSTFactoryRS2_I4TreeS4_ISG_EEEUlvE8_E10_M_managerERSt9_Any_dataRKSM_St18_Manager_operation
FNDA:1,_ZNSt14_Function_base13_Base_managerIZ4mainEUlvE0_E9_M_createIS1_EEvRSt9_Any_dataOT_St17integral_constantIbLb0EE
FNDA:3,_ZNSt14_Function_base13_Base_managerIZ16acceptConnectioniRSt10unique_ptrI5GraphSt14default_deleteIS2_EER10MSTFactoryRS1_I4TreeS3_IS9_EERS1_I12LFThreadPoolS3_ISD_EEEUlvE_E15_M_init_functorISH_EEvRSt9_Any_dataOT_
FNDA:4,_ZNSt14_Function_base13_Base_managerIZ14handleCommandsiRSt6vectorISt10unique_ptrI12ActiveObjectSt14default_deleteIS3_EESaIS6_EERS2_I5GraphS4_ISA_EER10MSTFactoryRS2_I4TreeS4_ISG_EEEUlvE3_E10_M_managerERSt9_Any_dataRKSM_St18_Manager_operation
FNDA:4,_ZNSt8functionIFvvEEC2IRZ14handleCommandsiRSt6vectorISt10unique_ptrI12ActiveObjectSt14default_deleteIS5_EESaIS8_EERS4_I5GraphS6_ISC_EER10MSTFactoryRS4_I4TreeS6_ISI_EEEUlvE2_vEEOT_
FNDA:4,_ZNKSt9_Any_data9_M_accessIPZ14handleCommandsiRSt6vectorISt10unique_ptrI12ActiveObjectSt14default_deleteIS3_EESaIS6_EERS2_I5GraphS4_ISA_EER10MSTFactoryRS2_I4TreeS4_ISG_EEEUlvE5_EERKT_v
FNDA:12,_ZNSt9_Any_data9_M_accessIPZ14handleCommandsiRSt6vectorISt10unique_ptrI12ActiveObjectSt14default_deleteIS3_EESaIS6_EERS2_I5GraphS4_ISA_EER10MSTFactoryRS2_I4TreeS4_ISG_EEEUlvE8_EERT_v
FNDA:9,_ZNSt14_Function_base13_Base_managerIZ16acceptConnectioniRSt10unique_ptrI5GraphSt14default_deleteIS2_EER10MSTFactoryRS1_I4TreeS3_IS9_EERS1_I12LFThreadPoolS3_ISD_EEEUlvE_E15_M_init_functorIRKSH_EEvRSt9_Any_dataOT_
FNDA:3,_ZNSt14_Function_base13_Base_managerIZ4mainEUlvE0_E10_M_managerERSt9_Any_dataRKS3_St18_Manager_operation
FNDA:4,_ZNSt17_Function_handlerIFvvEZ14handleCommandsiRSt6vectorISt10unique_ptrI12ActiveObjectSt14default_deleteIS3_EESaIS6_EERS2_I5GraphS4_ISA_EER10MSTFactoryRS2_I4TreeS4_ISG_EEEUlvE4_E10_M_managerERSt9_Any_dataRKSM_St18_Manager_operation
FNDA:3,_ZNSt8functionIFviEEC2Ev
FNDA:8,_ZNSt14_Function_base13_Base_managerIZ14handleCommandsiRSt6vectorISt10unique_ptrI12ActiveObjectSt14default_deleteIS3_EESaIS6_EERS2_I5GraphS4_ISA_EER10MSTFactoryRS2_I4TreeS4_ISG_EEEUlvE_E10_M_destroyERSt9_Any_dataSt17integral_constantIbLb0EE
FNDA:4,_ZNSt14_Function_base13_Base_managerIZ14handleCommandsiRSt6vectorISt10unique_ptrI12ActiveObjectSt14default_deleteIS3_EESaIS6_EERS2_I5GraphS4_ISA_EER10MSTFactoryRS2_I4TreeS4_ISG_EEEUlvE3_E10_M_destroyERSt9_Any_dataSt17integral_constantIbLb0EE
FNDA:72,_ZNSt8functionIFvvEEC2EOS1_
FNDA:4,_ZNSt14_Function_base13_Base_managerIZ14handleCommandsiRSt6vectorISt10unique_ptrI12ActiveObjectSt14default_deleteIS3_EESaIS6_EERS2_I5GraphS4_ISA_EER10MSTFactoryRS2_I4TreeS4_ISG_EEEUlvE9_E21_M_not_empty_functionISK_EEbRKT_
FNDA:6,_ZNSt8functionIFvvEEC2IRZ14handleCommandsiRSt6vectorISt10unique_ptrI12ActiveObjectSt14default_deleteIS5_EESaIS8_EERS4_I5GraphS6_ISC_EER10MSTFactoryRS4_I4TreeS6_ISI_EEEUlvE8_vEEOT_
FNDA:4,_ZNSt14_Function_base13_Base_managerIZ14handleCommandsiRSt6vectorISt10unique_ptrI12ActiveObjectSt14default_deleteIS3_EESaIS6_EERS2_I5GraphS4_ISA_EER10MSTFactoryRS2_I4TreeS4_ISG_EEEUlvE10_E15_M_init_functorIRSK_EEvRSt9_Any_dataOT_
FNDA:4,_ZNSt17_Function_handlerIFvvEZ14handleCommandsiRSt6vectorISt10unique_ptrI12ActiveObjectSt14default_deleteIS3_EESaIS6_EERS2_I5GraphS4_ISA_EER10MSTFactoryRS2_I4TreeS4_ISG_EEEUlvE1_E9_M_invokeERKSt9_Any_data
FNDA:3,_ZNSt8functionIFvvEEC2IZ16acceptConnectioniRSt10unique_ptrI5GraphSt14default_deleteIS4_EER10MSTFactoryRS3_I4TreeS5_ISB_EERS3_I12LFThreadPoolS5_ISF_EEEUlvE_vEEOT_
FNDA:4,_ZNSt8functionIFvvEEC2IRZ14handleCommandsiRSt6vectorISt10unique_ptrI12ActiveObjectSt14default_deleteIS5_EESaIS8_EERS4_I5GraphS6_ISC_EER10MSTFactoryRS4_I4TreeS6_ISI_EEEUlvE9_vEEOT_
FNDA:4,_ZNSt14_Function_base13_Base_managerIZ14handleCommandsiRSt6vectorISt10unique_ptrI12ActiveObjectSt14default_deleteIS3_EESaIS6_EERS2_I5GraphS4_ISA_EER10MSTFactoryRS2_I4TreeS4_ISG_EEEUlvE9_E9_M_createIRSK_EEvRSt9_Any_dataOT_St17integral_constantIbLb0EE
FNDA:8,_ZNSt14_Function_base13_Base_managerIZ14handleCommandsiRSt6vectorISt10unique_ptrI12ActiveObjectSt14default_deleteIS3_EESaIS6_EERS2_I5GraphS4_ISA_EER10MSTFactoryRS2_I4TreeS4_ISG_EEEUlvE_E21_M_not_empty_functionISK_EEbRKT_
FNDA:1,_ZNSt14_Function_base13_Base_managerIZ4mainEUlvE0_E15_M_init_functorIRKS1_EEvRSt9_Any_dataOT_
FNDA:4,_ZNSt14_Function_base13_Base_managerIZ14handleCommandsiRSt6vectorISt10unique_ptrI12ActiveObjectSt14default_deleteIS3_EESaIS6_EERS2_I5GraphS4_ISA_EER10MSTFactoryRS2_I4TreeS4_ISG_EEEUlvE2_E9_M_createIRSK_EEvRSt9_Any_dataOT_St17integral_constantIbLb0EE
FNDA:8,_ZNSt17_Function_handlerIFvvEZ14handleCommandsiRSt6vectorISt10unique_ptrI12ActiveObjectSt14default_deleteIS3_EESaIS6_EERS2_I5GraphS4_ISA_EER10MSTFactoryRS2_I4TreeS4_ISG_EEEUlvE_E10_M_managerERSt9_Any_dataRKSM_St18_Manager_operation
FNDA:111,_ZNKSt9_Any_data9_M_accessEv
FNDA:10,_ZNSt8functionIFvvEEC2ISt5_BindIFM12LFThreadPoolFviEPS4_mEEvEEOT_
FNDA:4,_ZNSt14_Function_base13_Base_managerIZ14handleCommandsiRSt6vectorISt10unique_ptrI12ActiveObjectSt14default_deleteIS3_EESaIS6_EERS2_I5GraphS4_ISA_EER10MSTFactoryRS2_I4TreeS4_ISG_EEEUlvE3_E9_M_createIRSK_EEvRSt9_Any_dataOT_St17integral_constantIbLb0EE
FNDA:8,_ZNSt9_Any_data9_M_accessIPZ14handleCommandsiRSt6vectorISt10unique_ptrI12ActiveObjectSt14default_deleteIS3_EESaIS6_EERS2_I5GraphS4_ISA_EER10MSTFactoryRS2_I4TreeS4_ISG_EEEUlvE4_EERT_v
FNDA:4,_ZNSt14_Function_base13_Base_managerIZ14handleCommandsiRSt6vectorISt10unique_ptrI12ActiveObjectSt14default_deleteIS3_EESaIS6_EERS2_I5GraphS4_ISA_EER10MSTFactoryRS2_I4TreeS4_ISG_EEEUlvE1_E9_M_createIRSK_EEvRSt9_Any_dataOT_St17integral_constantIbLb0EE
FNDA:4,_ZNSt14_Function_base13_Base_managerIZ14handleCommandsiRSt6vectorISt10unique_ptrI12ActiveObjectSt14default_deleteIS3_EESaIS6_EERS2_I5GraphS4_ISA_EER10MSTFactoryRS2_I4TreeS4_ISG_EEEUlvE3_E15_M_init_functorIRSK_EEvRSt9_Any_dataOT_
FNDA:4,_ZNSt17_Function_handlerIFvvEZ14handleCommandsiRSt6vectorISt10unique_ptrI12ActiveObjectSt14default_deleteIS3_EESaIS6_EERS2_I5GraphS4_ISA_EER10MSTFactoryRS2_I4TreeS4_ISG_EEEUlvE2_E10_M_managerERSt9_Any_dataRKSM_St18_Manager_operation
FNDA:4,_ZNSt14_Function_base13_Base_managerIZ14handleCommandsiRSt6vectorISt10unique_ptrI12ActiveObjectSt14default_deleteIS3_EESaIS6_EERS2_I5GraphS4_ISA_EER10MSTFactoryRS2_I4TreeS4_ISG_EEEUlvE5_E21_M_not_empty_functionISK_EEbRKT_
FNDA:4,_ZNSt17_Function_handlerIFvvEZ14handleCommandsiRSt6vectorISt10unique_ptrI12ActiveObjectSt14default_deleteIS3_EESaIS6_EERS2_I5GraphS4_ISA_EER10MSTFactoryRS2_I4TreeS4_ISG_EEEUlvE10_E9_M_invokeERKSt9_Any_data
FNDA:4,_ZNSt17_Function_handlerIFvvEZ14handleCommandsiRSt6vectorISt10unique_ptrI12ActiveObjectSt14default_deleteIS3_EESaIS6_EERS2_I5GraphS4_ISA_EER10MSTFactoryRS2_I4TreeS4_ISG_EEEUlvE1_E10_M_managerERSt9_Any_dataRKSM_St18_Manager_operation
FNDA:0,_ZNSt14_Function_base13_Base_managerIZ14handleCommandsiRSt6vectorISt10unique_ptrI12ActiveObjectSt14default_deleteIS3_EESaIS6_EERS2_I5GraphS4_ISA_EER10MSTFactoryRS2_I4TreeS4_ISG_EEEUlvE8_E15_M_init_functorIRKSK_EEvRSt9_Any_dataOT_
FNDA:3,_ZNSt17_Function_handlerIFvvEZ4mainEUlvE0_E9_M_invokeERKSt9_Any_data
FNDA:6,_ZNSt14_Function_base13_Base_managerIZ14handleCommandsiRSt6vectorISt10unique_ptrI12ActiveObjectSt14default_deleteIS3_EESaIS6_EERS2_I5GraphS4_ISA_EER10MSTFactoryRS2_I4TreeS4_ISG_EEEUlvE8_E14_M_get_pointerERKSt9_Any_data
FNDA:2,_ZNSt14_Function_base13_Base_managerIZ4mainEUlvE0_E10_M_destroyERSt9_Any_dataSt17integral_constantIbLb0EE
FNDA:4,_ZNSt14_Function_base13_Base_managerIZ14handleCommandsiRSt6vectorISt10unique_ptrI12ActiveObjectSt14default_deleteIS3_EESaIS6_EERS2_I5GraphS4_ISA_EER10MSTFactoryRS2_I4TreeS4_ISG_EEEUlvE5_E10_M_managerERSt9_Any_dataRKSM_St18_Manager_operation
FNDA:4,_ZNKSt9_Any_data9_M_accessIPZ14handleCommandsiRSt6vectorISt10unique_ptrI12ActiveObjectSt14default_deleteIS3_EESaIS6_EERS2_I5GraphS4_ISA_EER10MSTFactoryRS2_I4TreeS4_ISG_EEEUlvE1_EERKT_v
FNDA:1,_ZNSt14_Function_base13_Base_managerIZ4mainEUlvE0_E21_M_not_empty_functionIS1_EEbRKT_
FNDA:10,_ZNSt14_Function_base13_Base_managerIZ14handleCommandsiRSt6vectorISt10unique_ptrI12ActiveObjectSt14default_deleteIS3_EESaIS6_EERS2_I5GraphS4_ISA_EER10MSTFactoryRS2_I4TreeS4_ISG_EEEUlvE6_E10_M_managerERSt9_Any_dataRKSM_St18_Manager_operation
FNDA:0,_ZNSt14_Function_base13_Base_managerIZ14handleCommandsiRSt6vectorISt10unique_ptrI12ActiveObjectSt14default_deleteIS3_EESaIS6_EERS2_I5GraphS4_ISA_EER10MSTFactoryRS2_I4TreeS4_ISG_EEEUlvE8_E9_M_createIRKSK_EEvRSt9_Any_dataOT_St17integral_constantIbLb0EE
FNDA:16,_ZNSt9_Any_data9_M_accessIPZ14handleCommandsiRSt6vectorISt10unique_ptrI12ActiveObjectSt14default_deleteIS3_EESaIS6_EERS2_I5GraphS4_ISA_EER10MSTFactoryRS2_I4TreeS4_ISG_EEEUlvE_EERT_v
FNDA:6,_ZNKSt9_Any_data9_M_accessIPZ14handleCommandsiRSt6vectorISt10unique_ptrI12ActiveObjectSt14default_deleteIS3_EESaIS6_EERS2_I5GraphS4_ISA_EER10MSTFactoryRS2_I4TreeS4_ISG_EEEUlvE8_EERKT_v
FNDA:4,_ZNSt8functionIFvvEEC2IRZ14handleCommandsiRSt6vectorISt10unique_ptrI12ActiveObjectSt14default_deleteIS5_EESaIS8_EERS4_I5GraphS6_ISC_EER10MSTFactoryRS4_I4TreeS6_ISI_EEEUlvE1_vEEOT_
FNDA:3,_ZNSt17_Function_handlerIFvvEZ16acceptConnectioniRSt10unique_ptrI5GraphSt14default_deleteIS2_EER10MSTFactoryRS1_I4TreeS3_IS9_EERS1_I12LFThreadPoolS3_ISD_EEEUlvE_E9_M_invokeERKSt9_Any_data
FNDA:4,_ZNSt8functionIFvvEEC2IRZ14handleCommandsiRSt6vectorISt10unique_ptrI12ActiveObjectSt14default_deleteIS5_EESaIS8_EERS4_I5GraphS6_ISC_EER10MSTFactoryRS4_I4TreeS6_ISI_EEEUlvE5_vEEOT_
FNDA:4,_ZNKSt9_Any_data9_M_accessIPZ14handleCommandsiRSt6vectorISt10unique_ptrI12ActiveObjectSt14default_deleteIS3_EESaIS6_EERS2_I5GraphS4_ISA_EER10MSTFactoryRS2_I4TreeS4_ISG_EEEUlvE2_EERKT_v
FNDA:4,_ZNSt14_Function_base13_Base_managerIZ14handleCommandsiRSt6vectorISt10unique_ptrI12ActiveObjectSt14default_deleteIS3_EESaIS6_EERS2_I5GraphS4_ISA_EER10MSTFactoryRS2_I4TreeS4_ISG_EEEUlvE2_E10_M_destroyERSt9_Any_dataSt17integral_constantIbLb0EE
FNDA:4,_ZNSt14_Function_base13_Base_managerIZ14handleCommandsiRSt6vectorISt10unique_ptrI12ActiveObjectSt14default_deleteIS3_EESaIS6_EERS2_I5GraphS4_ISA_EER10MSTFactoryRS2_I4TreeS4_ISG_EEEUlvE10_E10_M_managerERSt9_Any_dataRKSM_St18_Manager_operation
FNDA:4,_ZNKSt9_Any_data9_M_accessIPZ4mainEUlvE0_EERKT_v
FNDA:6,_ZNSt14_Function_base13_Base_managerIZ14handleCommandsiRSt6vectorISt10unique_ptrI12ActiveObjectSt14default_deleteIS3_EESaIS6_EERS2_I5GraphS4_ISA_EER10MSTFactoryRS2_I4TreeS4_ISG_EEEUlvE8_E10_M_managerERSt9_Any_dataRKSM_St18_Manager_operation
FNDA:0,_ZNSt14_Function_base13_Base_managerIZ4mainEUliE_E9_M_createIRKS1_EEvRSt9_Any_dataOT_St17integral_constantIbLb0EE
FNDA:4,_ZNSt14_Function_base13_Base_managerIZ14handleCommandsiRSt6vectorISt10unique_ptrI12ActiveObjectSt14default_deleteIS3_EESaIS6_EERS2_I5GraphS4_ISA_EER10MSTFactoryRS2_I4TreeS4_ISG_EEEUlvE2_E15_M_init_functorIRSK_EEvRSt9_Any_dataOT_
FNDA:0,_ZNSt9_Any_data9_M_accessIPKSt9type_infoEERT_v
FNDA:3,_ZNSt8functionIFviEEaSIZ4mainEUliE_EENSt9enable_ifIXsrNS1_9_CallableIT_NS4_IXntsrSt7is_sameINSt9remove_cvINSt16remove_referenceIS6_E4typeEE4typeES1_E5valueESt5decayIS6_EE4type4typeESt15__invoke_resultIRSJ_JiEEEE5valueERS1_E4typeEOS6_
FNDA:6,_ZNSt17_Function_handlerIFvvEZ14handleCommandsiRSt6vectorISt10unique_ptrI12ActiveObjectSt14default_deleteIS3_EESaIS6_EERS2_I5GraphS4_ISA_EER10MSTFactoryRS2_I4TreeS4_ISG_EEEUlvE8_E9_M_invokeERKSt9_Any_data
FNDA:4,_ZNSt14_Function_base13_Base_managerIZ14handleCommandsiRSt6vectorISt10unique_ptrI12ActiveObjectSt14default_deleteIS3_EESaIS6_EERS2_I5GraphS4_ISA_EER10MSTFactoryRS2_I4TreeS4_ISG_EEEUlvE2_E14_M_get_pointerERKSt9_Any_data
FNDA:4,_ZNSt14_Function_base13_Base_managerIZ14handleCommandsiRSt6vectorISt10unique_ptrI12ActiveObjectSt14default_deleteIS3_EESaIS6_EERS2_I5GraphS4_ISA_EER10MSTFactoryRS2_I4TreeS4_ISG_EEEUlvE4_E14_M_get_pointerERKSt9_Any_data
FNDA:10,_ZNSt14_Function_base13_Base_managerIZ14handleCommandsiRSt6vectorISt10unique_ptrI12ActiveObjectSt14default_deleteIS3_EESaIS6_EERS2_I5GraphS4_ISA_EER10MSTFactoryRS2_I4TreeS4_ISG_EEEUlvE6_E14_M_get_pointerERKSt9_Any_data
FNDA:4,_ZNSt14_Function_base13_Base_managerIZ14handleCommandsiRSt6vectorISt10unique_ptrI12ActiveObjectSt14default_deleteIS3_EESaIS6_EERS2_I5GraphS4_ISA_EER10MSTFactoryRS2_I4TreeS4_ISG_EEEUlvE10_E21_M_not_empty_functionISK_EEbRKT_
FNDA:4,_ZNSt14_Function_base13_Base_managerIZ14handleCommandsiRSt6vectorISt10unique_ptrI12ActiveObjectSt14default_deleteIS3_EESaIS6_EERS2_I5GraphS4_ISA_EER10MSTFactoryRS2_I4TreeS4_ISG_EEEUlvE10_E9_M_createIRSK_EEvRSt9_Any_dataOT_St17integral_constantIbLb0EE
FNDA:3,_ZNSt17_Function_handlerIFviEZ4mainEUliE_E10_M_managerERSt9_Any_dataRKS3_St18_Manager_operation
FNDA:20,_ZNSt14_Function_base13_Base_managerIZ14handleCommandsiRSt6vectorISt10unique_ptrI12ActiveObjectSt14default_deleteIS3_EESaIS6_EERS2_I5GraphS4_ISA_EER10MSTFactoryRS2_I4TreeS4_ISG_EEEUlvE0_E15_M_init_functorIRSK_EEvRSt9_Any_dataOT_
FNDA:4,_ZNSt14_Function_base13_Base_managerIZ14handleCommandsiRSt6vectorISt10unique_ptrI12ActiveObjectSt14default_deleteIS3_EESaIS6_EERS2_I5GraphS4_ISA_EER10MSTFactoryRS2_I4TreeS4_ISG_EEEUlvE1_E10_M_managerERSt9_Any_dataRKSM_St18_Manager_operation
FNDA:4,_ZNSt14_Function_base13_Base_managerIZ14handleCommandsiRSt6vectorISt10unique_ptrI12ActiveObjectSt14default_deleteIS3_EESaIS6_EERS2_I5GraphS4_ISA_EER10MSTFactoryRS2_I4TreeS4_ISG_EEEUlvE5_E15_M_init_functorIRSK_EEvRSt9_Any_dataOT_
FNDA:4,_ZNSt14_Function_base13_Base_managerIZ14handleCommandsiRSt6vectorISt10unique_ptrI12ActiveObjectSt14default_deleteIS3_EESaIS6_EERS2_I5GraphS4_ISA_EER10MSTFactoryRS2_I4TreeS4_ISG_EEEUlvE9_E10_M_destroyERSt9_Any_dataSt17integral_constantIbLb0EE
FNDA:0,_ZNSt14_Function_base13_Base_managerIZ14handleCommandsiRSt6vectorISt10unique_ptrI12ActiveObjectSt14default_deleteIS3_EESaIS6_EERS2_I5GraphS4_ISA_EER10MSTFactoryRS2_I4TreeS4_ISG_EEEUlvE3_E9_M_createIRKSK_EEvRSt9_Any_dataOT_St17integral_constantIbLb0EE
FNDA:3,_ZNSt14_Function_base13_Base_managerIZ4mainEUliE_E10_M_managerERSt9_Any_dataRKS3_St18_Manager_operation
FNDA:3,_ZNKSt8functionIFviEEclEi
FNDA:8,_ZNSt9_Any_data9_M_accessIPZ14handleCommandsiRSt6vectorISt10unique_ptrI12ActiveObjectSt14default_deleteIS3_EESaIS6_EERS2_I5GraphS4_ISA_EER10MSTFactoryRS2_I4TreeS4_ISG_EEEUlvE9_EERT_v
FNDA:10,_ZNSt14_Function_base13_Base_managerISt5_BindIFM12LFThreadPoolFviEPS2_mEEE21_M_not_empty_functionIS7_EEbRKT_
FNDA:4,_ZNSt17_Function_handlerIFvvEZ14handleCommandsiRSt6vectorISt10unique_ptrI12ActiveObjectSt14default_deleteIS3_EESaIS6_EERS2_I5GraphS4_ISA_EER10MSTFactoryRS2_I4TreeS4_ISG_EEEUlvE10_E10_M_managerERSt9_Any_dataRKSM_St18_Manager_operation
FNDA:0,_ZNSt14_Function_base13_Base_managerIZ14handleCommandsiRSt6vectorISt10unique_ptrI12ActiveObjectSt14default_deleteIS3_EESaIS6_EERS2_I5GraphS4_ISA_EER10MSTFactoryRS2_I4TreeS4_ISG_EEEUlvE10_E15_M_init_functorIRKSK_EEvRSt9_Any_dataOT_
FNDA:20,_ZNSt14_Function_base13_Base_managerIZ14handleCommandsiRSt6vectorISt10unique_ptrI12ActiveObjectSt14default_deleteIS3_EESaIS6_EERS2_I5GraphS4_ISA_EER10MSTFactoryRS2_I4TreeS4_ISG_EEEUlvE0_E14_M_get_pointerERKSt9_Any_data
FNDA:6,_ZNSt14_Function_base13_Base_managerIZ14handleCommandsiRSt6vectorISt10unique_ptrI12ActiveObjectSt14default_deleteIS3_EESaIS6_EERS2_I5GraphS4_ISA_EER10MSTFactoryRS2_I4TreeS4_ISG_EEEUlvE8_E9_M_createIRSK_EEvRSt9_Any_dataOT_St17integral_constantIbLb0EE
FNDA:8,_ZNSt9_Any_data9_M_accessIPZ14handleCommandsiRSt6vectorISt10unique_ptrI12ActiveObjectSt14default_deleteIS3_EESaIS6_EERS2_I5GraphS4_ISA_EER10MSTFactoryRS2_I4TreeS4_ISG_EEEUlvE2_EERT_v
FNDA:12,_ZNSt14_Function_base13_Base_managerIZ16acceptConnectioniRSt10unique_ptrI5GraphSt14default_deleteIS2_EER10MSTFactoryRS1_I4TreeS3_IS9_EERS1_I12LFThreadPoolS3_ISD_EEEUlvE_E14_M_get_pointerERKSt9_Any_data
FNDA:0,_ZNSt14_Function_base13_Base_managerIZ14handleCommandsiRSt6vectorISt10unique_ptrI12ActiveObjectSt14default_deleteIS3_EESaIS6_EERS2_I5GraphS4_ISA_EER10MSTFactoryRS2_I4TreeS4_ISG_EEEUlvE6_E15_M_init_functorIRKSK_EEvRSt9_Any_dataOT_
FNDA:6,_ZNSt14_Function_base13_Base_managerIZ14handleCommandsiRSt6vectorISt10unique_ptrI12ActiveObjectSt14default_deleteIS3_EESaIS6_EERS2_I5GraphS4_ISA_EER10MSTFactoryRS2_I4TreeS4_ISG_EEEUlvE8_E10_M_destroyERSt9_Any_dataSt17integral_constantIbLb0EE
FNDA:20,_ZNSt14_Function_base13_Base_managerISt5_BindIFM12LFThreadPoolFviEPS2_mEEE10_M_destroyERSt9_Any_dataSt17integral_constantIbLb0EE
FNDA:6,_ZNSt14_Function_base13_Base_managerIZ14handleCommandsiRSt6vectorISt10unique_ptrI12ActiveObjectSt14default_deleteIS3_EESaIS6_EERS2_I5GraphS4_ISA_EER10MSTFactoryRS2_I4TreeS4_ISG_EEEUlvE8_E15_M_init_functorIRSK_EEvRSt9_Any_dataOT_
FNDA:0,_ZNSt14_Function_base13_Base_managerIZ14handleCommandsiRSt6vectorISt10unique_ptrI12ActiveObjectSt14default_deleteIS3_EESaIS6_EERS2_I5GraphS4_ISA_EER10MSTFactoryRS2_I4TreeS4_ISG_EEEUlvE5_E15_M_init_functorIRKSK_EEvRSt9_Any_dataOT_
FNDA:3,_ZNKSt9_Any_data9_M_accessIPZ4mainEUliE_EERKT_v
FNDA:40,_ZNSt9_Any_data9_M_accessIPSt5_BindIFM12LFThreadPoolFviEPS2_mEEEERT_v
FNDA:3,_ZNSt14_Function_base13_Base_managerIZ16acceptConnectioniRSt10unique_ptrI5GraphSt14default_deleteIS2_EER10MSTFactoryRS1_I4TreeS3_IS9_EERS1_I12LFThreadPoolS3_ISD_EEEUlvE_E21_M_not_empty_functionISH_EEbRKT_
FNDA:9,_ZNSt14_Function_base13_Base_managerIZ16acceptConnectioniRSt10unique_ptrI5GraphSt14default_deleteIS2_EER10MSTFactoryRS1_I4TreeS3_IS9_EERS1_I12LFThreadPoolS3_ISD_EEEUlvE_E9_M_createIRKSH_EEvRSt9_Any_dataOT_St17integral_constantIbLb0EE
FNDA:4,_ZNSt14_Function_base13_Base_managerIZ14handleCommandsiRSt6vectorISt10unique_ptrI12ActiveObjectSt14default_deleteIS3_EESaIS6_EERS2_I5GraphS4_ISA_EER10MSTFactoryRS2_I4TreeS4_ISG_EEEUlvE2_E21_M_not_empty_functionISK_EEbRKT_
FNDA:8,_ZNSt9_Any_data9_M_accessIPZ14handleCommandsiRSt6vectorISt10unique_ptrI12ActiveObjectSt14default_deleteIS3_EESaIS6_EERS2_I5GraphS4_ISA_EER10MSTFactoryRS2_I4TreeS4_ISG_EEEUlvE5_EERT_v
FNDA:4,_ZNSt14_Function_base13_Base_managerIZ14handleCommandsiRSt6vectorISt10unique_ptrI12ActiveObjectSt14default_deleteIS3_EESaIS6_EERS2_I5GraphS4_ISA_EER10MSTFactoryRS2_I4TreeS4_ISG_EEEUlvE2_E10_M_managerERSt9_Any_dataRKSM_St18_Manager_operation
FNDA:20,_ZNSt17_Function_handlerIFvvEZ14handleCommandsiRSt6vectorISt10unique_ptrI12ActiveObjectSt14default_deleteIS3_EESaIS6_EERS2_I5GraphS4_ISA_EER10MSTFactoryRS2_I4TreeS4_ISG_EEEUlvE0_E9_M_invokeERKSt9_Any_data
FNDA:0,_ZNSt14_Function_base13_Base_managerIZ14handleCommandsiRSt6vectorISt10unique_ptrI12ActiveObjectSt14default_deleteIS3_EESaIS6_EERS2_I5GraphS4_ISA_EER10MSTFactoryRS2_I4TreeS4_ISG_EEEUlvE2_E15_M_init_functorIRKSK_EEvRSt9_Any_dataOT_
FNDA:4,_ZNSt14_Function_base13_Base_managerIZ4mainEUlvE0_E14_M_get_pointerERKSt9_Any_data
FNDA:3,_ZNSt14_Function_base13_Base_managerIZ4mainEUliE_E14_M_get_pointerERKSt9_Any_data
FNDA:4,_ZNSt8functionIFvvEEC2IRZ14handleCommandsiRSt6vectorISt10unique_ptrI12ActiveObjectSt14default_deleteIS5_EESaIS8_EERS4_I5GraphS6_ISC_EER10MSTFactoryRS4_I4TreeS6_ISI_EEEUlvE3_vEEOT_
FNDA:30,_ZNSt14_Function_base13_Base_managerISt5_BindIFM12LFThreadPoolFviEPS2_mEEE10_M_managerERSt9_Any_dataRKS9_St18_Manager_operation
FNDA:0,_ZNSt14_Function_base13_Base_managerIZ14handleCommandsiRSt6vectorISt10unique_ptrI12ActiveObjectSt14default_deleteIS3_EESaIS6_EERS2_I5GraphS4_ISA_EER10MSTFactoryRS2_I4TreeS4_ISG_EEEUlvE2_E9_M_createIRKSK_EEvRSt9_Any_dataOT_St17integral_constantIbLb0EE
FNDA:10,_ZNSt14_Function_base13_Base_managerIZ14handleCommandsiRSt6vectorISt10unique_ptrI12ActiveObjectSt14default_deleteIS3_EESaIS6_EERS2_I5GraphS4_ISA_EER10MSTFactoryRS2_I4TreeS4_ISG_EEEUlvE6_E10_M_destroyERSt9_Any_dataSt17integral_constantIbLb0EE
FNDA:4,_ZNSt14_Function_base13_Base_managerIZ14handleCommandsiRSt6vectorISt10unique_ptrI12ActiveObjectSt14default_deleteIS3_EESaIS6_EERS2_I5GraphS4_ISA_EER10MSTFactoryRS2_I4TreeS4_ISG_EEEUlvE10_E14_M_get_pointerERKSt9_Any_data
FNDA:0,_ZNSt14_Function_base13_Base_managerIZ14handleCommandsiRSt6vectorISt10unique_ptrI12ActiveObjectSt14default_deleteIS3_EESaIS6_EERS2_I5GraphS4_ISA_EER10MSTFactoryRS2_I4TreeS4_ISG_EEEUlvE4_E15_M_init_functorIRKSK_EEvRSt9_Any_dataOT_
FNDA:10,_ZNSt14_Function_base13_Base_managerIZ14handleCommandsiRSt6vectorISt10unique_ptrI12ActiveObjectSt14default_deleteIS3_EESaIS6_EERS2_I5GraphS4_ISA_EER10MSTFactoryRS2_I4TreeS4_ISG_EEEUlvE6_E15_M_init_functorIRSK_EEvRSt9_Any_dataOT_
FNDA:4,_ZNSt14_Function_base13_Base_managerIZ14handleCommandsiRSt6vectorISt10unique_ptrI12ActiveObjectSt14default_deleteIS3_EESaIS6_EERS2_I5GraphS4_ISA_EER10MSTFactoryRS2_I4TreeS4_ISG_EEEUlvE9_E14_M_get_pointerERKSt9_Any_data
FNDA:0,_ZNSt14_Function_base13_Base_managerIZ14handleCommandsiRSt6vectorISt10unique_ptrI12ActiveObjectSt14default_deleteIS3_EESaIS6_EERS2_I5GraphS4_ISA_EER10MSTFactoryRS2_I4TreeS4_ISG_EEEUlvE1_E15_M_init_functorIRKSK_EEvRSt9_Any_dataOT_
FNDA:6,_ZNSt9_Any_data9_M_accessIPZ4mainEUliE_EERT_v
FNDA:10,_ZNSt8functionIFvvEEC2IRZ14handleCommandsiRSt6vectorISt10unique_ptrI12ActiveObjectSt14default_deleteIS5_EESaIS8_EERS4_I5GraphS6_ISC_EER10MSTFactoryRS4_I4TreeS6_ISI_EEEUlvE6_vEEOT_
FNDA:1,_ZNSt14_Function_base13_Base_managerIZ4mainEUlvE0_E9_M_createIRKS1_EEvRSt9_Any_dataOT_St17integral_constantIbLb0EE
FNDA:4,_ZNSt14_Function_base13_Base_managerIZ14handleCommandsiRSt6vectorISt10unique_ptrI12ActiveObjectSt14default_deleteIS3_EESaIS6_EERS2_I5GraphS4_ISA_EER10MSTFactoryRS2_I4TreeS4_ISG_EEEUlvE3_E21_M_not_empty_functionISK_EEbRKT_
FNDA:3,_ZNSt14_Function_base13_Base_managerIZ16acceptConnectioniRSt10unique_ptrI5GraphSt14default_deleteIS2_EER10MSTFactoryRS1_I4TreeS3_IS9_EERS1_I12LFThreadPoolS3_ISD_EEEUlvE_E9_M_createISH_EEvRSt9_Any_dataOT_St17integral_constantIbLb0EE
FNDA:218,_ZNSt9_Any_data9_M_accessEv
FNDA:76,_ZNSt8functionIFvvEE4swapERS1_
FNDA:4,_ZNSt8functionIFvvEEC2IRZ14handleCommandsiRSt6vectorISt10unique_ptrI12ActiveObjectSt14default_deleteIS5_EESaIS8_EERS4_I5GraphS6_ISC_EER10MSTFactoryRS4_I4TreeS6_ISI_EEEUlvE4_vEEOT_
FNDA:10,_ZNKSt9_Any_data9_M_accessIPZ14handleCommandsiRSt6vectorISt10unique_ptrI12ActiveObjectSt14default_deleteIS3_EESaIS6_EERS2_I5GraphS4_ISA_EER10MSTFactoryRS2_I4TreeS4_ISG_EEEUlvE6_EERKT_v
FNDA:4,_ZNSt8functionIFvvEEC2IRZ14handleCommandsiRSt6vectorISt10unique_ptrI12ActiveObjectSt14default_deleteIS5_EESaIS8_EERS4_I5GraphS6_ISC_EER10MSTFactoryRS4_I4TreeS6_ISI_EEEUlvE10_vEEOT_
FNDA:4,_ZNKSt9_Any_data9_M_accessIPZ14handleCommandsiRSt6vectorISt10unique_ptrI12ActiveObjectSt14default_deleteIS3_EESaIS6_EERS2_I5GraphS4_ISA_EER10MSTFactoryRS2_I4TreeS4_ISG_EEEUlvE10_EERKT_v
FNDA:8,_ZNSt9_Any_data9_M_accessIPZ14handleCommandsiRSt6vectorISt10unique_ptrI12ActiveObjectSt14default_deleteIS3_EESaIS6_EERS2_I5GraphS4_ISA_EER10MSTFactoryRS2_I4TreeS4_ISG_EEEUlvE10_EERT_v
FNDA:24,_ZNSt9_Any_data9_M_accessIPZ16acceptConnectioniRSt10unique_ptrI5GraphSt14default_deleteIS2_EER10MSTFactoryRS1_I4TreeS3_IS9_EERS1_I12LFThreadPoolS3_ISD_EEEUlvE_EERT_v
FNDA:0,_ZNSt14_Function_base13_Base_managerIZ4mainEUliE_E15_M_init_functorIRKS1_EEvRSt9_Any_dataOT_
FNDA:0,_ZNSt14_Function_base13_Base_managerIZ14handleCommandsiRSt6vectorISt10unique_ptrI12ActiveObjectSt14default_deleteIS3_EESaIS6_EERS2_I5GraphS4_ISA_EER10MSTFactoryRS2_I4TreeS4_ISG_EEEUlvE9_E9_M_createIRKSK_EEvRSt9_Any_dataOT_St17integral_constantIbLb0EE
FNDA:10,_ZNSt14_Function_base13_Base_managerISt5_BindIFM12LFThreadPoolFviEPS2_mEEE9_M_createIS7_EEvRSt9_Any_dataOT_St17integral_constantIbLb0EE
FNDA:3,_ZNSt14_Function_base13_Base_managerIZ4mainEUliE_E15_M_init_functorIS1_EEvRSt9_Any_dataOT_
FNDA:10,_ZNSt17_Function_handlerIFvvEZ14handleCommandsiRSt6vectorISt10unique_ptrI12ActiveObjectSt14default_deleteIS3_EESaIS6_EERS2_I5GraphS4_ISA_EER10MSTFactoryRS2_I4TreeS4_ISG_EEEUlvE6_E10_M_managerERSt9_Any_dataRKSM_St18_Manager_operation
FNF:213
FNH:188
DA:85,218
DA:86,111
DA:90,218
DA:91,218
DA:95,111
DA:96,111
DA:134,111
DA:142,111
DA:158,109
DA:160,109
DA:161,109
DA:162,109
DA:173,109
DA:175,109
DA:176,109
DA:180,129
DA:183,129
DA:185,0
DA:187,0
DA:191,0
DA:193,0
DA:194,0
DA:195,0
DA:197,20
DA:198,20
DA:199,20
DA:200,20
DA:202,109
DA:203,109
DA:204,109
DA:206,129
DA:211,109
DA:215,109
DA:216,109
DA:235,89
DA:236,89
DA:239,281
DA:241,281
DA:243,281
DA:244,109
DA:245,281
DA:247,183
DA:267,129
DA:270,129
DA:273,0
DA:274,0
DA:275,0
DA:277,0
DA:278,0
DA:279,0
DA:281,129
DA:282,129
DA:284,129
DA:288,91
DA:290,91
DA:291,90
DA:368,100
DA:369,100
DA:386,20
DA:387,20
DA:389,20
DA:391,20
DA:392,20
DA:393,20
DA:395,20
DA:404,72
DA:405,72
DA:407,72
DA:409,72
DA:410,72
DA:411,72
DA:412,72
DA:414,72
DA:435,89
DA:437,89
DA:447,89
DA:449,89
DA:451,89
DA:452,89
DA:454,89
DA:469,4
DA:471,4
DA:472,4
DA:487,72
DA:489,72
DA:490,72
DA:530,3
DA:533,3
DA:534,3
DA:555,79
DA:557,79
DA:558,79
DA:559,79
DA:560,79
DA:572,92
DA:573,92
DA:586,91
DA:588,91
DA:589,0
DA:590,91
LF:100
LH:87
end_of_record
TN:
SF:/usr/include/c++/11/bits/std_mutex.h
FN:65,_ZNSt12__mutex_baseC2Ev
FN:91,_ZNSt5mutexC2Ev
FN:98,_ZNSt5mutex4lockEv
FN:108,_ZNSt5mutex8try_lockEv
FN:115,_ZNSt5mutex6unlockEv
FN:228,_ZNSt10lock_guardISt5mutexEC2ERS0_
FN:234,_ZNSt10lock_guardISt5mutexED2Ev
FNDA:14,_ZNSt10lock_guardISt5mutexED2Ev
FNDA:14,_ZNSt10lock_guardISt5mutexEC2ERS0_
FNDA:609,_ZNSt5mutex4lockEv
FNDA:25,_ZNSt5mutexC2Ev
FNDA:627,_ZNSt5mutex6unlockEv
FNDA:25,_ZNSt12__mutex_baseC2Ev
FNDA:23,_ZNSt5mutex8try_lockEv
FNF:7
FNH:7
DA:65,25
DA:91,25
DA:98,609
DA:100,609
DA:103,609
DA:104,0
DA:105,609
DA:108,23
DA:111,23
DA:115,627
DA:118,627
DA:119,627
DA:228,14
DA:229,14
DA:234,14
DA:235,14
LF:16
LH:15
end_of_record
TN:
SF:/usr/include/c++/11/bits/std_thread.h
FN:86,_ZNSt6thread2idC2Ev
FN:89,_ZNSt6thread2idC2Em
FN:127,_ZNSt6threadC2IM12ActiveObjectFvvEJPS1_EvEEOT_DpOT0_
FN:149,_ZNSt6threadD2Ev
FN:175,_ZNKSt6thread8joinableEv
FN:206,_ZNSt6thread11_State_implINS_8_InvokerISt5tupleIJM12ActiveObjectFvvEPS3_EEEEEC2IJS5_S6_EEEDpOT_
FN:211,_ZNSt6thread11_State_implINS_8_InvokerISt5tupleIJM12ActiveObjectFvvEPS3_EEEEE6_M_runEv
FN:243,_ZNSt6thread8_InvokerISt5tupleIJM12ActiveObjectFvvEPS2_EEEC2IJS4_S5_EEEDpOT_
FN:258,_ZNSt6thread8_InvokerISt5tupleIJM12ActiveObjectFvvEPS2_EEE9_M_invokeIJLm0ELm1EEEEvSt12_Index_tupleIJXspT_EEE
FN:262,_ZNSt6thread8_InvokerISt5tupleIJM12ActiveObjectFvvEPS2_EEEclEv
FN:287,_ZSteqNSt6thread2idES0_
FN:313,_ZNSt11this_thread6get_idEv
FNDA:14,_ZNSt6thread8_InvokerISt5tupleIJM12ActiveObjectFvvEPS2_EEE9_M_invokeIJLm0ELm1EEEEvSt12_Index_tupleIJXspT_EEE
FNDA:14,_ZNSt6thread11_State_implINS_8_InvokerISt5tupleIJM12ActiveObjectFvvEPS3_EEEEE6_M_runEv
FNDA:14,_ZNSt6thread11_State_implINS_8_InvokerISt5tupleIJM12ActiveObjectFvvEPS3_EEEEEC2IJS5_S6_EEEDpOT_
FNDA:8,_ZNSt11this_thread6get_idEv
FNDA:14,_ZNKSt6thread8joinableEv
FNDA:14,_ZNSt6thread8_InvokerISt5tupleIJM12ActiveObjectFvvEPS2_EEEclEv
FNDA:14,_ZNSt6threadC2IM12ActiveObjectFvvEJPS1_EvEEOT_DpOT0_
FNDA:36,_ZNSt6thread2idC2Ev
FNDA:8,_ZNSt6thread2idC2Em
FNDA:14,_ZNSt6threadD2Ev
FNDA:14,_ZNSt6thread8_InvokerISt5tupleIJM12ActiveObjectFvvEPS2_EEEC2IJS4_S5_EEEDpOT_
FNDA:22,_ZSteqNSt6thread2idES0_
FNF:12
FNH:12
DA:86,36
DA:89,8
DA:127,14
DA:128,14
DA:138,14
DA:143,14
DA:144,14
DA:146,14
DA:149,14
DA:151,14
DA:152,0
DA:153,14
DA:175,14
DA:176,14
DA:206,14
DA:207,14
DA:208,14
DA:211,14
DA:243,14
DA:244,14
DA:245,14
DA:258,14
DA:259,14
DA:262,14
DA:266,14
DA:287,22
DA:293,22
DA:313,8
DA:318,8
LF:29
LH:28
end_of_record
TN:
SF:/usr/include/c++/11/bits/stl_algo.h
FN:79,_ZSt22__move_median_to_firstIN9__gnu_cxx17__normal_iteratorIP4EdgeSt6vectorIS2_SaIS2_EEEENS0_5__ops15_Iter_comp_iterIZN15KruskalStrategy7findMSTERK5GraphEUlS2_S2_E_EEEvT_SG_SG_SG_T0_
FN:1116,_ZSt9__reverseIN9__gnu_cxx17__normal_iteratorIPiSt6vectorIiSaIiEEEEEvT_S7_St26random_access_iterator_tag
FN:1145,_ZSt7reverseIN9__gnu_cxx17__normal_iteratorIPiSt6vectorIiSaIiEEEEEvT_S7_
FN:1642,_ZSt13__heap_selectIN9__gnu_cxx17__normal_iteratorIP4EdgeSt6vectorIS2_SaIS2_EEEENS0_5__ops15_Iter_comp_iterIZN15KruskalStrategy7findMSTERK5GraphEUlS2_S2_E_EEEvT_SG_SG_T0_
FN:1799,_ZSt25__unguarded_linear_insertIN9__gnu_cxx17__normal_iteratorIP4EdgeSt6vectorIS2_SaIS2_EEEENS0_5__ops14_Val_comp_iterIZN15KruskalStrategy7findMSTERK5GraphEUlS2_S2_E_EEEvT_T0_
FN:1819,_ZSt16__insertion_sortIN9__gnu_cxx17__normal_iteratorIP4EdgeSt6vectorIS2_SaIS2_EEEENS0_5__ops15_Iter_comp_iterIZN15KruskalStrategy7findMSTERK5GraphEUlS2_S2_E_EEEvT_SG_T0_
FN:1843,_ZSt26__unguarded_insertion_sortIN9__gnu_cxx17__normal_iteratorIP4EdgeSt6vectorIS2_SaIS2_EEEENS0_5__ops15_Iter_comp_iterIZN15KruskalStrategy7findMSTERK5GraphEUlS2_S2_E_EEEvT_SG_T0_
FN:1861,_ZSt22__final_insertion_sortIN9__gnu_cxx17__normal_iteratorIP4EdgeSt6vectorIS2_SaIS2_EEEENS0_5__ops15_Iter_comp_iterIZN15KruskalStrategy7findMSTERK5GraphEUlS2_S2_E_EEEvT_SG_T0_
FN:1878,_ZSt21__unguarded_partitionIN9__gnu_cxx17__normal_iteratorIP4EdgeSt6vectorIS2_SaIS2_EEEENS0_5__ops15_Iter_comp_iterIZN15KruskalStrategy7findMSTERK5GraphEUlS2_S2_E_EEET_SG_SG_SG_T0_
FN:1900,_ZSt27__unguarded_partition_pivotIN9__gnu_cxx17__normal_iteratorIP4EdgeSt6vectorIS2_SaIS2_EEEENS0_5__ops15_Iter_comp_iterIZN15KruskalStrategy7findMSTERK5GraphEUlS2_S2_E_EEET_SG_SG_T0_
FN:1912,_ZSt14__partial_sortIN9__gnu_cxx17__normal_iteratorIP4EdgeSt6vectorIS2_SaIS2_EEEENS0_5__ops15_Iter_comp_iterIZN15KruskalStrategy7findMSTERK5GraphEUlS2_S2_E_EEEvT_SG_SG_T0_
FN:1925,_ZSt16__introsort_loopIN9__gnu_cxx17__normal_iteratorIP4EdgeSt6vectorIS2_SaIS2_EEEElNS0_5__ops15_Iter_comp_iterIZN15KruskalStrategy7findMSTERK5GraphEUlS2_S2_E_EEEvT_SG_T0_T1_
FN:1949,_ZSt6__sortIN9__gnu_cxx17__normal_iteratorIP4EdgeSt6vectorIS2_SaIS2_EEEENS0_5__ops15_Iter_comp_iterIZN15KruskalStrategy7findMSTERK5GraphEUlS2_S2_E_EEEvT_SG_T0_
FN:4863,_ZSt4sortIN9__gnu_cxx17__normal_iteratorIP4EdgeSt6vectorIS2_SaIS2_EEEEZN15KruskalStrategy7findMSTERK5GraphEUlS2_S2_E_EvT_SD_T0_
FNDA:6,_ZSt16__introsort_loopIN9__gnu_cxx17__normal_iteratorIP4EdgeSt6vectorIS2_SaIS2_EEEElNS0_5__ops15_Iter_comp_iterIZN15KruskalStrategy7findMSTERK5GraphEUlS2_S2_E_EEEvT_SG_T0_T1_
FNDA:0,_ZSt21__unguarded_partitionIN9__gnu_cxx17__normal_iteratorIP4EdgeSt6vectorIS2_SaIS2_EEEENS0_5__ops15_Iter_comp_iterIZN15KruskalStrategy7findMSTERK5GraphEUlS2_S2_E_EEET_SG_SG_SG_T0_
FNDA:11,_ZSt25__unguarded_linear_insertIN9__gnu_cxx17__normal_iteratorIP4EdgeSt6vectorIS2_SaIS2_EEEENS0_5__ops14_Val_comp_iterIZN15KruskalStrategy7findMSTERK5GraphEUlS2_S2_E_EEEvT_T0_
FNDA:6,_ZSt22__final_insertion_sortIN9__gnu_cxx17__normal_iteratorIP4EdgeSt6vectorIS2_SaIS2_EEEENS0_5__ops15_Iter_comp_iterIZN15KruskalStrategy7findMSTERK5GraphEUlS2_S2_E_EEEvT_SG_T0_
FNDA:0,_ZSt26__unguarded_insertion_sortIN9__gnu_cxx17__normal_iteratorIP4EdgeSt6vectorIS2_SaIS2_EEEENS0_5__ops15_Iter_comp_iterIZN15KruskalStrategy7findMSTERK5GraphEUlS2_S2_E_EEEvT_SG_T0_
FNDA:6,_ZSt9__reverseIN9__gnu_cxx17__normal_iteratorIPiSt6vectorIiSaIiEEEEEvT_S7_St26random_access_iterator_tag
FNDA:0,_ZSt13__heap_selectIN9__gnu_cxx17__normal_iteratorIP4EdgeSt6vectorIS2_SaIS2_EEEENS0_5__ops15_Iter_comp_iterIZN15KruskalStrategy7findMSTERK5GraphEUlS2_S2_E_EEEvT_SG_SG_T0_
FNDA:6,_ZSt7reverseIN9__gnu_cxx17__normal_iteratorIPiSt6vectorIiSaIiEEEEEvT_S7_
FNDA:6,_ZSt16__insertion_sortIN9__gnu_cxx17__normal_iteratorIP4EdgeSt6vectorIS2_SaIS2_EEEENS0_5__ops15_Iter_comp_iterIZN15KruskalStrategy7findMSTERK5GraphEUlS2_S2_E_EEEvT_SG_T0_
FNDA:0,_ZSt27__unguarded_partition_pivotIN9__gnu_cxx17__normal_iteratorIP4EdgeSt6vectorIS2_SaIS2_EEEENS0_5__ops15_Iter_comp_iterIZN15KruskalStrategy7findMSTERK5GraphEUlS2_S2_E_EEET_SG_SG_T0_
FNDA:0,_ZSt14__partial_sortIN9__gnu_cxx17__normal_iteratorIP4EdgeSt6vectorIS2_SaIS2_EEEENS0_5__ops15_Iter_comp_iterIZN15KruskalStrategy7findMSTERK5GraphEUlS2_S2_E_EEEvT_SG_SG_T0_
FNDA:6,_ZSt6__sortIN9__gnu_cxx17__normal_iteratorIP4EdgeSt6vectorIS2_SaIS2_EEEENS0_5__ops15_Iter_comp_iterIZN15KruskalStrategy7findMSTERK5GraphEUlS2_S2_E_EEEvT_SG_T0_
FNDA:0,_ZSt22__move_median_to_firstIN9__gnu_cxx17__normal_iteratorIP4EdgeSt6vectorIS2_SaIS2_EEEENS0_5__ops15_Iter_comp_iterIZN15KruskalStrategy7findMSTERK5GraphEUlS2_S2_E_EEEvT_SG_SG_SG_T0_
FNDA:6,_ZSt4sortIN9__gnu_cxx17__normal_iteratorIP4EdgeSt6vectorIS2_SaIS2_EEEEZN15KruskalStrategy7findMSTERK5GraphEUlS2_S2_E_EvT_SD_T0_
FNF:14
FNH:8
DA:79,0
DA:82,0
DA:84,0
DA:85,0
DA:86,0
DA:87,0
DA:89,0
DA:91,0
DA:92,0
DA:93,0
DA:94,0
DA:96,0
DA:97,0
DA:1116,6
DA:1119,6
DA:1120,0
DA:1121,6
DA:1122,18
DA:1124,12
DA:1125,12
DA:1126,12
DA:1145,6
DA:1151,6
DA:1152,6
DA:1642,0
DA:1646,0
DA:1647,0
DA:1648,0
DA:1649,0
DA:1650,0
DA:1799,11
DA:1803,11
DA:1804,11
DA:1805,11
DA:1806,24
DA:1808,13
DA:1809,13
DA:1810,13
DA:1812,11
DA:1813,11
DA:1819,6
DA:1822,6
DA:1824,27
DA:1826,21
DA:1829,10
DA:1830,10
DA:1831,10
DA:1834,11
DA:1843,0
DA:1846,0
DA:1847,0
DA:1849,0
DA:1861,6
DA:1864,6
DA:1866,0
DA:1867,0
DA:1871,6
DA:1872,6
DA:1878,0
DA:1884,0
DA:1885,0
DA:1886,0
DA:1887,0
DA:1888,0
DA:1889,0
DA:1890,0
DA:1891,0
DA:1892,0
DA:1900,0
DA:1903,0
DA:1904,0
DA:1906,0
DA:1912,0
DA:1917,0
DA:1918,0
DA:1919,0
DA:1925,6
DA:1929,6
DA:1931,0
DA:1933,0
DA:1934,0
DA:1936,0
DA:1938,0
DA:1939,0
DA:1940,0
DA:1949,6
DA:1952,6
DA:1954,6
DA:1955,6
DA:1957,6
DA:1959,6
DA:4863,6
DA:4875,6
DA:4876,6
LF:94
LH:43
end_of_record
TN:
SF:/usr/include/c++/11/bits/stl_algobase.h
FN:152,_ZSt9iter_swapIN9__gnu_cxx17__normal_iteratorIPiSt6vectorIiSaIiEEEES6_EvT_T0_
FN:152,_ZSt9iter_swapIN9__gnu_cxx17__normal_iteratorIP4EdgeSt6vectorIS2_SaIS2_EEEES7_EvT_T0_
FN:230,_ZSt3minImERKT_S2_S2_
FN:254,_ZSt3maxImERKT_S2_S2_
FN:254,_ZSt3maxIiERKT_S2_S2_
FN:313,_ZSt12__niter_baseIPiET_S1_
FN:313,_ZSt12__niter_baseIPSt4pairIiiEET_S3_
FN:313,_ZSt12__niter_baseIPSt6vectorI4EdgeSaIS1_EEET_S5_
FN:313,_ZSt12__niter_baseISt19_Bit_const_iteratorET_S1_
FN:313,_ZSt12__niter_baseIPSt6vectorIiSaIiEEET_S4_
FN:313,_ZSt12__niter_baseIP4EdgeET_S2_
FN:313,_ZSt12__niter_baseIPPSt8functionIFvvEEET_S5_
FN:313,_ZSt12__niter_baseIPSt10unique_ptrI12ActiveObjectSt14default_deleteIS1_EEET_S6_
FN:313,_ZSt12__niter_baseISt13_Bit_iteratorET_S1_
FN:313,_ZSt12__niter_baseIPmET_S1_
FN:328,_ZSt12__niter_wrapIN9__gnu_cxx17__normal_iteratorIPiSt6vectorIiSaIiEEEES2_ET_S7_T0_
FN:328,_ZSt12__niter_wrapIN9__gnu_cxx17__normal_iteratorIP4EdgeSt6vectorIS2_SaIS2_EEEES3_ET_S8_T0_
FN:335,_ZSt12__niter_wrapIPmET_RKS1_S1_
FN:335,_ZSt12__niter_wrapIP4EdgeET_RKS2_S2_
FN:335,_ZSt12__niter_wrapIPPSt8functionIFvvEEET_RKS5_S5_
FN:335,_ZSt12__niter_wrapIPiET_RKS1_S1_
FN:335,_ZSt12__niter_wrapIPSt6vectorIiSaIiEEET_RKS4_S4_
FN:335,_ZSt12__niter_wrapISt13_Bit_iteratorET_RKS1_S1_
FN:380,_ZNSt11__copy_moveILb0ELb0ESt26random_access_iterator_tagE8__copy_mISt19_Bit_const_iteratorSt13_Bit_iteratorEET0_T_S6_S5_
FN:420,_ZNSt11__copy_moveILb1ELb1ESt26random_access_iterator_tagE8__copy_mImEEPT_PKS3_S6_S4_
FN:420,_ZNSt11__copy_moveILb0ELb1ESt26random_access_iterator_tagE8__copy_mI4EdgeEEPT_PKS4_S7_S5_
FN:420,_ZNSt11__copy_moveILb0ELb1ESt26random_access_iterator_tagE8__copy_mImEEPT_PKS3_S6_S4_
FN:420,_ZNSt11__copy_moveILb0ELb1ESt26random_access_iterator_tagE8__copy_mIiEEPT_PKS3_S6_S4_
FN:420,_ZNSt11__copy_moveILb0ELb1ESt26random_access_iterator_tagE8__copy_mIPSt8functionIFvvEEEEPT_PKS7_SA_S8_
FN:486,_ZSt14__copy_move_a2ILb0EPPSt8functionIFvvEES4_ET1_T0_S6_S5_
FN:486,_ZSt14__copy_move_a2ILb0EPK4EdgePS0_ET1_T0_S5_S4_
FN:486,_ZSt14__copy_move_a2ILb1EPmS0_ET1_T0_S2_S1_
FN:486,_ZSt14__copy_move_a2ILb0ESt19_Bit_const_iteratorSt13_Bit_iteratorET1_T0_S3_S2_
FN:486,_ZSt14__copy_move_a2ILb0EPKiPiET1_T0_S4_S3_
FN:486,_ZSt14__copy_move_a2ILb0EPiS0_ET1_T0_S2_S1_
FN:486,_ZSt14__copy_move_a2ILb0EPmS0_ET1_T0_S2_S1_
FN:521,_ZSt14__copy_move_a1ILb0EPPSt8functionIFvvEES4_ET1_T0_S6_S5_
FN:521,_ZSt14__copy_move_a1ILb0EPKiPiET1_T0_S4_S3_
FN:521,_ZSt14__copy_move_a1ILb0EPiS0_ET1_T0_S2_S1_
FN:521,_ZSt14__copy_move_a1ILb0ESt19_Bit_const_iteratorSt13_Bit_iteratorET1_T0_S3_S2_
FN:521,_ZSt14__copy_move_a1ILb0EPK4EdgePS0_ET1_T0_S5_S4_
FN:521,_ZSt14__copy_move_a1ILb0EPmS0_ET1_T0_S2_S1_
FN:521,_ZSt14__copy_move_a1ILb1EPmS0_ET1_T0_S2_S1_
FN:527,_ZSt13__copy_move_aILb0EPPSt8functionIFvvEES4_ET1_T0_S6_S5_
FN:527,_ZSt13__copy_move_aILb1EN9__gnu_cxx17__normal_iteratorIPmSt6vectorImSaImEEEES2_ET1_T0_S8_S7_
FN:527,_ZSt13__copy_move_aILb0ESt19_Bit_const_iteratorSt13_Bit_iteratorET1_T0_S3_S2_
FN:527,_ZSt13__copy_move_aILb0EN9__gnu_cxx17__normal_iteratorIPKiSt6vectorIiSaIiEEEENS1_IPiS6_EEET1_T0_SB_SA_
FN:527,_ZSt13__copy_move_aILb0EN9__gnu_cxx17__normal_iteratorIPKiSt6vectorIiSaIiEEEEPiET1_T0_SA_S9_
FN:527,_ZSt13__copy_move_aILb0EPiS0_ET1_T0_S2_S1_
FN:527,_ZSt13__copy_move_aILb0EPmS0_ET1_T0_S2_S1_
FN:527,_ZSt13__copy_move_aILb0EN9__gnu_cxx17__normal_iteratorIPK4EdgeSt6vectorIS2_SaIS2_EEEEPS2_ET1_T0_SB_SA_
FN:611,_ZSt4copyIN9__gnu_cxx17__normal_iteratorIPKiSt6vectorIiSaIiEEEEPiET0_T_SA_S9_
FN:611,_ZSt4copyISt19_Bit_const_iteratorSt13_Bit_iteratorET0_T_S3_S2_
FN:611,_ZSt4copyIPPSt8functionIFvvEES4_ET0_T_S6_S5_
FN:611,_ZSt4copyIN9__gnu_cxx17__normal_iteratorIPKiSt6vectorIiSaIiEEEENS1_IPiS6_EEET0_T_SB_SA_
FN:611,_ZSt4copyIN9__gnu_cxx17__normal_iteratorIPK4EdgeSt6vectorIS2_SaIS2_EEEEPS2_ET0_T_SB_SA_
FN:611,_ZSt4copyIPiS0_ET0_T_S2_S1_
FN:611,_ZSt4copyIPmS0_ET0_T_S2_S1_
FN:611,_ZSt4copyISt13move_iteratorIN9__gnu_cxx17__normal_iteratorIPmSt6vectorImSaImEEEEES3_ET0_T_SA_S9_
FN:714,_ZNSt20__copy_move_backwardILb1ELb0ESt26random_access_iterator_tagE13__copy_move_bIPSt6vectorIiSaIiEES6_EET0_T_S8_S7_
FN:731,_ZNSt20__copy_move_backwardILb1ELb1ESt26random_access_iterator_tagE13__copy_move_bI4EdgeEEPT_PKS4_S7_S5_
FN:731,_ZNSt20__copy_move_backwardILb0ELb1ESt26random_access_iterator_tagE13__copy_move_bIPSt8functionIFvvEEEEPT_PKS7_SA_S8_
FN:750,_ZSt23__copy_move_backward_a2ILb0EPPSt8functionIFvvEES4_ET1_T0_S6_S5_
FN:750,_ZSt23__copy_move_backward_a2ILb1EP4EdgeS1_ET1_T0_S3_S2_
FN:750,_ZSt23__copy_move_backward_a2ILb1EPSt6vectorIiSaIiEES3_ET1_T0_S5_S4_
FN:768,_ZSt23__copy_move_backward_a1ILb1EP4EdgeS1_ET1_T0_S3_S2_
FN:768,_ZSt23__copy_move_backward_a1ILb0EPPSt8functionIFvvEES4_ET1_T0_S6_S5_
FN:768,_ZSt23__copy_move_backward_a1ILb1EPSt6vectorIiSaIiEES3_ET1_T0_S5_S4_
FN:796,_ZSt22__copy_move_backward_aILb1EN9__gnu_cxx17__normal_iteratorIP4EdgeSt6vectorIS2_SaIS2_EEEES7_ET1_T0_S9_S8_
FN:796,_ZSt22__copy_move_backward_aILb1EPSt6vectorIiSaIiEES3_ET1_T0_S5_S4_
FN:796,_ZSt22__copy_move_backward_aILb0EPPSt8functionIFvvEES4_ET1_T0_S6_S5_
FN:848,_ZSt13copy_backwardIPPSt8functionIFvvEES4_ET0_T_S6_S5_
FN:884,_ZSt13move_backwardIPSt6vectorIiSaIiEES3_ET0_T_S5_S4_
FN:884,_ZSt13move_backwardIN9__gnu_cxx17__normal_iteratorIP4EdgeSt6vectorIS2_SaIS2_EEEES7_ET0_T_S9_S8_
FN:908,_ZSt9__fill_a1IPSt6vectorIiSaIiEES2_EN9__gnu_cxx11__enable_ifIXntsrSt11__is_scalarIT0_E7__valueEvE6__typeET_SB_RKS7_
FN:919,_ZSt9__fill_a1IPiiEN9__gnu_cxx11__enable_ifIXsrSt11__is_scalarIT0_E7__valueEvE6__typeET_S8_RKS4_
FN:968,_ZSt8__fill_aIPiiEvT_S1_RKT0_
FN:968,_ZSt8__fill_aIPSt6vectorIiSaIiEES2_EvT_S4_RKT0_
FN:992,_ZSt4fillIPSt6vectorIiSaIiEES2_EvT_S4_RKT0_
FN:1010,_ZSt17__size_to_integerm
FN:1109,_ZSt10__fill_n_aIPimiET_S1_T0_RKT1_St26random_access_iterator_tag
FN:1144,_ZSt6fill_nIPimiET_S1_T0_RKT1_
FN:1514,_ZSt4__lgl
FNDA:0,_ZSt12__niter_wrapIPSt6vectorIiSaIiEEET_RKS4_S4_
FNDA:2,_ZSt14__copy_move_a2ILb1EPmS0_ET1_T0_S2_S1_
FNDA:0,_ZSt4copyIPiS0_ET0_T_S2_S1_
FNDA:2,_ZSt14__copy_move_a1ILb1EPmS0_ET1_T0_S2_S1_
FNDA:6,_ZSt4__lgl
FNDA:21,_ZSt14__copy_move_a2ILb0ESt19_Bit_const_iteratorSt13_Bit_iteratorET1_T0_S3_S2_
FNDA:0,_ZSt13__copy_move_aILb0EN9__gnu_cxx17__normal_iteratorIPKiSt6vectorIiSaIiEEEENS1_IPiS6_EEET1_T0_SB_SA_
FNDA:10,_ZNSt20__copy_move_backwardILb1ELb1ESt26random_access_iterator_tagE13__copy_move_bI4EdgeEEPT_PKS4_S7_S5_
FNDA:0,_ZSt23__copy_move_backward_a1ILb1EPSt6vectorIiSaIiEES3_ET1_T0_S5_S4_
FNDA:0,_ZSt22__copy_move_backward_aILb1EPSt6vectorIiSaIiEES3_ET1_T0_S5_S4_
FNDA:0,_ZSt13copy_backwardIPPSt8functionIFvvEES4_ET0_T_S6_S5_
FNDA:21,_ZSt4copyIPmS0_ET0_T_S2_S1_
FNDA:66,_ZSt6fill_nIPimiET_S1_T0_RKT1_
FNDA:0,_ZSt9iter_swapIN9__gnu_cxx17__normal_iteratorIP4EdgeSt6vectorIS2_SaIS2_EEEES7_EvT_T0_
FNDA:66,_ZSt8__fill_aIPiiEvT_S1_RKT0_
FNDA:42,_ZSt12__niter_baseISt19_Bit_const_iteratorET_S1_
FNDA:48,_ZSt13__copy_move_aILb0EN9__gnu_cxx17__normal_iteratorIPKiSt6vectorIiSaIiEEEEPiET1_T0_SA_S9_
FNDA:0,_ZSt12__niter_baseIPSt6vectorIiSaIiEEET_S4_
FNDA:66,_ZSt17__size_to_integerm
FNDA:0,_ZNSt11__copy_moveILb0ELb1ESt26random_access_iterator_tagE8__copy_mIPSt8functionIFvvEEEEPT_PKS7_SA_S8_
FNDA:0,_ZSt22__copy_move_backward_aILb0EPPSt8functionIFvvEES4_ET1_T0_S6_S5_
FNDA:0,_ZNSt20__copy_move_backwardILb0ELb1ESt26random_access_iterator_tagE13__copy_move_bIPSt8functionIFvvEEEEPT_PKS7_SA_S8_
FNDA:10,_ZSt12__niter_wrapIN9__gnu_cxx17__normal_iteratorIP4EdgeSt6vectorIS2_SaIS2_EEEES3_ET_S8_T0_
FNDA:21,_ZNSt11__copy_moveILb0ELb0ESt26random_access_iterator_tagE8__copy_mISt19_Bit_const_iteratorSt13_Bit_iteratorEET0_T_S6_S5_
FNDA:0,_ZSt13__copy_move_aILb0EPiS0_ET1_T0_S2_S1_
FNDA:48,_ZSt14__copy_move_a2ILb0EPKiPiET1_T0_S4_S3_
FNDA:2,_ZSt4copyISt13move_iteratorIN9__gnu_cxx17__normal_iteratorIPmSt6vectorImSaImEEEEES3_ET0_T_SA_S9_
FNDA:1230,_ZSt12__niter_baseIP4EdgeET_S2_
FNDA:24,_ZSt13__copy_move_aILb0EN9__gnu_cxx17__normal_iteratorIPK4EdgeSt6vectorIS2_SaIS2_EEEEPS2_ET1_T0_SB_SA_
FNDA:0,_ZSt23__copy_move_backward_a2ILb1EPSt6vectorIiSaIiEES3_ET1_T0_S5_S4_
FNDA:282,_ZSt3maxImERKT_S2_S2_
FNDA:48,_ZSt12__niter_baseIPSt10unique_ptrI12ActiveObjectSt14default_deleteIS1_EEET_S6_
FNDA:0,_ZSt12__niter_baseIPPSt8functionIFvvEEET_S5_
FNDA:0,_ZSt14__copy_move_a2ILb0EPiS0_ET1_T0_S2_S1_
FNDA:66,_ZSt9__fill_a1IPiiEN9__gnu_cxx11__enable_ifIXsrSt11__is_scalarIT0_E7__valueEvE6__typeET_S8_RKS4_
FNDA:21,_ZSt13__copy_move_aILb0EPmS0_ET1_T0_S2_S1_
FNDA:0,_ZSt9__fill_a1IPSt6vectorIiSaIiEES2_EN9__gnu_cxx11__enable_ifIXntsrSt11__is_scalarIT0_E7__valueEvE6__typeET_SB_RKS7_
FNDA:21,_ZSt12__niter_wrapISt13_Bit_iteratorET_RKS1_S1_
FNDA:0,_ZSt8__fill_aIPSt6vectorIiSaIiEES2_EvT_S4_RKT0_
FNDA:21,_ZSt14__copy_move_a2ILb0EPmS0_ET1_T0_S2_S1_
FNDA:101,_ZSt12__niter_baseIPmET_S1_
FNDA:21,_ZSt12__niter_baseISt13_Bit_iteratorET_S1_
FNDA:1,_ZSt3maxIiERKT_S2_S2_
FNDA:48,_ZSt4copyIN9__gnu_cxx17__normal_iteratorIPKiSt6vectorIiSaIiEEEEPiET0_T_SA_S9_
FNDA:66,_ZSt10__fill_n_aIPimiET_S1_T0_RKT1_St26random_access_iterator_tag
FNDA:0,_ZNSt20__copy_move_backwardILb1ELb0ESt26random_access_iterator_tagE13__copy_move_bIPSt6vectorIiSaIiEES6_EET0_T_S8_S7_
FNDA:0,_ZSt14__copy_move_a2ILb0EPPSt8functionIFvvEES4_ET1_T0_S6_S5_
FNDA:48,_ZSt14__copy_move_a1ILb0EPKiPiET1_T0_S4_S3_
FNDA:0,_ZSt4fillIPSt6vectorIiSaIiEES2_EvT_S4_RKT0_
FNDA:0,_ZSt13__copy_move_aILb0EPPSt8functionIFvvEES4_ET1_T0_S6_S5_
FNDA:0,_ZSt14__copy_move_a1ILb0EPPSt8functionIFvvEES4_ET1_T0_S6_S5_
FNDA:21,_ZSt4copyISt19_Bit_const_iteratorSt13_Bit_iteratorET0_T_S3_S2_
FNDA:168,_ZSt12__niter_baseIPiET_S1_
FNDA:36,_ZSt12__niter_baseIPSt4pairIiiEET_S3_
FNDA:10,_ZSt23__copy_move_backward_a2ILb1EP4EdgeS1_ET1_T0_S3_S2_
FNDA:0,_ZSt14__copy_move_a1ILb0EPiS0_ET1_T0_S2_S1_
FNDA:0,_ZSt23__copy_move_backward_a2ILb0EPPSt8functionIFvvEES4_ET1_T0_S6_S5_
FNDA:2,_ZSt13__copy_move_aILb1EN9__gnu_cxx17__normal_iteratorIPmSt6vectorImSaImEEEES2_ET1_T0_S8_S7_
FNDA:10,_ZSt23__copy_move_backward_a1ILb1EP4EdgeS1_ET1_T0_S3_S2_
FNDA:0,_ZSt4copyIPPSt8functionIFvvEES4_ET0_T_S6_S5_
FNDA:0,_ZSt12__niter_wrapIN9__gnu_cxx17__normal_iteratorIPiSt6vectorIiSaIiEEEES2_ET_S7_T0_
FNDA:2,_ZNSt11__copy_moveILb1ELb1ESt26random_access_iterator_tagE8__copy_mImEEPT_PKS3_S6_S4_
FNDA:63,_ZSt12__niter_baseIPSt6vectorI4EdgeSaIS1_EEET_S5_
FNDA:0,_ZSt4copyIN9__gnu_cxx17__normal_iteratorIPKiSt6vectorIiSaIiEEEENS1_IPiS6_EEET0_T_SB_SA_
FNDA:24,_ZNSt11__copy_moveILb0ELb1ESt26random_access_iterator_tagE8__copy_mI4EdgeEEPT_PKS4_S7_S5_
FNDA:23,_ZSt12__niter_wrapIPmET_RKS1_S1_
FNDA:24,_ZSt14__copy_move_a2ILb0EPK4EdgePS0_ET1_T0_S5_S4_
FNDA:21,_ZSt14__copy_move_a1ILb0ESt19_Bit_const_iteratorSt13_Bit_iteratorET1_T0_S3_S2_
FNDA:649,_ZSt3minImERKT_S2_S2_
FNDA:21,_ZSt13__copy_move_aILb0ESt19_Bit_const_iteratorSt13_Bit_iteratorET1_T0_S3_S2_
FNDA:48,_ZNSt11__copy_moveILb0ELb1ESt26random_access_iterator_tagE8__copy_mIiEEPT_PKS3_S6_S4_
FNDA:24,_ZSt12__niter_wrapIP4EdgeET_RKS2_S2_
FNDA:21,_ZNSt11__copy_moveILb0ELb1ESt26random_access_iterator_tagE8__copy_mImEEPT_PKS3_S6_S4_
FNDA:12,_ZSt9iter_swapIN9__gnu_cxx17__normal_iteratorIPiSt6vectorIiSaIiEEEES6_EvT_T0_
FNDA:24,_ZSt4copyIN9__gnu_cxx17__normal_iteratorIPK4EdgeSt6vectorIS2_SaIS2_EEEEPS2_ET0_T_SB_SA_
FNDA:24,_ZSt14__copy_move_a1ILb0EPK4EdgePS0_ET1_T0_S5_S4_
FNDA:48,_ZSt12__niter_wrapIPiET_RKS1_S1_
FNDA:21,_ZSt14__copy_move_a1ILb0EPmS0_ET1_T0_S2_S1_
FNDA:0,_ZSt13move_backwardIPSt6vectorIiSaIiEES3_ET0_T_S5_S4_
FNDA:10,_ZSt13move_backwardIN9__gnu_cxx17__normal_iteratorIP4EdgeSt6vectorIS2_SaIS2_EEEES7_ET0_T_S9_S8_
FNDA:10,_ZSt22__copy_move_backward_aILb1EN9__gnu_cxx17__normal_iteratorIP4EdgeSt6vectorIS2_SaIS2_EEEES7_ET1_T0_S9_S8_
FNDA:0,_ZSt23__copy_move_backward_a1ILb0EPPSt8functionIFvvEES4_ET1_T0_S6_S5_
FNDA:0,_ZSt12__niter_wrapIPPSt8functionIFvvEEET_RKS5_S5_
FNF:83
FNH:53
DA:152,12
DA:182,12
DA:184,12
DA:230,649
DA:235,649
DA:236,0
DA:237,649
DA:254,283
DA:259,283
DA:260,149
DA:261,134
DA:313,1709
DA:315,1709
DA:328,10
DA:329,10
DA:335,116
DA:336,116
DA:380,21
DA:383,117
DA:385,96
DA:386,96
DA:387,96
DA:389,21
DA:420,95
DA:429,95
DA:430,95
DA:431,72
DA:432,95
DA:486,116
DA:495,116
DA:521,116
DA:522,116
DA:527,116
DA:529,116
DA:532,116
DA:611,116
DA:620,116
DA:714,0
DA:717,0
DA:718,0
DA:719,0
DA:720,0
DA:731,10
DA:740,10
DA:741,10
DA:742,10
DA:743,10
DA:750,10
DA:760,10
DA:762,10
DA:768,10
DA:769,10
DA:796,10
DA:798,10
DA:801,10
DA:848,0
DA:859,0
DA:884,10
DA:894,10
DA:896,10
DA:908,0
DA:911,0
DA:912,0
DA:913,0
DA:919,66
DA:922,66
DA:923,363
DA:924,297
DA:925,66
DA:968,66
DA:969,66
DA:992,0
DA:999,0
DA:1000,0
DA:1010,66
DA:1109,66
DA:1115,66
DA:1116,0
DA:1120,66
DA:1121,66
DA:1144,66
DA:1149,66
DA:1150,132
DA:1514,6
DA:1515,6
LF:85
LH:69
end_of_record
TN:
SF:/usr/include/c++/11/bits/stl_bvector.h
FN:77,_ZNSt14_Bit_referenceC2EPmm
FN:86,_ZNKSt14_Bit_referencecvbEv
FN:90,_ZNSt14_Bit_referenceaSEb
FN:148,_ZNSt18_Bit_iterator_baseC2EPmj
FN:152,_ZNSt18_Bit_iterator_base10_M_bump_upEv
FN:172,_ZNSt18_Bit_iterator_base7_M_incrEl
FN:224,_ZStmiRKSt18_Bit_iterator_baseS1_
FN:241,_ZNSt13_Bit_iteratorC2Ev
FN:243,_ZNSt13_Bit_iteratorC2EPmj
FN:251,_ZNKSt13_Bit_iteratordeEv
FN:255,_ZNSt13_Bit_iteratorppEv
FN:285,_ZNSt13_Bit_iteratorpLEl
FN:299,_ZNKSt13_Bit_iteratorixEl
FN:303,_ZStplRKSt13_Bit_iteratorl
FN:336,_ZNSt19_Bit_const_iteratorC2EPmj
FN:339,_ZNSt19_Bit_const_iteratorC2ERKSt13_Bit_iterator
FN:347,_ZNKSt19_Bit_const_iteratordeEv
FN:351,_ZNSt19_Bit_const_iteratorppEv
FN:443,_ZNSt13_Bvector_baseISaIbEE18_Bvector_impl_dataC2Ev
FN:465,_ZNSt13_Bvector_baseISaIbEE18_Bvector_impl_data8_M_resetEv
FN:485,_ZNSt13_Bvector_baseISaIbEE13_Bvector_implC2ERKSaImE
FN:502,_ZNKSt13_Bvector_baseISaIbEE13_Bvector_impl11_M_end_addrEv
FN:518,_ZNKSt13_Bvector_baseISaIbEE20_M_get_Bit_allocatorEv
FN:531,_ZNSt13_Bvector_baseISaIbEEC2ERKS0_
FN:542,_ZNSt13_Bvector_baseISaIbEED2Ev
FN:549,_ZNSt13_Bvector_baseISaIbEE11_M_allocateEm
FN:553,_ZNSt13_Bvector_baseISaIbEE13_M_deallocateEv
FN:572,_ZNSt13_Bvector_baseISaIbEE8_S_nwordEm
FN:647,_ZNSt6vectorIbSaIbEEC2EmRKbRKS0_
FN:660,_ZNSt6vectorIbSaIbEEC2ERKS1_
FN:733,_ZNSt6vectorIbSaIbEED2Ev
FN:831,_ZNSt6vectorIbSaIbEE5beginEv
FN:835,_ZNKSt6vectorIbSaIbEE5beginEv
FN:843,_ZNKSt6vectorIbSaIbEE3endEv
FN:881,_ZNKSt6vectorIbSaIbEE4sizeEv
FN:906,_ZNSt6vectorIbSaIbEEixEm
FN:1128,_ZNSt6vectorIbSaIbEE15_M_copy_alignedESt19_Bit_const_iteratorS2_St13_Bit_iterator
FN:1137,_ZNSt6vectorIbSaIbEE13_M_initializeEm
FN:1150,_ZNSt6vectorIbSaIbEE19_M_initialize_valueEb
FNDA:42,_ZStmiRKSt18_Bit_iterator_baseS1_
FNDA:318,_ZNSt6vectorIbSaIbEE5beginEv
FNDA:336,_ZNSt13_Bit_iteratorpLEl
FNDA:318,_ZNKSt14_Bit_referencecvbEv
FNDA:63,_ZNSt19_Bit_const_iteratorC2EPmj
FNDA:42,_ZNKSt6vectorIbSaIbEE5beginEv
FNDA:78,_ZNSt13_Bvector_baseISaIbEE8_S_nwordEm
FNDA:297,_ZNSt6vectorIbSaIbEEixEm
FNDA:21,_ZNKSt6vectorIbSaIbEE4sizeEv
FNDA:39,_ZNSt13_Bvector_baseISaIbEE18_Bvector_impl_data8_M_resetEv
FNDA:378,_ZNSt13_Bit_iteratorC2EPmj
FNDA:18,_ZNSt6vectorIbSaIbEE19_M_initialize_valueEb
FNDA:336,_ZNSt18_Bit_iterator_base7_M_incrEl
FNDA:393,_ZNKSt13_Bit_iteratordeEv
FNDA:39,_ZNSt13_Bvector_baseISaIbEEC2ERKS0_
FNDA:96,_ZNSt19_Bit_const_iteratorppEv
FNDA:21,_ZNKSt13_Bvector_baseISaIbEE20_M_get_Bit_allocatorEv
FNDA:297,_ZNKSt13_Bit_iteratorixEl
FNDA:336,_ZStplRKSt13_Bit_iteratorl
FNDA:192,_ZNSt18_Bit_iterator_base10_M_bump_upEv
FNDA:39,_ZNSt13_Bvector_baseISaIbEE13_Bvector_implC2ERKSaImE
FNDA:39,_ZNSt13_Bvector_baseISaIbEED2Ev
FNDA:639,_ZNSt18_Bit_iterator_baseC2EPmj
FNDA:171,_ZNSt14_Bit_referenceaSEb
FNDA:42,_ZNSt19_Bit_const_iteratorC2ERKSt13_Bit_iterator
FNDA:39,_ZNSt13_Bvector_baseISaIbEE11_M_allocateEm
FNDA:39,_ZNSt6vectorIbSaIbEED2Ev
FNDA:78,_ZNSt13_Bvector_baseISaIbEE18_Bvector_impl_dataC2Ev
FNDA:57,_ZNKSt13_Bvector_baseISaIbEE13_Bvector_impl11_M_end_addrEv
FNDA:42,_ZNKSt6vectorIbSaIbEE3endEv
FNDA:21,_ZNSt6vectorIbSaIbEEC2ERKS1_
FNDA:18,_ZNSt6vectorIbSaIbEEC2EmRKbRKS0_
FNDA:156,_ZNSt13_Bit_iteratorC2Ev
FNDA:96,_ZNSt13_Bit_iteratorppEv
FNDA:39,_ZNSt6vectorIbSaIbEE13_M_initializeEm
FNDA:21,_ZNSt6vectorIbSaIbEE15_M_copy_alignedESt19_Bit_const_iteratorS2_St13_Bit_iterator
FNDA:489,_ZNSt14_Bit_referenceC2EPmm
FNDA:96,_ZNKSt19_Bit_const_iteratordeEv
FNDA:39,_ZNSt13_Bvector_baseISaIbEE13_M_deallocateEv
FNF:39
FNH:39
DA:77,489
DA:78,489
DA:86,318
DA:87,318
DA:90,171
DA:92,171
DA:93,102
DA:95,69
DA:96,171
DA:148,639
DA:149,639
DA:152,192
DA:154,192
DA:156,0
DA:157,0
DA:159,192
DA:172,336
DA:174,336
DA:175,336
DA:176,336
DA:177,336
DA:179,0
DA:180,0
DA:182,336
DA:183,336
DA:224,42
DA:226,42
DA:227,42
DA:241,156
DA:243,378
DA:244,378
DA:251,393
DA:252,393
DA:255,96
DA:257,96
DA:258,96
DA:285,336
DA:287,336
DA:288,336
DA:299,297
DA:300,297
DA:303,336
DA:305,336
DA:306,336
DA:307,336
DA:336,63
DA:337,63
DA:339,42
DA:340,42
DA:347,96
DA:348,96
DA:351,96
DA:353,96
DA:354,96
DA:443,78
DA:444,78
DA:445,78
DA:465,39
DA:466,39
DA:485,39
DA:486,39
DA:487,39
DA:502,57
DA:504,57
DA:505,57
DA:506,0
DA:518,21
DA:519,21
DA:531,39
DA:532,39
DA:542,39
DA:543,39
DA:549,39
DA:550,39
DA:553,39
DA:555,39
DA:557,39
DA:558,39
DA:559,39
DA:561,39
DA:563,39
DA:572,78
DA:573,78
DA:647,18
DA:654,18
DA:656,18
DA:657,18
DA:658,18
DA:660,21
DA:661,21
DA:663,21
DA:664,21
DA:665,21
DA:733,39
DA:831,318
DA:832,318
DA:835,42
DA:836,42
DA:843,42
DA:844,42
DA:881,21
DA:882,21
DA:906,297
DA:907,297
DA:1128,21
DA:1131,21
DA:1132,42
DA:1133,42
DA:1137,39
DA:1139,39
DA:1141,39
DA:1142,39
DA:1143,39
DA:1144,39
DA:1145,39
DA:1147,39
DA:1150,18
DA:1152,18
DA:1153,18
DA:1154,18
DA:1156,18
LF:121
LH:116
end_of_record
TN:
SF:/usr/include/c++/11/bits/stl_construct.h
FN:109,_ZSt10_ConstructISt6vectorI4EdgeSaIS1_EEJEEvPT_DpOT0_
FN:109,_ZSt10_ConstructISt6vectorIiSaIiEEJRKS2_EEvPT_DpOT0_
FN:109,_ZSt10_ConstructISt10shared_ptrI13ThreadContextEJEEvPT_DpOT0_
FN:109,_ZSt10_ConstructISt6vectorIiSaIiEEJS2_EEvPT_DpOT0_
FN:109,_ZSt10_ConstructISt10unique_ptrI12ActiveObjectSt14default_deleteIS1_EEJS4_EEvPT_DpOT0_
FN:146,_ZSt8_DestroyISt10shared_ptrI13ThreadContextEEvPT_
FN:146,_ZSt8_DestroyISt6vectorI4EdgeSaIS1_EEEvPT_
FN:146,_ZSt8_DestroyISt8functionIFvvEEEvPT_
FN:146,_ZSt8_DestroyISt10unique_ptrI12ActiveObjectSt14default_deleteIS1_EEEvPT_
FN:146,_ZSt8_DestroyISt6vectorIiSaIiEEEvPT_
FN:146,_ZSt8_DestroyISt6threadEvPT_
FN:160,_ZNSt12_Destroy_auxILb0EE9__destroyIPSt6vectorIiSaIiEEEEvT_S6_
FN:160,_ZNSt12_Destroy_auxILb0EE9__destroyIPSt6threadEEvT_S4_
FN:160,_ZNSt12_Destroy_auxILb0EE9__destroyIPSt6vectorI4EdgeSaIS3_EEEEvT_S7_
FN:160,_ZNSt12_Destroy_auxILb0EE9__destroyIPSt8functionIFvvEEEEvT_S6_
FN:160,_ZNSt12_Destroy_auxILb0EE9__destroyIPSt10unique_ptrI12ActiveObjectSt14default_deleteIS3_EEEEvT_S8_
FN:160,_ZNSt12_Destroy_auxILb0EE9__destroyIPSt10shared_ptrI13ThreadContextEEEvT_S6_
FN:172,_ZNSt12_Destroy_auxILb1EE9__destroyIN9__gnu_cxx17__normal_iteratorIPiSt6vectorIiSaIiEEEEEEvT_S9_
FN:172,_ZNSt12_Destroy_auxILb1EE9__destroyIPSt4pairIiiEEEvT_S5_
FN:172,_ZNSt12_Destroy_auxILb1EE9__destroyIPiEEvT_S3_
FN:172,_ZNSt12_Destroy_auxILb1EE9__destroyIP4EdgeEEvT_S4_
FN:172,_ZNSt12_Destroy_auxILb1EE9__destroyIPmEEvT_S3_
FN:182,_ZSt8_DestroyIPSt4pairIiiEEvT_S3_
FN:182,_ZSt8_DestroyIPSt10shared_ptrI13ThreadContextEEvT_S4_
FN:182,_ZSt8_DestroyIPSt8functionIFvvEEEvT_S4_
FN:182,_ZSt8_DestroyIPSt6threadEvT_S2_
FN:182,_ZSt8_DestroyIN9__gnu_cxx17__normal_iteratorIPiSt6vectorIiSaIiEEEEEvT_S7_
FN:182,_ZSt8_DestroyIP4EdgeEvT_S2_
FN:182,_ZSt8_DestroyIPSt6vectorI4EdgeSaIS1_EEEvT_S5_
FN:182,_ZSt8_DestroyIPmEvT_S1_
FN:182,_ZSt8_DestroyIPiEvT_S1_
FN:182,_ZSt8_DestroyIPSt10unique_ptrI12ActiveObjectSt14default_deleteIS1_EEEvT_S6_
FN:182,_ZSt8_DestroyIPSt6vectorIiSaIiEEEvT_S4_
FNDA:0,_ZNSt12_Destroy_auxILb0EE9__destroyIPSt6threadEEvT_S4_
FNDA:27,_ZSt10_ConstructISt6vectorIiSaIiEEJRKS2_EEvPT_DpOT0_
FNDA:0,_ZSt8_DestroyISt8functionIFvvEEEvPT_
FNDA:0,_ZSt8_DestroyIPSt6threadEvT_S2_
FNDA:14,_ZSt8_DestroyIPSt8functionIFvvEEEvT_S4_
FNDA:6,_ZNSt12_Destroy_auxILb1EE9__destroyIPSt4pairIiiEEEvT_S5_
FNDA:99,_ZSt8_DestroyISt6vectorI4EdgeSaIS1_EEEvPT_
FNDA:2,_ZSt8_DestroyIPSt10shared_ptrI13ThreadContextEEvT_S4_
FNDA:99,_ZSt10_ConstructISt6vectorI4EdgeSaIS1_EEJEEvPT_DpOT0_
FNDA:6,_ZSt8_DestroyIPSt4pairIiiEEvT_S3_
FNDA:0,_ZNSt12_Destroy_auxILb1EE9__destroyIN9__gnu_cxx17__normal_iteratorIPiSt6vectorIiSaIiEEEEEEvT_S9_
FNDA:18,_ZNSt12_Destroy_auxILb0EE9__destroyIPSt6vectorIiSaIiEEEEvT_S6_
FNDA:10,_ZSt8_DestroyISt10shared_ptrI13ThreadContextEEvPT_
FNDA:4,_ZNSt12_Destroy_auxILb1EE9__destroyIPmEEvT_S3_
FNDA:2,_ZNSt12_Destroy_auxILb0EE9__destroyIPSt10shared_ptrI13ThreadContextEEEvT_S6_
FNDA:27,_ZSt8_DestroyISt6vectorIiSaIiEEEvPT_
FNDA:0,_ZSt8_DestroyISt6threadEvPT_
FNDA:18,_ZSt8_DestroyIPSt6vectorIiSaIiEEEvT_S4_
FNDA:120,_ZSt8_DestroyIPiEvT_S1_
FNDA:4,_ZSt8_DestroyIPSt10unique_ptrI12ActiveObjectSt14default_deleteIS1_EEEvT_S6_
FNDA:0,_ZSt10_ConstructISt10unique_ptrI12ActiveObjectSt14default_deleteIS1_EEJS4_EEvPT_DpOT0_
FNDA:4,_ZSt8_DestroyIPmEvT_S1_
FNDA:0,_ZSt10_ConstructISt6vectorIiSaIiEEJS2_EEvPT_DpOT0_
FNDA:4,_ZNSt12_Destroy_auxILb0EE9__destroyIPSt10unique_ptrI12ActiveObjectSt14default_deleteIS3_EEEEvT_S8_
FNDA:10,_ZSt10_ConstructISt10shared_ptrI13ThreadContextEJEEvPT_DpOT0_
FNDA:141,_ZNSt12_Destroy_auxILb1EE9__destroyIP4EdgeEEvT_S4_
FNDA:21,_ZSt8_DestroyIPSt6vectorI4EdgeSaIS1_EEEvT_S5_
FNDA:14,_ZNSt12_Destroy_auxILb0EE9__destroyIPSt8functionIFvvEEEEvT_S6_
FNDA:14,_ZSt8_DestroyISt10unique_ptrI12ActiveObjectSt14default_deleteIS1_EEEvPT_
FNDA:21,_ZNSt12_Destroy_auxILb0EE9__destroyIPSt6vectorI4EdgeSaIS3_EEEEvT_S7_
FNDA:141,_ZSt8_DestroyIP4EdgeEvT_S2_
FNDA:120,_ZNSt12_Destroy_auxILb1EE9__destroyIPiEEvT_S3_
FNDA:0,_ZSt8_DestroyIN9__gnu_cxx17__normal_iteratorIPiSt6vectorIiSaIiEEEEEvT_S7_
FNF:33
FNH:25
DA:109,136
DA:119,136
DA:120,136
DA:146,150
DA:151,150
DA:153,150
DA:160,59
DA:162,209
DA:163,150
DA:164,59
DA:172,271
DA:182,330
DA:196,330
DA:197,330
LF:14
LH:14
end_of_record
TN:
SF:/usr/include/c++/11/bits/stl_deque.h
FN:96,_ZSt16__deque_buf_sizem
FN:131,_ZNSt15_Deque_iteratorISt8functionIFvvEERS2_PS2_E14_S_buffer_sizeEv
FN:151,_ZNSt15_Deque_iteratorISt8functionIFvvEERS2_PS2_EC2Ev
FN:168,_ZNSt15_Deque_iteratorISt8functionIFvvEERS2_PS2_EC2ERKS5_
FN:180,_ZNKSt15_Deque_iteratorISt8functionIFvvEERS2_PS2_EdeEv
FN:208,_ZNSt15_Deque_iteratorISt8functionIFvvEERS2_PS2_EmmEv
FN:260,_ZNSt15_Deque_iteratorISt8functionIFvvEERS2_PS2_E11_M_set_nodeEPS4_
FN:268,_ZSteqRKSt15_Deque_iteratorISt8functionIFvvEERS2_PS2_ES7_
FN:353,_ZStmiRKSt15_Deque_iteratorISt8functionIFvvEERS2_PS2_ES7_
FN:437,_ZNSt11_Deque_baseISt8functionIFvvEESaIS2_EEC2Ev
FN:495,_ZNSt11_Deque_baseISt8functionIFvvEESaIS2_EE16_Deque_impl_dataC2Ev
FN:524,_ZNSt11_Deque_baseISt8functionIFvvEESaIS2_EE11_Deque_implC2Ev
FN:547,_ZNSt11_Deque_baseISt8functionIFvvEESaIS2_EE19_M_get_Tp_allocatorEv
FN:551,_ZNKSt11_Deque_baseISt8functionIFvvEESaIS2_EE19_M_get_Tp_allocatorEv
FN:555,_ZNKSt11_Deque_baseISt8functionIFvvEESaIS2_EE20_M_get_map_allocatorEv
FN:559,_ZNSt11_Deque_baseISt8functionIFvvEESaIS2_EE16_M_allocate_nodeEv
FN:566,_ZNSt11_Deque_baseISt8functionIFvvEESaIS2_EE18_M_deallocate_nodeEPS2_
FN:573,_ZNSt11_Deque_baseISt8functionIFvvEESaIS2_EE15_M_allocate_mapEm
FN:580,_ZNSt11_Deque_baseISt8functionIFvvEESaIS2_EE17_M_deallocate_mapEPPS2_m
FN:596,_ZNSt11_Deque_baseISt8functionIFvvEESaIS2_EED2Ev
FN:617,_ZNSt11_Deque_baseISt8functionIFvvEESaIS2_EE17_M_initialize_mapEm
FN:656,_ZNSt11_Deque_baseISt8functionIFvvEESaIS2_EE15_M_create_nodesEPPS2_S6_
FN:674,_ZNSt11_Deque_baseISt8functionIFvvEESaIS2_EE16_M_destroy_nodesEPPS2_S6_
FN:807,_ZNSt5dequeISt8functionIFvvEESaIS2_EE14_S_buffer_sizeEv
FN:834,_ZNSt5dequeISt8functionIFvvEESaIS2_EEC2Ev
FN:1006,_ZNSt5dequeISt8functionIFvvEESaIS2_EED2Ev
FN:1128,_ZNSt5dequeISt8functionIFvvEESaIS2_EE5beginEv
FN:1145,_ZNSt5dequeISt8functionIFvvEESaIS2_EE3endEv
FN:1233,_ZNKSt5dequeISt8functionIFvvEESaIS2_EE4sizeEv
FN:1238,_ZNKSt5dequeISt8functionIFvvEESaIS2_EE8max_sizeEv
FN:1311,_ZNKSt5dequeISt8functionIFvvEESaIS2_EE5emptyEv
FN:1405,_ZNSt5dequeISt8functionIFvvEESaIS2_EE5frontEv
FN:1427,_ZNSt5dequeISt8functionIFvvEESaIS2_EE4backEv
FN:1532,_ZNSt5dequeISt8functionIFvvEESaIS2_EE9pop_frontEv
FN:1834,_ZNSt5dequeISt8functionIFvvEESaIS2_EE11_S_max_sizeERKS3_
FN:2045,_ZNSt5dequeISt8functionIFvvEESaIS2_EE15_M_destroy_dataESt15_Deque_iteratorIS2_RS2_PS2_ES8_RKS3_
FN:2126,_ZNSt5dequeISt8functionIFvvEESaIS2_EE22_M_reserve_map_at_backEm
FNDA:72,_ZNSt5dequeISt8functionIFvvEESaIS2_EE4backEv
FNDA:14,_ZNSt11_Deque_baseISt8functionIFvvEESaIS2_EED2Ev
FNDA:28,_ZNSt15_Deque_iteratorISt8functionIFvvEERS2_PS2_E14_S_buffer_sizeEv
FNDA:14,_ZNSt11_Deque_baseISt8functionIFvvEESaIS2_EE16_M_destroy_nodesEPPS2_S6_
FNDA:14,_ZNSt11_Deque_baseISt8functionIFvvEESaIS2_EE16_Deque_impl_dataC2Ev
FNDA:14,_ZNSt11_Deque_baseISt8functionIFvvEESaIS2_EEC2Ev
FNDA:14,_ZNSt11_Deque_baseISt8functionIFvvEESaIS2_EE15_M_allocate_mapEm
FNDA:28,_ZNSt15_Deque_iteratorISt8functionIFvvEERS2_PS2_EC2Ev
FNDA:72,_ZNSt15_Deque_iteratorISt8functionIFvvEERS2_PS2_EmmEv
FNDA:100,_ZNSt11_Deque_baseISt8functionIFvvEESaIS2_EE19_M_get_Tp_allocatorEv
FNDA:86,_ZNSt5dequeISt8functionIFvvEESaIS2_EE3endEv
FNDA:14,_ZNSt5dequeISt8functionIFvvEESaIS2_EED2Ev
FNDA:86,_ZNSt5dequeISt8functionIFvvEESaIS2_EE5beginEv
FNDA:84,_ZSt16__deque_buf_sizem
FNDA:14,_ZNSt11_Deque_baseISt8functionIFvvEESaIS2_EE15_M_create_nodesEPPS2_S6_
FNDA:14,_ZNSt11_Deque_baseISt8functionIFvvEESaIS2_EE11_Deque_implC2Ev
FNDA:14,_ZNSt11_Deque_baseISt8functionIFvvEESaIS2_EE17_M_initialize_mapEm
FNDA:14,_ZNSt11_Deque_baseISt8functionIFvvEESaIS2_EE17_M_deallocate_mapEPPS2_m
FNDA:0,_ZStmiRKSt15_Deque_iteratorISt8functionIFvvEERS2_PS2_ES7_
FNDA:200,_ZNSt15_Deque_iteratorISt8functionIFvvEERS2_PS2_EC2ERKS5_
FNDA:0,_ZNKSt5dequeISt8functionIFvvEESaIS2_EE8max_sizeEv
FNDA:28,_ZNKSt11_Deque_baseISt8functionIFvvEESaIS2_EE20_M_get_map_allocatorEv
FNDA:14,_ZNSt11_Deque_baseISt8functionIFvvEESaIS2_EE16_M_allocate_nodeEv
FNDA:150,_ZNKSt5dequeISt8functionIFvvEESaIS2_EE5emptyEv
FNDA:14,_ZNSt5dequeISt8functionIFvvEESaIS2_EEC2Ev
FNDA:28,_ZNKSt11_Deque_baseISt8functionIFvvEESaIS2_EE19_M_get_Tp_allocatorEv
FNDA:72,_ZNSt5dequeISt8functionIFvvEESaIS2_EE9pop_frontEv
FNDA:0,_ZNKSt5dequeISt8functionIFvvEESaIS2_EE4sizeEv
FNDA:14,_ZNSt11_Deque_baseISt8functionIFvvEESaIS2_EE18_M_deallocate_nodeEPS2_
FNDA:150,_ZSteqRKSt15_Deque_iteratorISt8functionIFvvEERS2_PS2_ES7_
FNDA:72,_ZNSt5dequeISt8functionIFvvEESaIS2_EE5frontEv
FNDA:0,_ZNSt5dequeISt8functionIFvvEESaIS2_EE11_S_max_sizeERKS3_
FNDA:28,_ZNSt15_Deque_iteratorISt8functionIFvvEERS2_PS2_E11_M_set_nodeEPS4_
FNDA:144,_ZNKSt15_Deque_iteratorISt8functionIFvvEERS2_PS2_EdeEv
FNDA:0,_ZNSt5dequeISt8functionIFvvEESaIS2_EE14_S_buffer_sizeEv
FNDA:14,_ZNSt5dequeISt8functionIFvvEESaIS2_EE15_M_destroy_dataESt15_Deque_iteratorIS2_RS2_PS2_ES8_RKS3_
FNDA:0,_ZNSt5dequeISt8functionIFvvEESaIS2_EE22_M_reserve_map_at_backEm
FNF:37
FNH:31
DA:96,84
DA:98,84
DA:131,28
DA:132,28
DA:151,28
DA:152,28
DA:168,200
DA:169,200
DA:170,200
DA:180,144
DA:181,144
DA:208,72
DA:210,72
DA:212,0
DA:213,0
DA:215,72
DA:216,72
DA:260,28
DA:262,28
DA:263,28
DA:264,28
DA:265,28
DA:268,150
DA:269,150
DA:353,0
DA:355,0
DA:356,0
DA:357,0
DA:358,0
DA:437,14
DA:438,14
DA:439,14
DA:495,14
DA:496,14
DA:497,14
DA:524,14
DA:526,14
DA:527,14
DA:547,100
DA:548,100
DA:551,28
DA:552,28
DA:555,28
DA:556,28
DA:559,14
DA:562,14
DA:566,14
DA:569,14
DA:570,14
DA:573,14
DA:575,14
DA:576,28
DA:577,14
DA:580,14
DA:582,14
DA:583,14
DA:584,14
DA:596,14
DA:599,14
DA:601,14
DA:602,14
DA:603,14
DA:605,14
DA:617,14
DA:620,14
DA:623,28
DA:624,14
DA:625,14
DA:632,14
DA:633,14
DA:634,14
DA:637,14
DA:638,0
DA:640,0
DA:641,0
DA:642,0
DA:643,0
DA:646,14
DA:647,14
DA:648,14
DA:649,28
DA:650,14
DA:651,14
DA:652,14
DA:656,14
DA:662,28
DA:663,14
DA:665,0
DA:667,0
DA:668,0
DA:670,14
DA:674,14
DA:678,28
DA:679,14
DA:680,14
DA:807,0
DA:808,0
DA:834,14
DA:1006,14
DA:1007,14
DA:1128,86
DA:1129,86
DA:1145,86
DA:1146,86
DA:1233,0
DA:1234,0
DA:1238,0
DA:1239,0
DA:1311,150
DA:1312,150
DA:1405,72
DA:1408,72
DA:1427,72
DA:1430,72
DA:1431,72
DA:1432,72
DA:1532,72
DA:1535,72
DA:1536,72
DA:1538,72
DA:1540,72
DA:1543,0
DA:1544,72
DA:1834,0
DA:1836,0
DA:1837,0
DA:1838,0
DA:2045,14
DA:2049,14
DA:2050,14
DA:2126,0
DA:2128,0
DA:2129,0
DA:2130,0
DA:2131,0
LF:135
LH:104
end_of_record
TN:
SF:/usr/include/c++/11/bits/stl_function.h
FN:389,_ZNKSt7greaterISt4pairIiiEEclERKS1_S4_
FN:399,_ZNKSt4lessIiEclERKiS2_
FN:1174,_ZNKSt10_Select1stISt4pairIKiSt8functionIFvvEEEEclERKS5_
FNDA:10,_ZNKSt10_Select1stISt4pairIKiSt8functionIFvvEEEEclERKS5_
FNDA:12,_ZNKSt4lessIiEclERKiS2_
FNDA:0,_ZNKSt7greaterISt4pairIiiEEclERKS1_S4_
FNF:3
FNH:2
DA:389,0
DA:390,0
DA:399,12
DA:400,12
DA:1174,10
DA:1175,10
LF:6
LH:4
end_of_record
TN:
SF:/usr/include/c++/11/bits/stl_heap.h
FN:134,_ZSt11__push_heapIN9__gnu_cxx17__normal_iteratorIP4EdgeSt6vectorIS2_SaIS2_EEEElS2_NS0_5__ops14_Iter_comp_valIZN15KruskalStrategy7findMSTERK5GraphEUlS2_S2_E_EEEvT_T0_SH_T1_RT2_
FN:134,_ZSt11__push_heapIN9__gnu_cxx17__normal_iteratorIPSt4pairIiiESt6vectorIS3_SaIS3_EEEElS3_NS0_5__ops14_Iter_comp_valISt7greaterIS3_EEEEvT_T0_SF_T1_RT2_
FN:197,_ZSt9push_heapIN9__gnu_cxx17__normal_iteratorIPSt4pairIiiESt6vectorIS3_SaIS3_EEEESt7greaterIS3_EEvT_SB_T0_
FN:223,_ZSt13__adjust_heapIN9__gnu_cxx17__normal_iteratorIPSt4pairIiiESt6vectorIS3_SaIS3_EEEElS3_NS0_5__ops15_Iter_comp_iterISt7greaterIS3_EEEEvT_T0_SF_T1_T2_
FN:223,_ZSt13__adjust_heapIN9__gnu_cxx17__normal_iteratorIP4EdgeSt6vectorIS2_SaIS2_EEEElS2_NS0_5__ops15_Iter_comp_iterIZN15KruskalStrategy7findMSTERK5GraphEUlS2_S2_E_EEEvT_T0_SH_T1_T2_
FN:253,_ZSt10__pop_heapIN9__gnu_cxx17__normal_iteratorIPSt4pairIiiESt6vectorIS3_SaIS3_EEEENS0_5__ops15_Iter_comp_iterISt7greaterIS3_EEEEvT_SE_SE_RT0_
FN:253,_ZSt10__pop_heapIN9__gnu_cxx17__normal_iteratorIP4EdgeSt6vectorIS2_SaIS2_EEEENS0_5__ops15_Iter_comp_iterIZN15KruskalStrategy7findMSTERK5GraphEUlS2_S2_E_EEEvT_SG_SG_RT0_
FN:316,_ZSt8pop_heapIN9__gnu_cxx17__normal_iteratorIPSt4pairIiiESt6vectorIS3_SaIS3_EEEESt7greaterIS3_EEvT_SB_T0_
FN:339,_ZSt11__make_heapIN9__gnu_cxx17__normal_iteratorIP4EdgeSt6vectorIS2_SaIS2_EEEENS0_5__ops15_Iter_comp_iterIZN15KruskalStrategy7findMSTERK5GraphEUlS2_S2_E_EEEvT_SG_RT0_
FN:418,_ZSt11__sort_heapIN9__gnu_cxx17__normal_iteratorIP4EdgeSt6vectorIS2_SaIS2_EEEENS0_5__ops15_Iter_comp_iterIZN15KruskalStrategy7findMSTERK5GraphEUlS2_S2_E_EEEvT_SG_RT0_
FNDA:0,_ZSt10__pop_heapIN9__gnu_cxx17__normal_iteratorIPSt4pairIiiESt6vectorIS3_SaIS3_EEEENS0_5__ops15_Iter_comp_iterISt7greaterIS3_EEEEvT_SE_SE_RT0_
FNDA:0,_ZSt13__adjust_heapIN9__gnu_cxx17__normal_iteratorIPSt4pairIiiESt6vectorIS3_SaIS3_EEEElS3_NS0_5__ops15_Iter_comp_iterISt7greaterIS3_EEEEvT_T0_SF_T1_T2_
FNDA:0,_ZSt13__adjust_heapIN9__gnu_cxx17__normal_iteratorIP4EdgeSt6vectorIS2_SaIS2_EEEElS2_NS0_5__ops15_Iter_comp_iterIZN15KruskalStrategy7findMSTERK5GraphEUlS2_S2_E_EEEvT_T0_SH_T1_T2_
FNDA:0,_ZSt11__make_heapIN9__gnu_cxx17__normal_iteratorIP4EdgeSt6vectorIS2_SaIS2_EEEENS0_5__ops15_Iter_comp_iterIZN15KruskalStrategy7findMSTERK5GraphEUlS2_S2_E_EEEvT_SG_RT0_
FNDA:0,_ZSt11__sort_heapIN9__gnu_cxx17__normal_iteratorIP4EdgeSt6vectorIS2_SaIS2_EEEENS0_5__ops15_Iter_comp_iterIZN15KruskalStrategy7findMSTERK5GraphEUlS2_S2_E_EEEvT_SG_RT0_
FNDA:27,_ZSt9push_heapIN9__gnu_cxx17__normal_iteratorIPSt4pairIiiESt6vectorIS3_SaIS3_EEEESt7greaterIS3_EEvT_SB_T0_
FNDA:0,_ZSt10__pop_heapIN9__gnu_cxx17__normal_iteratorIP4EdgeSt6vectorIS2_SaIS2_EEEENS0_5__ops15_Iter_comp_iterIZN15KruskalStrategy7findMSTERK5GraphEUlS2_S2_E_EEEvT_SG_SG_RT0_
FNDA:27,_ZSt8pop_heapIN9__gnu_cxx17__normal_iteratorIPSt4pairIiiESt6vectorIS3_SaIS3_EEEESt7greaterIS3_EEvT_SB_T0_
FNDA:27,_ZSt11__push_heapIN9__gnu_cxx17__normal_iteratorIPSt4pairIiiESt6vectorIS3_SaIS3_EEEElS3_NS0_5__ops14_Iter_comp_valISt7greaterIS3_EEEEvT_T0_SF_T1_RT2_
FNDA:0,_ZSt11__push_heapIN9__gnu_cxx17__normal_iteratorIP4EdgeSt6vectorIS2_SaIS2_EEEElS2_NS0_5__ops14_Iter_comp_valIZN15KruskalStrategy7findMSTERK5GraphEUlS2_S2_E_EEEvT_T0_SH_T1_RT2_
FNF:10
FNH:3
DA:134,27
DA:138,27
DA:139,27
DA:141,0
DA:142,0
DA:143,0
DA:145,27
DA:146,27
DA:197,27
DA:213,27
DA:214,27
DA:215,27
DA:216,27
DA:217,27
DA:223,0
DA:226,0
DA:227,0
DA:228,0
DA:230,0
DA:231,0
DA:233,0
DA:234,0
DA:235,0
DA:237,0
DA:239,0
DA:240,0
DA:242,0
DA:245,0
DA:246,0
DA:247,0
DA:248,0
DA:253,0
DA:261,0
DA:262,0
DA:263,0
DA:264,0
DA:265,0
DA:266,0
DA:316,27
DA:327,27
DA:331,0
DA:332,0
DA:334,27
DA:339,0
DA:347,0
DA:348,0
DA:350,0
DA:351,0
DA:352,0
DA:354,0
DA:355,0
DA:357,0
DA:358,0
DA:359,0
DA:418,0
DA:421,0
DA:423,0
DA:424,0
DA:426,0
LF:59
LH:14
end_of_record
TN:
SF:/usr/include/c++/11/bits/stl_iterator.h
FN:1027,_ZN9__gnu_cxx17__normal_iteratorIPKSt6vectorI4EdgeSaIS2_EES1_IS4_SaIS4_EEEC2ERKS6_
FN:1027,_ZN9__gnu_cxx17__normal_iteratorIPmSt6vectorImSaImEEEC2ERKS1_
FN:1027,_ZN9__gnu_cxx17__normal_iteratorIPKiSt6vectorIiSaIiEEEC2ERKS2_
FN:1027,_ZN9__gnu_cxx17__normal_iteratorIPiSt6vectorIiSaIiEEEC2ERKS1_
FN:1027,_ZN9__gnu_cxx17__normal_iteratorIP4EdgeSt6vectorIS1_SaIS1_EEEC2ERKS2_
FN:1027,_ZN9__gnu_cxx17__normal_iteratorIPKSt4pairIiiESt6vectorIS2_SaIS2_EEEC2ERKS4_
FN:1027,_ZN9__gnu_cxx17__normal_iteratorIPK4EdgeSt6vectorIS1_SaIS1_EEEC2ERKS3_
FN:1027,_ZN9__gnu_cxx17__normal_iteratorIPSt6vectorIiSaIiEES1_IS3_SaIS3_EEEC2ERKS4_
FN:1027,_ZN9__gnu_cxx17__normal_iteratorIPSt10unique_ptrI12ActiveObjectSt14default_deleteIS2_EESt6vectorIS5_SaIS5_EEEC2ERKS6_
FN:1027,_ZN9__gnu_cxx17__normal_iteratorIPSt10shared_ptrI13ThreadContextESt6vectorIS3_SaIS3_EEEC2ERKS4_
FN:1027,_ZN9__gnu_cxx17__normal_iteratorIPSt4pairIiiESt6vectorIS2_SaIS2_EEEC2ERKS3_
FN:1042,_ZNK9__gnu_cxx17__normal_iteratorIPSt10unique_ptrI12ActiveObjectSt14default_deleteIS2_EESt6vectorIS5_SaIS5_EEEdeEv
FN:1042,_ZNK9__gnu_cxx17__normal_iteratorIP4EdgeSt6vectorIS1_SaIS1_EEEdeEv
FN:1042,_ZNK9__gnu_cxx17__normal_iteratorIPiSt6vectorIiSaIiEEEdeEv
FN:1042,_ZNK9__gnu_cxx17__normal_iteratorIPmSt6vectorImSaImEEEdeEv
FN:1042,_ZNK9__gnu_cxx17__normal_iteratorIPK4EdgeSt6vectorIS1_SaIS1_EEEdeEv
FN:1042,_ZNK9__gnu_cxx17__normal_iteratorIPKSt4pairIiiESt6vectorIS2_SaIS2_EEEdeEv
FN:1042,_ZNK9__gnu_cxx17__normal_iteratorIPSt4pairIiiESt6vectorIS2_SaIS2_EEEdeEv
FN:1042,_ZNK9__gnu_cxx17__normal_iteratorIPSt10shared_ptrI13ThreadContextESt6vectorIS3_SaIS3_EEEdeEv
FN:1047,_ZNK9__gnu_cxx17__normal_iteratorIPSt10shared_ptrI13ThreadContextESt6vectorIS3_SaIS3_EEEptEv
FN:1052,_ZN9__gnu_cxx17__normal_iteratorIPmSt6vectorImSaImEEEppEv
FN:1052,_ZN9__gnu_cxx17__normal_iteratorIPK4EdgeSt6vectorIS1_SaIS1_EEEppEv
FN:1052,_ZN9__gnu_cxx17__normal_iteratorIP4EdgeSt6vectorIS1_SaIS1_EEEppEv
FN:1052,_ZN9__gnu_cxx17__normal_iteratorIPiSt6vectorIiSaIiEEEppEv
FN:1052,_ZN9__gnu_cxx17__normal_iteratorIPSt10unique_ptrI12ActiveObjectSt14default_deleteIS2_EESt6vectorIS5_SaIS5_EEEppEv
FN:1052,_ZN9__gnu_cxx17__normal_iteratorIPSt10shared_ptrI13ThreadContextESt6vectorIS3_SaIS3_EEEppEv
FN:1066,_ZN9__gnu_cxx17__normal_iteratorIPiSt6vectorIiSaIiEEEmmEv
FN:1066,_ZN9__gnu_cxx17__normal_iteratorIPSt4pairIiiESt6vectorIS2_SaIS2_EEEmmEv
FN:1066,_ZN9__gnu_cxx17__normal_iteratorIP4EdgeSt6vectorIS1_SaIS1_EEEmmEv
FN:1090,_ZNK9__gnu_cxx17__normal_iteratorIP4EdgeSt6vectorIS1_SaIS1_EEEplEl
FN:1090,_ZNK9__gnu_cxx17__normal_iteratorIPiSt6vectorIiSaIiEEEplEl
FN:1090,_ZNK9__gnu_cxx17__normal_iteratorIPSt4pairIiiESt6vectorIS2_SaIS2_EEEplEl
FN:1100,_ZNK9__gnu_cxx17__normal_iteratorIPSt4pairIiiESt6vectorIS2_SaIS2_EEEmiEl
FN:1100,_ZNK9__gnu_cxx17__normal_iteratorIPiSt6vectorIiSaIiEEEmiEl
FN:1100,_ZNK9__gnu_cxx17__normal_iteratorIP4EdgeSt6vectorIS1_SaIS1_EEEmiEl
FN:1100,_ZNK9__gnu_cxx17__normal_iteratorIPSt10unique_ptrI12ActiveObjectSt14default_deleteIS2_EESt6vectorIS5_SaIS5_EEEmiEl
FN:1105,_ZNK9__gnu_cxx17__normal_iteratorIP4EdgeSt6vectorIS1_SaIS1_EEE4baseEv
FN:1105,_ZNK9__gnu_cxx17__normal_iteratorIPKSt4pairIiiESt6vectorIS2_SaIS2_EEE4baseEv
FN:1105,_ZNK9__gnu_cxx17__normal_iteratorIPKSt6vectorI4EdgeSaIS2_EES1_IS4_SaIS4_EEE4baseEv
FN:1105,_ZNK9__gnu_cxx17__normal_iteratorIPSt10unique_ptrI12ActiveObjectSt14default_deleteIS2_EESt6vectorIS5_SaIS5_EEE4baseEv
FN:1105,_ZNK9__gnu_cxx17__normal_iteratorIPSt4pairIiiESt6vectorIS2_SaIS2_EEE4baseEv
FN:1105,_ZNK9__gnu_cxx17__normal_iteratorIPKiSt6vectorIiSaIiEEE4baseEv
FN:1105,_ZNK9__gnu_cxx17__normal_iteratorIPSt6vectorIiSaIiEES1_IS3_SaIS3_EEE4baseEv
FN:1105,_ZNK9__gnu_cxx17__normal_iteratorIPSt10shared_ptrI13ThreadContextESt6vectorIS3_SaIS3_EEE4baseEv
FN:1105,_ZNK9__gnu_cxx17__normal_iteratorIPiSt6vectorIiSaIiEEE4baseEv
FN:1105,_ZNK9__gnu_cxx17__normal_iteratorIPmSt6vectorImSaImEEE4baseEv
FN:1105,_ZNK9__gnu_cxx17__normal_iteratorIPK4EdgeSt6vectorIS1_SaIS1_EEE4baseEv
FN:1163,_ZN9__gnu_cxxeqIPiSt6vectorIiSaIiEEEEbRKNS_17__normal_iteratorIT_T0_EESA_
FN:1163,_ZN9__gnu_cxxeqIPSt10unique_ptrI12ActiveObjectSt14default_deleteIS2_EESt6vectorIS5_SaIS5_EEEEbRKNS_17__normal_iteratorIT_T0_EESF_
FN:1163,_ZN9__gnu_cxxeqIPKSt6vectorI4EdgeSaIS2_EES1_IS4_SaIS4_EEEEbRKNS_17__normal_iteratorIT_T0_EESE_
FN:1163,_ZN9__gnu_cxxeqIP4EdgeSt6vectorIS1_SaIS1_EEEEbRKNS_17__normal_iteratorIT_T0_EESB_
FN:1163,_ZN9__gnu_cxxeqIPKSt4pairIiiESt6vectorIS2_SaIS2_EEEEbRKNS_17__normal_iteratorIT_T0_EESD_
FN:1179,_ZN9__gnu_cxxneIPmSt6vectorImSaImEEEEbRKNS_17__normal_iteratorIT_T0_EESA_
FN:1179,_ZN9__gnu_cxxneIPSt10shared_ptrI13ThreadContextESt6vectorIS3_SaIS3_EEEEbRKNS_17__normal_iteratorIT_T0_EESD_
FN:1179,_ZN9__gnu_cxxneIPK4EdgeSt6vectorIS1_SaIS1_EEEEbRKNS_17__normal_iteratorIT_T0_EESC_
FN:1179,_ZN9__gnu_cxxneIPSt10unique_ptrI12ActiveObjectSt14default_deleteIS2_EESt6vectorIS5_SaIS5_EEEEbRKNS_17__normal_iteratorIT_T0_EESF_
FN:1179,_ZN9__gnu_cxxneIP4EdgeSt6vectorIS1_SaIS1_EEEEbRKNS_17__normal_iteratorIT_T0_EESB_
FN:1195,_ZN9__gnu_cxxltIPiSt6vectorIiSaIiEEEEbRKNS_17__normal_iteratorIT_T0_EESA_
FN:1195,_ZN9__gnu_cxxltIP4EdgeSt6vectorIS1_SaIS1_EEEEbRKNS_17__normal_iteratorIT_T0_EESB_
FN:1268,_ZN9__gnu_cxxmiIPSt10unique_ptrI12ActiveObjectSt14default_deleteIS2_EESt6vectorIS5_SaIS5_EEEENS_17__normal_iteratorIT_T0_E15difference_typeERKSD_SG_
FN:1268,_ZN9__gnu_cxxmiIPSt4pairIiiESt6vectorIS2_SaIS2_EEEENS_17__normal_iteratorIT_T0_E15difference_typeERKSA_SD_
FN:1268,_ZN9__gnu_cxxmiIPSt6vectorIiSaIiEES1_IS3_SaIS3_EEEENS_17__normal_iteratorIT_T0_E15difference_typeERKSA_SD_
FN:1268,_ZN9__gnu_cxxmiIP4EdgeSt6vectorIS1_SaIS1_EEEENS_17__normal_iteratorIT_T0_E15difference_typeERKS9_SC_
FN:1268,_ZN9__gnu_cxxmiIPmSt6vectorImSaImEEEENS_17__normal_iteratorIT_T0_E15difference_typeERKS8_SB_
FN:1268,_ZN9__gnu_cxxmiIPiSt6vectorIiSaIiEEEENS_17__normal_iteratorIT_T0_E15difference_typeERKS8_SB_
FN:1291,_ZSt12__niter_baseIPiSt6vectorIiSaIiEEET_N9__gnu_cxx17__normal_iteratorIS4_T0_EE
FN:1291,_ZSt12__niter_baseIP4EdgeSt6vectorIS0_SaIS0_EEET_N9__gnu_cxx17__normal_iteratorIS5_T0_EE
FN:1291,_ZSt12__niter_baseIPK4EdgeSt6vectorIS0_SaIS0_EEET_N9__gnu_cxx17__normal_iteratorIS6_T0_EE
FN:1291,_ZSt12__niter_baseIPKiSt6vectorIiSaIiEEET_N9__gnu_cxx17__normal_iteratorIS5_T0_EE
FN:1291,_ZSt12__niter_baseIPmSt6vectorImSaImEEET_N9__gnu_cxx17__normal_iteratorIS4_T0_EE
FN:1439,_ZNSt13move_iteratorIN9__gnu_cxx17__normal_iteratorIPmSt6vectorImSaImEEEEEC2ES6_
FN:1439,_ZNSt13move_iteratorIPSt6vectorIiSaIiEEEC2ES3_
FN:1439,_ZNSt13move_iteratorIN9__gnu_cxx17__normal_iteratorIPSt10unique_ptrI12ActiveObjectSt14default_deleteIS3_EESt6vectorIS6_SaIS6_EEEEEC2ESB_
FN:1464,_ZNKSt13move_iteratorIN9__gnu_cxx17__normal_iteratorIPmSt6vectorImSaImEEEEE4baseEv
FN:1464,_ZNKSt13move_iteratorIN9__gnu_cxx17__normal_iteratorIPSt10unique_ptrI12ActiveObjectSt14default_deleteIS3_EESt6vectorIS6_SaIS6_EEEEE4baseEv
FN:1464,_ZNKSt13move_iteratorIPSt6vectorIiSaIiEEE4baseEv
FN:1477,_ZNKSt13move_iteratorIN9__gnu_cxx17__normal_iteratorIPSt10unique_ptrI12ActiveObjectSt14default_deleteIS3_EESt6vectorIS6_SaIS6_EEEEEdeEv
FN:1477,_ZNKSt13move_iteratorIPSt6vectorIiSaIiEEEdeEv
FN:1489,_ZNSt13move_iteratorIPSt6vectorIiSaIiEEEppEv
FN:1489,_ZNSt13move_iteratorIN9__gnu_cxx17__normal_iteratorIPSt10unique_ptrI12ActiveObjectSt14default_deleteIS3_EESt6vectorIS6_SaIS6_EEEEEppEv
FN:1648,_ZSteqIN9__gnu_cxx17__normal_iteratorIPSt10unique_ptrI12ActiveObjectSt14default_deleteIS3_EESt6vectorIS6_SaIS6_EEEEEbRKSt13move_iteratorIT_ESG_
FN:1648,_ZSteqIPSt6vectorIiSaIiEEEbRKSt13move_iteratorIT_ES8_
FN:1661,_ZStneIN9__gnu_cxx17__normal_iteratorIPSt10unique_ptrI12ActiveObjectSt14default_deleteIS3_EESt6vectorIS6_SaIS6_EEEEEbRKSt13move_iteratorIT_ESG_
FN:1661,_ZStneIPSt6vectorIiSaIiEEEbRKSt13move_iteratorIT_ES8_
FN:1693,_ZStmiIN9__gnu_cxx17__normal_iteratorIPSt10unique_ptrI12ActiveObjectSt14default_deleteIS3_EESt6vectorIS6_SaIS6_EEEESB_EDTmicldtfp_4baseEcldtfp0_4baseEERKSt13move_iteratorIT_ERKSD_IT0_E
FN:1693,_ZStmiIN9__gnu_cxx17__normal_iteratorIPmSt6vectorImSaImEEEES6_EDTmicldtfp_4baseEcldtfp0_4baseEERKSt13move_iteratorIT_ERKS8_IT0_E
FN:1706,_ZSt18make_move_iteratorIPSt6vectorIiSaIiEEESt13move_iteratorIT_ES5_
FN:1714,_ZSt32__make_move_if_noexcept_iteratorIN9__gnu_cxx17__normal_iteratorIPmSt6vectorImSaImEEEESt13move_iteratorIS6_EET0_T_
FN:1714,_ZSt32__make_move_if_noexcept_iteratorIN9__gnu_cxx17__normal_iteratorIPSt10unique_ptrI12ActiveObjectSt14default_deleteIS3_EESt6vectorIS6_SaIS6_EEEESt13move_iteratorISB_EET0_T_
FN:1723,_ZSt32__make_move_if_noexcept_iteratorISt6vectorIiSaIiEESt13move_iteratorIPS2_EET0_PT_
FN:2464,_ZSt12__miter_baseIN9__gnu_cxx17__normal_iteratorIPmSt6vectorImSaImEEEEEDTcl12__miter_basecldtfp_4baseEEESt13move_iteratorIT_E
FNDA:8,_ZNKSt13move_iteratorIN9__gnu_cxx17__normal_iteratorIPmSt6vectorImSaImEEEEE4baseEv
FNDA:24,_ZN9__gnu_cxx17__normal_iteratorIPKSt6vectorI4EdgeSaIS2_EES1_IS4_SaIS4_EEEC2ERKS6_
FNDA:4,_ZNSt13move_iteratorIN9__gnu_cxx17__normal_iteratorIPmSt6vectorImSaImEEEEEC2ES6_
FNDA:28,_ZNK9__gnu_cxx17__normal_iteratorIPSt10unique_ptrI12ActiveObjectSt14default_deleteIS2_EESt6vectorIS5_SaIS5_EEEdeEv
FNDA:0,_ZNKSt13move_iteratorIN9__gnu_cxx17__normal_iteratorIPSt10unique_ptrI12ActiveObjectSt14default_deleteIS3_EESt6vectorIS6_SaIS6_EEEEEdeEv
FNDA:2032,_ZNK9__gnu_cxx17__normal_iteratorIP4EdgeSt6vectorIS1_SaIS1_EEE4baseEv
FNDA:10,_ZN9__gnu_cxxmiIPSt10unique_ptrI12ActiveObjectSt14default_deleteIS2_EESt6vectorIS5_SaIS5_EEEENS_17__normal_iteratorIT_T0_E15difference_typeERKSD_SG_
FNDA:2,_ZStneIN9__gnu_cxx17__normal_iteratorIPSt10unique_ptrI12ActiveObjectSt14default_deleteIS3_EESt6vectorIS6_SaIS6_EEEEEbRKSt13move_iteratorIT_ESG_
FNDA:66,_ZNK9__gnu_cxx17__normal_iteratorIPKSt4pairIiiESt6vectorIS2_SaIS2_EEE4baseEv
FNDA:2,_ZSteqIN9__gnu_cxx17__normal_iteratorIPSt10unique_ptrI12ActiveObjectSt14default_deleteIS3_EESt6vectorIS6_SaIS6_EEEEEbRKSt13move_iteratorIT_ESG_
FNDA:20,_ZN9__gnu_cxx17__normal_iteratorIPmSt6vectorImSaImEEEC2ERKS1_
FNDA:18,_ZN9__gnu_cxxltIPiSt6vectorIiSaIiEEEEbRKNS_17__normal_iteratorIT_T0_EESA_
FNDA:18,_ZN9__gnu_cxx17__normal_iteratorIPiSt6vectorIiSaIiEEEmmEv
FNDA:4,_ZSt12__miter_baseIN9__gnu_cxx17__normal_iteratorIPmSt6vectorImSaImEEEEEDTcl12__miter_basecldtfp_4baseEEESt13move_iteratorIT_E
FNDA:0,_ZSt12__niter_baseIPiSt6vectorIiSaIiEEET_N9__gnu_cxx17__normal_iteratorIS4_T0_EE
FNDA:96,_ZN9__gnu_cxx17__normal_iteratorIPKiSt6vectorIiSaIiEEEC2ERKS2_
FNDA:635,_ZNK9__gnu_cxx17__normal_iteratorIP4EdgeSt6vectorIS1_SaIS1_EEEdeEv
FNDA:24,_ZSt32__make_move_if_noexcept_iteratorISt6vectorIiSaIiEESt13move_iteratorIPS2_EET0_PT_
FNDA:6,_ZN9__gnu_cxxeqIPiSt6vectorIiSaIiEEEEbRKNS_17__normal_iteratorIT_T0_EESA_
FNDA:24,_ZNK9__gnu_cxx17__normal_iteratorIPKSt6vectorI4EdgeSaIS2_EES1_IS4_SaIS4_EEE4baseEv
FNDA:72,_ZNK9__gnu_cxx17__normal_iteratorIPSt10unique_ptrI12ActiveObjectSt14default_deleteIS2_EESt6vectorIS5_SaIS5_EEE4baseEv
FNDA:0,_ZN9__gnu_cxx17__normal_iteratorIPSt4pairIiiESt6vectorIS2_SaIS2_EEEmmEv
FNDA:6,_ZN9__gnu_cxx17__normal_iteratorIPmSt6vectorImSaImEEEppEv
FNDA:60,_ZN9__gnu_cxxmiIPSt4pairIiiESt6vectorIS2_SaIS2_EEEENS_17__normal_iteratorIT_T0_E15difference_typeERKSA_SD_
FNDA:56,_ZNK9__gnu_cxx17__normal_iteratorIPiSt6vectorIiSaIiEEEdeEv
FNDA:26,_ZNK9__gnu_cxx17__normal_iteratorIP4EdgeSt6vectorIS1_SaIS1_EEEplEl
FNDA:6,_ZNK9__gnu_cxx17__normal_iteratorIPmSt6vectorImSaImEEEdeEv
FNDA:4,_ZSt32__make_move_if_noexcept_iteratorIN9__gnu_cxx17__normal_iteratorIPmSt6vectorImSaImEEEESt13move_iteratorIS6_EET0_T_
FNDA:40,_ZSt12__niter_baseIP4EdgeSt6vectorIS0_SaIS0_EEET_N9__gnu_cxx17__normal_iteratorIS5_T0_EE
FNDA:96,_ZN9__gnu_cxx17__normal_iteratorIPK4EdgeSt6vectorIS1_SaIS1_EEEppEv
FNDA:2,_ZN9__gnu_cxxeqIPSt10unique_ptrI12ActiveObjectSt14default_deleteIS2_EESt6vectorIS5_SaIS5_EEEEbRKNS_17__normal_iteratorIT_T0_EESF_
FNDA:96,_ZNK9__gnu_cxx17__normal_iteratorIPK4EdgeSt6vectorIS1_SaIS1_EEEdeEv
FNDA:8,_ZN9__gnu_cxxneIPmSt6vectorImSaImEEEEbRKNS_17__normal_iteratorIT_T0_EESA_
FNDA:54,_ZNK9__gnu_cxx17__normal_iteratorIPSt4pairIiiESt6vectorIS2_SaIS2_EEEmiEl
FNDA:27,_ZNK9__gnu_cxx17__normal_iteratorIPKSt4pairIiiESt6vectorIS2_SaIS2_EEEdeEv
FNDA:6,_ZN9__gnu_cxxmiIPSt6vectorIiSaIiEES1_IS3_SaIS3_EEEENS_17__normal_iteratorIT_T0_E15difference_typeERKSA_SD_
FNDA:8,_ZNKSt13move_iteratorIN9__gnu_cxx17__normal_iteratorIPSt10unique_ptrI12ActiveObjectSt14default_deleteIS3_EESt6vectorIS6_SaIS6_EEEEE4baseEv
FNDA:357,_ZN9__gnu_cxx17__normal_iteratorIP4EdgeSt6vectorIS1_SaIS1_EEEppEv
FNDA:132,_ZNK9__gnu_cxx17__normal_iteratorIPSt4pairIiiESt6vectorIS2_SaIS2_EEE4baseEv
FNDA:81,_ZNK9__gnu_cxx17__normal_iteratorIPSt4pairIiiESt6vectorIS2_SaIS2_EEEdeEv
FNDA:28,_ZN9__gnu_cxxneIPSt10shared_ptrI13ThreadContextESt6vectorIS3_SaIS3_EEEEbRKNS_17__normal_iteratorIT_T0_EESD_
FNDA:2,_ZStmiIN9__gnu_cxx17__normal_iteratorIPSt10unique_ptrI12ActiveObjectSt14default_deleteIS3_EESt6vectorIS6_SaIS6_EEEESB_EDTmicldtfp_4baseEcldtfp0_4baseEERKSt13move_iteratorIT_ERKSD_IT0_E
FNDA:12,_ZSteqIPSt6vectorIiSaIiEEEbRKSt13move_iteratorIT_ES8_
FNDA:0,_ZN9__gnu_cxxltIP4EdgeSt6vectorIS1_SaIS1_EEEEbRKNS_17__normal_iteratorIT_T0_EESB_
FNDA:144,_ZN9__gnu_cxxneIPK4EdgeSt6vectorIS1_SaIS1_EEEEbRKNS_17__normal_iteratorIT_T0_EESC_
FNDA:96,_ZNK9__gnu_cxx17__normal_iteratorIPKiSt6vectorIiSaIiEEE4baseEv
FNDA:48,_ZSt12__niter_baseIPK4EdgeSt6vectorIS0_SaIS0_EEET_N9__gnu_cxx17__normal_iteratorIS6_T0_EE
FNDA:116,_ZN9__gnu_cxx17__normal_iteratorIPiSt6vectorIiSaIiEEEC2ERKS1_
FNDA:24,_ZNKSt13move_iteratorIPSt6vectorIiSaIiEEE4baseEv
FNDA:12,_ZN9__gnu_cxx17__normal_iteratorIPiSt6vectorIiSaIiEEEppEv
FNDA:4,_ZSt32__make_move_if_noexcept_iteratorIN9__gnu_cxx17__normal_iteratorIPSt10unique_ptrI12ActiveObjectSt14default_deleteIS3_EESt6vectorIS6_SaIS6_EEEESt13move_iteratorISB_EET0_T_
FNDA:0,_ZNK9__gnu_cxx17__normal_iteratorIPiSt6vectorIiSaIiEEEplEl
FNDA:96,_ZSt12__niter_baseIPKiSt6vectorIiSaIiEEET_N9__gnu_cxx17__normal_iteratorIS5_T0_EE
FNDA:0,_ZNSt13move_iteratorIPSt6vectorIiSaIiEEEppEv
FNDA:1172,_ZN9__gnu_cxx17__normal_iteratorIP4EdgeSt6vectorIS1_SaIS1_EEEC2ERKS2_
FNDA:1,_ZNK9__gnu_cxx17__normal_iteratorIPSt10shared_ptrI13ThreadContextESt6vectorIS3_SaIS3_EEEptEv
FNDA:0,_ZSt18make_move_iteratorIPSt6vectorIiSaIiEEESt13move_iteratorIT_ES5_
FNDA:24,_ZNK9__gnu_cxx17__normal_iteratorIPSt6vectorIiSaIiEES1_IS3_SaIS3_EEE4baseEv
FNDA:93,_ZN9__gnu_cxx17__normal_iteratorIPKSt4pairIiiESt6vectorIS2_SaIS2_EEEC2ERKS4_
FNDA:24,_ZNSt13move_iteratorIPSt6vectorIiSaIiEEEC2ES3_
FNDA:12,_ZN9__gnu_cxxeqIPKSt6vectorI4EdgeSaIS2_EES1_IS4_SaIS4_EEEEbRKNS_17__normal_iteratorIT_T0_EESE_
FNDA:14,_ZN9__gnu_cxx17__normal_iteratorIPSt10unique_ptrI12ActiveObjectSt14default_deleteIS2_EESt6vectorIS5_SaIS5_EEEppEv
FNDA:16,_ZN9__gnu_cxxneIPSt10unique_ptrI12ActiveObjectSt14default_deleteIS2_EESt6vectorIS5_SaIS5_EEEEbRKNS_17__normal_iteratorIT_T0_EESF_
FNDA:144,_ZN9__gnu_cxx17__normal_iteratorIPK4EdgeSt6vectorIS1_SaIS1_EEEC2ERKS3_
FNDA:4,_ZSt12__niter_baseIPmSt6vectorImSaImEEET_N9__gnu_cxx17__normal_iteratorIS4_T0_EE
FNDA:23,_ZN9__gnu_cxx17__normal_iteratorIPSt10shared_ptrI13ThreadContextESt6vectorIS3_SaIS3_EEEppEv
FNDA:56,_ZNK9__gnu_cxx17__normal_iteratorIPSt10shared_ptrI13ThreadContextESt6vectorIS3_SaIS3_EEE4baseEv
FNDA:27,_ZNK9__gnu_cxx17__normal_iteratorIPSt10shared_ptrI13ThreadContextESt6vectorIS3_SaIS3_EEEdeEv
FNDA:12,_ZN9__gnu_cxx17__normal_iteratorIPSt6vectorIiSaIiEES1_IS3_SaIS3_EEEC2ERKS4_
FNDA:570,_ZN9__gnu_cxxneIP4EdgeSt6vectorIS1_SaIS1_EEEEbRKNS_17__normal_iteratorIT_T0_EESB_
FNDA:0,_ZNKSt13move_iteratorIPSt6vectorIiSaIiEEEdeEv
FNDA:12,_ZStneIPSt6vectorIiSaIiEEEbRKSt13move_iteratorIT_ES8_
FNDA:52,_ZN9__gnu_cxx17__normal_iteratorIPSt10unique_ptrI12ActiveObjectSt14default_deleteIS2_EESt6vectorIS5_SaIS5_EEEC2ERKS6_
FNDA:336,_ZNK9__gnu_cxx17__normal_iteratorIPK4EdgeSt6vectorIS1_SaIS1_EEE4baseEv
FNDA:8,_ZN9__gnu_cxxmiIPmSt6vectorImSaImEEEENS_17__normal_iteratorIT_T0_E15difference_typeERKS8_SB_
FNDA:128,_ZNK9__gnu_cxx17__normal_iteratorIPiSt6vectorIiSaIiEEE4baseEv
FNDA:219,_ZN9__gnu_cxxmiIP4EdgeSt6vectorIS1_SaIS1_EEEENS_17__normal_iteratorIT_T0_E15difference_typeERKS9_SC_
FNDA:32,_ZNK9__gnu_cxx17__normal_iteratorIPiSt6vectorIiSaIiEEEmiEl
FNDA:0,_ZNSt13move_iteratorIN9__gnu_cxx17__normal_iteratorIPSt10unique_ptrI12ActiveObjectSt14default_deleteIS3_EESt6vectorIS6_SaIS6_EEEEEppEv
FNDA:165,_ZNK9__gnu_cxx17__normal_iteratorIP4EdgeSt6vectorIS1_SaIS1_EEEmiEl
FNDA:2,_ZStmiIN9__gnu_cxx17__normal_iteratorIPmSt6vectorImSaImEEEES6_EDTmicldtfp_4baseEcldtfp0_4baseEERKSt13move_iteratorIT_ERKS8_IT0_E
FNDA:48,_ZNK9__gnu_cxx17__normal_iteratorIPmSt6vectorImSaImEEE4baseEv
FNDA:12,_ZN9__gnu_cxx17__normal_iteratorIPSt10shared_ptrI13ThreadContextESt6vectorIS3_SaIS3_EEEC2ERKS4_
FNDA:4,_ZNSt13move_iteratorIN9__gnu_cxx17__normal_iteratorIPSt10unique_ptrI12ActiveObjectSt14default_deleteIS3_EESt6vectorIS6_SaIS6_EEEEEC2ESB_
FNDA:33,_ZN9__gnu_cxxeqIPKSt4pairIiiESt6vectorIS2_SaIS2_EEEEbRKNS_17__normal_iteratorIT_T0_EESD_
FNDA:228,_ZN9__gnu_cxx17__normal_iteratorIPSt4pairIiiESt6vectorIS2_SaIS2_EEEC2ERKS3_
FNDA:6,_ZN9__gnu_cxxeqIP4EdgeSt6vectorIS1_SaIS1_EEEEbRKNS_17__normal_iteratorIT_T0_EESB_
FNDA:27,_ZNK9__gnu_cxx17__normal_iteratorIPSt4pairIiiESt6vectorIS2_SaIS2_EEEplEl
FNDA:24,_ZN9__gnu_cxx17__normal_iteratorIP4EdgeSt6vectorIS1_SaIS1_EEEmmEv
FNDA:20,_ZN9__gnu_cxxmiIPiSt6vectorIiSaIiEEEENS_17__normal_iteratorIT_T0_E15difference_typeERKS8_SB_
FNDA:14,_ZNK9__gnu_cxx17__normal_iteratorIPSt10unique_ptrI12ActiveObjectSt14default_deleteIS2_EESt6vectorIS5_SaIS5_EEEmiEl
FNF:91
FNH:82
DA:1027,1969
DA:1028,1969
DA:1042,956
DA:1043,956
DA:1047,1
DA:1048,1
DA:1052,508
DA:1054,508
DA:1055,508
DA:1066,42
DA:1068,42
DA:1069,42
DA:1090,53
DA:1091,53
DA:1100,265
DA:1101,265
DA:1105,3014
DA:1106,3014
DA:1163,59
DA:1166,59
DA:1179,766
DA:1182,766
DA:1195,18
DA:1198,18
DA:1268,323
DA:1271,323
DA:1291,188
DA:1293,188
DA:1439,32
DA:1440,32
DA:1464,40
DA:1465,40
DA:1477,0
DA:1481,0
DA:1489,0
DA:1491,0
DA:1492,0
DA:1648,14
DA:1650,14
DA:1661,14
DA:1663,14
DA:1693,4
DA:1696,4
DA:1706,0
DA:1707,0
DA:1714,8
DA:1715,8
DA:1723,24
DA:1724,24
DA:2464,4
DA:2466,4
LF:51
LH:44
end_of_record
TN:
SF:/usr/include/c++/11/bits/stl_iterator_base_funcs.h
FN:98,_ZSt10__distanceISt13move_iteratorIN9__gnu_cxx17__normal_iteratorIPSt10unique_ptrI12ActiveObjectSt14default_deleteIS4_EESt6vectorIS7_SaIS7_EEEEEENSt15iterator_traitsIT_E15difference_typeESF_SF_St26random_access_iterator_tag
FN:98,_ZSt10__distanceIPcENSt15iterator_traitsIT_E15difference_typeES2_S2_St26random_access_iterator_tag
FN:98,_ZSt10__distanceIPKcENSt15iterator_traitsIT_E15difference_typeES3_S3_St26random_access_iterator_tag
FN:98,_ZSt10__distanceISt13move_iteratorIN9__gnu_cxx17__normal_iteratorIPmSt6vectorImSaImEEEEEENSt15iterator_traitsIT_E15difference_typeESA_SA_St26random_access_iterator_tag
FN:138,_ZSt8distanceISt13move_iteratorIN9__gnu_cxx17__normal_iteratorIPmSt6vectorImSaImEEEEEENSt15iterator_traitsIT_E15difference_typeESA_SA_
FN:138,_ZSt8distanceISt13move_iteratorIN9__gnu_cxx17__normal_iteratorIPSt10unique_ptrI12ActiveObjectSt14default_deleteIS4_EESt6vectorIS7_SaIS7_EEEEEENSt15iterator_traitsIT_E15difference_typeESF_SF_
FN:138,_ZSt8distanceIPcENSt15iterator_traitsIT_E15difference_typeES2_S2_
FN:138,_ZSt8distanceIPKcENSt15iterator_traitsIT_E15difference_typeES3_S3_
FNDA:172,_ZSt10__distanceIPKcENSt15iterator_traitsIT_E15difference_typeES3_S3_St26random_access_iterator_tag
FNDA:54,_ZSt10__distanceIPcENSt15iterator_traitsIT_E15difference_typeES2_S2_St26random_access_iterator_tag
FNDA:2,_ZSt8distanceISt13move_iteratorIN9__gnu_cxx17__normal_iteratorIPSt10unique_ptrI12ActiveObjectSt14default_deleteIS4_EESt6vectorIS7_SaIS7_EEEEEENSt15iterator_traitsIT_E15difference_typeESF_SF_
FNDA:172,_ZSt8distanceIPKcENSt15iterator_traitsIT_E15difference_typeES3_S3_
FNDA:54,_ZSt8distanceIPcENSt15iterator_traitsIT_E15difference_typeES2_S2_
FNDA:2,_ZSt10__distanceISt13move_iteratorIN9__gnu_cxx17__normal_iteratorIPSt10unique_ptrI12ActiveObjectSt14default_deleteIS4_EESt6vectorIS7_SaIS7_EEEEEENSt15iterator_traitsIT_E15difference_typeESF_SF_St26random_access_iterator_tag
FNDA:2,_ZSt8distanceISt13move_iteratorIN9__gnu_cxx17__normal_iteratorIPmSt6vectorImSaImEEEEEENSt15iterator_traitsIT_E15difference_typeESA_SA_
FNDA:2,_ZSt10__distanceISt13move_iteratorIN9__gnu_cxx17__normal_iteratorIPmSt6vectorImSaImEEEEEENSt15iterator_traitsIT_E15difference_typeESA_SA_St26random_access_iterator_tag
FNF:8
FNH:8
DA:98,230
DA:104,230
DA:138,230
DA:141,230
DA:142,460
LF:5
LH:5
end_of_record
TN:
SF:/usr/include/c++/11/bits/stl_iterator_base_types.h
FN:238,_ZSt19__iterator_categoryIN9__gnu_cxx17__normal_iteratorIPiSt6vectorIiSaIiEEEEENSt15iterator_traitsIT_E17iterator_categoryERKS8_
FN:238,_ZSt19__iterator_categoryIPcENSt15iterator_traitsIT_E17iterator_categoryERKS2_
FN:238,_ZSt19__iterator_categoryISt13move_iteratorIN9__gnu_cxx17__normal_iteratorIPSt10unique_ptrI12ActiveObjectSt14default_deleteIS4_EESt6vectorIS7_SaIS7_EEEEEENSt15iterator_traitsIT_E17iterator_categoryERKSF_
FN:238,_ZSt19__iterator_categoryIPKcENSt15iterator_traitsIT_E17iterator_categoryERKS3_
FN:238,_ZSt19__iterator_categoryISt13move_iteratorIN9__gnu_cxx17__normal_iteratorIPmSt6vectorImSaImEEEEEENSt15iterator_traitsIT_E17iterator_categoryERKSA_
FN:238,_ZSt19__iterator_categoryIPiENSt15iterator_traitsIT_E17iterator_categoryERKS2_
FNDA:4,_ZSt19__iterator_categoryISt13move_iteratorIN9__gnu_cxx17__normal_iteratorIPmSt6vectorImSaImEEEEEENSt15iterator_traitsIT_E17iterator_categoryERKSA_
FNDA:66,_ZSt19__iterator_categoryIPiENSt15iterator_traitsIT_E17iterator_categoryERKS2_
FNDA:6,_ZSt19__iterator_categoryIN9__gnu_cxx17__normal_iteratorIPiSt6vectorIiSaIiEEEEENSt15iterator_traitsIT_E17iterator_categoryERKS8_
FNDA:54,_ZSt19__iterator_categoryIPcENSt15iterator_traitsIT_E17iterator_categoryERKS2_
FNDA:4,_ZSt19__iterator_categoryISt13move_iteratorIN9__gnu_cxx17__normal_iteratorIPSt10unique_ptrI12ActiveObjectSt14default_deleteIS4_EESt6vectorIS7_SaIS7_EEEEEENSt15iterator_traitsIT_E17iterator_categoryERKSF_
FNDA:172,_ZSt19__iterator_categoryIPKcENSt15iterator_traitsIT_E17iterator_categoryERKS3_
FNF:6
FNH:6
DA:238,306
DA:239,306
LF:2
LH:2
end_of_record
TN:
SF:/usr/include/c++/11/bits/stl_map.h
FN:185,_ZNSt3mapIiSt8functionIFvvEESt4lessIiESaISt4pairIKiS2_EEEC2Ev
FN:302,_ZNSt3mapIiSt8functionIFvvEESt4lessIiESaISt4pairIKiS2_EEED2Ev
FN:374,_ZNSt3mapIiSt8functionIFvvEESt4lessIiESaISt4pairIKiS2_EEE3endEv
FN:492,_ZNSt3mapIiSt8functionIFvvEESt4lessIiESaISt4pairIKiS2_EEEixERS6_
FN:1142,_ZNKSt3mapIiSt8functionIFvvEESt4lessIiESaISt4pairIKiS2_EEE8key_compEv
FN:1169,_ZNSt3mapIiSt8functionIFvvEESt4lessIiESaISt4pairIKiS2_EEE4findERS6_
FN:1258,_ZNSt3mapIiSt8functionIFvvEESt4lessIiESaISt4pairIKiS2_EEE11lower_boundERS6_
FNDA:4,_ZNSt3mapIiSt8functionIFvvEESt4lessIiESaISt4pairIKiS2_EEE11lower_boundERS6_
FNDA:4,_ZNSt3mapIiSt8functionIFvvEESt4lessIiESaISt4pairIKiS2_EEEixERS6_
FNDA:3,_ZNKSt3mapIiSt8functionIFvvEESt4lessIiESaISt4pairIKiS2_EEE8key_compEv
FNDA:1,_ZNSt3mapIiSt8functionIFvvEESt4lessIiESaISt4pairIKiS2_EEEC2Ev
FNDA:7,_ZNSt3mapIiSt8functionIFvvEESt4lessIiESaISt4pairIKiS2_EEE3endEv
FNDA:1,_ZNSt3mapIiSt8functionIFvvEESt4lessIiESaISt4pairIKiS2_EEED2Ev
FNDA:3,_ZNSt3mapIiSt8functionIFvvEESt4lessIiESaISt4pairIKiS2_EEE4findERS6_
FNF:7
FNH:7
DA:185,1
DA:302,1
DA:374,7
DA:375,7
DA:492,4
DA:497,4
DA:499,4
DA:501,1
DA:502,1
DA:503,1
DA:507,4
DA:1142,3
DA:1143,3
DA:1169,3
DA:1170,3
DA:1258,4
DA:1259,4
LF:17
LH:17
end_of_record
TN:
SF:/usr/include/c++/11/bits/stl_pair.h
FN:322,_ZNSt4pairIPSt18_Rb_tree_node_baseS1_EC2IRS1_Lb1EEEOT_RKS1_
FN:336,_ZNSt4pairIPSt18_Rb_tree_node_baseS1_EC2IRS1_Lb1EEERKS1_OT_
FN:352,_ZNSt4pairIiiEC2IRiS2_Lb1EEEOT_OT0_
FN:352,_ZNSt4pairIPSt18_Rb_tree_node_baseS1_EC2IRPSt13_Rb_tree_nodeIS_IKiSt8functionIFvvEEEERS1_Lb1EEEOT_OT0_
FN:352,_ZNSt4pairIiiEC2IRiiLb1EEEOT_OT0_
FN:352,_ZNSt4pairIPSt18_Rb_tree_node_baseS1_EC2IRS1_S4_Lb1EEEOT_OT0_
FN:352,_ZNSt4pairIiiEC2IiRiLb1EEEOT_OT0_
FN:401,_ZNSt4pairIiiEaSEOS0_
FN:489,_ZStltIiiEbRKSt4pairIT_T0_ES5_
FN:502,_ZStgtIiiEbRKSt4pairIT_T0_ES5_
FNDA:0,_ZStltIiiEbRKSt4pairIT_T0_ES5_
FNDA:27,_ZNSt4pairIiiEaSEOS0_
FNDA:6,_ZNSt4pairIiiEC2IiRiLb1EEEOT_OT0_
FNDA:0,_ZStgtIiiEbRKSt4pairIT_T0_ES5_
FNDA:0,_ZNSt4pairIPSt18_Rb_tree_node_baseS1_EC2IRS1_Lb1EEEOT_RKS1_
FNDA:12,_ZNSt4pairIiiEC2IRiS2_Lb1EEEOT_OT0_
FNDA:0,_ZNSt4pairIPSt18_Rb_tree_node_baseS1_EC2IRS1_S4_Lb1EEEOT_OT0_
FNDA:21,_ZNSt4pairIiiEC2IRiiLb1EEEOT_OT0_
FNDA:1,_ZNSt4pairIPSt18_Rb_tree_node_baseS1_EC2IRPSt13_Rb_tree_nodeIS_IKiSt8functionIFvvEEEERS1_Lb1EEEOT_OT0_
FNDA:0,_ZNSt4pairIPSt18_Rb_tree_node_baseS1_EC2IRS1_Lb1EEERKS1_OT_
FNF:10
FNH:5
DA:322,0
DA:323,0
DA:336,0
DA:337,0
DA:352,40
DA:353,40
DA:401,27
DA:408,27
DA:409,27
DA:410,27
DA:489,0
DA:490,0
DA:491,0
DA:502,0
DA:503,0
LF:15
LH:6
end_of_record
TN:
SF:/usr/include/c++/11/bits/stl_queue.h
FN:166,_ZNSt5queueISt8functionIFvvEESt5dequeIS2_SaIS2_EEEC2IS5_vEEv
FN:203,_ZNKSt5queueISt8functionIFvvEESt5dequeIS2_SaIS2_EEE5emptyEv
FN:216,_ZNSt5queueISt8functionIFvvEESt5dequeIS2_SaIS2_EEE5frontEv
FN:276,_ZNSt5queueISt8functionIFvvEESt5dequeIS2_SaIS2_EEE7emplaceIJRZ14handleCommandsiRSt6vectorISt10unique_ptrI12ActiveObjectSt14default_deleteISA_EESaISD_EERS9_I5GraphSB_ISH_EER10MSTFactoryRS9_I4TreeSB_ISN_EEEUlvE4_EEEDcDpOT_
FN:276,_ZNSt5queueISt8functionIFvvEESt5dequeIS2_SaIS2_EEE7emplaceIJRZ14handleCommandsiRSt6vectorISt10unique_ptrI12ActiveObjectSt14default_deleteISA_EESaISD_EERS9_I5GraphSB_ISH_EER10MSTFactoryRS9_I4TreeSB_ISN_EEEUlvE6_EEEDcDpOT_
FN:276,_ZNSt5queueISt8functionIFvvEESt5dequeIS2_SaIS2_EEE7emplaceIJRZ14handleCommandsiRSt6vectorISt10unique_ptrI12ActiveObjectSt14default_deleteISA_EESaISD_EERS9_I5GraphSB_ISH_EER10MSTFactoryRS9_I4TreeSB_ISN_EEEUlvE1_EEEDcDpOT_
FN:276,_ZNSt5queueISt8functionIFvvEESt5dequeIS2_SaIS2_EEE7emplaceIJRZ14handleCommandsiRSt6vectorISt10unique_ptrI12ActiveObjectSt14default_deleteISA_EESaISD_EERS9_I5GraphSB_ISH_EER10MSTFactoryRS9_I4TreeSB_ISN_EEEUlvE0_EEEDcDpOT_
FN:276,_ZNSt5queueISt8functionIFvvEESt5dequeIS2_SaIS2_EEE7emplaceIJRZ14handleCommandsiRSt6vectorISt10unique_ptrI12ActiveObjectSt14default_deleteISA_EESaISD_EERS9_I5GraphSB_ISH_EER10MSTFactoryRS9_I4TreeSB_ISN_EEEUlvE3_EEEDcDpOT_
FN:276,_ZNSt5queueISt8functionIFvvEESt5dequeIS2_SaIS2_EEE7emplaceIJRZ14handleCommandsiRSt6vectorISt10unique_ptrI12ActiveObjectSt14default_deleteISA_EESaISD_EERS9_I5GraphSB_ISH_EER10MSTFactoryRS9_I4TreeSB_ISN_EEEUlvE2_EEEDcDpOT_
FN:276,_ZNSt5queueISt8functionIFvvEESt5dequeIS2_SaIS2_EEE7emplaceIJRZ14handleCommandsiRSt6vectorISt10unique_ptrI12ActiveObjectSt14default_deleteISA_EESaISD_EERS9_I5GraphSB_ISH_EER10MSTFactoryRS9_I4TreeSB_ISN_EEEUlvE8_EEEDcDpOT_
FN:276,_ZNSt5queueISt8functionIFvvEESt5dequeIS2_SaIS2_EEE7emplaceIJRZ14handleCommandsiRSt6vectorISt10unique_ptrI12ActiveObjectSt14default_deleteISA_EESaISD_EERS9_I5GraphSB_ISH_EER10MSTFactoryRS9_I4TreeSB_ISN_EEEUlvE5_EEEDcDpOT_
FN:276,_ZNSt5queueISt8functionIFvvEESt5dequeIS2_SaIS2_EEE7emplaceIJRZ14handleCommandsiRSt6vectorISt10unique_ptrI12ActiveObjectSt14default_deleteISA_EESaISD_EERS9_I5GraphSB_ISH_EER10MSTFactoryRS9_I4TreeSB_ISN_EEEUlvE10_EEEDcDpOT_
FN:276,_ZNSt5queueISt8functionIFvvEESt5dequeIS2_SaIS2_EEE7emplaceIJRZ14handleCommandsiRSt6vectorISt10unique_ptrI12ActiveObjectSt14default_deleteISA_EESaISD_EERS9_I5GraphSB_ISH_EER10MSTFactoryRS9_I4TreeSB_ISN_EEEUlvE_EEEDcDpOT_
FN:276,_ZNSt5queueISt8functionIFvvEESt5dequeIS2_SaIS2_EEE7emplaceIJRZ14handleCommandsiRSt6vectorISt10unique_ptrI12ActiveObjectSt14default_deleteISA_EESaISD_EERS9_I5GraphSB_ISH_EER10MSTFactoryRS9_I4TreeSB_ISN_EEEUlvE9_EEEDcDpOT_
FN:298,_ZNSt5queueISt8functionIFvvEESt5dequeIS2_SaIS2_EEE3popEv
FN:514,_ZNSt14priority_queueISt4pairIiiESt6vectorIS1_SaIS1_EESt7greaterIS1_EEC2IS4_vEEv
FN:612,_ZNKSt14priority_queueISt4pairIiiESt6vectorIS1_SaIS1_EESt7greaterIS1_EE5emptyEv
FN:625,_ZNKSt14priority_queueISt4pairIiiESt6vectorIS1_SaIS1_EESt7greaterIS1_EE3topEv
FN:648,_ZNSt14priority_queueISt4pairIiiESt6vectorIS1_SaIS1_EESt7greaterIS1_EE4pushEOS1_
FN:675,_ZNSt14priority_queueISt4pairIiiESt6vectorIS1_SaIS1_EESt7greaterIS1_EE3popEv
FNDA:6,_ZNSt5queueISt8functionIFvvEESt5dequeIS2_SaIS2_EEE7emplaceIJRZ14handleCommandsiRSt6vectorISt10unique_ptrI12ActiveObjectSt14default_deleteISA_EESaISD_EERS9_I5GraphSB_ISH_EER10MSTFactoryRS9_I4TreeSB_ISN_EEEUlvE8_EEEDcDpOT_
FNDA:4,_ZNSt5queueISt8functionIFvvEESt5dequeIS2_SaIS2_EEE7emplaceIJRZ14handleCommandsiRSt6vectorISt10unique_ptrI12ActiveObjectSt14default_deleteISA_EESaISD_EERS9_I5GraphSB_ISH_EER10MSTFactoryRS9_I4TreeSB_ISN_EEEUlvE5_EEEDcDpOT_
FNDA:6,_ZNSt14priority_queueISt4pairIiiESt6vectorIS1_SaIS1_EESt7greaterIS1_EEC2IS4_vEEv
FNDA:4,_ZNSt5queueISt8functionIFvvEESt5dequeIS2_SaIS2_EEE7emplaceIJRZ14handleCommandsiRSt6vectorISt10unique_ptrI12ActiveObjectSt14default_deleteISA_EESaISD_EERS9_I5GraphSB_ISH_EER10MSTFactoryRS9_I4TreeSB_ISN_EEEUlvE10_EEEDcDpOT_
FNDA:27,_ZNKSt14priority_queueISt4pairIiiESt6vectorIS1_SaIS1_EESt7greaterIS1_EE3topEv
FNDA:8,_ZNSt5queueISt8functionIFvvEESt5dequeIS2_SaIS2_EEE7emplaceIJRZ14handleCommandsiRSt6vectorISt10unique_ptrI12ActiveObjectSt14default_deleteISA_EESaISD_EERS9_I5GraphSB_ISH_EER10MSTFactoryRS9_I4TreeSB_ISN_EEEUlvE_EEEDcDpOT_
FNDA:14,_ZNSt5queueISt8functionIFvvEESt5dequeIS2_SaIS2_EEEC2IS5_vEEv
FNDA:72,_ZNSt5queueISt8functionIFvvEESt5dequeIS2_SaIS2_EEE3popEv
FNDA:27,_ZNSt14priority_queueISt4pairIiiESt6vectorIS1_SaIS1_EESt7greaterIS1_EE4pushEOS1_
FNDA:4,_ZNSt5queueISt8functionIFvvEESt5dequeIS2_SaIS2_EEE7emplaceIJRZ14handleCommandsiRSt6vectorISt10unique_ptrI12ActiveObjectSt14default_deleteISA_EESaISD_EERS9_I5GraphSB_ISH_EER10MSTFactoryRS9_I4TreeSB_ISN_EEEUlvE9_EEEDcDpOT_
FNDA:4,_ZNSt5queueISt8functionIFvvEESt5dequeIS2_SaIS2_EEE7emplaceIJRZ14handleCommandsiRSt6vectorISt10unique_ptrI12ActiveObjectSt14default_deleteISA_EESaISD_EERS9_I5GraphSB_ISH_EER10MSTFactoryRS9_I4TreeSB_ISN_EEEUlvE4_EEEDcDpOT_
FNDA:72,_ZNSt5queueISt8functionIFvvEESt5dequeIS2_SaIS2_EEE5frontEv
FNDA:10,_ZNSt5queueISt8functionIFvvEESt5dequeIS2_SaIS2_EEE7emplaceIJRZ14handleCommandsiRSt6vectorISt10unique_ptrI12ActiveObjectSt14default_deleteISA_EESaISD_EERS9_I5GraphSB_ISH_EER10MSTFactoryRS9_I4TreeSB_ISN_EEEUlvE6_EEEDcDpOT_
FNDA:4,_ZNSt5queueISt8functionIFvvEESt5dequeIS2_SaIS2_EEE7emplaceIJRZ14handleCommandsiRSt6vectorISt10unique_ptrI12ActiveObjectSt14default_deleteISA_EESaISD_EERS9_I5GraphSB_ISH_EER10MSTFactoryRS9_I4TreeSB_ISN_EEEUlvE1_EEEDcDpOT_
FNDA:150,_ZNKSt5queueISt8functionIFvvEESt5dequeIS2_SaIS2_EEE5emptyEv
FNDA:20,_ZNSt5queueISt8functionIFvvEESt5dequeIS2_SaIS2_EEE7emplaceIJRZ14handleCommandsiRSt6vectorISt10unique_ptrI12ActiveObjectSt14default_deleteISA_EESaISD_EERS9_I5GraphSB_ISH_EER10MSTFactoryRS9_I4TreeSB_ISN_EEEUlvE0_EEEDcDpOT_
FNDA:4,_ZNSt5queueISt8functionIFvvEESt5dequeIS2_SaIS2_EEE7emplaceIJRZ14handleCommandsiRSt6vectorISt10unique_ptrI12ActiveObjectSt14default_deleteISA_EESaISD_EERS9_I5GraphSB_ISH_EER10MSTFactoryRS9_I4TreeSB_ISN_EEEUlvE3_EEEDcDpOT_
FNDA:33,_ZNKSt14priority_queueISt4pairIiiESt6vectorIS1_SaIS1_EESt7greaterIS1_EE5emptyEv
FNDA:27,_ZNSt14priority_queueISt4pairIiiESt6vectorIS1_SaIS1_EESt7greaterIS1_EE3popEv
FNDA:4,_ZNSt5queueISt8functionIFvvEESt5dequeIS2_SaIS2_EEE7emplaceIJRZ14handleCommandsiRSt6vectorISt10unique_ptrI12ActiveObjectSt14default_deleteISA_EESaISD_EERS9_I5GraphSB_ISH_EER10MSTFactoryRS9_I4TreeSB_ISN_EEEUlvE2_EEEDcDpOT_
FNF:20
FNH:20
DA:166,14
DA:167,14
DA:203,150
DA:204,150
DA:216,72
DA:219,72
DA:276,72
DA:277,72
DA:298,72
DA:301,72
DA:302,72
DA:514,6
DA:515,6
DA:612,33
DA:613,33
DA:625,27
DA:628,27
DA:648,27
DA:650,27
DA:651,27
DA:652,27
DA:675,27
DA:678,27
DA:679,27
DA:680,27
LF:25
LH:25
end_of_record
TN:
SF:/usr/include/c++/11/bits/stl_tree.h
FN:146,_ZNSt20_Rb_tree_key_compareISt4lessIiEEC2Ev
FN:173,_ZNSt15_Rb_tree_headerC2Ev
FN:206,_ZNSt15_Rb_tree_header8_M_resetEv
FN:234,_ZNSt13_Rb_tree_nodeISt4pairIKiSt8functionIFvvEEEE9_M_valptrEv
FN:238,_ZNKSt13_Rb_tree_nodeISt4pairIKiSt8functionIFvvEEEE9_M_valptrEv
FN:273,_ZNSt17_Rb_tree_iteratorISt4pairIKiSt8functionIFvvEEEEC2EPSt18_Rb_tree_node_base
FN:277,_ZNKSt17_Rb_tree_iteratorISt4pairIKiSt8functionIFvvEEEEdeEv
FN:285,_ZNSt17_Rb_tree_iteratorISt4pairIKiSt8functionIFvvEEEEppEv
FN:300,_ZNSt17_Rb_tree_iteratorISt4pairIKiSt8functionIFvvEEEEmmEv
FN:315,_ZSteqRKSt17_Rb_tree_iteratorISt4pairIKiSt8functionIFvvEEEES8_
FN:320,_ZStneRKSt17_Rb_tree_iteratorISt4pairIKiSt8functionIFvvEEEES8_
FN:350,_ZNSt23_Rb_tree_const_iteratorISt4pairIKiSt8functionIFvvEEEEC2ERKSt17_Rb_tree_iteratorIS5_E
FN:354,_ZNKSt23_Rb_tree_const_iteratorISt4pairIKiSt8functionIFvvEEEE13_M_const_castEv
FN:547,_ZNSt8_Rb_treeIiSt4pairIKiSt8functionIFvvEEESt10_Select1stIS5_ESt4lessIiESaIS5_EE21_M_get_Node_allocatorEv
FN:560,_ZNSt8_Rb_treeIiSt4pairIKiSt8functionIFvvEEESt10_Select1stIS5_ESt4lessIiESaIS5_EE11_M_get_nodeEv
FN:564,_ZNSt8_Rb_treeIiSt4pairIKiSt8functionIFvvEEESt10_Select1stIS5_ESt4lessIiESaIS5_EE11_M_put_nodeEPSt13_Rb_tree_nodeIS5_E
FN:590,_ZNSt8_Rb_treeIiSt4pairIKiSt8functionIFvvEEESt10_Select1stIS5_ESt4lessIiESaIS5_EE17_M_construct_nodeIJRKSt21piecewise_construct_tSt5tupleIJRS1_EESG_IJEEEEEvPSt13_Rb_tree_nodeIS5_EDpOT_
FN:609,_ZNSt8_Rb_treeIiSt4pairIKiSt8functionIFvvEEESt10_Select1stIS5_ESt4lessIiESaIS5_EE14_M_create_nodeIJRKSt21piecewise_construct_tSt5tupleIJRS1_EESG_IJEEEEEPSt13_Rb_tree_nodeIS5_EDpOT_
FN:618,_ZNSt8_Rb_treeIiSt4pairIKiSt8functionIFvvEEESt10_Select1stIS5_ESt4lessIiESaIS5_EE15_M_destroy_nodeEPSt13_Rb_tree_nodeIS5_E
FN:629,_ZNSt8_Rb_treeIiSt4pairIKiSt8functionIFvvEEESt10_Select1stIS5_ESt4lessIiESaIS5_EE12_M_drop_nodeEPSt13_Rb_tree_nodeIS5_E
FN:667,_ZNSt8_Rb_treeIiSt4pairIKiSt8functionIFvvEEESt10_Select1stIS5_ESt4lessIiESaIS5_EE13_Rb_tree_implIS9_Lb1EEC2Ev
FN:718,_ZNSt8_Rb_treeIiSt4pairIKiSt8functionIFvvEEESt10_Select1stIS5_ESt4lessIiESaIS5_EE11_M_leftmostEv
FN:726,_ZNSt8_Rb_treeIiSt4pairIKiSt8functionIFvvEEESt10_Select1stIS5_ESt4lessIiESaIS5_EE12_M_rightmostEv
FN:734,_ZNKSt8_Rb_treeIiSt4pairIKiSt8functionIFvvEEESt10_Select1stIS5_ESt4lessIiESaIS5_EE9_M_mbeginEv
FN:738,_ZNSt8_Rb_treeIiSt4pairIKiSt8functionIFvvEEESt10_Select1stIS5_ESt4lessIiESaIS5_EE8_M_beginEv
FN:749,_ZNSt8_Rb_treeIiSt4pairIKiSt8functionIFvvEEESt10_Select1stIS5_ESt4lessIiESaIS5_EE6_M_endEv
FN:757,_ZNSt8_Rb_treeIiSt4pairIKiSt8functionIFvvEEESt10_Select1stIS5_ESt4lessIiESaIS5_EE6_S_keyEPKSt13_Rb_tree_nodeIS5_E
FN:779,_ZNSt8_Rb_treeIiSt4pairIKiSt8functionIFvvEEESt10_Select1stIS5_ESt4lessIiESaIS5_EE7_S_leftEPSt18_Rb_tree_node_base
FN:787,_ZNSt8_Rb_treeIiSt4pairIKiSt8functionIFvvEEESt10_Select1stIS5_ESt4lessIiESaIS5_EE8_S_rightEPSt18_Rb_tree_node_base
FN:795,_ZNSt8_Rb_treeIiSt4pairIKiSt8functionIFvvEEESt10_Select1stIS5_ESt4lessIiESaIS5_EE6_S_keyEPKSt18_Rb_tree_node_base
FN:928,_ZNSt8_Rb_treeIiSt4pairIKiSt8functionIFvvEEESt10_Select1stIS5_ESt4lessIiESaIS5_EEC2Ev
FN:983,_ZNSt8_Rb_treeIiSt4pairIKiSt8functionIFvvEEESt10_Select1stIS5_ESt4lessIiESaIS5_EED2Ev
FN:991,_ZNKSt8_Rb_treeIiSt4pairIKiSt8functionIFvvEEESt10_Select1stIS5_ESt4lessIiESaIS5_EE8key_compEv
FN:995,_ZNSt8_Rb_treeIiSt4pairIKiSt8functionIFvvEEESt10_Select1stIS5_ESt4lessIiESaIS5_EE5beginEv
FN:1003,_ZNSt8_Rb_treeIiSt4pairIKiSt8functionIFvvEEESt10_Select1stIS5_ESt4lessIiESaIS5_EE3endEv
FN:1031,_ZNKSt8_Rb_treeIiSt4pairIKiSt8functionIFvvEEESt10_Select1stIS5_ESt4lessIiESaIS5_EE4sizeEv
FN:1269,_ZNSt8_Rb_treeIiSt4pairIKiSt8functionIFvvEEESt10_Select1stIS5_ESt4lessIiESaIS5_EE11lower_boundERS1_
FN:1883,_ZNSt8_Rb_treeIiSt4pairIKiSt8functionIFvvEEESt10_Select1stIS5_ESt4lessIiESaIS5_EE8_M_eraseEPSt13_Rb_tree_nodeIS5_E
FN:1900,_ZNSt8_Rb_treeIiSt4pairIKiSt8functionIFvvEEESt10_Select1stIS5_ESt4lessIiESaIS5_EE14_M_lower_boundEPSt13_Rb_tree_nodeIS5_EPSt18_Rb_tree_node_baseRS1_
FN:2061,_ZNSt8_Rb_treeIiSt4pairIKiSt8functionIFvvEEESt10_Select1stIS5_ESt4lessIiESaIS5_EE24_M_get_insert_unique_posERS1_
FN:2163,_ZNSt8_Rb_treeIiSt4pairIKiSt8functionIFvvEEESt10_Select1stIS5_ESt4lessIiESaIS5_EE29_M_get_insert_hint_unique_posESt23_Rb_tree_const_iteratorIS5_ERS1_
FN:2330,_ZNSt8_Rb_treeIiSt4pairIKiSt8functionIFvvEEESt10_Select1stIS5_ESt4lessIiESaIS5_EE14_M_insert_nodeEPSt18_Rb_tree_node_baseSD_PSt13_Rb_tree_nodeIS5_E
FN:2428,_ZNSt8_Rb_treeIiSt4pairIKiSt8functionIFvvEEESt10_Select1stIS5_ESt4lessIiESaIS5_EE22_M_emplace_hint_uniqueIJRKSt21piecewise_construct_tSt5tupleIJRS1_EESG_IJEEEEESt17_Rb_tree_iteratorIS5_ESt23_Rb_tree_const_iteratorIS5_EDpOT_
FN:2520,_ZNSt8_Rb_treeIiSt4pairIKiSt8functionIFvvEEESt10_Select1stIS5_ESt4lessIiESaIS5_EE4findERS1_
FNDA:9,_ZNKSt8_Rb_treeIiSt4pairIKiSt8functionIFvvEEESt10_Select1stIS5_ESt4lessIiESaIS5_EE9_M_mbeginEv
FNDA:1,_ZNSt8_Rb_treeIiSt4pairIKiSt8functionIFvvEEESt10_Select1stIS5_ESt4lessIiESaIS5_EE11_M_get_nodeEv
FNDA:7,_ZNKSt17_Rb_tree_iteratorISt4pairIKiSt8functionIFvvEEEEdeEv
FNDA:8,_ZSteqRKSt17_Rb_tree_iteratorISt4pairIKiSt8functionIFvvEEEES8_
FNDA:1,_ZNSt8_Rb_treeIiSt4pairIKiSt8functionIFvvEEESt10_Select1stIS5_ESt4lessIiESaIS5_EE14_M_insert_nodeEPSt18_Rb_tree_node_baseSD_PSt13_Rb_tree_nodeIS5_E
FNDA:1,_ZNKSt23_Rb_tree_const_iteratorISt4pairIKiSt8functionIFvvEEEE13_M_const_castEv
FNDA:0,_ZNSt8_Rb_treeIiSt4pairIKiSt8functionIFvvEEESt10_Select1stIS5_ESt4lessIiESaIS5_EE11_M_leftmostEv
FNDA:3,_ZNKSt8_Rb_treeIiSt4pairIKiSt8functionIFvvEEESt10_Select1stIS5_ESt4lessIiESaIS5_EE8key_compEv
FNDA:1,_ZNSt8_Rb_treeIiSt4pairIKiSt8functionIFvvEEESt10_Select1stIS5_ESt4lessIiESaIS5_EE12_M_drop_nodeEPSt13_Rb_tree_nodeIS5_E
FNDA:1,_ZNSt8_Rb_treeIiSt4pairIKiSt8functionIFvvEEESt10_Select1stIS5_ESt4lessIiESaIS5_EE14_M_create_nodeIJRKSt21piecewise_construct_tSt5tupleIJRS1_EESG_IJEEEEEPSt13_Rb_tree_nodeIS5_EDpOT_
FNDA:3,_ZNSt8_Rb_treeIiSt4pairIKiSt8functionIFvvEEESt10_Select1stIS5_ESt4lessIiESaIS5_EE4findERS1_
FNDA:7,_ZNSt8_Rb_treeIiSt4pairIKiSt8functionIFvvEEESt10_Select1stIS5_ESt4lessIiESaIS5_EE7_S_leftEPSt18_Rb_tree_node_base
FNDA:3,_ZNSt8_Rb_treeIiSt4pairIKiSt8functionIFvvEEESt10_Select1stIS5_ESt4lessIiESaIS5_EE6_S_keyEPKSt18_Rb_tree_node_base
FNDA:1,_ZNSt20_Rb_tree_key_compareISt4lessIiEEC2Ev
FNDA:0,_ZNSt17_Rb_tree_iteratorISt4pairIKiSt8functionIFvvEEEEppEv
FNDA:10,_ZNSt8_Rb_treeIiSt4pairIKiSt8functionIFvvEEESt10_Select1stIS5_ESt4lessIiESaIS5_EE6_S_keyEPKSt13_Rb_tree_nodeIS5_E
FNDA:0,_ZNSt8_Rb_treeIiSt4pairIKiSt8functionIFvvEEESt10_Select1stIS5_ESt4lessIiESaIS5_EE12_M_rightmostEv
FNDA:1,_ZNSt8_Rb_treeIiSt4pairIKiSt8functionIFvvEEESt10_Select1stIS5_ESt4lessIiESaIS5_EE15_M_destroy_nodeEPSt13_Rb_tree_nodeIS5_E
FNDA:3,_ZStneRKSt17_Rb_tree_iteratorISt4pairIKiSt8functionIFvvEEEES8_
FNDA:1,_ZNSt8_Rb_treeIiSt4pairIKiSt8functionIFvvEEESt10_Select1stIS5_ESt4lessIiESaIS5_EE22_M_emplace_hint_uniqueIJRKSt21piecewise_construct_tSt5tupleIJRS1_EESG_IJEEEEESt17_Rb_tree_iteratorIS5_ESt23_Rb_tree_const_iteratorIS5_EDpOT_
FNDA:1,_ZNSt15_Rb_tree_headerC2Ev
FNDA:1,_ZNSt23_Rb_tree_const_iteratorISt4pairIKiSt8functionIFvvEEEEC2ERKSt17_Rb_tree_iteratorIS5_E
FNDA:9,_ZNSt13_Rb_tree_nodeISt4pairIKiSt8functionIFvvEEEE9_M_valptrEv
FNDA:1,_ZNSt8_Rb_treeIiSt4pairIKiSt8functionIFvvEEESt10_Select1stIS5_ESt4lessIiESaIS5_EE8_S_rightEPSt18_Rb_tree_node_base
FNDA:1,_ZNSt15_Rb_tree_header8_M_resetEv
FNDA:1,_ZNSt8_Rb_treeIiSt4pairIKiSt8functionIFvvEEESt10_Select1stIS5_ESt4lessIiESaIS5_EE17_M_construct_nodeIJRKSt21piecewise_construct_tSt5tupleIJRS1_EESG_IJEEEEEvPSt13_Rb_tree_nodeIS5_EDpOT_
FNDA:1,_ZNSt8_Rb_treeIiSt4pairIKiSt8functionIFvvEEESt10_Select1stIS5_ESt4lessIiESaIS5_EEC2Ev
FNDA:21,_ZNSt17_Rb_tree_iteratorISt4pairIKiSt8functionIFvvEEEEC2EPSt18_Rb_tree_node_base
FNDA:0,_ZNSt17_Rb_tree_iteratorISt4pairIKiSt8functionIFvvEEEEmmEv
FNDA:10,_ZNSt8_Rb_treeIiSt4pairIKiSt8functionIFvvEEESt10_Select1stIS5_ESt4lessIiESaIS5_EE3endEv
FNDA:1,_ZNSt8_Rb_treeIiSt4pairIKiSt8functionIFvvEEESt10_Select1stIS5_ESt4lessIiESaIS5_EE5beginEv
FNDA:4,_ZNSt8_Rb_treeIiSt4pairIKiSt8functionIFvvEEESt10_Select1stIS5_ESt4lessIiESaIS5_EE11lower_boundERS1_
FNDA:1,_ZNSt8_Rb_treeIiSt4pairIKiSt8functionIFvvEEESt10_Select1stIS5_ESt4lessIiESaIS5_EE29_M_get_insert_hint_unique_posESt23_Rb_tree_const_iteratorIS5_ERS1_
FNDA:1,_ZNKSt8_Rb_treeIiSt4pairIKiSt8functionIFvvEEESt10_Select1stIS5_ESt4lessIiESaIS5_EE4sizeEv
FNDA:2,_ZNSt8_Rb_treeIiSt4pairIKiSt8functionIFvvEEESt10_Select1stIS5_ESt4lessIiESaIS5_EE8_M_eraseEPSt13_Rb_tree_nodeIS5_E
FNDA:1,_ZNSt8_Rb_treeIiSt4pairIKiSt8functionIFvvEEESt10_Select1stIS5_ESt4lessIiESaIS5_EED2Ev
FNDA:1,_ZNSt8_Rb_treeIiSt4pairIKiSt8functionIFvvEEESt10_Select1stIS5_ESt4lessIiESaIS5_EE11_M_put_nodeEPSt13_Rb_tree_nodeIS5_E
FNDA:7,_ZNSt8_Rb_treeIiSt4pairIKiSt8functionIFvvEEESt10_Select1stIS5_ESt4lessIiESaIS5_EE14_M_lower_boundEPSt13_Rb_tree_nodeIS5_EPSt18_Rb_tree_node_baseRS1_
FNDA:10,_ZNSt8_Rb_treeIiSt4pairIKiSt8functionIFvvEEESt10_Select1stIS5_ESt4lessIiESaIS5_EE6_M_endEv
FNDA:1,_ZNSt8_Rb_treeIiSt4pairIKiSt8functionIFvvEEESt10_Select1stIS5_ESt4lessIiESaIS5_EE13_Rb_tree_implIS9_Lb1EEC2Ev
FNDA:9,_ZNSt8_Rb_treeIiSt4pairIKiSt8functionIFvvEEESt10_Select1stIS5_ESt4lessIiESaIS5_EE8_M_beginEv
FNDA:1,_ZNSt8_Rb_treeIiSt4pairIKiSt8functionIFvvEEESt10_Select1stIS5_ESt4lessIiESaIS5_EE24_M_get_insert_unique_posERS1_
FNDA:4,_ZNSt8_Rb_treeIiSt4pairIKiSt8functionIFvvEEESt10_Select1stIS5_ESt4lessIiESaIS5_EE21_M_get_Node_allocatorEv
FNDA:10,_ZNKSt13_Rb_tree_nodeISt4pairIKiSt8functionIFvvEEEE9_M_valptrEv
FNF:44
FNH:40
DA:146,1
DA:150,1
DA:173,1
DA:174,1
DA:175,1
DA:176,1
DA:177,1
DA:206,1
DA:208,1
DA:209,1
DA:210,1
DA:211,1
DA:212,1
DA:234,9
DA:235,9
DA:238,10
DA:239,10
DA:273,21
DA:274,21
DA:277,7
DA:278,7
DA:285,0
DA:287,0
DA:288,0
DA:300,0
DA:302,0
DA:303,0
DA:315,8
DA:316,8
DA:320,3
DA:321,3
DA:350,1
DA:351,1
DA:354,1
DA:355,1
DA:547,4
DA:548,4
DA:560,1
DA:561,1
DA:564,1
DA:565,1
DA:590,1
DA:594,1
DA:595,1
DA:599,0
DA:601,0
DA:602,0
DA:603,0
DA:605,1
DA:609,1
DA:611,1
DA:612,1
DA:613,1
DA:618,1
DA:623,1
DA:624,1
DA:626,1
DA:629,1
DA:631,1
DA:632,1
DA:633,1
DA:667,1
DA:671,1
DA:672,1
DA:718,0
DA:719,0
DA:726,0
DA:727,0
DA:734,9
DA:735,9
DA:738,9
DA:739,9
DA:749,10
DA:750,10
DA:757,10
DA:775,10
DA:779,7
DA:780,7
DA:787,1
DA:788,1
DA:795,3
DA:796,3
DA:928,1
DA:983,1
DA:984,1
DA:991,3
DA:992,3
DA:995,1
DA:996,1
DA:1003,10
DA:1004,10
DA:1031,1
DA:1032,1
DA:1269,4
DA:1270,4
DA:1883,2
DA:1887,3
DA:1889,1
DA:1890,1
DA:1891,1
DA:1892,1
DA:1894,2
DA:1900,7
DA:1904,13
DA:1905,6
DA:1906,6
DA:1908,0
DA:1909,7
DA:2061,1
DA:2065,1
DA:2066,1
DA:2067,1
DA:2068,1
DA:2070,0
DA:2071,0
DA:2072,0
DA:2074,1
DA:2075,1
DA:2077,1
DA:2078,1
DA:2080,0
DA:2082,0
DA:2083,0
DA:2084,0
DA:2163,1
DA:2167,1
DA:2171,1
DA:2173,1
DA:2174,1
DA:2175,0
DA:2177,1
DA:2179,0
DA:2182,0
DA:2183,0
DA:2184,0
DA:2185,0
DA:2187,0
DA:2188,0
DA:2190,0
DA:2193,0
DA:2195,0
DA:2198,0
DA:2199,0
DA:2200,0
DA:2201,0
DA:2203,0
DA:2204,0
DA:2206,0
DA:2209,0
DA:2213,0
DA:2330,1
DA:2333,1
DA:2334,2
DA:2337,1
DA:2338,1
DA:2339,1
DA:2340,1
DA:2428,1
DA:2431,1
DA:2435,1
DA:2437,1
DA:2438,1
DA:2440,0
DA:2441,0
DA:2443,0
DA:2445,0
DA:2446,0
DA:2520,3
DA:2523,3
DA:2524,6
DA:2525,3
DA:2526,9
LF:172
LH:125
end_of_record
TN:
SF:/usr/include/c++/11/bits/stl_uninitialized.h
FN:85,_ZNSt20__uninitialized_copyILb0EE13__uninit_copyISt13move_iteratorIN9__gnu_cxx17__normal_iteratorIPSt10unique_ptrI12ActiveObjectSt14default_deleteIS6_EESt6vectorIS9_SaIS9_EEEEESA_EET0_T_SH_SG_
FN:85,_ZNSt20__uninitialized_copyILb0EE13__uninit_copyISt13move_iteratorIPSt6vectorIiSaIiEEES6_EET0_T_S9_S8_
FN:108,_ZNSt20__uninitialized_copyILb1EE13__uninit_copyIPiS2_EET0_T_S4_S3_
FN:108,_ZNSt20__uninitialized_copyILb1EE13__uninit_copyISt13move_iteratorIN9__gnu_cxx17__normal_iteratorIPmSt6vectorImSaImEEEEES5_EET0_T_SC_SB_
FN:108,_ZNSt20__uninitialized_copyILb1EE13__uninit_copyIN9__gnu_cxx17__normal_iteratorIPK4EdgeSt6vectorIS4_SaIS4_EEEEPS4_EET0_T_SD_SC_
FN:108,_ZNSt20__uninitialized_copyILb1EE13__uninit_copyIN9__gnu_cxx17__normal_iteratorIPKiSt6vectorIiSaIiEEEEPiEET0_T_SC_SB_
FN:126,_ZSt18uninitialized_copyIN9__gnu_cxx17__normal_iteratorIPK4EdgeSt6vectorIS2_SaIS2_EEEEPS2_ET0_T_SB_SA_
FN:126,_ZSt18uninitialized_copyISt13move_iteratorIN9__gnu_cxx17__normal_iteratorIPmSt6vectorImSaImEEEEES3_ET0_T_SA_S9_
FN:126,_ZSt18uninitialized_copyISt13move_iteratorIPSt6vectorIiSaIiEEES4_ET0_T_S7_S6_
FN:126,_ZSt18uninitialized_copyIN9__gnu_cxx17__normal_iteratorIPKiSt6vectorIiSaIiEEEEPiET0_T_SA_S9_
FN:126,_ZSt18uninitialized_copyISt13move_iteratorIN9__gnu_cxx17__normal_iteratorIPSt10unique_ptrI12ActiveObjectSt14default_deleteIS4_EESt6vectorIS7_SaIS7_EEEEES8_ET0_T_SF_SE_
FN:126,_ZSt18uninitialized_copyIPiS0_ET0_T_S2_S1_
FN:230,_ZNSt22__uninitialized_fill_nILb0EE15__uninit_fill_nIPSt6vectorIiSaIiEEmS4_EET_S6_T0_RKT1_
FN:253,_ZNSt22__uninitialized_fill_nILb1EE15__uninit_fill_nIPimiEET_S3_T0_RKT1_
FN:273,_ZSt20uninitialized_fill_nIPimiET_S1_T0_RKT1_
FN:273,_ZSt20uninitialized_fill_nIPSt6vectorIiSaIiEEmS2_ET_S4_T0_RKT1_
FN:331,_ZSt22__uninitialized_copy_aIPiS0_iET0_T_S2_S1_RSaIT1_E
FN:331,_ZSt22__uninitialized_copy_aISt13move_iteratorIN9__gnu_cxx17__normal_iteratorIPSt10unique_ptrI12ActiveObjectSt14default_deleteIS4_EESt6vectorIS7_SaIS7_EEEEES8_S7_ET0_T_SF_SE_RSaIT1_E
FN:331,_ZSt22__uninitialized_copy_aISt13move_iteratorIPSt6vectorIiSaIiEEES4_S3_ET0_T_S7_S6_RSaIT1_E
FN:331,_ZSt22__uninitialized_copy_aIN9__gnu_cxx17__normal_iteratorIPK4EdgeSt6vectorIS2_SaIS2_EEEEPS2_S2_ET0_T_SB_SA_RSaIT1_E
FN:331,_ZSt22__uninitialized_copy_aISt13move_iteratorIN9__gnu_cxx17__normal_iteratorIPmSt6vectorImSaImEEEEES3_mET0_T_SA_S9_RSaIT1_E
FN:331,_ZSt22__uninitialized_copy_aIN9__gnu_cxx17__normal_iteratorIPKiSt6vectorIiSaIiEEEEPiiET0_T_SA_S9_RSaIT1_E
FN:338,_ZSt22__uninitialized_move_aIPSt6vectorIiSaIiEES3_SaIS2_EET0_T_S6_S5_RT1_
FN:349,_ZSt34__uninitialized_move_if_noexcept_aIPSt6vectorIiSaIiEES3_SaIS2_EET0_T_S6_S5_RT1_
FN:408,_ZSt24__uninitialized_fill_n_aIPSt6vectorIiSaIiEEmS2_S2_ET_S4_T0_RKT1_RSaIT2_E
FN:408,_ZSt24__uninitialized_fill_n_aIPimiiET_S1_T0_RKT1_RSaIT2_E
FN:573,_ZNSt27__uninitialized_default_n_1ILb0EE18__uninit_default_nIPSt6vectorI4EdgeSaIS3_EEmEET_S7_T0_
FN:573,_ZNSt27__uninitialized_default_n_1ILb0EE18__uninit_default_nIPSt10shared_ptrI13ThreadContextEmEET_S6_T0_
FN:630,_ZSt25__uninitialized_default_nIPSt10shared_ptrI13ThreadContextEmET_S4_T0_
FN:630,_ZSt25__uninitialized_default_nIPSt6vectorI4EdgeSaIS1_EEmET_S5_T0_
FN:702,_ZSt27__uninitialized_default_n_aIPSt10shared_ptrI13ThreadContextEmS2_ET_S4_T0_RSaIT1_E
FN:702,_ZSt27__uninitialized_default_n_aIPSt6vectorI4EdgeSaIS1_EEmS3_ET_S5_T0_RSaIT1_E
FN:986,_ZSt19__relocate_object_aISt6vectorI4EdgeSaIS1_EES3_SaIS3_EEvPT_PT0_RT1_
FN:986,_ZSt19__relocate_object_aISt10unique_ptrI12ActiveObjectSt14default_deleteIS1_EES4_SaIS4_EEvPT_PT0_RT1_
FN:986,_ZSt19__relocate_object_aISt4pairIiiES1_SaIS1_EEvPT_PT0_RT1_
FN:1006,_ZSt14__relocate_a_1IiiENSt9enable_ifIXsrSt24__is_bitwise_relocatableIT_vE5valueEPS2_E4typeES4_S4_S4_RSaIT0_E
FN:1006,_ZSt14__relocate_a_1I4EdgeS0_ENSt9enable_ifIXsrSt24__is_bitwise_relocatableIT_vE5valueEPS3_E4typeES5_S5_S5_RSaIT0_E
FN:1006,_ZSt14__relocate_a_1ImmENSt9enable_ifIXsrSt24__is_bitwise_relocatableIT_vE5valueEPS2_E4typeES4_S4_S4_RSaIT0_E
FN:1018,_ZSt14__relocate_a_1IPSt4pairIiiES2_SaIS1_EET0_T_S5_S4_RT1_
FN:1018,_ZSt14__relocate_a_1IPSt10unique_ptrI12ActiveObjectSt14default_deleteIS1_EES5_SaIS4_EET0_T_S8_S7_RT1_
FN:1018,_ZSt14__relocate_a_1IPSt6vectorI4EdgeSaIS1_EES4_SaIS3_EET0_T_S7_S6_RT1_
FN:1040,_ZSt12__relocate_aIPSt4pairIiiES2_SaIS1_EET0_T_S5_S4_RT1_
FN:1040,_ZSt12__relocate_aIPmS0_SaImEET0_T_S3_S2_RT1_
FN:1040,_ZSt12__relocate_aIPSt10unique_ptrI12ActiveObjectSt14default_deleteIS1_EES5_SaIS4_EET0_T_S8_S7_RT1_
FN:1040,_ZSt12__relocate_aIP4EdgeS1_SaIS0_EET0_T_S4_S3_RT1_
FN:1040,_ZSt12__relocate_aIPiS0_SaIiEET0_T_S3_S2_RT1_
FN:1040,_ZSt12__relocate_aIPSt6vectorI4EdgeSaIS1_EES4_SaIS3_EET0_T_S7_S6_RT1_
FNDA:0,_ZSt22__uninitialized_copy_aIPiS0_iET0_T_S2_S1_RSaIT1_E
FNDA:0,_ZNSt20__uninitialized_copyILb1EE13__uninit_copyIPiS2_EET0_T_S4_S3_
FNDA:1,_ZSt27__uninitialized_default_n_aIPSt10shared_ptrI13ThreadContextEmS2_ET_S4_T0_RSaIT1_E
FNDA:12,_ZSt12__relocate_aIPSt4pairIiiES2_SaIS1_EET0_T_S5_S4_RT1_
FNDA:21,_ZNSt27__uninitialized_default_n_1ILb0EE18__uninit_default_nIPSt6vectorI4EdgeSaIS3_EEmEET_S7_T0_
FNDA:2,_ZNSt20__uninitialized_copyILb1EE13__uninit_copyISt13move_iteratorIN9__gnu_cxx17__normal_iteratorIPmSt6vectorImSaImEEEEES5_EET0_T_SC_SB_
FNDA:40,_ZSt14__relocate_a_1IiiENSt9enable_ifIXsrSt24__is_bitwise_relocatableIT_vE5valueEPS2_E4typeES4_S4_S4_RSaIT0_E
FNDA:6,_ZSt24__uninitialized_fill_n_aIPSt6vectorIiSaIiEEmS2_S2_ET_S4_T0_RKT1_RSaIT2_E
FNDA:24,_ZNSt20__uninitialized_copyILb1EE13__uninit_copyIN9__gnu_cxx17__normal_iteratorIPK4EdgeSt6vectorIS4_SaIS4_EEEEPS4_EET0_T_SD_SC_
FNDA:2,_ZSt18uninitialized_copyISt13move_iteratorIN9__gnu_cxx17__normal_iteratorIPmSt6vectorImSaImEEEEES3_ET0_T_SA_S9_
FNDA:12,_ZSt14__relocate_a_1IPSt4pairIiiES2_SaIS1_EET0_T_S5_S4_RT1_
FNDA:24,_ZSt18uninitialized_copyIN9__gnu_cxx17__normal_iteratorIPK4EdgeSt6vectorIS2_SaIS2_EEEEPS2_ET0_T_SB_SA_
FNDA:2,_ZSt22__uninitialized_copy_aISt13move_iteratorIN9__gnu_cxx17__normal_iteratorIPSt10unique_ptrI12ActiveObjectSt14default_deleteIS4_EESt6vectorIS7_SaIS7_EEEEES8_S7_ET0_T_SF_SE_RSaIT1_E
FNDA:21,_ZSt27__uninitialized_default_n_aIPSt6vectorI4EdgeSaIS1_EEmS3_ET_S5_T0_RSaIT1_E
FNDA:12,_ZSt22__uninitialized_copy_aISt13move_iteratorIPSt6vectorIiSaIiEEES4_S3_ET0_T_S7_S6_RSaIT1_E
FNDA:48,_ZNSt20__uninitialized_copyILb1EE13__uninit_copyIN9__gnu_cxx17__normal_iteratorIPKiSt6vectorIiSaIiEEEEPiEET0_T_SC_SB_
FNDA:12,_ZSt18uninitialized_copyISt13move_iteratorIPSt6vectorIiSaIiEEES4_ET0_T_S7_S6_
FNDA:24,_ZSt22__uninitialized_copy_aIN9__gnu_cxx17__normal_iteratorIPK4EdgeSt6vectorIS2_SaIS2_EEEEPS2_S2_ET0_T_SB_SA_RSaIT1_E
FNDA:12,_ZSt12__relocate_aIPmS0_SaImEET0_T_S3_S2_RT1_
FNDA:48,_ZSt18uninitialized_copyIN9__gnu_cxx17__normal_iteratorIPKiSt6vectorIiSaIiEEEEPiET0_T_SA_S9_
FNDA:16,_ZSt14__relocate_a_1IPSt10unique_ptrI12ActiveObjectSt14default_deleteIS1_EES5_SaIS4_EET0_T_S8_S7_RT1_
FNDA:1,_ZSt25__uninitialized_default_nIPSt10shared_ptrI13ThreadContextEmET_S4_T0_
FNDA:16,_ZSt12__relocate_aIPSt10unique_ptrI12ActiveObjectSt14default_deleteIS1_EES5_SaIS4_EET0_T_S8_S7_RT1_
FNDA:2,_ZSt22__uninitialized_copy_aISt13move_iteratorIN9__gnu_cxx17__normal_iteratorIPmSt6vectorImSaImEEEEES3_mET0_T_SA_S9_RSaIT1_E
FNDA:66,_ZSt24__uninitialized_fill_n_aIPimiiET_S1_T0_RKT1_RSaIT2_E
FNDA:0,_ZSt19__relocate_object_aISt6vectorI4EdgeSaIS1_EES3_SaIS3_EEvPT_PT0_RT1_
FNDA:14,_ZSt19__relocate_object_aISt10unique_ptrI12ActiveObjectSt14default_deleteIS1_EES4_SaIS4_EEvPT_PT0_RT1_
FNDA:66,_ZNSt22__uninitialized_fill_nILb1EE15__uninit_fill_nIPimiEET_S3_T0_RKT1_
FNDA:402,_ZSt12__relocate_aIP4EdgeS1_SaIS0_EET0_T_S4_S3_RT1_
FNDA:0,_ZSt22__uninitialized_move_aIPSt6vectorIiSaIiEES3_SaIS2_EET0_T_S6_S5_RT1_
FNDA:2,_ZNSt20__uninitialized_copyILb0EE13__uninit_copyISt13move_iteratorIN9__gnu_cxx17__normal_iteratorIPSt10unique_ptrI12ActiveObjectSt14default_deleteIS6_EESt6vectorIS9_SaIS9_EEEEESA_EET0_T_SH_SG_
FNDA:2,_ZSt18uninitialized_copyISt13move_iteratorIN9__gnu_cxx17__normal_iteratorIPSt10unique_ptrI12ActiveObjectSt14default_deleteIS4_EESt6vectorIS7_SaIS7_EEEEES8_ET0_T_SF_SE_
FNDA:0,_ZSt19__relocate_object_aISt4pairIiiES1_SaIS1_EEvPT_PT0_RT1_
FNDA:21,_ZSt14__relocate_a_1IPSt6vectorI4EdgeSaIS1_EES4_SaIS3_EET0_T_S7_S6_RT1_
FNDA:21,_ZSt25__uninitialized_default_nIPSt6vectorI4EdgeSaIS1_EEmET_S5_T0_
FNDA:66,_ZSt20uninitialized_fill_nIPimiET_S1_T0_RKT1_
FNDA:1,_ZNSt27__uninitialized_default_n_1ILb0EE18__uninit_default_nIPSt10shared_ptrI13ThreadContextEmEET_S6_T0_
FNDA:12,_ZSt34__uninitialized_move_if_noexcept_aIPSt6vectorIiSaIiEES3_SaIS2_EET0_T_S6_S5_RT1_
FNDA:12,_ZNSt20__uninitialized_copyILb0EE13__uninit_copyISt13move_iteratorIPSt6vectorIiSaIiEEES6_EET0_T_S9_S8_
FNDA:402,_ZSt14__relocate_a_1I4EdgeS0_ENSt9enable_ifIXsrSt24__is_bitwise_relocatableIT_vE5valueEPS3_E4typeES5_S5_S5_RSaIT0_E
FNDA:12,_ZSt14__relocate_a_1ImmENSt9enable_ifIXsrSt24__is_bitwise_relocatableIT_vE5valueEPS2_E4typeES4_S4_S4_RSaIT0_E
FNDA:6,_ZSt20uninitialized_fill_nIPSt6vectorIiSaIiEEmS2_ET_S4_T0_RKT1_
FNDA:40,_ZSt12__relocate_aIPiS0_SaIiEET0_T_S3_S2_RT1_
FNDA:21,_ZSt12__relocate_aIPSt6vectorI4EdgeSaIS1_EES4_SaIS3_EET0_T_S7_S6_RT1_
FNDA:48,_ZSt22__uninitialized_copy_aIN9__gnu_cxx17__normal_iteratorIPKiSt6vectorIiSaIiEEEEPiiET0_T_SA_S9_RSaIT1_E
FNDA:6,_ZNSt22__uninitialized_fill_nILb0EE15__uninit_fill_nIPSt6vectorIiSaIiEEmS4_EET_S6_T0_RKT1_
FNDA:0,_ZSt18uninitialized_copyIPiS0_ET0_T_S2_S1_
FNF:47
FNH:41
DA:85,14
DA:88,14
DA:91,14
DA:92,0
DA:93,14
DA:95,0
DA:97,0
DA:98,0
DA:108,74
DA:110,74
DA:126,88
DA:145,88
DA:151,88
DA:230,6
DA:233,6
DA:236,33
DA:237,27
DA:238,6
DA:240,0
DA:242,0
DA:243,0
DA:253,66
DA:255,66
DA:273,72
DA:293,72
DA:297,72
DA:331,88
DA:333,88
DA:338,0
DA:341,0
DA:343,0
DA:349,12
DA:355,12
DA:356,12
DA:408,72
DA:410,72
DA:573,22
DA:575,22
DA:578,131
DA:579,109
DA:580,22
DA:630,22
DA:635,22
DA:640,22
DA:702,22
DA:704,22
DA:986,14
DA:994,14
DA:995,14
DA:996,14
DA:1006,454
DA:1009,454
DA:1010,454
DA:1011,114
DA:1012,454
DA:1018,49
DA:1030,49
DA:1031,63
DA:1032,14
DA:1034,49
DA:1040,503
DA:1046,503
DA:1048,503
LF:63
LH:53
end_of_record
TN:
SF:/usr/include/c++/11/bits/stl_vector.h
FN:97,_ZNSt12_Vector_baseI4EdgeSaIS0_EE17_Vector_impl_dataC2Ev
FN:97,_ZNSt12_Vector_baseISt10shared_ptrI13ThreadContextESaIS2_EE17_Vector_impl_dataC2Ev
FN:97,_ZNSt12_Vector_baseIiSaIiEE17_Vector_impl_dataC2Ev
FN:97,_ZNSt12_Vector_baseISt6vectorI4EdgeSaIS1_EESaIS3_EE17_Vector_impl_dataC2Ev
FN:97,_ZNSt12_Vector_baseISt6vectorIiSaIiEESaIS2_EE17_Vector_impl_dataC2Ev
FN:97,_ZNSt12_Vector_baseISt6threadSaIS0_EE17_Vector_impl_dataC2Ev
FN:97,_ZNSt12_Vector_baseImSaImEE17_Vector_impl_dataC2Ev
FN:97,_ZNSt12_Vector_baseISt4pairIiiESaIS1_EE17_Vector_impl_dataC2Ev
FN:97,_ZNSt12_Vector_baseISt10unique_ptrI12ActiveObjectSt14default_deleteIS1_EESaIS4_EE17_Vector_impl_dataC2Ev
FN:102,_ZNSt12_Vector_baseI4EdgeSaIS0_EE17_Vector_impl_dataC2EOS3_
FN:102,_ZNSt12_Vector_baseIiSaIiEE17_Vector_impl_dataC2EOS2_
FN:109,_ZNSt12_Vector_baseImSaImEE17_Vector_impl_data12_M_copy_dataERKS2_
FN:109,_ZNSt12_Vector_baseIiSaIiEE17_Vector_impl_data12_M_copy_dataERKS2_
FN:109,_ZNSt12_Vector_baseISt10unique_ptrI12ActiveObjectSt14default_deleteIS1_EESaIS4_EE17_Vector_impl_data12_M_copy_dataERKS7_
FN:117,_ZNSt12_Vector_baseImSaImEE17_Vector_impl_data12_M_swap_dataERS2_
FN:117,_ZNSt12_Vector_baseIiSaIiEE17_Vector_impl_data12_M_swap_dataERS2_
FN:117,_ZNSt12_Vector_baseISt10unique_ptrI12ActiveObjectSt14default_deleteIS1_EESaIS4_EE17_Vector_impl_data12_M_swap_dataERS7_
FN:131,_ZNSt12_Vector_baseISt6vectorI4EdgeSaIS1_EESaIS3_EE12_Vector_implC2Ev
FN:131,_ZNSt12_Vector_baseISt10unique_ptrI12ActiveObjectSt14default_deleteIS1_EESaIS4_EE12_Vector_implC2Ev
FN:131,_ZNSt12_Vector_baseI4EdgeSaIS0_EE12_Vector_implC2Ev
FN:131,_ZNSt12_Vector_baseISt6vectorIiSaIiEESaIS2_EE12_Vector_implC2Ev
FN:131,_ZNSt12_Vector_baseIiSaIiEE12_Vector_implC2Ev
FN:131,_ZNSt12_Vector_baseISt4pairIiiESaIS1_EE12_Vector_implC2Ev
FN:131,_ZNSt12_Vector_baseImSaImEE12_Vector_implC2Ev
FN:131,_ZNSt12_Vector_baseISt6threadSaIS0_EE12_Vector_implC2Ev
FN:136,_ZNSt12_Vector_baseImSaImEE12_Vector_implC2ERKS0_
FN:136,_ZNSt12_Vector_baseISt10shared_ptrI13ThreadContextESaIS2_EE12_Vector_implC2ERKS3_
FN:136,_ZNSt12_Vector_baseIiSaIiEE12_Vector_implC2ERKS0_
FN:136,_ZNSt12_Vector_baseI4EdgeSaIS0_EE12_Vector_implC2ERKS1_
FN:136,_ZNSt12_Vector_baseISt10unique_ptrI12ActiveObjectSt14default_deleteIS1_EESaIS4_EE12_Vector_implC2ERKS5_
FN:143,_ZNSt12_Vector_baseIiSaIiEE12_Vector_implC2EOS2_
FN:143,_ZNSt12_Vector_baseI4EdgeSaIS0_EE12_Vector_implC2EOS3_
FN:276,_ZNSt12_Vector_baseISt4pairIiiESaIS1_EE19_M_get_Tp_allocatorEv
FN:276,_ZNSt12_Vector_baseISt10unique_ptrI12ActiveObjectSt14default_deleteIS1_EESaIS4_EE19_M_get_Tp_allocatorEv
FN:276,_ZNSt12_Vector_baseISt6vectorIiSaIiEESaIS2_EE19_M_get_Tp_allocatorEv
FN:276,_ZNSt12_Vector_baseIiSaIiEE19_M_get_Tp_allocatorEv
FN:276,_ZNSt12_Vector_baseISt6vectorI4EdgeSaIS1_EESaIS3_EE19_M_get_Tp_allocatorEv
FN:276,_ZNSt12_Vector_baseISt6threadSaIS0_EE19_M_get_Tp_allocatorEv
FN:276,_ZNSt12_Vector_baseImSaImEE19_M_get_Tp_allocatorEv
FN:276,_ZNSt12_Vector_baseI4EdgeSaIS0_EE19_M_get_Tp_allocatorEv
FN:276,_ZNSt12_Vector_baseISt10shared_ptrI13ThreadContextESaIS2_EE19_M_get_Tp_allocatorEv
FN:280,_ZNKSt12_Vector_baseISt6vectorIiSaIiEESaIS2_EE19_M_get_Tp_allocatorEv
FN:280,_ZNKSt12_Vector_baseISt10unique_ptrI12ActiveObjectSt14default_deleteIS1_EESaIS4_EE19_M_get_Tp_allocatorEv
FN:280,_ZNKSt12_Vector_baseIiSaIiEE19_M_get_Tp_allocatorEv
FN:280,_ZNKSt12_Vector_baseI4EdgeSaIS0_EE19_M_get_Tp_allocatorEv
FN:280,_ZNKSt12_Vector_baseISt4pairIiiESaIS1_EE19_M_get_Tp_allocatorEv
FN:280,_ZNKSt12_Vector_baseISt6vectorI4EdgeSaIS1_EESaIS3_EE19_M_get_Tp_allocatorEv
FN:280,_ZNKSt12_Vector_baseImSaImEE19_M_get_Tp_allocatorEv
FN:284,_ZNKSt12_Vector_baseIiSaIiEE13get_allocatorEv
FN:284,_ZNKSt12_Vector_baseISt10unique_ptrI12ActiveObjectSt14default_deleteIS1_EESaIS4_EE13get_allocatorEv
FN:284,_ZNKSt12_Vector_baseImSaImEE13get_allocatorEv
FN:288,_ZNSt12_Vector_baseI4EdgeSaIS0_EEC2Ev
FN:288,_ZNSt12_Vector_baseImSaImEEC2Ev
FN:288,_ZNSt12_Vector_baseISt6vectorIiSaIiEESaIS2_EEC2Ev
FN:288,_ZNSt12_Vector_baseISt4pairIiiESaIS1_EEC2Ev
FN:288,_ZNSt12_Vector_baseISt10unique_ptrI12ActiveObjectSt14default_deleteIS1_EESaIS4_EEC2Ev
FN:288,_ZNSt12_Vector_baseIiSaIiEEC2Ev
FN:288,_ZNSt12_Vector_baseISt6vectorI4EdgeSaIS1_EESaIS3_EEC2Ev
FN:288,_ZNSt12_Vector_baseISt6threadSaIS0_EEC2Ev
FN:293,_ZNSt12_Vector_baseIiSaIiEEC2ERKS0_
FN:293,_ZNSt12_Vector_baseISt10unique_ptrI12ActiveObjectSt14default_deleteIS1_EESaIS4_EEC2ERKS5_
FN:293,_ZNSt12_Vector_baseImSaImEEC2ERKS0_
FN:303,_ZNSt12_Vector_baseI4EdgeSaIS0_EEC2EmRKS1_
FN:303,_ZNSt12_Vector_baseIiSaIiEEC2EmRKS0_
FN:303,_ZNSt12_Vector_baseISt10shared_ptrI13ThreadContextESaIS2_EEC2EmRKS3_
FN:308,_ZNSt12_Vector_baseIiSaIiEEC2EOS1_
FN:308,_ZNSt12_Vector_baseI4EdgeSaIS0_EEC2EOS2_
FN:333,_ZNSt12_Vector_baseISt10unique_ptrI12ActiveObjectSt14default_deleteIS1_EESaIS4_EED2Ev
FN:333,_ZNSt12_Vector_baseImSaImEED2Ev
FN:333,_ZNSt12_Vector_baseISt4pairIiiESaIS1_EED2Ev
FN:333,_ZNSt12_Vector_baseI4EdgeSaIS0_EED2Ev
FN:333,_ZNSt12_Vector_baseIiSaIiEED2Ev
FN:333,_ZNSt12_Vector_baseISt6vectorI4EdgeSaIS1_EESaIS3_EED2Ev
FN:333,_ZNSt12_Vector_baseISt6threadSaIS0_EED2Ev
FN:333,_ZNSt12_Vector_baseISt10shared_ptrI13ThreadContextESaIS2_EED2Ev
FN:333,_ZNSt12_Vector_baseISt6vectorIiSaIiEESaIS2_EED2Ev
FN:343,_ZNSt12_Vector_baseISt6vectorI4EdgeSaIS1_EESaIS3_EE11_M_allocateEm
FN:343,_ZNSt12_Vector_baseImSaImEE11_M_allocateEm
FN:343,_ZNSt12_Vector_baseISt4pairIiiESaIS1_EE11_M_allocateEm
FN:343,_ZNSt12_Vector_baseISt10unique_ptrI12ActiveObjectSt14default_deleteIS1_EESaIS4_EE11_M_allocateEm
FN:343,_ZNSt12_Vector_baseI4EdgeSaIS0_EE11_M_allocateEm
FN:343,_ZNSt12_Vector_baseISt6vectorIiSaIiEESaIS2_EE11_M_allocateEm
FN:343,_ZNSt12_Vector_baseISt10shared_ptrI13ThreadContextESaIS2_EE11_M_allocateEm
FN:343,_ZNSt12_Vector_baseIiSaIiEE11_M_allocateEm
FN:350,_ZNSt12_Vector_baseISt6vectorIiSaIiEESaIS2_EE13_M_deallocateEPS2_m
FN:350,_ZNSt12_Vector_baseISt4pairIiiESaIS1_EE13_M_deallocateEPS1_m
FN:350,_ZNSt12_Vector_baseISt10unique_ptrI12ActiveObjectSt14default_deleteIS1_EESaIS4_EE13_M_deallocateEPS4_m
FN:350,_ZNSt12_Vector_baseI4EdgeSaIS0_EE13_M_deallocateEPS0_m
FN:350,_ZNSt12_Vector_baseImSaImEE13_M_deallocateEPmm
FN:350,_ZNSt12_Vector_baseISt6threadSaIS0_EE13_M_deallocateEPS0_m
FN:350,_ZNSt12_Vector_baseISt6vectorI4EdgeSaIS1_EESaIS3_EE13_M_deallocateEPS3_m
FN:350,_ZNSt12_Vector_baseIiSaIiEE13_M_deallocateEPim
FN:350,_ZNSt12_Vector_baseISt10shared_ptrI13ThreadContextESaIS2_EE13_M_deallocateEPS2_m
FN:359,_ZNSt12_Vector_baseIiSaIiEE17_M_create_storageEm
FN:359,_ZNSt12_Vector_baseISt10shared_ptrI13ThreadContextESaIS2_EE17_M_create_storageEm
FN:359,_ZNSt12_Vector_baseI4EdgeSaIS0_EE17_M_create_storageEm
FN:453,_ZNSt6vectorIS_I4EdgeSaIS0_EESaIS2_EE14_S_do_relocateEPS2_S5_S5_RS3_St17integral_constantIbLb1EE
FN:453,_ZNSt6vectorImSaImEE14_S_do_relocateEPmS2_S2_RS0_St17integral_constantIbLb1EE
FN:453,_ZNSt6vectorISt10unique_ptrI12ActiveObjectSt14default_deleteIS1_EESaIS4_EE14_S_do_relocateEPS4_S7_S7_RS5_St17integral_constantIbLb1EE
FN:453,_ZNSt6vectorISt4pairIiiESaIS1_EE14_S_do_relocateEPS1_S4_S4_RS2_St17integral_constantIbLb1EE
FN:453,_ZNSt6vectorIiSaIiEE14_S_do_relocateEPiS2_S2_RS0_St17integral_constantIbLb1EE
FN:453,_ZNSt6vectorI4EdgeSaIS0_EE14_S_do_relocateEPS0_S3_S3_RS1_St17integral_constantIbLb1EE
FN:465,_ZNSt6vectorIiSaIiEE11_S_relocateEPiS2_S2_RS0_
FN:465,_ZNSt6vectorImSaImEE11_S_relocateEPmS2_S2_RS0_
FN:465,_ZNSt6vectorIS_I4EdgeSaIS0_EESaIS2_EE11_S_relocateEPS2_S5_S5_RS3_
FN:465,_ZNSt6vectorISt10unique_ptrI12ActiveObjectSt14default_deleteIS1_EESaIS4_EE11_S_relocateEPS4_S7_S7_RS5_
FN:465,_ZNSt6vectorISt4pairIiiESaIS1_EE11_S_relocateEPS1_S4_S4_RS2_
FN:465,_ZNSt6vectorI4EdgeSaIS0_EE11_S_relocateEPS0_S3_S3_RS1_
FN:487,_ZNSt6vectorISt10unique_ptrI12ActiveObjectSt14default_deleteIS1_EESaIS4_EEC2Ev
FN:487,_ZNSt6vectorISt6threadSaIS0_EEC2Ev
FN:487,_ZNSt6vectorISt4pairIiiESaIS1_EEC2Ev
FN:487,_ZNSt6vectorImSaImEEC2Ev
FN:487,_ZNSt6vectorIiSaIiEEC2Ev
FN:487,_ZNSt6vectorIS_IiSaIiEESaIS1_EEC2Ev
FN:487,_ZNSt6vectorIS_I4EdgeSaIS0_EESaIS2_EEC2Ev
FN:487,_ZNSt6vectorI4EdgeSaIS0_EEC2Ev
FN:497,_ZNSt6vectorIiSaIiEEC2ERKS0_
FN:510,_ZNSt6vectorISt10shared_ptrI13ThreadContextESaIS2_EEC2EmRKS3_
FN:522,_ZNSt6vectorIiSaIiEEC2EmRKiRKS0_
FN:553,_ZNSt6vectorIiSaIiEEC2ERKS1_
FN:553,_ZNSt6vectorI4EdgeSaIS0_EEC2ERKS2_
FN:572,_ZNSt6vectorIiSaIiEEC2EOS1_
FN:572,_ZNSt6vectorI4EdgeSaIS0_EEC2EOS2_
FN:653,_ZNSt6vectorISt10unique_ptrI12ActiveObjectSt14default_deleteIS1_EESaIS4_EEC2ISt13move_iteratorIN9__gnu_cxx17__normal_iteratorIPS4_S6_EEEvEET_SE_RKS5_
FN:653,_ZNSt6vectorImSaImEEC2ISt13move_iteratorIN9__gnu_cxx17__normal_iteratorIPmS1_EEEvEET_S9_RKS0_
FN:678,_ZNSt6vectorISt10shared_ptrI13ThreadContextESaIS2_EED2Ev
FN:678,_ZNSt6vectorI4EdgeSaIS0_EED2Ev
FN:678,_ZNSt6vectorISt6threadSaIS0_EED2Ev
FN:678,_ZNSt6vectorIiSaIiEED2Ev
FN:678,_ZNSt6vectorISt10unique_ptrI12ActiveObjectSt14default_deleteIS1_EESaIS4_EED2Ev
FN:678,_ZNSt6vectorIS_IiSaIiEESaIS1_EED2Ev
FN:678,_ZNSt6vectorImSaImEED2Ev
FN:678,_ZNSt6vectorISt4pairIiiESaIS1_EED2Ev
FN:678,_ZNSt6vectorIS_I4EdgeSaIS0_EESaIS2_EED2Ev
FN:709,_ZNSt6vectorIiSaIiEEaSEOS1_
FN:811,_ZNSt6vectorImSaImEE5beginEv
FN:811,_ZNSt6vectorISt10shared_ptrI13ThreadContextESaIS2_EE5beginEv
FN:811,_ZNSt6vectorISt10unique_ptrI12ActiveObjectSt14default_deleteIS1_EESaIS4_EE5beginEv
FN:811,_ZNSt6vectorISt4pairIiiESaIS1_EE5beginEv
FN:811,_ZNSt6vectorIS_IiSaIiEESaIS1_EE5beginEv
FN:811,_ZNSt6vectorI4EdgeSaIS0_EE5beginEv
FN:811,_ZNSt6vectorIiSaIiEE5beginEv
FN:820,_ZNKSt6vectorIS_I4EdgeSaIS0_EESaIS2_EE5beginEv
FN:820,_ZNKSt6vectorI4EdgeSaIS0_EE5beginEv
FN:820,_ZNKSt6vectorIiSaIiEE5beginEv
FN:820,_ZNKSt6vectorISt4pairIiiESaIS1_EE5beginEv
FN:829,_ZNSt6vectorIiSaIiEE3endEv
FN:829,_ZNSt6vectorImSaImEE3endEv
FN:829,_ZNSt6vectorISt10unique_ptrI12ActiveObjectSt14default_deleteIS1_EESaIS4_EE3endEv
FN:829,_ZNSt6vectorISt4pairIiiESaIS1_EE3endEv
FN:829,_ZNSt6vectorIS_IiSaIiEESaIS1_EE3endEv
FN:829,_ZNSt6vectorISt10shared_ptrI13ThreadContextESaIS2_EE3endEv
FN:829,_ZNSt6vectorI4EdgeSaIS0_EE3endEv
FN:838,_ZNKSt6vectorI4EdgeSaIS0_EE3endEv
FN:838,_ZNKSt6vectorIS_I4EdgeSaIS0_EESaIS2_EE3endEv
FN:838,_ZNKSt6vectorIiSaIiEE3endEv
FN:838,_ZNKSt6vectorISt4pairIiiESaIS1_EE3endEv
FN:918,_ZNKSt6vectorImSaImEE4sizeEv
FN:918,_ZNKSt6vectorIS_IiSaIiEESaIS1_EE4sizeEv
FN:918,_ZNKSt6vectorI4EdgeSaIS0_EE4sizeEv
FN:918,_ZNKSt6vectorISt4pairIiiESaIS1_EE4sizeEv
FN:918,_ZNKSt6vectorISt10unique_ptrI12ActiveObjectSt14default_deleteIS1_EESaIS4_EE4sizeEv
FN:918,_ZNKSt6vectorIiSaIiEE4sizeEv
FN:918,_ZNKSt6vectorIS_I4EdgeSaIS0_EESaIS2_EE4sizeEv
FN:923,_ZNKSt6vectorIiSaIiEE8max_sizeEv
FN:923,_ZNKSt6vectorISt4pairIiiESaIS1_EE8max_sizeEv
FN:923,_ZNKSt6vectorIS_I4EdgeSaIS0_EESaIS2_EE8max_sizeEv
FN:923,_ZNKSt6vectorISt10unique_ptrI12ActiveObjectSt14default_deleteIS1_EESaIS4_EE8max_sizeEv
FN:923,_ZNKSt6vectorI4EdgeSaIS0_EE8max_sizeEv
FN:923,_ZNKSt6vectorImSaImEE8max_sizeEv
FN:923,_ZNKSt6vectorIS_IiSaIiEESaIS1_EE8max_sizeEv
FN:937,_ZNSt6vectorIS_I4EdgeSaIS0_EESaIS2_EE6resizeEm
FN:957,_ZNSt6vectorIS_IiSaIiEESaIS1_EE6resizeEmRKS1_
FN:989,_ZNSt6vectorISt10unique_ptrI12ActiveObjectSt14default_deleteIS1_EESaIS4_EE13shrink_to_fitEv
FN:989,_ZNSt6vectorImSaImEE13shrink_to_fitEv
FN:998,_ZNKSt6vectorISt10unique_ptrI12ActiveObjectSt14default_deleteIS1_EESaIS4_EE8capacityEv
FN:998,_ZNKSt6vectorIiSaIiEE8capacityEv
FN:998,_ZNKSt6vectorImSaImEE8capacityEv
FN:1007,_ZNKSt6vectorIS_I4EdgeSaIS0_EESaIS2_EE5emptyEv
FN:1007,_ZNKSt6vectorISt4pairIiiESaIS1_EE5emptyEv
FN:1043,_ZNSt6vectorI4EdgeSaIS0_EEixEm
FN:1043,_ZNSt6vectorISt10shared_ptrI13ThreadContextESaIS2_EEixEm
FN:1043,_ZNSt6vectorIS_IiSaIiEESaIS1_EEixEm
FN:1043,_ZNSt6vectorISt10unique_ptrI12ActiveObjectSt14default_deleteIS1_EESaIS4_EEixEm
FN:1043,_ZNSt6vectorIiSaIiEEixEm
FN:1043,_ZNSt6vectorIS_I4EdgeSaIS0_EESaIS2_EEixEm
FN:1061,_ZNKSt6vectorIS_I4EdgeSaIS0_EESaIS2_EEixEm
FN:1061,_ZNKSt6vectorIiSaIiEEixEm
FN:1132,_ZNKSt6vectorISt4pairIiiESaIS1_EE5frontEv
FN:1143,_ZNSt6vectorISt4pairIiiESaIS1_EE4backEv
FN:1143,_ZNSt6vectorIiSaIiEE4backEv
FN:1143,_ZNSt6vectorI4EdgeSaIS0_EE4backEv
FN:1143,_ZNSt6vectorISt10unique_ptrI12ActiveObjectSt14default_deleteIS1_EESaIS4_EE4backEv
FN:1187,_ZNSt6vectorI4EdgeSaIS0_EE9push_backERKS0_
FN:1187,_ZNSt6vectorImSaImEE9push_backERKm
FN:1203,_ZNSt6vectorIiSaIiEE9push_backEOi
FN:1203,_ZNSt6vectorISt4pairIiiESaIS1_EE9push_backEOS1_
FN:1203,_ZNSt6vectorI4EdgeSaIS0_EE9push_backEOS0_
FN:1203,_ZNSt6vectorISt10unique_ptrI12ActiveObjectSt14default_deleteIS1_EESaIS4_EE9push_backEOS4_
FN:1225,_ZNSt6vectorISt4pairIiiESaIS1_EE8pop_backEv
FN:1480,_ZNSt6vectorImSaImEE4swapERS1_
FN:1480,_ZNSt6vectorISt10unique_ptrI12ActiveObjectSt14default_deleteIS1_EESaIS4_EE4swapERS6_
FN:1498,_ZNSt6vectorIiSaIiEE5clearEv
FN:1498,_ZNSt6vectorISt10shared_ptrI13ThreadContextESaIS2_EE5clearEv
FN:1498,_ZNSt6vectorISt10unique_ptrI12ActiveObjectSt14default_deleteIS1_EESaIS4_EE5clearEv
FN:1498,_ZNSt6vectorImSaImEE5clearEv
FN:1508,_ZNSt6vectorIiSaIiEE20_M_allocate_and_copyIN9__gnu_cxx17__normal_iteratorIPKiS1_EEEEPimT_S9_
FN:1577,_ZNSt6vectorISt10unique_ptrI12ActiveObjectSt14default_deleteIS1_EESaIS4_EE19_M_range_initializeISt13move_iteratorIN9__gnu_cxx17__normal_iteratorIPS4_S6_EEEEEvT_SE_St20forward_iterator_tag
FN:1577,_ZNSt6vectorImSaImEE19_M_range_initializeISt13move_iteratorIN9__gnu_cxx17__normal_iteratorIPmS1_EEEEEvT_S9_St20forward_iterator_tag
FN:1593,_ZNSt6vectorIiSaIiEE18_M_fill_initializeEmRKi
FN:1603,_ZNSt6vectorISt10shared_ptrI13ThreadContextESaIS2_EE21_M_default_initializeEm
FN:1709,_ZNSt6vectorIS_IiSaIiEESaIS1_EE16_Temporary_valueC2IJRKS1_EEEPS3_DpOT_
FN:1715,_ZNSt6vectorIS_IiSaIiEESaIS1_EE16_Temporary_valueD2Ev
FN:1719,_ZNSt6vectorIS_IiSaIiEESaIS1_EE16_Temporary_value6_M_valEv
FN:1723,_ZNSt6vectorIS_IiSaIiEESaIS1_EE16_Temporary_value6_M_ptrEv
FN:1756,_ZNKSt6vectorIiSaIiEE12_M_check_lenEmPKc
FN:1756,_ZNKSt6vectorI4EdgeSaIS0_EE12_M_check_lenEmPKc
FN:1756,_ZNKSt6vectorIS_IiSaIiEESaIS1_EE12_M_check_lenEmPKc
FN:1756,_ZNKSt6vectorISt4pairIiiESaIS1_EE12_M_check_lenEmPKc
FN:1756,_ZNKSt6vectorImSaImEE12_M_check_lenEmPKc
FN:1756,_ZNKSt6vectorIS_I4EdgeSaIS0_EESaIS2_EE12_M_check_lenEmPKc
FN:1756,_ZNKSt6vectorISt10unique_ptrI12ActiveObjectSt14default_deleteIS1_EESaIS4_EE12_M_check_lenEmPKc
FN:1767,_ZNSt6vectorImSaImEE17_S_check_init_lenEmRKS0_
FN:1767,_ZNSt6vectorIiSaIiEE17_S_check_init_lenEmRKS0_
FN:1767,_ZNSt6vectorISt10unique_ptrI12ActiveObjectSt14default_deleteIS1_EESaIS4_EE17_S_check_init_lenEmRKS5_
FN:1767,_ZNSt6vectorISt10shared_ptrI13ThreadContextESaIS2_EE17_S_check_init_lenEmRKS3_
FN:1776,_ZNSt6vectorImSaImEE11_S_max_sizeERKS0_
FN:1776,_ZNSt6vectorIS_IiSaIiEESaIS1_EE11_S_max_sizeERKS2_
FN:1776,_ZNSt6vectorIS_I4EdgeSaIS0_EESaIS2_EE11_S_max_sizeERKS3_
FN:1776,_ZNSt6vectorISt4pairIiiESaIS1_EE11_S_max_sizeERKS2_
FN:1776,_ZNSt6vectorI4EdgeSaIS0_EE11_S_max_sizeERKS1_
FN:1776,_ZNSt6vectorISt10unique_ptrI12ActiveObjectSt14default_deleteIS1_EESaIS4_EE11_S_max_sizeERKS5_
FN:1776,_ZNSt6vectorISt10shared_ptrI13ThreadContextESaIS2_EE11_S_max_sizeERKS3_
FN:1776,_ZNSt6vectorIiSaIiEE11_S_max_sizeERKS0_
FN:1792,_ZNSt6vectorISt10shared_ptrI13ThreadContextESaIS2_EE15_M_erase_at_endEPS2_
FN:1792,_ZNSt6vectorIiSaIiEE15_M_erase_at_endEPi
FN:1792,_ZNSt6vectorImSaImEE15_M_erase_at_endEPm
FN:1792,_ZNSt6vectorIS_IiSaIiEESaIS1_EE15_M_erase_at_endEPS1_
FN:1792,_ZNSt6vectorIS_I4EdgeSaIS0_EESaIS2_EE15_M_erase_at_endEPS2_
FN:1792,_ZNSt6vectorISt10unique_ptrI12ActiveObjectSt14default_deleteIS1_EESaIS4_EE15_M_erase_at_endEPS4_
FN:1815,_ZNSt6vectorIiSaIiEE14_M_move_assignEOS1_St17integral_constantIbLb1EE
FNDA:6,_ZNSt12_Vector_baseISt4pairIiiESaIS1_EE12_Vector_implC2Ev
FNDA:6,_ZNSt12_Vector_baseIiSaIiEEC2Ev
FNDA:0,_ZNSt12_Vector_baseI4EdgeSaIS0_EE12_Vector_implC2EOS3_
FNDA:14,_ZNSt6vectorISt10unique_ptrI12ActiveObjectSt14default_deleteIS1_EESaIS4_EE9push_backEOS4_
FNDA:0,_ZNSt12_Vector_baseISt6threadSaIS0_EED2Ev
FNDA:40,_ZNSt6vectorIiSaIiEE14_S_do_relocateEPiS2_S2_RS0_St17integral_constantIbLb1EE
FNDA:408,_ZNSt6vectorI4EdgeSaIS0_EE5beginEv
FNDA:21,_ZNSt12_Vector_baseISt6vectorI4EdgeSaIS1_EESaIS3_EEC2Ev
FNDA:21,_ZNKSt6vectorIS_I4EdgeSaIS0_EESaIS2_EE12_M_check_lenEmPKc
FNDA:12,_ZNSt6vectorISt4pairIiiESaIS1_EE11_S_max_sizeERKS2_
FNDA:60,_ZNKSt6vectorISt4pairIiiESaIS1_EE5beginEv
FNDA:26,_ZNSt6vectorIiSaIiEE5beginEv
FNDA:402,_ZNSt6vectorI4EdgeSaIS0_EE11_S_max_sizeERKS1_
FNDA:1,_ZNSt12_Vector_baseISt10shared_ptrI13ThreadContextESaIS2_EED2Ev
FNDA:8,_ZNKSt6vectorISt10unique_ptrI12ActiveObjectSt14default_deleteIS1_EESaIS4_EE12_M_check_lenEmPKc
FNDA:5,_ZNSt6vectorISt10shared_ptrI13ThreadContextESaIS2_EE3endEv
FNDA:42,_ZNSt12_Vector_baseISt6vectorI4EdgeSaIS1_EESaIS3_EE13_M_deallocateEPS3_m
FNDA:2,_ZNSt12_Vector_baseISt10unique_ptrI12ActiveObjectSt14default_deleteIS1_EESaIS4_EE17_Vector_impl_data12_M_swap_dataERS7_
FNDA:2,_ZNSt6vectorISt10unique_ptrI12ActiveObjectSt14default_deleteIS1_EESaIS4_EE5clearEv
FNDA:402,_ZNSt6vectorI4EdgeSaIS0_EE14_S_do_relocateEPS0_S3_S3_RS1_St17integral_constantIbLb1EE
FNDA:0,_ZNSt6vectorIS_I4EdgeSaIS0_EESaIS2_EE15_M_erase_at_endEPS2_
FNDA:0,_ZNSt12_Vector_baseI4EdgeSaIS0_EEC2EOS2_
FNDA:2,_ZNSt12_Vector_baseISt6threadSaIS0_EEC2Ev
FNDA:402,_ZNSt6vectorI4EdgeSaIS0_EE11_S_relocateEPS0_S3_S3_RS1_
FNDA:1,_ZNSt6vectorISt10shared_ptrI13ThreadContextESaIS2_EE5clearEv
FNDA:2,_ZNSt6vectorISt10unique_ptrI12ActiveObjectSt14default_deleteIS1_EESaIS4_EE15_M_erase_at_endEPS4_
FNDA:134,_ZNSt12_Vector_baseIiSaIiEE11_M_allocateEm
FNDA:2,_ZNKSt12_Vector_baseImSaImEE13get_allocatorEv
FNDA:18,_ZNSt6vectorISt10unique_ptrI12ActiveObjectSt14default_deleteIS1_EESaIS4_EE11_S_max_sizeERKS5_
FNDA:0,_ZNSt12_Vector_baseIiSaIiEE17_Vector_impl_dataC2EOS2_
FNDA:12,_ZNSt12_Vector_baseISt6vectorIiSaIiEESaIS2_EED2Ev
FNDA:6,_ZNSt12_Vector_baseISt10unique_ptrI12ActiveObjectSt14default_deleteIS1_EESaIS4_EE17_Vector_impl_data12_M_copy_dataERKS7_
FNDA:106,_ZNSt6vectorIiSaIiEE11_S_max_sizeERKS0_
FNDA:0,_ZNSt6vectorIS_IiSaIiEESaIS1_EE16_Temporary_valueC2IJRKS1_EEEPS3_DpOT_
FNDA:2945,_ZNSt6vectorIiSaIiEEixEm
FNDA:1,_ZNSt6vectorISt10shared_ptrI13ThreadContextESaIS2_EE11_S_max_sizeERKS3_
FNDA:573,_ZNSt6vectorI4EdgeSaIS0_EE3endEv
FNDA:140,_ZNSt12_Vector_baseIiSaIiEE13_M_deallocateEPim
FNDA:12,_ZNKSt6vectorIS_IiSaIiEESaIS1_EE8max_sizeEv
FNDA:1,_ZNSt6vectorISt10shared_ptrI13ThreadContextESaIS2_EE21_M_default_initializeEm
FNDA:0,_ZNSt6vectorI4EdgeSaIS0_EEC2EOS2_
FNDA:14,_ZNKSt12_Vector_baseImSaImEE19_M_get_Tp_allocatorEv
FNDA:0,_ZNSt6vectorIiSaIiEE14_M_move_assignEOS1_St17integral_constantIbLb1EE
FNDA:1,_ZNSt12_Vector_baseISt10shared_ptrI13ThreadContextESaIS2_EEC2EmRKS3_
FNDA:333,_ZNSt6vectorIS_I4EdgeSaIS0_EESaIS2_EEixEm
FNDA:1,_ZNSt12_Vector_baseISt10shared_ptrI13ThreadContextESaIS2_EE13_M_deallocateEPS2_m
FNDA:2,_ZNSt12_Vector_baseISt10unique_ptrI12ActiveObjectSt14default_deleteIS1_EESaIS4_EE12_Vector_implC2ERKS5_
FNDA:3,_ZNSt12_Vector_baseISt10shared_ptrI13ThreadContextESaIS2_EE19_M_get_Tp_allocatorEv
FNDA:2,_ZNSt12_Vector_baseISt6threadSaIS0_EE12_Vector_implC2Ev
FNDA:2,_ZNSt12_Vector_baseImSaImEE12_Vector_implC2Ev
FNDA:6,_ZNSt6vectorImSaImEE9push_backERKm
FNDA:2,_ZNSt6vectorImSaImEE5clearEv
FNDA:48,_ZNSt6vectorI4EdgeSaIS0_EE9push_backERKS0_
FNDA:12,_ZNSt6vectorIS_IiSaIiEESaIS1_EEC2Ev
FNDA:120,_ZNSt12_Vector_baseIiSaIiEE17_Vector_impl_dataC2Ev
FNDA:165,_ZNSt6vectorI4EdgeSaIS0_EE9push_backEOS0_
FNDA:0,_ZNKSt6vectorIiSaIiEE8capacityEv
FNDA:0,_ZNSt12_Vector_baseIiSaIiEE17_Vector_impl_data12_M_copy_dataERKS2_
FNDA:6,_ZNSt6vectorIiSaIiEEC2Ev
FNDA:2,_ZNSt6vectorImSaImEED2Ev
FNDA:6,_ZNKSt6vectorIS_IiSaIiEESaIS1_EE12_M_check_lenEmPKc
FNDA:2,_ZNSt6vectorISt10unique_ptrI12ActiveObjectSt14default_deleteIS1_EESaIS4_EE4swapERS6_
FNDA:0,_ZNSt6vectorIiSaIiEEaSEOS1_
FNDA:426,_ZNKSt12_Vector_baseI4EdgeSaIS0_EE19_M_get_Tp_allocatorEv
FNDA:24,_ZNSt12_Vector_baseI4EdgeSaIS0_EE17_M_create_storageEm
FNDA:26,_ZNSt6vectorISt10unique_ptrI12ActiveObjectSt14default_deleteIS1_EESaIS4_EE3endEv
FNDA:12,_ZNSt12_Vector_baseISt6vectorIiSaIiEESaIS2_EE17_Vector_impl_dataC2Ev
FNDA:12,_ZNSt12_Vector_baseISt6vectorIiSaIiEESaIS2_EE12_Vector_implC2Ev
FNDA:1,_ZNSt6vectorISt10shared_ptrI13ThreadContextESaIS2_EE17_S_check_init_lenEmRKS3_
FNDA:2,_ZNSt12_Vector_baseImSaImEE12_Vector_implC2ERKS0_
FNDA:32,_ZNSt6vectorIiSaIiEE4backEv
FNDA:21,_ZNSt12_Vector_baseISt6vectorI4EdgeSaIS1_EESaIS3_EE17_Vector_impl_dataC2Ev
FNDA:225,_ZNSt12_Vector_baseI4EdgeSaIS0_EE11_M_allocateEm
FNDA:21,_ZNSt6vectorIS_I4EdgeSaIS0_EESaIS2_EEC2Ev
FNDA:21,_ZNSt6vectorIS_I4EdgeSaIS0_EESaIS2_EE11_S_relocateEPS2_S5_S5_RS3_
FNDA:60,_ZNSt6vectorISt4pairIiiESaIS1_EE5beginEv
FNDA:0,_ZNSt12_Vector_baseISt6threadSaIS0_EE19_M_get_Tp_allocatorEv
FNDA:27,_ZNKSt6vectorISt4pairIiiESaIS1_EE5frontEv
FNDA:24,_ZNSt12_Vector_baseImSaImEE19_M_get_Tp_allocatorEv
FNDA:2,_ZNSt12_Vector_baseISt6threadSaIS0_EE17_Vector_impl_dataC2Ev
FNDA:27,_ZNSt6vectorISt4pairIiiESaIS1_EE8pop_backEv
FNDA:0,_ZNSt12_Vector_baseIiSaIiEEC2EOS1_
FNDA:141,_ZNSt12_Vector_baseI4EdgeSaIS0_EED2Ev
FNDA:402,_ZNKSt6vectorI4EdgeSaIS0_EE8max_sizeEv
FNDA:165,_ZNSt6vectorI4EdgeSaIS0_EE4backEv
FNDA:6,_ZNSt6vectorIS_IiSaIiEESaIS1_EE5beginEv
FNDA:16,_ZNSt6vectorISt10unique_ptrI12ActiveObjectSt14default_deleteIS1_EESaIS4_EE14_S_do_relocateEPS4_S7_S7_RS5_St17integral_constantIbLb1EE
FNDA:66,_ZNSt6vectorIiSaIiEE18_M_fill_initializeEmRKi
FNDA:24,_ZNKSt6vectorISt4pairIiiESaIS1_EE4sizeEv
FNDA:6,_ZNSt12_Vector_baseIiSaIiEE12_Vector_implC2Ev
FNDA:12,_ZNKSt12_Vector_baseISt4pairIiiESaIS1_EE19_M_get_Tp_allocatorEv
FNDA:84,_ZNSt6vectorIS_I4EdgeSaIS0_EESaIS2_EE11_S_max_sizeERKS3_
FNDA:33,_ZNKSt6vectorISt4pairIiiESaIS1_EE5emptyEv
FNDA:0,_ZNSt6vectorIiSaIiEE5clearEv
FNDA:0,_ZNSt6vectorIS_IiSaIiEESaIS1_EE15_M_erase_at_endEPS1_
FNDA:48,_ZNKSt6vectorIiSaIiEE5beginEv
FNDA:6,_ZNSt12_Vector_baseISt4pairIiiESaIS1_EE17_Vector_impl_dataC2Ev
FNDA:2,_ZNSt6vectorImSaImEE19_M_range_initializeISt13move_iteratorIN9__gnu_cxx17__normal_iteratorIPmS1_EEEEEvT_S9_St20forward_iterator_tag
FNDA:2,_ZNSt6vectorImSaImEE13shrink_to_fitEv
FNDA:6,_ZNSt12_Vector_baseImSaImEE17_Vector_impl_dataC2Ev
FNDA:2,_ZNKSt6vectorImSaImEE8capacityEv
FNDA:6,_ZNSt6vectorISt4pairIiiESaIS1_EED2Ev
FNDA:16,_ZNSt6vectorISt10unique_ptrI12ActiveObjectSt14default_deleteIS1_EESaIS4_EE11_S_relocateEPS4_S7_S7_RS5_
FNDA:567,_ZNSt12_Vector_baseI4EdgeSaIS0_EE19_M_get_Tp_allocatorEv
FNDA:2,_ZNSt12_Vector_baseISt10unique_ptrI12ActiveObjectSt14default_deleteIS1_EESaIS4_EEC2Ev
FNDA:12,_ZNKSt6vectorImSaImEE8max_sizeEv
FNDA:34,_ZNKSt6vectorISt10unique_ptrI12ActiveObjectSt14default_deleteIS1_EESaIS4_EE4sizeEv
FNDA:12,_ZNSt6vectorISt4pairIiiESaIS1_EE14_S_do_relocateEPS1_S4_S4_RS2_St17integral_constantIbLb1EE
FNDA:21,_ZNSt6vectorIS_I4EdgeSaIS0_EESaIS2_EED2Ev
FNDA:1,_ZNSt12_Vector_baseISt10shared_ptrI13ThreadContextESaIS2_EE11_M_allocateEm
FNDA:6,_ZNSt12_Vector_baseISt6vectorIiSaIiEESaIS2_EE11_M_allocateEm
FNDA:117,_ZNSt6vectorI4EdgeSaIS0_EEC2Ev
FNDA:24,_ZNSt12_Vector_baseI4EdgeSaIS0_EE12_Vector_implC2ERKS1_
FNDA:6,_ZNKSt6vectorImSaImEE12_M_check_lenEmPKc
FNDA:87,_ZNSt6vectorISt4pairIiiESaIS1_EE3endEv
FNDA:1,_ZNSt12_Vector_baseISt10shared_ptrI13ThreadContextESaIS2_EE12_Vector_implC2ERKS3_
FNDA:33,_ZNKSt6vectorISt4pairIiiESaIS1_EE3endEv
FNDA:114,_ZNSt12_Vector_baseIiSaIiEE12_Vector_implC2ERKS0_
FNDA:12,_ZNSt6vectorISt4pairIiiESaIS1_EE11_S_relocateEPS1_S4_S4_RS2_
FNDA:120,_ZNSt12_Vector_baseIiSaIiEED2Ev
FNDA:6,_ZNKSt6vectorISt4pairIiiESaIS1_EE12_M_check_lenEmPKc
FNDA:84,_ZNKSt12_Vector_baseISt6vectorI4EdgeSaIS1_EESaIS3_EE19_M_get_Tp_allocatorEv
FNDA:114,_ZNSt12_Vector_baseIiSaIiEEC2EmRKS0_
FNDA:6,_ZNSt6vectorIS_IiSaIiEESaIS1_EE3endEv
FNDA:147,_ZNKSt6vectorIS_I4EdgeSaIS0_EESaIS2_EE4sizeEv
FNDA:14,_ZNSt6vectorISt10unique_ptrI12ActiveObjectSt14default_deleteIS1_EESaIS4_EE4backEv
FNDA:21,_ZNSt12_Vector_baseISt6vectorI4EdgeSaIS1_EESaIS3_EED2Ev
FNDA:186,_ZNKSt6vectorIiSaIiEE4sizeEv
FNDA:72,_ZNSt6vectorISt10unique_ptrI12ActiveObjectSt14default_deleteIS1_EESaIS4_EEixEm
FNDA:6,_ZNSt12_Vector_baseISt10unique_ptrI12ActiveObjectSt14default_deleteIS1_EESaIS4_EE17_Vector_impl_dataC2Ev
FNDA:0,_ZNSt6vectorIS_IiSaIiEESaIS1_EE16_Temporary_value6_M_ptrEv
FNDA:0,_ZNSt12_Vector_baseISt6threadSaIS0_EE13_M_deallocateEPS0_m
FNDA:2,_ZNSt6vectorISt6threadSaIS0_EEC2Ev
FNDA:36,_ZNSt12_Vector_baseISt6vectorIiSaIiEESaIS2_EE19_M_get_Tp_allocatorEv
FNDA:1,_ZNSt12_Vector_baseISt10shared_ptrI13ThreadContextESaIS2_EE17_Vector_impl_dataC2Ev
FNDA:0,_ZNSt12_Vector_baseIiSaIiEEC2ERKS0_
FNDA:0,_ZNKSt12_Vector_baseIiSaIiEE13get_allocatorEv
FNDA:12,_ZNKSt6vectorIS_I4EdgeSaIS0_EESaIS2_EE5emptyEv
FNDA:2,_ZNSt6vectorISt10unique_ptrI12ActiveObjectSt14default_deleteIS1_EESaIS4_EE19_M_range_initializeISt13move_iteratorIN9__gnu_cxx17__normal_iteratorIPS4_S6_EEEEEvT_SE_St20forward_iterator_tag
FNDA:2067,_ZNSt6vectorIS_IiSaIiEESaIS1_EEixEm
FNDA:36,_ZNKSt6vectorIS_IiSaIiEESaIS1_EE4sizeEv
FNDA:27,_ZNSt6vectorISt4pairIiiESaIS1_EE4backEv
FNDA:84,_ZNKSt6vectorIS_I4EdgeSaIS0_EESaIS2_EE8max_sizeEv
FNDA:0,_ZNSt12_Vector_baseIiSaIiEE12_Vector_implC2EOS2_
FNDA:10,_ZNSt6vectorImSaImEE3endEv
FNDA:6,_ZNSt12_Vector_baseISt4pairIiiESaIS1_EED2Ev
FNDA:2,_ZNKSt12_Vector_baseISt10unique_ptrI12ActiveObjectSt14default_deleteIS1_EESaIS4_EE13get_allocatorEv
FNDA:6,_ZNSt6vectorISt4pairIiiESaIS1_EEC2Ev
FNDA:117,_ZNSt12_Vector_baseI4EdgeSaIS0_EE12_Vector_implC2Ev
FNDA:12,_ZNSt12_Vector_baseISt6vectorIiSaIiEESaIS2_EEC2Ev
FNDA:0,_ZNSt6vectorIS_IiSaIiEESaIS1_EE16_Temporary_value6_M_valEv
FNDA:2,_ZNSt12_Vector_baseISt10unique_ptrI12ActiveObjectSt14default_deleteIS1_EESaIS4_EE12_Vector_implC2Ev
FNDA:2,_ZNSt6vectorImSaImEEC2Ev
FNDA:120,_ZNSt6vectorIiSaIiEED2Ev
FNDA:274,_ZNSt12_Vector_baseIiSaIiEE19_M_get_Tp_allocatorEv
FNDA:6,_ZNSt12_Vector_baseISt4pairIiiESaIS1_EE11_M_allocateEm
FNDA:10,_ZNSt12_Vector_baseISt10unique_ptrI12ActiveObjectSt14default_deleteIS1_EESaIS4_EE11_M_allocateEm
FNDA:2,_ZNSt12_Vector_baseImSaImEEC2ERKS0_
FNDA:2,_ZNSt12_Vector_baseISt10unique_ptrI12ActiveObjectSt14default_deleteIS1_EESaIS4_EEC2ERKS5_
FNDA:8,_ZNSt12_Vector_baseImSaImEE11_M_allocateEm
FNDA:12,_ZNSt6vectorImSaImEE14_S_do_relocateEPmS2_S2_RS0_St17integral_constantIbLb1EE
FNDA:12,_ZNSt6vectorISt10unique_ptrI12ActiveObjectSt14default_deleteIS1_EESaIS4_EE5beginEv
FNDA:63,_ZNSt12_Vector_baseISt6vectorI4EdgeSaIS1_EESaIS3_EE19_M_get_Tp_allocatorEv
FNDA:72,_ZNKSt6vectorI4EdgeSaIS0_EE5beginEv
FNDA:861,_ZNKSt6vectorI4EdgeSaIS0_EE4sizeEv
FNDA:0,_ZNSt6vectorIiSaIiEE20_M_allocate_and_copyIN9__gnu_cxx17__normal_iteratorIPKiS1_EEEEPimT_S9_
FNDA:0,_ZNSt12_Vector_baseIiSaIiEE17_Vector_impl_data12_M_swap_dataERS2_
FNDA:2,_ZNSt6vectorImSaImEEC2ISt13move_iteratorIN9__gnu_cxx17__normal_iteratorIPmS1_EEEvEET_S9_RKS0_
FNDA:16,_ZNKSt6vectorISt10unique_ptrI12ActiveObjectSt14default_deleteIS1_EESaIS4_EE8max_sizeEv
FNDA:27,_ZNSt6vectorISt4pairIiiESaIS1_EE9push_backEOS1_
FNDA:26,_ZNSt6vectorIiSaIiEE9push_backEOi
FNDA:0,_ZNSt6vectorIiSaIiEEC2ERKS0_
FNDA:6,_ZNSt12_Vector_baseISt4pairIiiESaIS1_EEC2Ev
FNDA:1,_ZNSt12_Vector_baseISt10shared_ptrI13ThreadContextESaIS2_EE17_M_create_storageEm
FNDA:26,_ZNKSt6vectorIiSaIiEEixEm
FNDA:24,_ZNSt12_Vector_baseI4EdgeSaIS0_EEC2EmRKS1_
FNDA:1,_ZNSt6vectorISt10shared_ptrI13ThreadContextESaIS2_EEC2EmRKS3_
FNDA:24,_ZNSt6vectorI4EdgeSaIS0_EEC2ERKS2_
FNDA:2,_ZNSt6vectorISt10unique_ptrI12ActiveObjectSt14default_deleteIS1_EESaIS4_EE17_S_check_init_lenEmRKS5_
FNDA:12,_ZNSt6vectorIS_IiSaIiEESaIS1_EED2Ev
FNDA:2,_ZNSt6vectorISt10unique_ptrI12ActiveObjectSt14default_deleteIS1_EESaIS4_EED2Ev
FNDA:0,_ZNSt12_Vector_baseI4EdgeSaIS0_EE17_Vector_impl_dataC2EOS3_
FNDA:0,_ZNSt6vectorIiSaIiEEC2EOS1_
FNDA:12,_ZNKSt12_Vector_baseISt6vectorIiSaIiEESaIS2_EE19_M_get_Tp_allocatorEv
FNDA:40,_ZNSt6vectorIiSaIiEE11_S_relocateEPiS2_S2_RS0_
FNDA:10,_ZNSt6vectorImSaImEE5beginEv
FNDA:18,_ZNSt12_Vector_baseISt4pairIiiESaIS1_EE19_M_get_Tp_allocatorEv
FNDA:6,_ZNSt12_Vector_baseImSaImEE17_Vector_impl_data12_M_copy_dataERKS2_
FNDA:40,_ZNKSt6vectorIiSaIiEE8max_sizeEv
FNDA:0,_ZNSt6vectorIS_IiSaIiEESaIS1_EE16_Temporary_valueD2Ev
FNDA:2,_ZNSt12_Vector_baseISt10unique_ptrI12ActiveObjectSt14default_deleteIS1_EESaIS4_EED2Ev
FNDA:12,_ZNKSt6vectorISt4pairIiiESaIS1_EE8max_sizeEv
FNDA:2,_ZNSt6vectorImSaImEE17_S_check_init_lenEmRKS0_
FNDA:1,_ZNSt6vectorISt10shared_ptrI13ThreadContextESaIS2_EE15_M_erase_at_endEPS2_
FNDA:2,_ZNKSt6vectorISt10unique_ptrI12ActiveObjectSt14default_deleteIS1_EESaIS4_EE8capacityEv
FNDA:21,_ZNSt12_Vector_baseISt6vectorI4EdgeSaIS1_EESaIS3_EE11_M_allocateEm
FNDA:26,_ZNKSt6vectorImSaImEE4sizeEv
FNDA:2,_ZNSt6vectorISt10unique_ptrI12ActiveObjectSt14default_deleteIS1_EESaIS4_EEC2ISt13move_iteratorIN9__gnu_cxx17__normal_iteratorIPS4_S6_EEEvEET_SE_RKS5_
FNDA:6,_ZNSt6vectorIS_IiSaIiEESaIS1_EE6resizeEmRKS1_
FNDA:12,_ZNSt6vectorImSaImEE11_S_relocateEPmS2_S2_RS0_
FNDA:117,_ZNSt12_Vector_baseI4EdgeSaIS0_EEC2Ev
FNDA:21,_ZNSt6vectorIS_I4EdgeSaIS0_EESaIS2_EE14_S_do_relocateEPS2_S5_S5_RS3_St17integral_constantIbLb1EE
FNDA:201,_ZNKSt6vectorI4EdgeSaIS0_EE12_M_check_lenEmPKc
FNDA:48,_ZNSt6vectorIiSaIiEEC2ERKS1_
FNDA:20,_ZNKSt6vectorIiSaIiEE12_M_check_lenEmPKc
FNDA:18,_ZNSt12_Vector_baseISt6vectorIiSaIiEESaIS2_EE13_M_deallocateEPS2_m
FNDA:58,_ZNSt6vectorIiSaIiEE3endEv
FNDA:141,_ZNSt12_Vector_baseI4EdgeSaIS0_EE17_Vector_impl_dataC2Ev
FNDA:21,_ZNSt6vectorI4EdgeSaIS0_EEixEm
FNDA:12,_ZNKSt6vectorIS_I4EdgeSaIS0_EESaIS2_EE5beginEv
FNDA:2,_ZNSt12_Vector_baseImSaImEE17_Vector_impl_data12_M_swap_dataERS2_
FNDA:1,_ZNSt6vectorISt10shared_ptrI13ThreadContextESaIS2_EED2Ev
FNDA:21,_ZNSt12_Vector_baseISt6vectorI4EdgeSaIS1_EESaIS3_EE12_Vector_implC2Ev
FNDA:10,_ZNSt12_Vector_baseISt10unique_ptrI12ActiveObjectSt14default_deleteIS1_EESaIS4_EE13_M_deallocateEPS4_m
FNDA:18,_ZNKSt12_Vector_baseISt10unique_ptrI12ActiveObjectSt14default_deleteIS1_EESaIS4_EE19_M_get_Tp_allocatorEv
FNDA:12,_ZNSt12_Vector_baseISt4pairIiiESaIS1_EE13_M_deallocateEPS1_m
FNDA:114,_ZNSt12_Vector_baseIiSaIiEE17_M_create_storageEm
FNDA:56,_ZNSt6vectorISt10shared_ptrI13ThreadContextESaIS2_EEixEm
FNDA:7,_ZNSt6vectorISt10shared_ptrI13ThreadContextESaIS2_EE5beginEv
FNDA:72,_ZNKSt6vectorI4EdgeSaIS0_EE3endEv
FNDA:2,_ZNSt12_Vector_baseImSaImEEC2Ev
FNDA:2,_ZNSt6vectorImSaImEE15_M_erase_at_endEPm
FNDA:0,_ZNSt6vectorIiSaIiEE15_M_erase_at_endEPi
FNDA:2,_ZNSt6vectorISt10unique_ptrI12ActiveObjectSt14default_deleteIS1_EESaIS4_EE13shrink_to_fitEv
FNDA:141,_ZNSt6vectorI4EdgeSaIS0_EED2Ev
FNDA:48,_ZNKSt6vectorIS_I4EdgeSaIS0_EESaIS2_EEixEm
FNDA:66,_ZNSt6vectorIiSaIiEEC2EmRKiRKS0_
FNDA:66,_ZNSt6vectorIiSaIiEE17_S_check_init_lenEmRKS0_
FNDA:2,_ZNSt6vectorISt10unique_ptrI12ActiveObjectSt14default_deleteIS1_EESaIS4_EEC2Ev
FNDA:21,_ZNSt6vectorIS_I4EdgeSaIS0_EESaIS2_EE6resizeEm
FNDA:14,_ZNSt6vectorImSaImEE11_S_max_sizeERKS0_
FNDA:2,_ZNSt12_Vector_baseImSaImEED2Ev
FNDA:12,_ZNSt6vectorIS_IiSaIiEESaIS1_EE11_S_max_sizeERKS2_
FNDA:0,_ZNSt6vectorISt6threadSaIS0_EED2Ev
FNDA:12,_ZNKSt6vectorIS_I4EdgeSaIS0_EESaIS2_EE3endEv
FNDA:88,_ZNKSt12_Vector_baseIiSaIiEE19_M_get_Tp_allocatorEv
FNDA:2,_ZNSt6vectorImSaImEE4swapERS1_
FNDA:28,_ZNSt12_Vector_baseISt10unique_ptrI12ActiveObjectSt14default_deleteIS1_EESaIS4_EE19_M_get_Tp_allocatorEv
FNDA:8,_ZNSt12_Vector_baseImSaImEE13_M_deallocateEPmm
FNDA:48,_ZNKSt6vectorIiSaIiEE3endEv
FNDA:342,_ZNSt12_Vector_baseI4EdgeSaIS0_EE13_M_deallocateEPS0_m
FNF:241
FNH:212
DA:97,315
DA:98,315
DA:99,315
DA:102,0
DA:103,0
DA:104,0
DA:105,0
DA:109,12
DA:111,12
DA:112,12
DA:113,12
DA:114,12
DA:117,4
DA:121,4
DA:122,4
DA:123,4
DA:124,4
DA:125,4
DA:131,168
DA:133,168
DA:134,168
DA:136,143
DA:137,143
DA:138,143
DA:143,0
DA:144,0
DA:145,0
DA:276,1013
DA:277,1013
DA:280,654
DA:281,654
DA:284,4
DA:285,4
DA:288,168
DA:293,4
DA:294,4
DA:303,139
DA:304,139
DA:305,139
DA:308,0
DA:333,305
DA:335,305
DA:336,305
DA:337,305
DA:343,411
DA:346,411
DA:350,573
DA:353,573
DA:354,407
DA:355,573
DA:359,139
DA:361,139
DA:362,139
DA:363,139
DA:364,139
DA:453,503
DA:456,503
DA:465,503
DA:469,503
DA:487,168
DA:497,0
DA:498,0
DA:510,1
DA:511,1
DA:512,1
DA:522,66
DA:524,66
DA:525,66
DA:553,72
DA:555,72
DA:557,72
DA:558,72
DA:560,72
DA:561,72
DA:572,0
DA:653,4
DA:655,4
DA:657,4
DA:658,4
DA:659,4
DA:678,305
DA:680,305
DA:681,305
DA:683,305
DA:709,0
DA:711,0
DA:714,0
DA:715,0
DA:811,529
DA:812,529
DA:820,192
DA:821,192
DA:829,765
DA:830,765
DA:838,165
DA:839,165
DA:918,1314
DA:919,1314
DA:923,578
DA:924,578
DA:937,21
DA:939,21
DA:940,21
DA:941,0
DA:942,0
DA:943,21
DA:957,6
DA:959,6
DA:960,6
DA:961,0
DA:962,0
DA:963,6
DA:989,4
DA:990,4
DA:998,4
DA:999,4
DA:1000,4
DA:1007,45
DA:1008,45
DA:1043,5494
DA:1046,5494
DA:1061,74
DA:1064,74
DA:1132,27
DA:1135,27
DA:1143,238
DA:1146,238
DA:1187,54
DA:1189,54
DA:1192,9
DA:1194,9
DA:1198,45
DA:1199,54
DA:1203,232
DA:1204,232
DA:1225,27
DA:1228,27
DA:1229,27
DA:1231,27
DA:1480,4
DA:1483,4
DA:1486,4
DA:1487,4
DA:1488,4
DA:1489,4
DA:1498,5
DA:1499,5
DA:1508,0
DA:1511,0
DA:1514,0
DA:1515,0
DA:1516,0
DA:1518,0
DA:1520,0
DA:1521,0
DA:1577,4
DA:1580,4
DA:1582,4
DA:1583,4
DA:1584,4
DA:1585,4
DA:1587,4
DA:1588,4
DA:1593,66
DA:1595,66
DA:1596,66
DA:1597,66
DA:1598,66
DA:1603,1
DA:1605,1
DA:1606,1
DA:1607,1
DA:1608,1
DA:1709,0
DA:1711,0
DA:1713,0
DA:1715,0
DA:1716,0
DA:1719,0
DA:1723,0
DA:1756,268
DA:1758,268
DA:1759,0
DA:1761,268
DA:1762,268
DA:1767,71
DA:1769,71
DA:1770,0
DA:1772,71
DA:1776,649
DA:1781,649
DA:1783,649
DA:1784,649
DA:1792,5
DA:1794,5
DA:1796,5
DA:1797,5
DA:1798,5
DA:1801,5
DA:1815,0
DA:1817,0
DA:1818,0
DA:1819,0
DA:1820,0
DA:1821,0
LF:205
LH:163
end_of_record
TN:
SF:/usr/include/c++/11/bits/this_thread_sleep.h
FN:70,_ZNSt11this_thread9sleep_forIlSt5ratioILl1ELl1000EEEEvRKNSt6chrono8durationIT_T0_EE
FNDA:224098,_ZNSt11this_thread9sleep_forIlSt5ratioILl1ELl1000EEEEvRKNSt6chrono8durationIT_T0_EE
FNF:1
FNH:1
DA:70,224098
DA:72,224098
DA:73,0
DA:74,224098
DA:75,224098
DA:77,448196
DA:79,224098
DA:80,224098
DA:82,224098
LF:9
LH:8
end_of_record
TN:
SF:/usr/include/c++/11/bits/unique_lock.h
FN:66,_ZNSt11unique_lockISt5mutexEC2ERS0_
FN:77,_ZNSt11unique_lockISt5mutexEC2ERS0_St13try_to_lock_t
FN:101,_ZNSt11unique_lockISt5mutexED2Ev
FN:131,_ZNSt11unique_lockISt5mutexE4lockEv
FN:189,_ZNSt11unique_lockISt5mutexE6unlockEv
FN:217,_ZNKSt11unique_lockISt5mutexE9owns_lockEv
FNDA:611,_ZNSt11unique_lockISt5mutexE6unlockEv
FNDA:23,_ZNSt11unique_lockISt5mutexEC2ERS0_St13try_to_lock_t
FNDA:614,_ZNSt11unique_lockISt5mutexED2Ev
FNDA:23,_ZNKSt11unique_lockISt5mutexE9owns_lockEv
FNDA:593,_ZNSt11unique_lockISt5mutexEC2ERS0_
FNDA:593,_ZNSt11unique_lockISt5mutexE4lockEv
FNF:6
FNH:6
DA:66,593
DA:67,593
DA:69,593
DA:70,593
DA:71,593
DA:77,23
DA:78,23
DA:79,23
DA:101,614
DA:103,614
DA:104,609
DA:105,614
DA:131,593
DA:133,593
DA:134,0
DA:135,593
DA:136,0
DA:139,593
DA:140,593
DA:142,593
DA:189,611
DA:191,611
DA:192,0
DA:193,611
DA:195,611
DA:196,611
DA:198,611
DA:217,23
DA:218,23
LF:29
LH:26
end_of_record
TN:
SF:/usr/include/c++/11/bits/unique_ptr.h
FN:79,_ZNKSt14default_deleteINSt6thread6_StateEEclEPS1_
FN:79,_ZNKSt14default_deleteI7ReactorEclEPS0_
FN:79,_ZNKSt14default_deleteI9functArgsEclEPS0_
FN:79,_ZNKSt14default_deleteI5GraphEclEPS0_
FN:79,_ZNKSt14default_deleteI12LFThreadPoolEclEPS0_
FN:79,_ZNKSt14default_deleteI12ActiveObjectEclEPS0_
FN:79,_ZNKSt14default_deleteI4TreeEclEPS0_
FN:79,_ZNKSt14default_deleteI11MSTStrategyEclEPS0_
FN:79,_ZNKSt14default_deleteISt8functionIFvvEEEclEPS2_
FN:154,_ZNSt15__uniq_ptr_implISt8functionIFvvEESt14default_deleteIS2_EEC2Ev
FN:155,_ZNSt15__uniq_ptr_implI7ReactorSt14default_deleteIS0_EEC2EPS0_
FN:155,_ZNSt15__uniq_ptr_implISt8functionIFvvEESt14default_deleteIS2_EEC2EPS2_
FN:155,_ZNSt15__uniq_ptr_implINSt6thread6_StateESt14default_deleteIS1_EEC2EPS1_
FN:155,_ZNSt15__uniq_ptr_implI11MSTStrategySt14default_deleteIS0_EEC2EPS0_
FN:155,_ZNSt15__uniq_ptr_implI9functArgsSt14default_deleteIS0_EEC2EPS0_
FN:155,_ZNSt15__uniq_ptr_implI5GraphSt14default_deleteIS0_EEC2EPS0_
FN:155,_ZNSt15__uniq_ptr_implI4TreeSt14default_deleteIS0_EEC2EPS0_
FN:155,_ZNSt15__uniq_ptr_implI12ActiveObjectSt14default_deleteIS0_EEC2EPS0_
FN:155,_ZNSt15__uniq_ptr_implI12LFThreadPoolSt14default_deleteIS0_EEC2EPS0_
FN:161,_ZNSt15__uniq_ptr_implI12ActiveObjectSt14default_deleteIS0_EEC2EOS3_
FN:165,_ZNSt15__uniq_ptr_implI4TreeSt14default_deleteIS0_EEaSEOS3_
FN:165,_ZNSt15__uniq_ptr_implISt8functionIFvvEESt14default_deleteIS2_EEaSEOS5_
FN:165,_ZNSt15__uniq_ptr_implI11MSTStrategySt14default_deleteIS0_EEaSEOS3_
FN:165,_ZNSt15__uniq_ptr_implI9functArgsSt14default_deleteIS0_EEaSEOS3_
FN:165,_ZNSt15__uniq_ptr_implI12LFThreadPoolSt14default_deleteIS0_EEaSEOS3_
FN:165,_ZNSt15__uniq_ptr_implI5GraphSt14default_deleteIS0_EEaSEOS3_
FN:172,_ZNSt15__uniq_ptr_implISt8functionIFvvEESt14default_deleteIS2_EE6_M_ptrEv
FN:172,_ZNSt15__uniq_ptr_implINSt6thread6_StateESt14default_deleteIS1_EE6_M_ptrEv
FN:172,_ZNSt15__uniq_ptr_implI7ReactorSt14default_deleteIS0_EE6_M_ptrEv
FN:172,_ZNSt15__uniq_ptr_implI4TreeSt14default_deleteIS0_EE6_M_ptrEv
FN:172,_ZNSt15__uniq_ptr_implI12ActiveObjectSt14default_deleteIS0_EE6_M_ptrEv
FN:172,_ZNSt15__uniq_ptr_implI9functArgsSt14default_deleteIS0_EE6_M_ptrEv
FN:172,_ZNSt15__uniq_ptr_implI5GraphSt14default_deleteIS0_EE6_M_ptrEv
FN:172,_ZNSt15__uniq_ptr_implI12LFThreadPoolSt14default_deleteIS0_EE6_M_ptrEv
FN:172,_ZNSt15__uniq_ptr_implI11MSTStrategySt14default_deleteIS0_EE6_M_ptrEv
FN:173,_ZNKSt15__uniq_ptr_implI12ActiveObjectSt14default_deleteIS0_EE6_M_ptrEv
FN:173,_ZNKSt15__uniq_ptr_implI12LFThreadPoolSt14default_deleteIS0_EE6_M_ptrEv
FN:173,_ZNKSt15__uniq_ptr_implISt8functionIFvvEESt14default_deleteIS2_EE6_M_ptrEv
FN:173,_ZNKSt15__uniq_ptr_implI5GraphSt14default_deleteIS0_EE6_M_ptrEv
FN:173,_ZNKSt15__uniq_ptr_implI9functArgsSt14default_deleteIS0_EE6_M_ptrEv
FN:173,_ZNKSt15__uniq_ptr_implI11MSTStrategySt14default_deleteIS0_EE6_M_ptrEv
FN:173,_ZNKSt15__uniq_ptr_implI7ReactorSt14default_deleteIS0_EE6_M_ptrEv
FN:173,_ZNKSt15__uniq_ptr_implI4TreeSt14default_deleteIS0_EE6_M_ptrEv
FN:174,_ZNSt15__uniq_ptr_implI4TreeSt14default_deleteIS0_EE10_M_deleterEv
FN:174,_ZNSt15__uniq_ptr_implI12LFThreadPoolSt14default_deleteIS0_EE10_M_deleterEv
FN:174,_ZNSt15__uniq_ptr_implI11MSTStrategySt14default_deleteIS0_EE10_M_deleterEv
FN:174,_ZNSt15__uniq_ptr_implI12ActiveObjectSt14default_deleteIS0_EE10_M_deleterEv
FN:174,_ZNSt15__uniq_ptr_implI9functArgsSt14default_deleteIS0_EE10_M_deleterEv
FN:174,_ZNSt15__uniq_ptr_implI7ReactorSt14default_deleteIS0_EE10_M_deleterEv
FN:174,_ZNSt15__uniq_ptr_implI5GraphSt14default_deleteIS0_EE10_M_deleterEv
FN:174,_ZNSt15__uniq_ptr_implINSt6thread6_StateESt14default_deleteIS1_EE10_M_deleterEv
FN:174,_ZNSt15__uniq_ptr_implISt8functionIFvvEESt14default_deleteIS2_EE10_M_deleterEv
FN:177,_ZNSt15__uniq_ptr_implISt8functionIFvvEESt14default_deleteIS2_EE5resetEPS2_
FN:177,_ZNSt15__uniq_ptr_implI12LFThreadPoolSt14default_deleteIS0_EE5resetEPS0_
FN:177,_ZNSt15__uniq_ptr_implI4TreeSt14default_deleteIS0_EE5resetEPS0_
FN:177,_ZNSt15__uniq_ptr_implI5GraphSt14default_deleteIS0_EE5resetEPS0_
FN:177,_ZNSt15__uniq_ptr_implI12ActiveObjectSt14default_deleteIS0_EE5resetEPS0_
FN:177,_ZNSt15__uniq_ptr_implI9functArgsSt14default_deleteIS0_EE5resetEPS0_
FN:177,_ZNSt15__uniq_ptr_implI7ReactorSt14default_deleteIS0_EE5resetEPS0_
FN:177,_ZNSt15__uniq_ptr_implI11MSTStrategySt14default_deleteIS0_EE5resetEPS0_
FN:185,_ZNSt15__uniq_ptr_implI12LFThreadPoolSt14default_deleteIS0_EE7releaseEv
FN:185,_ZNSt15__uniq_ptr_implISt8functionIFvvEESt14default_deleteIS2_EE7releaseEv
FN:185,_ZNSt15__uniq_ptr_implI11MSTStrategySt14default_deleteIS0_EE7releaseEv
FN:185,_ZNSt15__uniq_ptr_implI5GraphSt14default_deleteIS0_EE7releaseEv
FN:185,_ZNSt15__uniq_ptr_implI9functArgsSt14default_deleteIS0_EE7releaseEv
FN:185,_ZNSt15__uniq_ptr_implI4TreeSt14default_deleteIS0_EE7releaseEv
FN:211,_ZNSt15__uniq_ptr_dataI12ActiveObjectSt14default_deleteIS0_ELb1ELb1EEC2EOS3_
FN:212,_ZNSt15__uniq_ptr_dataI12LFThreadPoolSt14default_deleteIS0_ELb1ELb1EEaSEOS3_
FN:212,_ZNSt15__uniq_ptr_dataI5GraphSt14default_deleteIS0_ELb1ELb1EEaSEOS3_
FN:212,_ZNSt15__uniq_ptr_dataI4TreeSt14default_deleteIS0_ELb1ELb1EEaSEOS3_
FN:212,_ZNSt15__uniq_ptr_dataI9functArgsSt14default_deleteIS0_ELb1ELb1EEaSEOS3_
FN:212,_ZNSt15__uniq_ptr_dataI11MSTStrategySt14default_deleteIS0_ELb1ELb1EEaSEOS3_
FN:212,_ZNSt15__uniq_ptr_dataISt8functionIFvvEESt14default_deleteIS2_ELb1ELb1EEaSEOS5_
FN:269,_ZNSt10unique_ptrISt8functionIFvvEESt14default_deleteIS2_EEC2IS4_vEEv
FN:281,_ZNSt10unique_ptrI9functArgsSt14default_deleteIS0_EEC2IS2_vEEPS0_
FN:281,_ZNSt10unique_ptrI11MSTStrategySt14default_deleteIS0_EEC2IS2_vEEPS0_
FN:281,_ZNSt10unique_ptrI4TreeSt14default_deleteIS0_EEC2IS2_vEEPS0_
FN:281,_ZNSt10unique_ptrISt8functionIFvvEESt14default_deleteIS2_EEC2IS4_vEEPS2_
FN:281,_ZNSt10unique_ptrI12LFThreadPoolSt14default_deleteIS0_EEC2IS2_vEEPS0_
FN:281,_ZNSt10unique_ptrI5GraphSt14default_deleteIS0_EEC2IS2_vEEPS0_
FN:281,_ZNSt10unique_ptrI7ReactorSt14default_deleteIS0_EEC2IS2_vEEPS0_
FN:281,_ZNSt10unique_ptrINSt6thread6_StateESt14default_deleteIS1_EEC2IS3_vEEPS1_
FN:281,_ZNSt10unique_ptrI12ActiveObjectSt14default_deleteIS0_EEC2IS2_vEEPS0_
FN:327,_ZNSt10unique_ptrI12ActiveObjectSt14default_deleteIS0_EEC2EOS3_
FN:355,_ZNSt10unique_ptrI12ActiveObjectSt14default_deleteIS0_EED2Ev
FN:355,_ZNSt10unique_ptrINSt6thread6_StateESt14default_deleteIS1_EED2Ev
FN:355,_ZNSt10unique_ptrI9functArgsSt14default_deleteIS0_EED2Ev
FN:355,_ZNSt10unique_ptrI4TreeSt14default_deleteIS0_EED2Ev
FN:355,_ZNSt10unique_ptrISt8functionIFvvEESt14default_deleteIS2_EED2Ev
FN:355,_ZNSt10unique_ptrI12LFThreadPoolSt14default_deleteIS0_EED2Ev
FN:355,_ZNSt10unique_ptrI5GraphSt14default_deleteIS0_EED2Ev
FN:355,_ZNSt10unique_ptrI7ReactorSt14default_deleteIS0_EED2Ev
FN:355,_ZNSt10unique_ptrI11MSTStrategySt14default_deleteIS0_EED2Ev
FN:371,_ZNSt10unique_ptrISt8functionIFvvEESt14default_deleteIS2_EEaSEOS5_
FN:371,_ZNSt10unique_ptrI11MSTStrategySt14default_deleteIS0_EEaSEOS3_
FN:371,_ZNSt10unique_ptrI12LFThreadPoolSt14default_deleteIS0_EEaSEOS3_
FN:371,_ZNSt10unique_ptrI9functArgsSt14default_deleteIS0_EEaSEOS3_
FN:371,_ZNSt10unique_ptrI5GraphSt14default_deleteIS0_EEaSEOS3_
FN:371,_ZNSt10unique_ptrI4TreeSt14default_deleteIS0_EEaSEOS3_
FN:395,_ZNSt10unique_ptrI5GraphSt14default_deleteIS0_EEaSEDn
FN:395,_ZNSt10unique_ptrI4TreeSt14default_deleteIS0_EEaSEDn
FN:405,_ZNKSt10unique_ptrI7ReactorSt14default_deleteIS0_EEdeEv
FN:405,_ZNKSt10unique_ptrI5GraphSt14default_deleteIS0_EEdeEv
FN:413,_ZNKSt10unique_ptrI11MSTStrategySt14default_deleteIS0_EEptEv
FN:413,_ZNKSt10unique_ptrI12ActiveObjectSt14default_deleteIS0_EEptEv
FN:413,_ZNKSt10unique_ptrI7ReactorSt14default_deleteIS0_EEptEv
FN:413,_ZNKSt10unique_ptrI12LFThreadPoolSt14default_deleteIS0_EEptEv
FN:413,_ZNKSt10unique_ptrI4TreeSt14default_deleteIS0_EEptEv
FN:413,_ZNKSt10unique_ptrI5GraphSt14default_deleteIS0_EEptEv
FN:421,_ZNKSt10unique_ptrI12ActiveObjectSt14default_deleteIS0_EE3getEv
FN:421,_ZNKSt10unique_ptrI11MSTStrategySt14default_deleteIS0_EE3getEv
FN:421,_ZNKSt10unique_ptrI4TreeSt14default_deleteIS0_EE3getEv
FN:421,_ZNKSt10unique_ptrISt8functionIFvvEESt14default_deleteIS2_EE3getEv
FN:421,_ZNKSt10unique_ptrI12LFThreadPoolSt14default_deleteIS0_EE3getEv
FN:421,_ZNKSt10unique_ptrI7ReactorSt14default_deleteIS0_EE3getEv
FN:421,_ZNKSt10unique_ptrI9functArgsSt14default_deleteIS0_EE3getEv
FN:421,_ZNKSt10unique_ptrI5GraphSt14default_deleteIS0_EE3getEv
FN:426,_ZNSt10unique_ptrISt8functionIFvvEESt14default_deleteIS2_EE11get_deleterEv
FN:426,_ZNSt10unique_ptrI4TreeSt14default_deleteIS0_EE11get_deleterEv
FN:426,_ZNSt10unique_ptrI12LFThreadPoolSt14default_deleteIS0_EE11get_deleterEv
FN:426,_ZNSt10unique_ptrI7ReactorSt14default_deleteIS0_EE11get_deleterEv
FN:426,_ZNSt10unique_ptrI11MSTStrategySt14default_deleteIS0_EE11get_deleterEv
FN:426,_ZNSt10unique_ptrI9functArgsSt14default_deleteIS0_EE11get_deleterEv
FN:426,_ZNSt10unique_ptrI5GraphSt14default_deleteIS0_EE11get_deleterEv
FN:426,_ZNSt10unique_ptrI12ActiveObjectSt14default_deleteIS0_EE11get_deleterEv
FN:426,_ZNSt10unique_ptrINSt6thread6_StateESt14default_deleteIS1_EE11get_deleterEv
FN:435,_ZNKSt10unique_ptrI11MSTStrategySt14default_deleteIS0_EEcvbEv
FN:435,_ZNKSt10unique_ptrI5GraphSt14default_deleteIS0_EEcvbEv
FN:435,_ZNKSt10unique_ptrI4TreeSt14default_deleteIS0_EEcvbEv
FN:452,_ZNSt10unique_ptrISt8functionIFvvEESt14default_deleteIS2_EE5resetEPS2_
FN:452,_ZNSt10unique_ptrI11MSTStrategySt14default_deleteIS0_EE5resetEPS0_
FN:452,_ZNSt10unique_ptrI7ReactorSt14default_deleteIS0_EE5resetEPS0_
FN:452,_ZNSt10unique_ptrI9functArgsSt14default_deleteIS0_EE5resetEPS0_
FN:452,_ZNSt10unique_ptrI12ActiveObjectSt14default_deleteIS0_EE5resetEPS0_
FN:452,_ZNSt10unique_ptrI5GraphSt14default_deleteIS0_EE5resetEPS0_
FN:452,_ZNSt10unique_ptrI4TreeSt14default_deleteIS0_EE5resetEPS0_
FN:452,_ZNSt10unique_ptrI12LFThreadPoolSt14default_deleteIS0_EE5resetEPS0_
FN:760,_ZSteqI5GraphSt14default_deleteIS0_EEbRKSt10unique_ptrIT_T0_EDn
FN:760,_ZSteqI4TreeSt14default_deleteIS0_EEbRKSt10unique_ptrIT_T0_EDn
FN:781,_ZStneI5GraphSt14default_deleteIS0_EEbRKSt10unique_ptrIT_T0_EDn
FN:781,_ZStneI4TreeSt14default_deleteIS0_EEbRKSt10unique_ptrIT_T0_EDn
FN:781,_ZStneI11MSTStrategySt14default_deleteIS0_EEbRKSt10unique_ptrIT_T0_EDn
FN:961,_ZSt11make_uniqueI12LFThreadPoolJiR7ReactorEENSt9_MakeUniqIT_E15__single_objectEDpOT0_
FN:961,_ZSt11make_uniqueI4TreeJRSt6vectorI4EdgeSaIS2_EEEENSt9_MakeUniqIT_E15__single_objectEDpOT0_
FN:961,_ZSt11make_uniqueI5GraphJRiS1_EENSt9_MakeUniqIT_E15__single_objectEDpOT0_
FN:961,_ZSt11make_uniqueI12ActiveObjectJEENSt9_MakeUniqIT_E15__single_objectEDpOT0_
FN:961,_ZSt11make_uniqueI7ReactorJEENSt9_MakeUniqIT_E15__single_objectEDpOT0_
FN:961,_ZSt11make_uniqueISt8functionIFvvEEJRS2_EENSt9_MakeUniqIT_E15__single_objectEDpOT0_
FNDA:12,_ZNSt15__uniq_ptr_dataI4TreeSt14default_deleteIS0_ELb1ELb1EEaSEOS3_
FNDA:10,_ZNSt15__uniq_ptr_implISt8functionIFvvEESt14default_deleteIS2_EEaSEOS5_
FNDA:28,_ZNSt15__uniq_ptr_implINSt6thread6_StateESt14default_deleteIS1_EE6_M_ptrEv
FNDA:14,_ZNSt15__uniq_ptr_implINSt6thread6_StateESt14default_deleteIS1_EEC2EPS1_
FNDA:6,_ZNSt15__uniq_ptr_dataI9functArgsSt14default_deleteIS0_ELb1ELb1EEaSEOS3_
FNDA:12,_ZNSt10unique_ptrI11MSTStrategySt14default_deleteIS0_EEaSEOS3_
FNDA:12,_ZNSt10unique_ptrI4TreeSt14default_deleteIS0_EED2Ev
FNDA:0,_ZNSt10unique_ptrI12LFThreadPoolSt14default_deleteIS0_EE11get_deleterEv
FNDA:10,_ZNSt10unique_ptrISt8functionIFvvEESt14default_deleteIS2_EEaSEOS5_
FNDA:12,_ZNSt15__uniq_ptr_implI11MSTStrategySt14default_deleteIS0_EE7releaseEv
FNDA:36,_ZNSt15__uniq_ptr_implI11MSTStrategySt14default_deleteIS0_EE10_M_deleterEv
FNDA:6,_ZNSt10unique_ptrI9functArgsSt14default_deleteIS0_EEC2IS2_vEEPS0_
FNDA:3,_ZNKSt15__uniq_ptr_implI12LFThreadPoolSt14default_deleteIS0_EE6_M_ptrEv
FNDA:9,_ZNSt15__uniq_ptr_dataI5GraphSt14default_deleteIS0_ELb1ELb1EEaSEOS3_
FNDA:0,_ZNSt10unique_ptrI4TreeSt14default_deleteIS0_EE11get_deleterEv
FNDA:6,_ZNSt10unique_ptrI9functArgsSt14default_deleteIS0_EED2Ev
FNDA:6,_ZNKSt14default_deleteI9functArgsEclEPS0_
FNDA:1,_ZNKSt14default_deleteI7ReactorEclEPS0_
FNDA:10,_ZNSt15__uniq_ptr_implISt8functionIFvvEESt14default_deleteIS2_EEC2Ev
FNDA:3,_ZNSt15__uniq_ptr_implI12LFThreadPoolSt14default_deleteIS0_EE10_M_deleterEv
FNDA:12,_ZNSt10unique_ptrI11MSTStrategySt14default_deleteIS0_EE5resetEPS0_
FNDA:10,_ZNSt10unique_ptrISt8functionIFvvEESt14default_deleteIS2_EE5resetEPS2_
FNDA:1,_ZSt11make_uniqueI12LFThreadPoolJiR7ReactorEENSt9_MakeUniqIT_E15__single_objectEDpOT0_
FNDA:1,_ZNSt15__uniq_ptr_implI12LFThreadPoolSt14default_deleteIS0_EE7releaseEv
FNDA:36,_ZNSt15__uniq_ptr_implI4TreeSt14default_deleteIS0_EE10_M_deleterEv
FNDA:12,_ZNSt15__uniq_ptr_implI4TreeSt14default_deleteIS0_EEaSEOS3_
FNDA:10,_ZNSt15__uniq_ptr_implISt8functionIFvvEESt14default_deleteIS2_EE7releaseEv
FNDA:0,_ZNKSt14default_deleteINSt6thread6_StateEEclEPS1_
FNDA:14,_ZNSt10unique_ptrINSt6thread6_StateESt14default_deleteIS1_EED2Ev
FNDA:72,_ZNKSt10unique_ptrI12ActiveObjectSt14default_deleteIS0_EE3getEv
FNDA:0,_ZNSt10unique_ptrISt8functionIFvvEESt14default_deleteIS2_EE11get_deleterEv
FNDA:1,_ZNSt15__uniq_ptr_dataI12LFThreadPoolSt14default_deleteIS0_ELb1ELb1EEaSEOS3_
FNDA:10,_ZNSt15__uniq_ptr_implISt8functionIFvvEESt14default_deleteIS2_EEC2EPS2_
FNDA:72,_ZNKSt15__uniq_ptr_implI12ActiveObjectSt14default_deleteIS0_EE6_M_ptrEv
FNDA:1,_ZNSt15__uniq_ptr_implI7ReactorSt14default_deleteIS0_EEC2EPS0_
FNDA:90,_ZNSt15__uniq_ptr_implISt8functionIFvvEESt14default_deleteIS2_EE6_M_ptrEv
FNDA:12,_ZNKSt10unique_ptrI11MSTStrategySt14default_deleteIS0_EEcvbEv
FNDA:42,_ZNSt10unique_ptrI12ActiveObjectSt14default_deleteIS0_EED2Ev
FNDA:40,_ZNSt15__uniq_ptr_implI9functArgsSt14default_deleteIS0_EE6_M_ptrEv
FNDA:27,_ZNSt15__uniq_ptr_implI5GraphSt14default_deleteIS0_EE10_M_deleterEv
FNDA:12,_ZNSt15__uniq_ptr_implI11MSTStrategySt14default_deleteIS0_EEaSEOS3_
FNDA:24,_ZNKSt15__uniq_ptr_implI11MSTStrategySt14default_deleteIS0_EE6_M_ptrEv
FNDA:14,_ZNSt10unique_ptrI12ActiveObjectSt14default_deleteIS0_EE5resetEPS0_
FNDA:0,_ZNSt10unique_ptrI9functArgsSt14default_deleteIS0_EE11get_deleterEv
FNDA:111,_ZNKSt10unique_ptrI4TreeSt14default_deleteIS0_EE3getEv
FNDA:1,_ZNSt10unique_ptrI12LFThreadPoolSt14default_deleteIS0_EEaSEOS3_
FNDA:2,_ZNSt10unique_ptrI9functArgsSt14default_deleteIS0_EE5resetEPS0_
FNDA:1,_ZNSt15__uniq_ptr_implI7ReactorSt14default_deleteIS0_EE10_M_deleterEv
FNDA:14,_ZNKSt14default_deleteI12ActiveObjectEclEPS0_
FNDA:6,_ZNKSt15__uniq_ptr_implI9functArgsSt14default_deleteIS0_EE6_M_ptrEv
FNDA:24,_ZNSt15__uniq_ptr_implI5GraphSt14default_deleteIS0_EE5resetEPS0_
FNDA:0,_ZNSt10unique_ptrI7ReactorSt14default_deleteIS0_EE11get_deleterEv
FNDA:0,_ZNSt10unique_ptrI11MSTStrategySt14default_deleteIS0_EE11get_deleterEv
FNDA:28,_ZNSt10unique_ptrI12ActiveObjectSt14default_deleteIS0_EEC2EOS3_
FNDA:24,_ZNKSt10unique_ptrI11MSTStrategySt14default_deleteIS0_EE3getEv
FNDA:6,_ZNSt10unique_ptrI5GraphSt14default_deleteIS0_EEaSEDn
FNDA:12,_ZNKSt10unique_ptrI11MSTStrategySt14default_deleteIS0_EEptEv
FNDA:6,_ZNSt15__uniq_ptr_implI9functArgsSt14default_deleteIS0_EEC2EPS0_
FNDA:10,_ZNSt10unique_ptrISt8functionIFvvEESt14default_deleteIS2_EEC2IS4_vEEPS2_
FNDA:84,_ZNKSt15__uniq_ptr_implI5GraphSt14default_deleteIS0_EE6_M_ptrEv
FNDA:1,_ZNKSt14default_deleteI12LFThreadPoolEclEPS0_
FNDA:1,_ZNSt10unique_ptrI12LFThreadPoolSt14default_deleteIS0_EEC2IS2_vEEPS0_
FNDA:39,_ZNSt15__uniq_ptr_implI4TreeSt14default_deleteIS0_EE5resetEPS0_
FNDA:2,_ZNSt15__uniq_ptr_implI12LFThreadPoolSt14default_deleteIS0_EE5resetEPS0_
FNDA:1,_ZNSt10unique_ptrI7ReactorSt14default_deleteIS0_EE5resetEPS0_
FNDA:12,_ZStneI5GraphSt14default_deleteIS0_EEbRKSt10unique_ptrIT_T0_EDn
FNDA:112,_ZNSt15__uniq_ptr_implI12ActiveObjectSt14default_deleteIS0_EE6_M_ptrEv
FNDA:18,_ZNSt15__uniq_ptr_implI9functArgsSt14default_deleteIS0_EE10_M_deleterEv
FNDA:12,_ZSt11make_uniqueI4TreeJRSt6vectorI4EdgeSaIS2_EEEENSt9_MakeUniqIT_E15__single_objectEDpOT0_
FNDA:12,_ZNSt15__uniq_ptr_implI11MSTStrategySt14default_deleteIS0_EEC2EPS0_
FNDA:10,_ZNSt10unique_ptrISt8functionIFvvEESt14default_deleteIS2_EEC2IS4_vEEv
FNDA:9,_ZNKSt14default_deleteI5GraphEclEPS0_
FNDA:3,_ZNSt15__uniq_ptr_implI7ReactorSt14default_deleteIS0_EE6_M_ptrEv
FNDA:10,_ZNKSt15__uniq_ptr_implISt8functionIFvvEESt14default_deleteIS2_EE6_M_ptrEv
FNDA:126,_ZNSt15__uniq_ptr_implI4TreeSt14default_deleteIS0_EE6_M_ptrEv
FNDA:12,_ZNSt10unique_ptrI4TreeSt14default_deleteIS0_EEC2IS2_vEEPS0_
FNDA:12,_ZNSt10unique_ptrI11MSTStrategySt14default_deleteIS0_EEC2IS2_vEEPS0_
FNDA:14,_ZNSt15__uniq_ptr_implI12ActiveObjectSt14default_deleteIS0_EE10_M_deleterEv
FNDA:20,_ZNSt15__uniq_ptr_implISt8functionIFvvEESt14default_deleteIS2_EE5resetEPS2_
FNDA:20,_ZNSt10unique_ptrISt8functionIFvvEESt14default_deleteIS2_EED2Ev
FNDA:6,_ZNSt15__uniq_ptr_implI9functArgsSt14default_deleteIS0_EE7releaseEv
FNDA:12,_ZNSt15__uniq_ptr_implI4TreeSt14default_deleteIS0_EEC2EPS0_
FNDA:111,_ZNKSt15__uniq_ptr_implI4TreeSt14default_deleteIS0_EE6_M_ptrEv
FNDA:3,_ZNKSt10unique_ptrI12LFThreadPoolSt14default_deleteIS0_EEptEv
FNDA:30,_ZNSt15__uniq_ptr_implISt8functionIFvvEESt14default_deleteIS2_EE10_M_deleterEv
FNDA:9,_ZNSt15__uniq_ptr_implI5GraphSt14default_deleteIS0_EEC2EPS0_
FNDA:30,_ZNKSt10unique_ptrI5GraphSt14default_deleteIS0_EEcvbEv
FNDA:2,_ZNKSt15__uniq_ptr_implI7ReactorSt14default_deleteIS0_EE6_M_ptrEv
FNDA:6,_ZNSt10unique_ptrI9functArgsSt14default_deleteIS0_EEaSEOS3_
FNDA:14,_ZNSt15__uniq_ptr_implI12ActiveObjectSt14default_deleteIS0_EE5resetEPS0_
FNDA:18,_ZSteqI5GraphSt14default_deleteIS0_EEbRKSt10unique_ptrIT_T0_EDn
FNDA:9,_ZNSt10unique_ptrI5GraphSt14default_deleteIS0_EED2Ev
FNDA:9,_ZNSt10unique_ptrI5GraphSt14default_deleteIS0_EEC2IS2_vEEPS0_
FNDA:1,_ZNSt10unique_ptrI7ReactorSt14default_deleteIS0_EEC2IS2_vEEPS0_
FNDA:10,_ZNKSt10unique_ptrISt8functionIFvvEESt14default_deleteIS2_EE3getEv
FNDA:27,_ZNSt10unique_ptrI4TreeSt14default_deleteIS0_EE5resetEPS0_
FNDA:1,_ZSt11make_uniqueI7ReactorJEENSt9_MakeUniqIT_E15__single_objectEDpOT0_
FNDA:28,_ZNSt15__uniq_ptr_dataI12ActiveObjectSt14default_deleteIS0_ELb1ELb1EEC2EOS3_
FNDA:28,_ZNSt15__uniq_ptr_implI12ActiveObjectSt14default_deleteIS0_EEC2EOS3_
FNDA:0,_ZNSt15__uniq_ptr_implINSt6thread6_StateESt14default_deleteIS1_EE10_M_deleterEv
FNDA:1,_ZNSt10unique_ptrI12LFThreadPoolSt14default_deleteIS0_EED2Ev
FNDA:84,_ZNSt15__uniq_ptr_implI5GraphSt14default_deleteIS0_EE6_M_ptrEv
FNDA:9,_ZSt11make_uniqueI5GraphJRiS1_EENSt9_MakeUniqIT_E15__single_objectEDpOT0_
FNDA:1,_ZNKSt10unique_ptrI7ReactorSt14default_deleteIS0_EEptEv
FNDA:0,_ZNSt10unique_ptrI12ActiveObjectSt14default_deleteIS0_EE11get_deleterEv
FNDA:14,_ZSt11make_uniqueI12ActiveObjectJEENSt9_MakeUniqIT_E15__single_objectEDpOT0_
FNDA:0,_ZNSt10unique_ptrI5GraphSt14default_deleteIS0_EE11get_deleterEv
FNDA:9,_ZNSt15__uniq_ptr_implI5GraphSt14default_deleteIS0_EE7releaseEv
FNDA:15,_ZNSt10unique_ptrI5GraphSt14default_deleteIS0_EE5resetEPS0_
FNDA:6,_ZNSt15__uniq_ptr_implI9functArgsSt14default_deleteIS0_EEaSEOS3_
FNDA:1,_ZNKSt10unique_ptrI7ReactorSt14default_deleteIS0_EEdeEv
FNDA:72,_ZNKSt10unique_ptrI12ActiveObjectSt14default_deleteIS0_EEptEv
FNDA:12,_ZNSt10unique_ptrI11MSTStrategySt14default_deleteIS0_EED2Ev
FNDA:12,_ZNSt10unique_ptrI4TreeSt14default_deleteIS0_EEaSEOS3_
FNDA:10,_ZSt11make_uniqueISt8functionIFvvEEJRS2_EENSt9_MakeUniqIT_E15__single_objectEDpOT0_
FNDA:1,_ZNSt10unique_ptrI12LFThreadPoolSt14default_deleteIS0_EE5resetEPS0_
FNDA:84,_ZNKSt10unique_ptrI5GraphSt14default_deleteIS0_EE3getEv
FNDA:14,_ZNSt10unique_ptrI12ActiveObjectSt14default_deleteIS0_EEC2IS2_vEEPS0_
FNDA:1,_ZNSt15__uniq_ptr_implI12LFThreadPoolSt14default_deleteIS0_EEC2EPS0_
FNDA:10,_ZNSt15__uniq_ptr_dataISt8functionIFvvEESt14default_deleteIS2_ELb1ELb1EEaSEOS5_
FNDA:96,_ZNSt15__uniq_ptr_implI11MSTStrategySt14default_deleteIS0_EE6_M_ptrEv
FNDA:42,_ZNKSt10unique_ptrI5GraphSt14default_deleteIS0_EEptEv
FNDA:12,_ZStneI11MSTStrategySt14default_deleteIS0_EEbRKSt10unique_ptrIT_T0_EDn
FNDA:9,_ZNSt10unique_ptrI5GraphSt14default_deleteIS0_EEaSEOS3_
FNDA:40,_ZNKSt10unique_ptrI4TreeSt14default_deleteIS0_EEptEv
FNDA:6,_ZNKSt10unique_ptrI9functArgsSt14default_deleteIS0_EE3getEv
FNDA:71,_ZNKSt10unique_ptrI4TreeSt14default_deleteIS0_EEcvbEv
FNDA:2,_ZNKSt10unique_ptrI7ReactorSt14default_deleteIS0_EE3getEv
FNDA:10,_ZNKSt14default_deleteISt8functionIFvvEEEclEPS2_
FNDA:12,_ZNKSt14default_deleteI11MSTStrategyEclEPS0_
FNDA:12,_ZNSt10unique_ptrI4TreeSt14default_deleteIS0_EEaSEDn
FNDA:24,_ZNSt15__uniq_ptr_implI11MSTStrategySt14default_deleteIS0_EE5resetEPS0_
FNDA:14,_ZNSt10unique_ptrINSt6thread6_StateESt14default_deleteIS1_EEC2IS3_vEEPS1_
FNDA:14,_ZNSt15__uniq_ptr_implI12ActiveObjectSt14default_deleteIS0_EEC2EPS0_
FNDA:9,_ZNSt15__uniq_ptr_implI5GraphSt14default_deleteIS0_EEaSEOS3_
FNDA:1,_ZNSt15__uniq_ptr_implI12LFThreadPoolSt14default_deleteIS0_EEaSEOS3_
FNDA:0,_ZNSt10unique_ptrI7ReactorSt14default_deleteIS0_EED2Ev
FNDA:12,_ZNSt15__uniq_ptr_implI4TreeSt14default_deleteIS0_EE7releaseEv
FNDA:0,_ZNSt10unique_ptrINSt6thread6_StateESt14default_deleteIS1_EE11get_deleterEv
FNDA:8,_ZNSt15__uniq_ptr_implI12LFThreadPoolSt14default_deleteIS0_EE6_M_ptrEv
FNDA:3,_ZNKSt10unique_ptrI12LFThreadPoolSt14default_deleteIS0_EE3getEv
FNDA:12,_ZNSt15__uniq_ptr_dataI11MSTStrategySt14default_deleteIS0_ELb1ELb1EEaSEOS3_
FNDA:24,_ZStneI4TreeSt14default_deleteIS0_EEbRKSt10unique_ptrIT_T0_EDn
FNDA:12,_ZNKSt10unique_ptrI5GraphSt14default_deleteIS0_EEdeEv
FNDA:12,_ZNKSt14default_deleteI4TreeEclEPS0_
FNDA:8,_ZNSt15__uniq_ptr_implI9functArgsSt14default_deleteIS0_EE5resetEPS0_
FNDA:1,_ZNSt15__uniq_ptr_implI7ReactorSt14default_deleteIS0_EE5resetEPS0_
FNDA:47,_ZSteqI4TreeSt14default_deleteIS0_EEbRKSt10unique_ptrIT_T0_EDn
FNF:148
FNH:136
DA:79,65
DA:85,65
DA:86,65
DA:154,10
DA:155,79
DA:161,28
DA:162,28
DA:163,28
DA:165,50
DA:167,50
DA:168,50
DA:169,50
DA:172,587
DA:173,312
DA:174,165
DA:177,132
DA:179,132
DA:180,132
DA:181,132
DA:182,65
DA:183,132
DA:185,50
DA:187,50
DA:188,50
DA:189,50
DA:211,28
DA:212,50
DA:269,10
DA:270,10
DA:271,10
DA:281,79
DA:282,79
DA:283,79
DA:327,28
DA:355,116
DA:359,116
DA:360,116
DA:361,0
DA:362,116
DA:363,116
DA:371,50
DA:395,18
DA:397,18
DA:398,18
DA:405,13
DA:407,13
DA:408,13
DA:413,170
DA:416,170
DA:421,312
DA:422,312
DA:426,0
DA:427,0
DA:435,113
DA:436,113
DA:452,82
DA:456,82
DA:457,82
DA:760,65
DA:761,65
DA:781,48
DA:782,48
DA:961,47
DA:962,47
LF:64
LH:61
end_of_record
TN:
SF:/usr/include/c++/11/bits/vector.tcc
FN:109,_ZNSt6vectorISt4pairIiiESaIS1_EE12emplace_backIJS1_EEERS1_DpOT_
FN:109,_ZNSt6vectorI4EdgeSaIS0_EE12emplace_backIJS0_EEERS0_DpOT_
FN:109,_ZNSt6vectorISt10unique_ptrI12ActiveObjectSt14default_deleteIS1_EESaIS4_EE12emplace_backIJS4_EEERS4_DpOT_
FN:109,_ZNSt6vectorIiSaIiEE12emplace_backIJiEEERiDpOT_
FN:198,_ZNSt6vectorIiSaIiEEaSERKS1_
FN:426,_ZNSt6vectorIiSaIiEE17_M_realloc_insertIJiEEEvN9__gnu_cxx17__normal_iteratorIPiS1_EEDpOT_
FN:426,_ZNSt6vectorISt4pairIiiESaIS1_EE17_M_realloc_insertIJS1_EEEvN9__gnu_cxx17__normal_iteratorIPS1_S3_EEDpOT_
FN:426,_ZNSt6vectorI4EdgeSaIS0_EE17_M_realloc_insertIJS0_EEEvN9__gnu_cxx17__normal_iteratorIPS0_S2_EEDpOT_
FN:426,_ZNSt6vectorI4EdgeSaIS0_EE17_M_realloc_insertIJRKS0_EEEvN9__gnu_cxx17__normal_iteratorIPS0_S2_EEDpOT_
FN:426,_ZNSt6vectorImSaImEE17_M_realloc_insertIJRKmEEEvN9__gnu_cxx17__normal_iteratorIPmS1_EEDpOT_
FN:426,_ZNSt6vectorISt10unique_ptrI12ActiveObjectSt14default_deleteIS1_EESaIS4_EE17_M_realloc_insertIJS4_EEEvN9__gnu_cxx17__normal_iteratorIPS4_S6_EEDpOT_
FN:509,_ZNSt6vectorIS_IiSaIiEESaIS1_EE14_M_fill_insertEN9__gnu_cxx17__normal_iteratorIPS1_S3_EEmRKS1_
FN:611,_ZNSt6vectorIS_I4EdgeSaIS0_EESaIS2_EE17_M_default_appendEm
FN:687,_ZNSt6vectorISt10unique_ptrI12ActiveObjectSt14default_deleteIS1_EESaIS4_EE16_M_shrink_to_fitEv
FN:687,_ZNSt6vectorImSaImEE16_M_shrink_to_fitEv
FNDA:26,_ZNSt6vectorIiSaIiEE12emplace_backIJiEEERiDpOT_
FNDA:2,_ZNSt6vectorImSaImEE16_M_shrink_to_fitEv
FNDA:8,_ZNSt6vectorISt10unique_ptrI12ActiveObjectSt14default_deleteIS1_EESaIS4_EE17_M_realloc_insertIJS4_EEEvN9__gnu_cxx17__normal_iteratorIPS4_S6_EEDpOT_
FNDA:2,_ZNSt6vectorISt10unique_ptrI12ActiveObjectSt14default_deleteIS1_EESaIS4_EE16_M_shrink_to_fitEv
FNDA:14,_ZNSt6vectorISt10unique_ptrI12ActiveObjectSt14default_deleteIS1_EESaIS4_EE12emplace_backIJS4_EEERS4_DpOT_
FNDA:6,_ZNSt6vectorImSaImEE17_M_realloc_insertIJRKmEEEvN9__gnu_cxx17__normal_iteratorIPmS1_EEDpOT_
FNDA:39,_ZNSt6vectorI4EdgeSaIS0_EE17_M_realloc_insertIJRKS0_EEEvN9__gnu_cxx17__normal_iteratorIPS0_S2_EEDpOT_
FNDA:21,_ZNSt6vectorIS_I4EdgeSaIS0_EESaIS2_EE17_M_default_appendEm
FNDA:0,_ZNSt6vectorIiSaIiEEaSERKS1_
FNDA:162,_ZNSt6vectorI4EdgeSaIS0_EE17_M_realloc_insertIJS0_EEEvN9__gnu_cxx17__normal_iteratorIPS0_S2_EEDpOT_
FNDA:6,_ZNSt6vectorISt4pairIiiESaIS1_EE17_M_realloc_insertIJS1_EEEvN9__gnu_cxx17__normal_iteratorIPS1_S3_EEDpOT_
FNDA:6,_ZNSt6vectorIS_IiSaIiEESaIS1_EE14_M_fill_insertEN9__gnu_cxx17__normal_iteratorIPS1_S3_EEmRKS1_
FNDA:20,_ZNSt6vectorIiSaIiEE17_M_realloc_insertIJiEEEvN9__gnu_cxx17__normal_iteratorIPiS1_EEDpOT_
FNDA:165,_ZNSt6vectorI4EdgeSaIS0_EE12emplace_backIJS0_EEERS0_DpOT_
FNDA:27,_ZNSt6vectorISt4pairIiiESaIS1_EE12emplace_backIJS1_EEERS1_DpOT_
FNF:15
FNH:14
DA:109,232
DA:112,232
DA:115,36
DA:117,36
DA:121,196
DA:123,232
DA:198,0
DA:201,0
DA:205,0
DA:207,0
DA:208,0
DA:211,0
DA:212,0
DA:213,0
DA:214,0
DA:215,0
DA:216,0
DA:217,0
DA:219,0
DA:220,0
DA:223,0
DA:224,0
DA:226,0
DA:228,0
DA:229,0
DA:230,0
DA:231,0
DA:232,0
DA:233,0
DA:234,0
DA:236,0
DA:238,0
DA:239,0
DA:243,0
DA:245,0
DA:246,0
DA:248,0
DA:250,0
DA:252,0
DA:426,241
DA:436,241
DA:437,241
DA:438,241
DA:439,241
DA:440,241
DA:441,241
DA:449,241
DA:450,241
DA:456,241
DA:461,241
DA:462,241
DA:464,241
DA:466,241
DA:467,241
DA:500,241
DA:501,241
DA:502,241
DA:503,241
DA:504,241
DA:505,241
DA:509,6
DA:512,6
DA:514,6
DA:515,6
DA:520,0
DA:521,0
DA:523,0
DA:524,0
DA:525,0
DA:528,0
DA:531,0
DA:532,0
DA:534,0
DA:536,0
DA:542,0
DA:543,0
DA:546,0
DA:548,0
DA:550,0
DA:551,0
DA:553,0
DA:555,0
DA:559,6
DA:560,6
DA:561,6
DA:562,6
DA:566,6
DA:568,6
DA:569,6
DA:573,6
DA:574,6
DA:576,6
DA:580,6
DA:581,6
DA:583,0
DA:585,0
DA:586,0
DA:587,0
DA:588,0
DA:590,0
DA:591,0
DA:592,0
DA:593,0
DA:595,6
DA:596,6
DA:598,6
DA:599,6
DA:600,6
DA:601,6
DA:602,6
DA:603,6
DA:606,6
DA:611,21
DA:614,21
DA:616,21
DA:617,21
DA:618,21
DA:620,21
DA:621,0
DA:623,21
DA:626,0
DA:627,0
DA:628,0
DA:634,21
DA:635,21
DA:640,21
DA:641,21
DA:643,0
DA:645,0
DA:646,0
DA:648,21
DA:649,21
DA:675,21
DA:676,21
DA:677,21
DA:678,21
DA:679,21
DA:680,21
DA:683,21
DA:687,4
DA:690,4
DA:691,0
DA:693,4
LF:143
LH:75
end_of_record
TN:
SF:/usr/include/c++/11/chrono
FN:223,_ZNSt6chrono20__duration_cast_implINS_8durationIlSt5ratioILl1ELl1EEEES2_ILl1ELl1000EElLb1ELb0EE6__castIlS5_EES4_RKNS1_IT_T0_EE
FN:236,_ZNSt6chrono20__duration_cast_implINS_8durationIlSt5ratioILl1ELl1000EEEES2_ILl1000ELl1EElLb0ELb1EE6__castIlS2_ILl1ELl1EEEES4_RKNS1_IT_T0_EE
FN:236,_ZNSt6chrono20__duration_cast_implINS_8durationIlSt5ratioILl1ELl1000000000EEEES2_ILl1000000ELl1EElLb0ELb1EE6__castIlS2_ILl1ELl1000EEEES4_RKNS1_IT_T0_EE
FN:267,_ZNSt6chrono13duration_castINS_8durationIlSt5ratioILl1ELl1EEEElS2_ILl1ELl1000EEEENSt9enable_ifIXsrNS_13__is_durationIT_EE5valueES8_E4typeERKNS1_IT0_T1_EE
FN:267,_ZNSt6chrono13duration_castINS_8durationIlSt5ratioILl1ELl1000000000EEEElS2_ILl1ELl1000EEEENSt9enable_ifIXsrNS_13__is_durationIT_EE5valueES8_E4typeERKNS1_IT0_T1_EE
FN:267,_ZNSt6chrono13duration_castINS_8durationIlSt5ratioILl1ELl1000EEEElS2_ILl1ELl1EEEENSt9enable_ifIXsrNS_13__is_durationIT_EE5valueES8_E4typeERKNS1_IT0_T1_EE
FN:432,_ZNSt6chrono15duration_valuesIlE4zeroEv
FN:521,_ZNSt6chrono8durationIlSt5ratioILl1ELl1000EEEC2IlvEERKT_
FN:521,_ZNSt6chrono8durationIlSt5ratioILl1ELl1EEEC1IlvEERKT_
FN:521,_ZNSt6chrono8durationIlSt5ratioILl1ELl1000EEEC2IivEERKT_
FN:521,_ZNSt6chrono8durationIlSt5ratioILl1ELl1000000000EEEC1IlvEERKT_
FN:529,_ZNSt6chrono8durationIlSt5ratioILl1ELl1000EEEC2IlS1_ILl1ELl1EEvEERKNS0_IT_T0_EE
FN:537,_ZNKSt6chrono8durationIlSt5ratioILl1ELl1EEE5countEv
FN:537,_ZNKSt6chrono8durationIlSt5ratioILl1ELl1000EEE5countEv
FN:537,_ZNKSt6chrono8durationIlSt5ratioILl1ELl1000000000EEE5countEv
FN:623,_ZNSt6chrono8durationIlSt5ratioILl1ELl1000EEE4zeroEv
FN:660,_ZNSt6chronomiIlSt5ratioILl1ELl1000EElS1_ILl1ELl1EEEENSt11common_typeIJNS_8durationIT_T0_EENS5_IT1_T2_EEEE4typeERKS8_RKSB_
FN:772,_ZNSt6chronoltIlSt5ratioILl1ELl1000EElS2_EEbRKNS_8durationIT_T0_EERKNS3_IT1_T2_EE
FN:805,_ZNSt6chronoleIlSt5ratioILl1ELl1000EElS2_EEbRKNS_8durationIT_T0_EERKNS3_IT1_T2_EE
FNDA:672294,_ZNSt6chrono8durationIlSt5ratioILl1ELl1000EEEC2IlvEERKT_
FNDA:448196,_ZNKSt6chrono8durationIlSt5ratioILl1ELl1EEE5countEv
FNDA:224098,_ZNSt6chronoltIlSt5ratioILl1ELl1000EElS2_EEbRKNS_8durationIT_T0_EERKNS3_IT1_T2_EE
FNDA:224098,_ZNSt6chrono15duration_valuesIlE4zeroEv
FNDA:224098,_ZNSt6chrono8durationIlSt5ratioILl1ELl1EEEC1IlvEERKT_
FNDA:224098,_ZNSt6chrono8durationIlSt5ratioILl1ELl1000EEEC2IlS1_ILl1ELl1EEvEERKNS0_IT_T0_EE
FNDA:224098,_ZNSt6chrono13duration_castINS_8durationIlSt5ratioILl1ELl1EEEElS2_ILl1ELl1000EEEENSt9enable_ifIXsrNS_13__is_durationIT_EE5valueES8_E4typeERKNS1_IT0_T1_EE
FNDA:224098,_ZNSt6chrono20__duration_cast_implINS_8durationIlSt5ratioILl1ELl1000EEEES2_ILl1000ELl1EElLb0ELb1EE6__castIlS2_ILl1ELl1EEEES4_RKNS1_IT_T0_EE
FNDA:224098,_ZNKSt6chrono8durationIlSt5ratioILl1ELl1000000000EEE5countEv
FNDA:224098,_ZNSt6chrono20__duration_cast_implINS_8durationIlSt5ratioILl1ELl1EEEES2_ILl1ELl1000EElLb1ELb0EE6__castIlS5_EES4_RKNS1_IT_T0_EE
FNDA:1568686,_ZNKSt6chrono8durationIlSt5ratioILl1ELl1000EEE5countEv
FNDA:224098,_ZNSt6chrono20__duration_cast_implINS_8durationIlSt5ratioILl1ELl1000000000EEEES2_ILl1000000ELl1EElLb0ELb1EE6__castIlS2_ILl1ELl1000EEEES4_RKNS1_IT_T0_EE
FNDA:224098,_ZNSt6chronomiIlSt5ratioILl1ELl1000EElS1_ILl1ELl1EEEENSt11common_typeIJNS_8durationIT_T0_EENS5_IT1_T2_EEEE4typeERKS8_RKSB_
FNDA:224098,_ZNSt6chrono13duration_castINS_8durationIlSt5ratioILl1ELl1000000000EEEElS2_ILl1ELl1000EEEENSt9enable_ifIXsrNS_13__is_durationIT_EE5valueES8_E4typeERKNS1_IT0_T1_EE
FNDA:224098,_ZNSt6chrono8durationIlSt5ratioILl1ELl1000EEE4zeroEv
FNDA:224098,_ZNSt6chrono8durationIlSt5ratioILl1ELl1000000000EEEC1IlvEERKT_
FNDA:224098,_ZNSt6chrono8durationIlSt5ratioILl1ELl1000EEEC2IivEERKT_
FNDA:224098,_ZNSt6chrono13duration_castINS_8durationIlSt5ratioILl1ELl1000EEEElS2_ILl1ELl1EEEENSt9enable_ifIXsrNS_13__is_durationIT_EE5valueES8_E4typeERKNS1_IT0_T1_EE
FNDA:224098,_ZNSt6chronoleIlSt5ratioILl1ELl1000EElS2_EEbRKNS_8durationIT_T0_EERKNS3_IT1_T2_EE
FNF:19
FNH:19
DA:223,224098
DA:226,448196
DA:227,224098
DA:236,448196
DA:239,896392
DA:240,448196
DA:267,672294
DA:276,672294
DA:432,224098
DA:433,224098
DA:521,1344588
DA:522,1344588
DA:529,224098
DA:530,224098
DA:537,2240980
DA:538,2240980
DA:623,224098
DA:624,224098
DA:660,224098
DA:666,224098
DA:772,224098
DA:778,224098
DA:805,224098
DA:807,224098
LF:24
LH:24
end_of_record
TN:
SF:/usr/include/c++/11/condition_variable
FN:100,_ZNSt18condition_variable4waitIZN13ThreadContext13conditionWaitERKSt6atomicIbEEUlvE_EEvRSt11unique_lockISt5mutexET_
FN:100,_ZNSt18condition_variable4waitIZ14handleCommandsiRSt6vectorISt10unique_ptrI12ActiveObjectSt14default_deleteIS3_EESaIS6_EERS2_I5GraphS4_ISA_EER10MSTFactoryRS2_I4TreeS4_ISG_EEEUlvE7_EEvRSt11unique_lockISt5mutexET_
FN:100,_ZNSt18condition_variable4waitIZN12ActiveObject3runEvEUlvE_EEvRSt11unique_lockISt5mutexET_
FNDA:10,_ZNSt18condition_variable4waitIZ14handleCommandsiRSt6vectorISt10unique_ptrI12ActiveObjectSt14default_deleteIS3_EESaIS6_EERS2_I5GraphS4_ISA_EER10MSTFactoryRS2_I4TreeS4_ISG_EEEUlvE7_EEvRSt11unique_lockISt5mutexET_
FNDA:13,_ZNSt18condition_variable4waitIZN13ThreadContext13conditionWaitERKSt6atomicIbEEUlvE_EEvRSt11unique_lockISt5mutexET_
FNDA:86,_ZNSt18condition_variable4waitIZN12ActiveObject3runEvEUlvE_EEvRSt11unique_lockISt5mutexET_
FNF:3
FNH:3
DA:100,109
DA:102,196
DA:103,87
DA:104,109
LF:4
LH:4
end_of_record
TN:
SF:/usr/include/c++/11/ext/aligned_buffer.h
FN:64,_ZN9__gnu_cxx16__aligned_membufISt4pairIKiSt8functionIFvvEEEE7_M_addrEv
FN:68,_ZNK9__gnu_cxx16__aligned_membufISt4pairIKiSt8functionIFvvEEEE7_M_addrEv
FN:72,_ZN9__gnu_cxx16__aligned_membufISt4pairIKiSt8functionIFvvEEEE6_M_ptrEv
FN:76,_ZNK9__gnu_cxx16__aligned_membufISt4pairIKiSt8functionIFvvEEEE6_M_ptrEv
FN:102,_ZN9__gnu_cxx16__aligned_bufferI13ThreadContextE7_M_addrEv
FN:114,_ZN9__gnu_cxx16__aligned_bufferI13ThreadContextE6_M_ptrEv
FNDA:9,_ZN9__gnu_cxx16__aligned_membufISt4pairIKiSt8functionIFvvEEEE7_M_addrEv
FNDA:10,_ZNK9__gnu_cxx16__aligned_membufISt4pairIKiSt8functionIFvvEEEE7_M_addrEv
FNDA:30,_ZN9__gnu_cxx16__aligned_bufferI13ThreadContextE7_M_addrEv
FNDA:10,_ZNK9__gnu_cxx16__aligned_membufISt4pairIKiSt8functionIFvvEEEE6_M_ptrEv
FNDA:9,_ZN9__gnu_cxx16__aligned_membufISt4pairIKiSt8functionIFvvEEEE6_M_ptrEv
FNDA:30,_ZN9__gnu_cxx16__aligned_bufferI13ThreadContextE6_M_ptrEv
FNF:6
FNH:6
DA:64,9
DA:65,9
DA:68,10
DA:69,10
DA:72,9
DA:73,9
DA:76,10
DA:77,10
DA:102,30
DA:104,30
DA:114,30
DA:115,30
LF:12
LH:12
end_of_record
TN:
SF:/usr/include/c++/11/ext/alloc_traits.h
FN:97,_ZN9__gnu_cxx14__alloc_traitsISaIiEiE17_S_select_on_copyERKS1_
FN:97,_ZN9__gnu_cxx14__alloc_traitsISaIcEcE17_S_select_on_copyERKS1_
FN:97,_ZN9__gnu_cxx14__alloc_traitsISaI4EdgeES1_E17_S_select_on_copyERKS2_
FN:97,_ZN9__gnu_cxx14__alloc_traitsISaImEmE17_S_select_on_copyERKS1_
FN:100,_ZN9__gnu_cxx14__alloc_traitsISaISt10unique_ptrI12ActiveObjectSt14default_deleteIS2_EEES5_E10_S_on_swapERS6_S8_
FN:100,_ZN9__gnu_cxx14__alloc_traitsISaImEmE10_S_on_swapERS1_S3_
FN:103,_ZN9__gnu_cxx14__alloc_traitsISaIiEiE27_S_propagate_on_copy_assignEv
FN:112,_ZN9__gnu_cxx14__alloc_traitsISaIiEiE15_S_always_equalEv
FNDA:0,_ZN9__gnu_cxx14__alloc_traitsISaIiEiE27_S_propagate_on_copy_assignEv
FNDA:2,_ZN9__gnu_cxx14__alloc_traitsISaImEmE10_S_on_swapERS1_S3_
FNDA:0,_ZN9__gnu_cxx14__alloc_traitsISaIiEiE15_S_always_equalEv
FNDA:48,_ZN9__gnu_cxx14__alloc_traitsISaIiEiE17_S_select_on_copyERKS1_
FNDA:6,_ZN9__gnu_cxx14__alloc_traitsISaIcEcE17_S_select_on_copyERKS1_
FNDA:2,_ZN9__gnu_cxx14__alloc_traitsISaISt10unique_ptrI12ActiveObjectSt14default_deleteIS2_EEES5_E10_S_on_swapERS6_S8_
FNDA:24,_ZN9__gnu_cxx14__alloc_traitsISaI4EdgeES1_E17_S_select_on_copyERKS2_
FNDA:21,_ZN9__gnu_cxx14__alloc_traitsISaImEmE17_S_select_on_copyERKS1_
FNF:8
FNH:6
DA:97,99
DA:98,99
DA:100,4
DA:101,4
DA:103,0
DA:104,0
DA:112,0
DA:113,0
LF:8
LH:4
end_of_record
TN:
SF:/usr/include/c++/11/ext/atomicity.h
FNF:0
FNH:0
DA:52,34
DA:66,27
DA:71,7
DA:84,0
DA:85,0
DA:86,0
DA:92,0
DA:98,27
DA:99,0
DA:101,27
DA:108,7
DA:112,7
LF:12
LH:7
end_of_record
TN:
SF:/usr/include/c++/11/ext/new_allocator.h
FN:79,_ZN9__gnu_cxx13new_allocatorISt23_Sp_counted_ptr_inplaceI13ThreadContextSaIS2_ELNS_12_Lock_policyE2EEEC2Ev
FN:79,_ZN9__gnu_cxx13new_allocatorISt10unique_ptrI12ActiveObjectSt14default_deleteIS2_EEEC2Ev
FN:79,_ZN9__gnu_cxx13new_allocatorISt6threadEC2Ev
FN:79,_ZN9__gnu_cxx13new_allocatorIPSt8functionIFvvEEEC2Ev
FN:79,_ZN9__gnu_cxx13new_allocatorI13ThreadContextEC2Ev
FN:79,_ZN9__gnu_cxx13new_allocatorI4EdgeEC2Ev
FN:79,_ZN9__gnu_cxx13new_allocatorIbEC2Ev
FN:79,_ZN9__gnu_cxx13new_allocatorIcEC2Ev
FN:79,_ZN9__gnu_cxx13new_allocatorISt4pairIiiEEC2Ev
FN:79,_ZN9__gnu_cxx13new_allocatorISt6vectorIiSaIiEEEC2Ev
FN:79,_ZN9__gnu_cxx13new_allocatorISt13_Rb_tree_nodeISt4pairIKiSt8functionIFvvEEEEEC2Ev
FN:79,_ZN9__gnu_cxx13new_allocatorISt8functionIFvvEEEC2Ev
FN:79,_ZN9__gnu_cxx13new_allocatorIiEC2Ev
FN:79,_ZN9__gnu_cxx13new_allocatorISt10shared_ptrI13ThreadContextEEC2Ev
FN:79,_ZN9__gnu_cxx13new_allocatorImEC2Ev
FN:79,_ZN9__gnu_cxx13new_allocatorISt6vectorI4EdgeSaIS2_EEEC2Ev
FN:82,_ZN9__gnu_cxx13new_allocatorIcEC2ERKS1_
FN:82,_ZN9__gnu_cxx13new_allocatorISt10unique_ptrI12ActiveObjectSt14default_deleteIS2_EEEC2ERKS6_
FN:82,_ZN9__gnu_cxx13new_allocatorIiEC2ERKS1_
FN:82,_ZN9__gnu_cxx13new_allocatorI13ThreadContextEC2ERKS2_
FN:82,_ZN9__gnu_cxx13new_allocatorI4EdgeEC2ERKS2_
FN:82,_ZN9__gnu_cxx13new_allocatorImEC2ERKS1_
FN:82,_ZN9__gnu_cxx13new_allocatorISt10shared_ptrI13ThreadContextEEC2ERKS4_
FN:89,_ZN9__gnu_cxx13new_allocatorImED2Ev
FN:89,_ZN9__gnu_cxx13new_allocatorI13ThreadContextED2Ev
FN:89,_ZN9__gnu_cxx13new_allocatorISt8functionIFvvEEED2Ev
FN:89,_ZN9__gnu_cxx13new_allocatorIPSt8functionIFvvEEED2Ev
FN:89,_ZN9__gnu_cxx13new_allocatorISt6threadED2Ev
FN:89,_ZN9__gnu_cxx13new_allocatorI4EdgeED2Ev
FN:89,_ZN9__gnu_cxx13new_allocatorISt10shared_ptrI13ThreadContextEED2Ev
FN:89,_ZN9__gnu_cxx13new_allocatorIiED2Ev
FN:89,_ZN9__gnu_cxx13new_allocatorIcED2Ev
FN:89,_ZN9__gnu_cxx13new_allocatorISt6vectorI4EdgeSaIS2_EEED2Ev
FN:89,_ZN9__gnu_cxx13new_allocatorISt23_Sp_counted_ptr_inplaceI13ThreadContextSaIS2_ELNS_12_Lock_policyE2EEED2Ev
FN:89,_ZN9__gnu_cxx13new_allocatorISt4pairIiiEED2Ev
FN:89,_ZN9__gnu_cxx13new_allocatorISt6vectorIiSaIiEEED2Ev
FN:89,_ZN9__gnu_cxx13new_allocatorISt13_Rb_tree_nodeISt4pairIKiSt8functionIFvvEEEEED2Ev
FN:89,_ZN9__gnu_cxx13new_allocatorISt10unique_ptrI12ActiveObjectSt14default_deleteIS2_EEED2Ev
FN:89,_ZN9__gnu_cxx13new_allocatorIbED2Ev
FN:103,_ZN9__gnu_cxx13new_allocatorISt6vectorIiSaIiEEE8allocateEmPKv
FN:103,_ZN9__gnu_cxx13new_allocatorISt10shared_ptrI13ThreadContextEE8allocateEmPKv
FN:103,_ZN9__gnu_cxx13new_allocatorISt23_Sp_counted_ptr_inplaceI13ThreadContextSaIS2_ELNS_12_Lock_policyE2EEE8allocateEmPKv
FN:103,_ZN9__gnu_cxx13new_allocatorISt4pairIiiEE8allocateEmPKv
FN:103,_ZN9__gnu_cxx13new_allocatorImE8allocateEmPKv
FN:103,_ZN9__gnu_cxx13new_allocatorISt6vectorI4EdgeSaIS2_EEE8allocateEmPKv
FN:103,_ZN9__gnu_cxx13new_allocatorISt10unique_ptrI12ActiveObjectSt14default_deleteIS2_EEE8allocateEmPKv
FN:103,_ZN9__gnu_cxx13new_allocatorIiE8allocateEmPKv
FN:103,_ZN9__gnu_cxx13new_allocatorISt13_Rb_tree_nodeISt4pairIKiSt8functionIFvvEEEEE8allocateEmPKv
FN:103,_ZN9__gnu_cxx13new_allocatorIPSt8functionIFvvEEE8allocateEmPKv
FN:103,_ZN9__gnu_cxx13new_allocatorISt8functionIFvvEEE8allocateEmPKv
FN:103,_ZN9__gnu_cxx13new_allocatorI4EdgeE8allocateEmPKv
FN:132,_ZN9__gnu_cxx13new_allocatorISt10shared_ptrI13ThreadContextEE10deallocateEPS3_m
FN:132,_ZN9__gnu_cxx13new_allocatorIiE10deallocateEPim
FN:132,_ZN9__gnu_cxx13new_allocatorISt6vectorIiSaIiEEE10deallocateEPS3_m
FN:132,_ZN9__gnu_cxx13new_allocatorISt10unique_ptrI12ActiveObjectSt14default_deleteIS2_EEE10deallocateEPS5_m
FN:132,_ZN9__gnu_cxx13new_allocatorI4EdgeE10deallocateEPS1_m
FN:132,_ZN9__gnu_cxx13new_allocatorISt8functionIFvvEEE10deallocateEPS3_m
FN:132,_ZN9__gnu_cxx13new_allocatorISt6threadE10deallocateEPS1_m
FN:132,_ZN9__gnu_cxx13new_allocatorIPSt8functionIFvvEEE10deallocateEPS4_m
FN:132,_ZN9__gnu_cxx13new_allocatorISt23_Sp_counted_ptr_inplaceI13ThreadContextSaIS2_ELNS_12_Lock_policyE2EEE10deallocateEPS5_m
FN:132,_ZN9__gnu_cxx13new_allocatorISt6vectorI4EdgeSaIS2_EEE10deallocateEPS4_m
FN:132,_ZN9__gnu_cxx13new_allocatorISt4pairIiiEE10deallocateEPS2_m
FN:132,_ZN9__gnu_cxx13new_allocatorImE10deallocateEPmm
FN:132,_ZN9__gnu_cxx13new_allocatorISt13_Rb_tree_nodeISt4pairIKiSt8functionIFvvEEEEE10deallocateEPS8_m
FN:154,_ZNK9__gnu_cxx13new_allocatorI4EdgeE8max_sizeEv
FN:154,_ZNK9__gnu_cxx13new_allocatorIiE8max_sizeEv
FN:154,_ZNK9__gnu_cxx13new_allocatorISt8functionIFvvEEE8max_sizeEv
FN:154,_ZNK9__gnu_cxx13new_allocatorISt6vectorI4EdgeSaIS2_EEE8max_sizeEv
FN:154,_ZNK9__gnu_cxx13new_allocatorISt4pairIiiEE8max_sizeEv
FN:154,_ZNK9__gnu_cxx13new_allocatorISt6vectorIiSaIiEEE8max_sizeEv
FN:154,_ZNK9__gnu_cxx13new_allocatorISt10unique_ptrI12ActiveObjectSt14default_deleteIS2_EEE8max_sizeEv
FN:154,_ZNK9__gnu_cxx13new_allocatorImE8max_sizeEv
FN:154,_ZNK9__gnu_cxx13new_allocatorISt10shared_ptrI13ThreadContextEE8max_sizeEv
FN:160,_ZN9__gnu_cxx13new_allocatorISt13_Rb_tree_nodeISt4pairIKiSt8functionIFvvEEEEE9constructIS7_JRKSt21piecewise_construct_tSt5tupleIJRS3_EESE_IJEEEEEvPT_DpOT0_
FN:160,_ZN9__gnu_cxx13new_allocatorISt8functionIFvvEEE9constructIS3_JRZ14handleCommandsiRSt6vectorISt10unique_ptrI12ActiveObjectSt14default_deleteIS8_EESaISB_EERS7_I5GraphS9_ISF_EER10MSTFactoryRS7_I4TreeS9_ISL_EEEUlvE2_EEEvPT_DpOT0_
FN:160,_ZN9__gnu_cxx13new_allocatorISt8functionIFvvEEE9constructIS3_JRZ14handleCommandsiRSt6vectorISt10unique_ptrI12ActiveObjectSt14default_deleteIS8_EESaISB_EERS7_I5GraphS9_ISF_EER10MSTFactoryRS7_I4TreeS9_ISL_EEEUlvE1_EEEvPT_DpOT0_
FN:160,_ZN9__gnu_cxx13new_allocatorISt8functionIFvvEEE9constructIS3_JRZ14handleCommandsiRSt6vectorISt10unique_ptrI12ActiveObjectSt14default_deleteIS8_EESaISB_EERS7_I5GraphS9_ISF_EER10MSTFactoryRS7_I4TreeS9_ISL_EEEUlvE5_EEEvPT_DpOT0_
FN:160,_ZN9__gnu_cxx13new_allocatorI4EdgeE9constructIS1_JS1_EEEvPT_DpOT0_
FN:160,_ZN9__gnu_cxx13new_allocatorISt10unique_ptrI12ActiveObjectSt14default_deleteIS2_EEE9constructIS5_JS5_EEEvPT_DpOT0_
FN:160,_ZN9__gnu_cxx13new_allocatorISt8functionIFvvEEE9constructIS3_JRZ14handleCommandsiRSt6vectorISt10unique_ptrI12ActiveObjectSt14default_deleteIS8_EESaISB_EERS7_I5GraphS9_ISF_EER10MSTFactoryRS7_I4TreeS9_ISL_EEEUlvE6_EEEvPT_DpOT0_
FN:160,_ZN9__gnu_cxx13new_allocatorI13ThreadContextE9constructIS1_JEEEvPT_DpOT0_
FN:160,_ZN9__gnu_cxx13new_allocatorISt6vectorIiSaIiEEE9constructIS3_JRKS3_EEEvPT_DpOT0_
FN:160,_ZN9__gnu_cxx13new_allocatorISt8functionIFvvEEE9constructIS3_JRZ14handleCommandsiRSt6vectorISt10unique_ptrI12ActiveObjectSt14default_deleteIS8_EESaISB_EERS7_I5GraphS9_ISF_EER10MSTFactoryRS7_I4TreeS9_ISL_EEEUlvE0_EEEvPT_DpOT0_
FN:160,_ZN9__gnu_cxx13new_allocatorISt8functionIFvvEEE9constructIS3_JRZ14handleCommandsiRSt6vectorISt10unique_ptrI12ActiveObjectSt14default_deleteIS8_EESaISB_EERS7_I5GraphS9_ISF_EER10MSTFactoryRS7_I4TreeS9_ISL_EEEUlvE_EEEvPT_DpOT0_
FN:160,_ZN9__gnu_cxx13new_allocatorISt8functionIFvvEEE9constructIS3_JRZ14handleCommandsiRSt6vectorISt10unique_ptrI12ActiveObjectSt14default_deleteIS8_EESaISB_EERS7_I5GraphS9_ISF_EER10MSTFactoryRS7_I4TreeS9_ISL_EEEUlvE9_EEEvPT_DpOT0_
FN:160,_ZN9__gnu_cxx13new_allocatorIiE9constructIiJiEEEvPT_DpOT0_
FN:160,_ZN9__gnu_cxx13new_allocatorISt8functionIFvvEEE9constructIS3_JRZ14handleCommandsiRSt6vectorISt10unique_ptrI12ActiveObjectSt14default_deleteIS8_EESaISB_EERS7_I5GraphS9_ISF_EER10MSTFactoryRS7_I4TreeS9_ISL_EEEUlvE4_EEEvPT_DpOT0_
FN:160,_ZN9__gnu_cxx13new_allocatorISt4pairIiiEE9constructIS2_JS2_EEEvPT_DpOT0_
FN:160,_ZN9__gnu_cxx13new_allocatorISt6vectorI4EdgeSaIS2_EEE9constructIS4_JS4_EEEvPT_DpOT0_
FN:160,_ZN9__gnu_cxx13new_allocatorISt8functionIFvvEEE9constructIS3_JRZ14handleCommandsiRSt6vectorISt10unique_ptrI12ActiveObjectSt14default_deleteIS8_EESaISB_EERS7_I5GraphS9_ISF_EER10MSTFactoryRS7_I4TreeS9_ISL_EEEUlvE10_EEEvPT_DpOT0_
FN:160,_ZN9__gnu_cxx13new_allocatorISt8functionIFvvEEE9constructIS3_JRZ14handleCommandsiRSt6vectorISt10unique_ptrI12ActiveObjectSt14default_deleteIS8_EESaISB_EERS7_I5GraphS9_ISF_EER10MSTFactoryRS7_I4TreeS9_ISL_EEEUlvE3_EEEvPT_DpOT0_
FN:160,_ZN9__gnu_cxx13new_allocatorImE9constructImJRKmEEEvPT_DpOT0_
FN:160,_ZN9__gnu_cxx13new_allocatorISt8functionIFvvEEE9constructIS3_JRZ14handleCommandsiRSt6vectorISt10unique_ptrI12ActiveObjectSt14default_deleteIS8_EESaISB_EERS7_I5GraphS9_ISF_EER10MSTFactoryRS7_I4TreeS9_ISL_EEEUlvE8_EEEvPT_DpOT0_
FN:160,_ZN9__gnu_cxx13new_allocatorI4EdgeE9constructIS1_JRKS1_EEEvPT_DpOT0_
FN:166,_ZN9__gnu_cxx13new_allocatorI13ThreadContextE7destroyIS1_EEvPT_
FN:166,_ZN9__gnu_cxx13new_allocatorISt10unique_ptrI12ActiveObjectSt14default_deleteIS2_EEE7destroyIS5_EEvPT_
FN:166,_ZN9__gnu_cxx13new_allocatorISt6vectorIiSaIiEEE7destroyIS3_EEvPT_
FN:166,_ZN9__gnu_cxx13new_allocatorISt4pairIiiEE7destroyIS2_EEvPT_
FN:166,_ZN9__gnu_cxx13new_allocatorISt6vectorI4EdgeSaIS2_EEE7destroyIS4_EEvPT_
FN:166,_ZN9__gnu_cxx13new_allocatorISt13_Rb_tree_nodeISt4pairIKiSt8functionIFvvEEEEE7destroyIS7_EEvPT_
FN:166,_ZN9__gnu_cxx13new_allocatorISt8functionIFvvEEE7destroyIS3_EEvPT_
FN:197,_ZNK9__gnu_cxx13new_allocatorIPSt8functionIFvvEEE11_M_max_sizeEv
FN:197,_ZNK9__gnu_cxx13new_allocatorISt6vectorIiSaIiEEE11_M_max_sizeEv
FN:197,_ZNK9__gnu_cxx13new_allocatorISt10unique_ptrI12ActiveObjectSt14default_deleteIS2_EEE11_M_max_sizeEv
FN:197,_ZNK9__gnu_cxx13new_allocatorISt4pairIiiEE11_M_max_sizeEv
FN:197,_ZNK9__gnu_cxx13new_allocatorISt6vectorI4EdgeSaIS2_EEE11_M_max_sizeEv
FN:197,_ZNK9__gnu_cxx13new_allocatorIiE11_M_max_sizeEv
FN:197,_ZNK9__gnu_cxx13new_allocatorISt23_Sp_counted_ptr_inplaceI13ThreadContextSaIS2_ELNS_12_Lock_policyE2EEE11_M_max_sizeEv
FN:197,_ZNK9__gnu_cxx13new_allocatorImE11_M_max_sizeEv
FN:197,_ZNK9__gnu_cxx13new_allocatorI4EdgeE11_M_max_sizeEv
FN:197,_ZNK9__gnu_cxx13new_allocatorISt10shared_ptrI13ThreadContextEE11_M_max_sizeEv
FN:197,_ZNK9__gnu_cxx13new_allocatorISt13_Rb_tree_nodeISt4pairIKiSt8functionIFvvEEEEE11_M_max_sizeEv
FN:197,_ZNK9__gnu_cxx13new_allocatorISt8functionIFvvEEE11_M_max_sizeEv
FNDA:627,_ZNK9__gnu_cxx13new_allocatorI4EdgeE11_M_max_sizeEv
FNDA:8,_ZN9__gnu_cxx13new_allocatorISt8functionIFvvEEE9constructIS3_JRZ14handleCommandsiRSt6vectorISt10unique_ptrI12ActiveObjectSt14default_deleteIS8_EESaISB_EERS7_I5GraphS9_ISF_EER10MSTFactoryRS7_I4TreeS9_ISL_EEEUlvE_EEEvPT_DpOT0_
FNDA:12,_ZN9__gnu_cxx13new_allocatorISt6vectorIiSaIiEEED2Ev
FNDA:14,_ZN9__gnu_cxx13new_allocatorISt8functionIFvvEEEC2Ev
FNDA:14,_ZN9__gnu_cxx13new_allocatorIPSt8functionIFvvEEE8allocateEmPKv
FNDA:72,_ZN9__gnu_cxx13new_allocatorIiEC2Ev
FNDA:14,_ZN9__gnu_cxx13new_allocatorISt8functionIFvvEEE8allocateEmPKv
FNDA:1,_ZN9__gnu_cxx13new_allocatorISt13_Rb_tree_nodeISt4pairIKiSt8functionIFvvEEEEED2Ev
FNDA:4,_ZN9__gnu_cxx13new_allocatorISt8functionIFvvEEE9constructIS3_JRZ14handleCommandsiRSt6vectorISt10unique_ptrI12ActiveObjectSt14default_deleteIS8_EESaISB_EERS7_I5GraphS9_ISF_EER10MSTFactoryRS7_I4TreeS9_ISL_EEEUlvE9_EEEvPT_DpOT0_
FNDA:0,_ZN9__gnu_cxx13new_allocatorISt6vectorIiSaIiEEE9constructIS3_JRKS3_EEEvPT_DpOT0_
FNDA:59,_ZNK9__gnu_cxx13new_allocatorImE11_M_max_sizeEv
FNDA:10,_ZNK9__gnu_cxx13new_allocatorISt23_Sp_counted_ptr_inplaceI13ThreadContextSaIS2_ELNS_12_Lock_policyE2EEE11_M_max_sizeEv
FNDA:1,_ZN9__gnu_cxx13new_allocatorISt13_Rb_tree_nodeISt4pairIKiSt8functionIFvvEEEEEC2Ev
FNDA:20,_ZN9__gnu_cxx13new_allocatorISt8functionIFvvEEE9constructIS3_JRZ14handleCommandsiRSt6vectorISt10unique_ptrI12ActiveObjectSt14default_deleteIS8_EESaISB_EERS7_I5GraphS9_ISF_EER10MSTFactoryRS7_I4TreeS9_ISL_EEEUlvE0_EEEvPT_DpOT0_
FNDA:6,_ZN9__gnu_cxx13new_allocatorISt4pairIiiEED2Ev
FNDA:10,_ZN9__gnu_cxx13new_allocatorISt23_Sp_counted_ptr_inplaceI13ThreadContextSaIS2_ELNS_12_Lock_policyE2EEE10deallocateEPS5_m
FNDA:0,_ZN9__gnu_cxx13new_allocatorISt6vectorI4EdgeSaIS2_EEE7destroyIS4_EEvPT_
FNDA:0,_ZN9__gnu_cxx13new_allocatorIcEC2Ev
FNDA:12,_ZNK9__gnu_cxx13new_allocatorISt6vectorIiSaIiEEE8max_sizeEv
FNDA:21,_ZN9__gnu_cxx13new_allocatorISt6vectorI4EdgeSaIS2_EEED2Ev
FNDA:6,_ZN9__gnu_cxx13new_allocatorISt4pairIiiEEC2Ev
FNDA:27,_ZN9__gnu_cxx13new_allocatorISt4pairIiiEE7destroyIS2_EEvPT_
FNDA:20,_ZN9__gnu_cxx13new_allocatorISt23_Sp_counted_ptr_inplaceI13ThreadContextSaIS2_ELNS_12_Lock_policyE2EEED2Ev
FNDA:12,_ZN9__gnu_cxx13new_allocatorISt6vectorIiSaIiEEEC2Ev
FNDA:1,_ZN9__gnu_cxx13new_allocatorISt13_Rb_tree_nodeISt4pairIKiSt8functionIFvvEEEEE8allocateEmPKv
FNDA:10,_ZN9__gnu_cxx13new_allocatorISt8functionIFvvEEE9constructIS3_JRZ14handleCommandsiRSt6vectorISt10unique_ptrI12ActiveObjectSt14default_deleteIS8_EESaISB_EERS7_I5GraphS9_ISF_EER10MSTFactoryRS7_I4TreeS9_ISL_EEEUlvE6_EEEvPT_DpOT0_
FNDA:10,_ZN9__gnu_cxx13new_allocatorI13ThreadContextE9constructIS1_JEEEvPT_DpOT0_
FNDA:0,_ZN9__gnu_cxx13new_allocatorIcED2Ev
FNDA:300,_ZN9__gnu_cxx13new_allocatorIiED2Ev
FNDA:39,_ZN9__gnu_cxx13new_allocatorIbEC2Ev
FNDA:2,_ZN9__gnu_cxx13new_allocatorISt10shared_ptrI13ThreadContextEEC2ERKS4_
FNDA:41,_ZN9__gnu_cxx13new_allocatorImEC2Ev
FNDA:6,_ZN9__gnu_cxx13new_allocatorImE9constructImJRKmEEEvPT_DpOT0_
FNDA:6,_ZN9__gnu_cxx13new_allocatorISt8functionIFvvEEE9constructIS3_JRZ14handleCommandsiRSt6vectorISt10unique_ptrI12ActiveObjectSt14default_deleteIS8_EESaISB_EERS7_I5GraphS9_ISF_EER10MSTFactoryRS7_I4TreeS9_ISL_EEEUlvE8_EEEvPT_DpOT0_
FNDA:1,_ZNK9__gnu_cxx13new_allocatorISt13_Rb_tree_nodeISt4pairIKiSt8functionIFvvEEEEE11_M_max_sizeEv
FNDA:72,_ZN9__gnu_cxx13new_allocatorISt8functionIFvvEEE7destroyIS3_EEvPT_
FNDA:21,_ZN9__gnu_cxx13new_allocatorISt6vectorI4EdgeSaIS2_EEEC2Ev
FNDA:39,_ZN9__gnu_cxx13new_allocatorIbED2Ev
FNDA:48,_ZN9__gnu_cxx13new_allocatorI4EdgeE9constructIS1_JRKS1_EEEvPT_DpOT0_
FNDA:14,_ZNK9__gnu_cxx13new_allocatorISt8functionIFvvEEE11_M_max_sizeEv
FNDA:66,_ZN9__gnu_cxx13new_allocatorImEC2ERKS1_
FNDA:45,_ZN9__gnu_cxx13new_allocatorImE10deallocateEPmm
FNDA:1,_ZNK9__gnu_cxx13new_allocatorISt10shared_ptrI13ThreadContextEE8max_sizeEv
FNDA:1,_ZN9__gnu_cxx13new_allocatorISt13_Rb_tree_nodeISt4pairIKiSt8functionIFvvEEEEE10deallocateEPS8_m
FNDA:4,_ZN9__gnu_cxx13new_allocatorISt8functionIFvvEEE9constructIS3_JRZ14handleCommandsiRSt6vectorISt10unique_ptrI12ActiveObjectSt14default_deleteIS8_EESaISB_EERS7_I5GraphS9_ISF_EER10MSTFactoryRS7_I4TreeS9_ISL_EEEUlvE3_EEEvPT_DpOT0_
FNDA:4,_ZN9__gnu_cxx13new_allocatorISt8functionIFvvEEE9constructIS3_JRZ14handleCommandsiRSt6vectorISt10unique_ptrI12ActiveObjectSt14default_deleteIS8_EESaISB_EERS7_I5GraphS9_ISF_EER10MSTFactoryRS7_I4TreeS9_ISL_EEEUlvE10_EEEvPT_DpOT0_
FNDA:26,_ZN9__gnu_cxx13new_allocatorIiE9constructIiJiEEEvPT_DpOT0_
FNDA:225,_ZN9__gnu_cxx13new_allocatorI4EdgeE8allocateEmPKv
FNDA:4,_ZN9__gnu_cxx13new_allocatorISt8functionIFvvEEE9constructIS3_JRZ14handleCommandsiRSt6vectorISt10unique_ptrI12ActiveObjectSt14default_deleteIS8_EESaISB_EERS7_I5GraphS9_ISF_EER10MSTFactoryRS7_I4TreeS9_ISL_EEEUlvE4_EEEvPT_DpOT0_
FNDA:1,_ZN9__gnu_cxx13new_allocatorISt10shared_ptrI13ThreadContextEEC2Ev
FNDA:2,_ZNK9__gnu_cxx13new_allocatorISt10shared_ptrI13ThreadContextEE11_M_max_sizeEv
FNDA:27,_ZN9__gnu_cxx13new_allocatorISt4pairIiiEE9constructIS2_JS2_EEEvPT_DpOT0_
FNDA:6,_ZN9__gnu_cxx13new_allocatorISt10unique_ptrI12ActiveObjectSt14default_deleteIS2_EEED2Ev
FNDA:48,_ZN9__gnu_cxx13new_allocatorI4EdgeEC2ERKS2_
FNDA:1,_ZN9__gnu_cxx13new_allocatorISt13_Rb_tree_nodeISt4pairIKiSt8functionIFvvEEEEE7destroyIS7_EEvPT_
FNDA:0,_ZN9__gnu_cxx13new_allocatorISt6vectorI4EdgeSaIS2_EEE9constructIS4_JS4_EEEvPT_DpOT0_
FNDA:30,_ZN9__gnu_cxx13new_allocatorI13ThreadContextEC2ERKS2_
FNDA:18,_ZNK9__gnu_cxx13new_allocatorISt10unique_ptrI12ActiveObjectSt14default_deleteIS2_EEE8max_sizeEv
FNDA:14,_ZNK9__gnu_cxx13new_allocatorImE8max_sizeEv
FNDA:21,_ZN9__gnu_cxx13new_allocatorISt6vectorI4EdgeSaIS2_EEE10deallocateEPS4_m
FNDA:6,_ZN9__gnu_cxx13new_allocatorISt4pairIiiEE10deallocateEPS2_m
FNDA:14,_ZN9__gnu_cxx13new_allocatorISt8functionIFvvEEED2Ev
FNDA:4,_ZN9__gnu_cxx13new_allocatorISt8functionIFvvEEE9constructIS3_JRZ14handleCommandsiRSt6vectorISt10unique_ptrI12ActiveObjectSt14default_deleteIS8_EESaISB_EERS7_I5GraphS9_ISF_EER10MSTFactoryRS7_I4TreeS9_ISL_EEEUlvE5_EEEvPT_DpOT0_
FNDA:10,_ZN9__gnu_cxx13new_allocatorI13ThreadContextE7destroyIS1_EEvPT_
FNDA:28,_ZN9__gnu_cxx13new_allocatorIPSt8functionIFvvEEED2Ev
FNDA:165,_ZN9__gnu_cxx13new_allocatorI4EdgeE9constructIS1_JS1_EEEvPT_DpOT0_
FNDA:134,_ZN9__gnu_cxx13new_allocatorIiE10deallocateEPim
FNDA:105,_ZNK9__gnu_cxx13new_allocatorISt6vectorI4EdgeSaIS2_EEE11_M_max_sizeEv
FNDA:1,_ZN9__gnu_cxx13new_allocatorISt10shared_ptrI13ThreadContextEE10deallocateEPS3_m
FNDA:26,_ZNK9__gnu_cxx13new_allocatorISt10unique_ptrI12ActiveObjectSt14default_deleteIS2_EEE11_M_max_sizeEv
FNDA:4,_ZN9__gnu_cxx13new_allocatorISt8functionIFvvEEE9constructIS3_JRZ14handleCommandsiRSt6vectorISt10unique_ptrI12ActiveObjectSt14default_deleteIS8_EESaISB_EERS7_I5GraphS9_ISF_EER10MSTFactoryRS7_I4TreeS9_ISL_EEEUlvE1_EEEvPT_DpOT0_
FNDA:402,_ZNK9__gnu_cxx13new_allocatorI4EdgeE8max_sizeEv
FNDA:6,_ZN9__gnu_cxx13new_allocatorISt4pairIiiEE8allocateEmPKv
FNDA:2,_ZN9__gnu_cxx13new_allocatorISt6threadEC2Ev
FNDA:18,_ZNK9__gnu_cxx13new_allocatorISt4pairIiiEE11_M_max_sizeEv
FNDA:28,_ZN9__gnu_cxx13new_allocatorIPSt8functionIFvvEEEC2Ev
FNDA:6,_ZN9__gnu_cxx13new_allocatorISt6vectorIiSaIiEEE8allocateEmPKv
FNDA:2,_ZN9__gnu_cxx13new_allocatorISt10unique_ptrI12ActiveObjectSt14default_deleteIS2_EEEC2Ev
FNDA:1,_ZN9__gnu_cxx13new_allocatorISt13_Rb_tree_nodeISt4pairIKiSt8functionIFvvEEEEE9constructIS7_JRKSt21piecewise_construct_tSt5tupleIJRS3_EESE_IJEEEEEvPT_DpOT0_
FNDA:20,_ZN9__gnu_cxx13new_allocatorISt23_Sp_counted_ptr_inplaceI13ThreadContextSaIS2_ELNS_12_Lock_policyE2EEEC2Ev
FNDA:1,_ZN9__gnu_cxx13new_allocatorISt10shared_ptrI13ThreadContextEE8allocateEmPKv
FNDA:10,_ZN9__gnu_cxx13new_allocatorISt23_Sp_counted_ptr_inplaceI13ThreadContextSaIS2_ELNS_12_Lock_policyE2EEE8allocateEmPKv
FNDA:0,_ZN9__gnu_cxx13new_allocatorIcEC2ERKS1_
FNDA:105,_ZN9__gnu_cxx13new_allocatorImED2Ev
FNDA:4,_ZN9__gnu_cxx13new_allocatorISt8functionIFvvEEE9constructIS3_JRZ14handleCommandsiRSt6vectorISt10unique_ptrI12ActiveObjectSt14default_deleteIS8_EESaISB_EERS7_I5GraphS9_ISF_EER10MSTFactoryRS7_I4TreeS9_ISL_EEEUlvE2_EEEvPT_DpOT0_
FNDA:14,_ZNK9__gnu_cxx13new_allocatorIPSt8functionIFvvEEE11_M_max_sizeEv
FNDA:40,_ZN9__gnu_cxx13new_allocatorI13ThreadContextED2Ev
FNDA:6,_ZN9__gnu_cxx13new_allocatorISt10unique_ptrI12ActiveObjectSt14default_deleteIS2_EEEC2ERKS6_
FNDA:18,_ZNK9__gnu_cxx13new_allocatorISt6vectorIiSaIiEEE11_M_max_sizeEv
FNDA:12,_ZNK9__gnu_cxx13new_allocatorISt4pairIiiEE8max_sizeEv
FNDA:117,_ZN9__gnu_cxx13new_allocatorI4EdgeEC2Ev
FNDA:84,_ZNK9__gnu_cxx13new_allocatorISt6vectorI4EdgeSaIS2_EEE8max_sizeEv
FNDA:134,_ZN9__gnu_cxx13new_allocatorIiE8allocateEmPKv
FNDA:0,_ZN9__gnu_cxx13new_allocatorISt6vectorIiSaIiEEE7destroyIS3_EEvPT_
FNDA:28,_ZN9__gnu_cxx13new_allocatorISt10unique_ptrI12ActiveObjectSt14default_deleteIS2_EEE9constructIS5_JS5_EEEvPT_DpOT0_
FNDA:165,_ZN9__gnu_cxx13new_allocatorI4EdgeED2Ev
FNDA:3,_ZN9__gnu_cxx13new_allocatorISt10shared_ptrI13ThreadContextEED2Ev
FNDA:240,_ZNK9__gnu_cxx13new_allocatorIiE11_M_max_sizeEv
FNDA:14,_ZN9__gnu_cxx13new_allocatorIPSt8functionIFvvEEE10deallocateEPS4_m
FNDA:0,_ZN9__gnu_cxx13new_allocatorISt6threadE10deallocateEPS1_m
FNDA:8,_ZN9__gnu_cxx13new_allocatorISt10unique_ptrI12ActiveObjectSt14default_deleteIS2_EEE8allocateEmPKv
FNDA:0,_ZNK9__gnu_cxx13new_allocatorISt8functionIFvvEEE8max_sizeEv
FNDA:21,_ZN9__gnu_cxx13new_allocatorISt6vectorI4EdgeSaIS2_EEE8allocateEmPKv
FNDA:0,_ZN9__gnu_cxx13new_allocatorISt6threadED2Ev
FNDA:8,_ZN9__gnu_cxx13new_allocatorISt10unique_ptrI12ActiveObjectSt14default_deleteIS2_EEE10deallocateEPS5_m
FNDA:225,_ZN9__gnu_cxx13new_allocatorI4EdgeE10deallocateEPS1_m
FNDA:14,_ZN9__gnu_cxx13new_allocatorISt8functionIFvvEEE10deallocateEPS3_m
FNDA:14,_ZN9__gnu_cxx13new_allocatorISt10unique_ptrI12ActiveObjectSt14default_deleteIS2_EEE7destroyIS5_EEvPT_
FNDA:45,_ZN9__gnu_cxx13new_allocatorImE8allocateEmPKv
FNDA:228,_ZN9__gnu_cxx13new_allocatorIiEC2ERKS1_
FNDA:10,_ZN9__gnu_cxx13new_allocatorI13ThreadContextEC2Ev
FNDA:106,_ZNK9__gnu_cxx13new_allocatorIiE8max_sizeEv
FNDA:6,_ZN9__gnu_cxx13new_allocatorISt6vectorIiSaIiEEE10deallocateEPS3_m
FNF:113
FNH:103
DA:79,386
DA:82,380
DA:89,760
DA:103,485
DA:111,485
DA:115,0
DA:116,0
DA:117,0
DA:127,485
DA:132,485
DA:145,485
DA:154,649
DA:155,649
DA:160,383
DA:162,383
DA:166,124
DA:168,124
DA:197,1134
DA:200,1134
LF:19
LH:16
end_of_record
TN:
SF:/usr/include/c++/11/ext/string_conversions.h
FN:99,_ZN9__gnu_cxx12__to_xstringINSt7__cxx1112basic_stringIcSt11char_traitsIcESaIcEEEcEET_PFiPT0_mPKS8_P13__va_list_tagEmSB_z
FNDA:6,_ZN9__gnu_cxx12__to_xstringINSt7__cxx1112basic_stringIcSt11char_traitsIcESaIcEEEcEET_PFiPT0_mPKS8_P13__va_list_tagEmSB_z
FNF:1
FNH:1
DA:99,6
DA:105,6
DA:109,6
DA:111,6
DA:113,6
DA:115,6
LF:6
LH:6
end_of_record
TN:
SF:/usr/include/c++/11/ext/type_traits.h
FN:152,_ZN9__gnu_cxx17__is_null_pointerIcEEbPT_
FN:152,_ZN9__gnu_cxx17__is_null_pointerIKcEEbPT_
FNDA:172,_ZN9__gnu_cxx17__is_null_pointerIKcEEbPT_
FNDA:54,_ZN9__gnu_cxx17__is_null_pointerIcEEbPT_
FNF:2
FNH:2
DA:152,226
DA:153,226
LF:2
LH:2
end_of_record
TN:
SF:/usr/include/c++/11/functional
FN:382,_ZNVKSt3_MuImLb0ELb0EEclIRmSt5tupleIJEEEEOT_S6_RT0_
FN:382,_ZNVKSt3_MuIP12LFThreadPoolLb0ELb0EEclIRS1_St5tupleIJEEEEOT_S8_RT0_
FN:418,_ZNSt5_BindIFM12LFThreadPoolFviEPS0_mEE6__callIvJEJLm0ELm1EEEET_OSt5tupleIJDpT0_EESt12_Index_tupleIJXspT1_EEE
FN:489,_ZNSt5_BindIFM12LFThreadPoolFviEPS0_mEEC2IJS3_RmEEEOS2_DpOT_
FN:494,_ZNSt5_BindIFM12LFThreadPoolFviEPS0_mEEC2EOS5_
FN:501,_ZNSt5_BindIFM12LFThreadPoolFviEPS0_mEEclIJEvEET0_DpOT_
FN:789,_ZSt4bindIM12LFThreadPoolFviEJPS0_RmEENSt12_Bind_helperIXsrSt5__or_IJSt11is_integralINSt5decayIT_E4typeEESt7is_enumISB_EEE5valueES9_JDpT0_EE4typeEOS9_DpOSG_
FNDA:10,_ZNSt5_BindIFM12LFThreadPoolFviEPS0_mEEC2IJS3_RmEEEOS2_DpOT_
FNDA:10,_ZNVKSt3_MuIP12LFThreadPoolLb0ELb0EEclIRS1_St5tupleIJEEEEOT_S8_RT0_
FNDA:10,_ZNSt5_BindIFM12LFThreadPoolFviEPS0_mEEclIJEvEET0_DpOT_
FNDA:10,_ZNSt5_BindIFM12LFThreadPoolFviEPS0_mEEC2EOS5_
FNDA:10,_ZNVKSt3_MuImLb0ELb0EEclIRmSt5tupleIJEEEEOT_S6_RT0_
FNDA:10,_ZSt4bindIM12LFThreadPoolFviEJPS0_RmEENSt12_Bind_helperIXsrSt5__or_IJSt11is_integralINSt5decayIT_E4typeEESt7is_enumISB_EEE5valueES9_JDpT0_EE4typeEOS9_DpOSG_
FNDA:10,_ZNSt5_BindIFM12LFThreadPoolFviEPS0_mEE6__callIvJEJLm0ELm1EEEET_OSt5tupleIJDpT0_EESt12_Index_tupleIJXspT1_EEE
FNF:7
FNH:7
DA:382,20
DA:383,20
DA:418,10
DA:420,20
DA:421,21
DA:422,9
DA:489,10
DA:490,10
DA:491,10
DA:494,10
DA:501,10
DA:503,10
DA:504,10
DA:505,9
DA:789,10
DA:793,10
LF:16
LH:16
end_of_record
TN:
SF:/usr/include/c++/11/new
FN:174,_ZnwmPv
FN:180,_ZdlPvS_
FNDA:0,_ZdlPvS_
FNDA:530,_ZnwmPv
FNF:2
FNH:1
DA:174,530
DA:175,530
DA:180,0
LF:3
LH:2
end_of_record
TN:
SF:/usr/include/c++/11/thread
FN:92,_ZStlsIcSt11char_traitsIcEERSt13basic_ostreamIT_T0_ES6_NSt6thread2idE
FNDA:8,_ZStlsIcSt11char_traitsIcEERSt13basic_ostreamIT_T0_ES6_NSt6thread2idE
FNF:1
FNH:1
DA:92,8
DA:94,8
DA:95,0
DA:97,8
LF:4
LH:3
end_of_record
TN:
SF:/usr/include/c++/11/tuple
FN:80,_ZNSt10_Head_baseILm1ESt14default_deleteI7ReactorELb1EEC2Ev
FN:80,_ZNSt10_Head_baseILm1ESt14default_deleteINSt6thread6_StateEELb1EEC2Ev
FN:80,_ZNSt10_Head_baseILm1ESt14default_deleteISt8functionIFvvEEELb1EEC2Ev
FN:80,_ZNSt10_Head_baseILm1ESt14default_deleteI11MSTStrategyELb1EEC2Ev
FN:80,_ZNSt10_Head_baseILm1ESt14default_deleteI12LFThreadPoolELb1EEC2Ev
FN:80,_ZNSt10_Head_baseILm1ESt14default_deleteI4TreeELb1EEC2Ev
FN:80,_ZNSt10_Head_baseILm1ESt14default_deleteI9functArgsELb1EEC2Ev
FN:80,_ZNSt10_Head_baseILm1ESt14default_deleteI12ActiveObjectELb1EEC2Ev
FN:80,_ZNSt10_Head_baseILm1ESt14default_deleteI5GraphELb1EEC2Ev
FN:124,_ZNSt10_Head_baseILm1ESt14default_deleteI4TreeELb1EE7_M_headERS3_
FN:124,_ZNSt10_Head_baseILm1ESt14default_deleteI11MSTStrategyELb1EE7_M_headERS3_
FN:124,_ZNSt10_Head_baseILm1ESt14default_deleteI12LFThreadPoolELb1EE7_M_headERS3_
FN:124,_ZNSt10_Head_baseILm1ESt14default_deleteINSt6thread6_StateEELb1EE7_M_headERS4_
FN:124,_ZNSt10_Head_baseILm1ESt14default_deleteI5GraphELb1EE7_M_headERS3_
FN:124,_ZNSt10_Head_baseILm1ESt14default_deleteI12ActiveObjectELb1EE7_M_headERS3_
FN:124,_ZNSt10_Head_baseILm1ESt14default_deleteI9functArgsELb1EE7_M_headERS3_
FN:124,_ZNSt10_Head_baseILm1ESt14default_deleteI7ReactorELb1EE7_M_headERS3_
FN:124,_ZNSt10_Head_baseILm1ESt14default_deleteISt8functionIFvvEEELb1EE7_M_headERS5_
FN:189,_ZNSt10_Head_baseILm0EP11MSTStrategyLb0EEC2Ev
FN:189,_ZNSt10_Head_baseILm0EP12LFThreadPoolLb0EEC2Ev
FN:189,_ZNSt10_Head_baseILm0EPNSt6thread6_StateELb0EEC2Ev
FN:189,_ZNSt10_Head_baseILm0EP5GraphLb0EEC2Ev
FN:189,_ZNSt10_Head_baseILm0EP12ActiveObjectLb0EEC2Ev
FN:189,_ZNSt10_Head_baseILm0EP7ReactorLb0EEC2Ev
FN:189,_ZNSt10_Head_baseILm0EP4TreeLb0EEC2Ev
FN:189,_ZNSt10_Head_baseILm0EP9functArgsLb0EEC2Ev
FN:189,_ZNSt10_Head_baseILm0EPSt8functionIFvvEELb0EEC2Ev
FN:192,_ZNSt10_Head_baseILm0ERKiLb0EEC2ES1_
FN:199,_ZNSt10_Head_baseILm1EmLb0EEC2IRmEEOT_
FN:199,_ZNSt10_Head_baseILm0EP12LFThreadPoolLb0EEC2IS1_EEOT_
FN:199,_ZNSt10_Head_baseILm0EM12ActiveObjectFvvELb0EEC2IS2_EEOT_
FN:199,_ZNSt10_Head_baseILm1EP12ActiveObjectLb0EEC2IS1_EEOT_
FN:233,_ZNSt10_Head_baseILm0EP12LFThreadPoolLb0EE7_M_headERS2_
FN:233,_ZNSt10_Head_baseILm0EP4TreeLb0EE7_M_headERS2_
FN:233,_ZNSt10_Head_baseILm1EmLb0EE7_M_headERS0_
FN:233,_ZNSt10_Head_baseILm0EP7ReactorLb0EE7_M_headERS2_
FN:233,_ZNSt10_Head_baseILm0ERKiLb0EE7_M_headERS2_
FN:233,_ZNSt10_Head_baseILm0EPSt8functionIFvvEELb0EE7_M_headERS4_
FN:233,_ZNSt10_Head_baseILm0EPNSt6thread6_StateELb0EE7_M_headERS3_
FN:233,_ZNSt10_Head_baseILm0EP12ActiveObjectLb0EE7_M_headERS2_
FN:233,_ZNSt10_Head_baseILm0EP9functArgsLb0EE7_M_headERS2_
FN:233,_ZNSt10_Head_baseILm0EP5GraphLb0EE7_M_headERS2_
FN:233,_ZNSt10_Head_baseILm1EP12ActiveObjectLb0EE7_M_headERS2_
FN:233,_ZNSt10_Head_baseILm0EM12ActiveObjectFvvELb0EE7_M_headERS3_
FN:233,_ZNSt10_Head_baseILm0EP11MSTStrategyLb0EE7_M_headERS2_
FN:236,_ZNSt10_Head_baseILm0EP4TreeLb0EE7_M_headERKS2_
FN:236,_ZNSt10_Head_baseILm0EP5GraphLb0EE7_M_headERKS2_
FN:236,_ZNSt10_Head_baseILm0EPSt8functionIFvvEELb0EE7_M_headERKS4_
FN:236,_ZNSt10_Head_baseILm0EP11MSTStrategyLb0EE7_M_headERKS2_
FN:236,_ZNSt10_Head_baseILm0EP12ActiveObjectLb0EE7_M_headERKS2_
FN:236,_ZNSt10_Head_baseILm0EP12LFThreadPoolLb0EE7_M_headERKS2_
FN:236,_ZNSt10_Head_baseILm0EP9functArgsLb0EE7_M_headERKS2_
FN:236,_ZNSt10_Head_baseILm0EP7ReactorLb0EE7_M_headERKS2_
FN:268,_ZNSt11_Tuple_implILm0EJM12ActiveObjectFvvEPS0_EE7_M_headERS4_
FN:268,_ZNSt11_Tuple_implILm0EJP12LFThreadPoolSt14default_deleteIS0_EEE7_M_headERS4_
FN:268,_ZNSt11_Tuple_implILm0EJP12LFThreadPoolmEE7_M_headERS2_
FN:268,_ZNSt11_Tuple_implILm0EJP5GraphSt14default_deleteIS0_EEE7_M_headERS4_
FN:268,_ZNSt11_Tuple_implILm0EJP7ReactorSt14default_deleteIS0_EEE7_M_headERS4_
FN:268,_ZNSt11_Tuple_implILm0EJP12ActiveObjectSt14default_deleteIS0_EEE7_M_headERS4_
FN:268,_ZNSt11_Tuple_implILm0EJPSt8functionIFvvEESt14default_deleteIS2_EEE7_M_headERS6_
FN:268,_ZNSt11_Tuple_implILm0EJP9functArgsSt14default_deleteIS0_EEE7_M_headERS4_
FN:268,_ZNSt11_Tuple_implILm0EJPNSt6thread6_StateESt14default_deleteIS1_EEE7_M_headERS5_
FN:268,_ZNSt11_Tuple_implILm0EJP4TreeSt14default_deleteIS0_EEE7_M_headERS4_
FN:268,_ZNSt11_Tuple_implILm0EJP11MSTStrategySt14default_deleteIS0_EEE7_M_headERS4_
FN:271,_ZNSt11_Tuple_implILm0EJP12LFThreadPoolSt14default_deleteIS0_EEE7_M_headERKS4_
FN:271,_ZNSt11_Tuple_implILm0EJP7ReactorSt14default_deleteIS0_EEE7_M_headERKS4_
FN:271,_ZNSt11_Tuple_implILm0EJP9functArgsSt14default_deleteIS0_EEE7_M_headERKS4_
FN:271,_ZNSt11_Tuple_implILm0EJP4TreeSt14default_deleteIS0_EEE7_M_headERKS4_
FN:271,_ZNSt11_Tuple_implILm0EJP12ActiveObjectSt14default_deleteIS0_EEE7_M_headERKS4_
FN:271,_ZNSt11_Tuple_implILm0EJP5GraphSt14default_deleteIS0_EEE7_M_headERKS4_
FN:271,_ZNSt11_Tuple_implILm0EJP11MSTStrategySt14default_deleteIS0_EEE7_M_headERKS4_
FN:271,_ZNSt11_Tuple_implILm0EJPSt8functionIFvvEESt14default_deleteIS2_EEE7_M_headERKS6_
FN:279,_ZNSt11_Tuple_implILm0EJPNSt6thread6_StateESt14default_deleteIS1_EEEC2Ev
FN:279,_ZNSt11_Tuple_implILm0EJPSt8functionIFvvEESt14default_deleteIS2_EEEC2Ev
FN:279,_ZNSt11_Tuple_implILm0EJP12LFThreadPoolSt14default_deleteIS0_EEEC2Ev
FN:279,_ZNSt11_Tuple_implILm0EJP7ReactorSt14default_deleteIS0_EEEC2Ev
FN:279,_ZNSt11_Tuple_implILm0EJP9functArgsSt14default_deleteIS0_EEEC2Ev
FN:279,_ZNSt11_Tuple_implILm0EJP4TreeSt14default_deleteIS0_EEEC2Ev
FN:279,_ZNSt11_Tuple_implILm0EJP5GraphSt14default_deleteIS0_EEEC2Ev
FN:279,_ZNSt11_Tuple_implILm0EJP12ActiveObjectSt14default_deleteIS0_EEEC2Ev
FN:279,_ZNSt11_Tuple_implILm0EJP11MSTStrategySt14default_deleteIS0_EEEC2Ev
FN:290,_ZNSt11_Tuple_implILm0EJM12ActiveObjectFvvEPS0_EEC2IS2_JS3_EvEEOT_DpOT0_
FN:290,_ZNSt11_Tuple_implILm0EJP12LFThreadPoolmEEC2IS1_JRmEvEEOT_DpOT0_
FN:301,_ZNSt11_Tuple_implILm0EJP12ActiveObjectSt14default_deleteIS0_EEEC2EOS4_
FN:301,_ZNSt11_Tuple_implILm0EJP12LFThreadPoolmEEC2EOS2_
FN:424,_ZNSt11_Tuple_implILm1EJSt14default_deleteI5GraphEEE7_M_headERS3_
FN:424,_ZNSt11_Tuple_implILm1EJSt14default_deleteI11MSTStrategyEEE7_M_headERS3_
FN:424,_ZNSt11_Tuple_implILm1EJSt14default_deleteI12LFThreadPoolEEE7_M_headERS3_
FN:424,_ZNSt11_Tuple_implILm1EJSt14default_deleteISt8functionIFvvEEEEE7_M_headERS5_
FN:424,_ZNSt11_Tuple_implILm1EJSt14default_deleteI7ReactorEEE7_M_headERS3_
FN:424,_ZNSt11_Tuple_implILm1EJSt14default_deleteINSt6thread6_StateEEEE7_M_headERS4_
FN:424,_ZNSt11_Tuple_implILm1EJSt14default_deleteI12ActiveObjectEEE7_M_headERS3_
FN:424,_ZNSt11_Tuple_implILm1EJmEE7_M_headERS0_
FN:424,_ZNSt11_Tuple_implILm1EJSt14default_deleteI4TreeEEE7_M_headERS3_
FN:424,_ZNSt11_Tuple_implILm0EJRKiEE7_M_headERS2_
FN:424,_ZNSt11_Tuple_implILm1EJP12ActiveObjectEE7_M_headERS2_
FN:424,_ZNSt11_Tuple_implILm1EJSt14default_deleteI9functArgsEEE7_M_headERS3_
FN:430,_ZNSt11_Tuple_implILm1EJSt14default_deleteI12ActiveObjectEEEC2Ev
FN:430,_ZNSt11_Tuple_implILm1EJSt14default_deleteI7ReactorEEEC2Ev
FN:430,_ZNSt11_Tuple_implILm1EJSt14default_deleteINSt6thread6_StateEEEEC2Ev
FN:430,_ZNSt11_Tuple_implILm1EJSt14default_deleteI11MSTStrategyEEEC2Ev
FN:430,_ZNSt11_Tuple_implILm1EJSt14default_deleteI4TreeEEEC2Ev
FN:430,_ZNSt11_Tuple_implILm1EJSt14default_deleteI5GraphEEEC2Ev
FN:430,_ZNSt11_Tuple_implILm1EJSt14default_deleteI9functArgsEEEC2Ev
FN:430,_ZNSt11_Tuple_implILm1EJSt14default_deleteI12LFThreadPoolEEEC2Ev
FN:430,_ZNSt11_Tuple_implILm1EJSt14default_deleteISt8functionIFvvEEEEEC2Ev
FN:434,_ZNSt11_Tuple_implILm0EJRKiEEC2ES1_
FN:440,_ZNSt11_Tuple_implILm1EJP12ActiveObjectEEC2IS1_EEOT_
FN:440,_ZNSt11_Tuple_implILm1EJmEEC2IRmEEOT_
FN:454,_ZNSt11_Tuple_implILm0EJRKiEEC2EOS2_
FN:454,_ZNSt11_Tuple_implILm1EJmEEC2EOS0_
FN:454,_ZNSt11_Tuple_implILm1EJSt14default_deleteI12ActiveObjectEEEC2EOS3_
FN:727,_ZNSt5tupleIJRKiEEC2ILb1ELb1EEES1_
FN:756,_ZNSt5tupleIJRKiEEC2EOS2_
FN:1049,_ZNSt5tupleIJP12LFThreadPoolSt14default_deleteIS0_EEEC1ILb1ELb1EEEv
FN:1049,_ZNSt5tupleIJP4TreeSt14default_deleteIS0_EEEC2ILb1ELb1EEEv
FN:1049,_ZNSt5tupleIJP12ActiveObjectSt14default_deleteIS0_EEEC2ILb1ELb1EEEv
FN:1049,_ZNSt5tupleIJPNSt6thread6_StateESt14default_deleteIS1_EEEC2ILb1ELb1EEEv
FN:1049,_ZNSt5tupleIJP11MSTStrategySt14default_deleteIS0_EEEC2ILb1ELb1EEEv
FN:1049,_ZNSt5tupleIJP5GraphSt14default_deleteIS0_EEEC1ILb1ELb1EEEv
FN:1049,_ZNSt5tupleIJP9functArgsSt14default_deleteIS0_EEEC1ILb1ELb1EEEv
FN:1049,_ZNSt5tupleIJP7ReactorSt14default_deleteIS0_EEEC2ILb1ELb1EEEv
FN:1049,_ZNSt5tupleIJPSt8functionIFvvEESt14default_deleteIS2_EEEC2ILb1ELb1EEEv
FN:1077,_ZNSt5tupleIJM12ActiveObjectFvvEPS0_EEC2IS2_S3_Lb1EEEOT_OT0_
FN:1077,_ZNSt5tupleIJP12LFThreadPoolmEEC2IS1_RmLb1EEEOT_OT0_
FN:1090,_ZNSt5tupleIJP12ActiveObjectSt14default_deleteIS0_EEEC2EOS4_
FN:1090,_ZNSt5tupleIJP12LFThreadPoolmEEC2EOS2_
FN:1377,_ZSt12__get_helperILm1ESt14default_deleteI12ActiveObjectEJEERT0_RSt11_Tuple_implIXT_EJS3_DpT1_EE
FN:1377,_ZSt12__get_helperILm0EM12ActiveObjectFvvEJPS0_EERT0_RSt11_Tuple_implIXT_EJS4_DpT1_EE
FN:1377,_ZSt12__get_helperILm0EP7ReactorJSt14default_deleteIS0_EEERT0_RSt11_Tuple_implIXT_EJS4_DpT1_EE
FN:1377,_ZSt12__get_helperILm1ESt14default_deleteI7ReactorEJEERT0_RSt11_Tuple_implIXT_EJS3_DpT1_EE
FN:1377,_ZSt12__get_helperILm0ERKiJEERT0_RSt11_Tuple_implIXT_EJS2_DpT1_EE
FN:1377,_ZSt12__get_helperILm1ESt14default_deleteI9functArgsEJEERT0_RSt11_Tuple_implIXT_EJS3_DpT1_EE
FN:1377,_ZSt12__get_helperILm0EP4TreeJSt14default_deleteIS0_EEERT0_RSt11_Tuple_implIXT_EJS4_DpT1_EE
FN:1377,_ZSt12__get_helperILm0EP12ActiveObjectJSt14default_deleteIS0_EEERT0_RSt11_Tuple_implIXT_EJS4_DpT1_EE
FN:1377,_ZSt12__get_helperILm0EP11MSTStrategyJSt14default_deleteIS0_EEERT0_RSt11_Tuple_implIXT_EJS4_DpT1_EE
FN:1377,_ZSt12__get_helperILm0EP12LFThreadPoolJSt14default_deleteIS0_EEERT0_RSt11_Tuple_implIXT_EJS4_DpT1_EE
FN:1377,_ZSt12__get_helperILm0EP5GraphJSt14default_deleteIS0_EEERT0_RSt11_Tuple_implIXT_EJS4_DpT1_EE
FN:1377,_ZSt12__get_helperILm1ESt14default_deleteI5GraphEJEERT0_RSt11_Tuple_implIXT_EJS3_DpT1_EE
FN:1377,_ZSt12__get_helperILm0EP12LFThreadPoolJmEERT0_RSt11_Tuple_implIXT_EJS2_DpT1_EE
FN:1377,_ZSt12__get_helperILm0EPNSt6thread6_StateEJSt14default_deleteIS1_EEERT0_RSt11_Tuple_implIXT_EJS5_DpT1_EE
FN:1377,_ZSt12__get_helperILm0EP9functArgsJSt14default_deleteIS0_EEERT0_RSt11_Tuple_implIXT_EJS4_DpT1_EE
FN:1377,_ZSt12__get_helperILm1ESt14default_deleteI4TreeEJEERT0_RSt11_Tuple_implIXT_EJS3_DpT1_EE
FN:1377,_ZSt12__get_helperILm1ESt14default_deleteINSt6thread6_StateEEJEERT0_RSt11_Tuple_implIXT_EJS4_DpT1_EE
FN:1377,_ZSt12__get_helperILm1ESt14default_deleteI12LFThreadPoolEJEERT0_RSt11_Tuple_implIXT_EJS3_DpT1_EE
FN:1377,_ZSt12__get_helperILm0EPSt8functionIFvvEEJSt14default_deleteIS2_EEERT0_RSt11_Tuple_implIXT_EJS6_DpT1_EE
FN:1377,_ZSt12__get_helperILm1ESt14default_deleteI11MSTStrategyEJEERT0_RSt11_Tuple_implIXT_EJS3_DpT1_EE
FN:1377,_ZSt12__get_helperILm1ESt14default_deleteISt8functionIFvvEEEJEERT0_RSt11_Tuple_implIXT_EJS5_DpT1_EE
FN:1377,_ZSt12__get_helperILm1EP12ActiveObjectJEERT0_RSt11_Tuple_implIXT_EJS2_DpT1_EE
FN:1377,_ZSt12__get_helperILm1EmJEERT0_RSt11_Tuple_implIXT_EJS0_DpT1_EE
FN:1382,_ZSt12__get_helperILm0EP5GraphJSt14default_deleteIS0_EEERKT0_RKSt11_Tuple_implIXT_EJS4_DpT1_EE
FN:1382,_ZSt12__get_helperILm0EP4TreeJSt14default_deleteIS0_EEERKT0_RKSt11_Tuple_implIXT_EJS4_DpT1_EE
FN:1382,_ZSt12__get_helperILm0EP9functArgsJSt14default_deleteIS0_EEERKT0_RKSt11_Tuple_implIXT_EJS4_DpT1_EE
FN:1382,_ZSt12__get_helperILm0EP12LFThreadPoolJSt14default_deleteIS0_EEERKT0_RKSt11_Tuple_implIXT_EJS4_DpT1_EE
FN:1382,_ZSt12__get_helperILm0EPSt8functionIFvvEEJSt14default_deleteIS2_EEERKT0_RKSt11_Tuple_implIXT_EJS6_DpT1_EE
FN:1382,_ZSt12__get_helperILm0EP11MSTStrategyJSt14default_deleteIS0_EEERKT0_RKSt11_Tuple_implIXT_EJS4_DpT1_EE
FN:1382,_ZSt12__get_helperILm0EP12ActiveObjectJSt14default_deleteIS0_EEERKT0_RKSt11_Tuple_implIXT_EJS4_DpT1_EE
FN:1382,_ZSt12__get_helperILm0EP7ReactorJSt14default_deleteIS0_EEERKT0_RKSt11_Tuple_implIXT_EJS4_DpT1_EE
FN:1393,_ZSt3getILm0EJP9functArgsSt14default_deleteIS0_EEERNSt13tuple_elementIXT_ESt5tupleIJDpT0_EEE4typeERS8_
FN:1393,_ZSt3getILm1EJP4TreeSt14default_deleteIS0_EEERNSt13tuple_elementIXT_ESt5tupleIJDpT0_EEE4typeERS8_
FN:1393,_ZSt3getILm0EJP12LFThreadPoolmEERNSt13tuple_elementIXT_ESt5tupleIJDpT0_EEE4typeERS6_
FN:1393,_ZSt3getILm0EJP5GraphSt14default_deleteIS0_EEERNSt13tuple_elementIXT_ESt5tupleIJDpT0_EEE4typeERS8_
FN:1393,_ZSt3getILm1EJP5GraphSt14default_deleteIS0_EEERNSt13tuple_elementIXT_ESt5tupleIJDpT0_EEE4typeERS8_
FN:1393,_ZSt3getILm1EJP9functArgsSt14default_deleteIS0_EEERNSt13tuple_elementIXT_ESt5tupleIJDpT0_EEE4typeERS8_
FN:1393,_ZSt3getILm1EJPSt8functionIFvvEESt14default_deleteIS2_EEERNSt13tuple_elementIXT_ESt5tupleIJDpT0_EEE4typeERSA_
FN:1393,_ZSt3getILm1EJP11MSTStrategySt14default_deleteIS0_EEERNSt13tuple_elementIXT_ESt5tupleIJDpT0_EEE4typeERS8_
FN:1393,_ZSt3getILm0EJP12LFThreadPoolSt14default_deleteIS0_EEERNSt13tuple_elementIXT_ESt5tupleIJDpT0_EEE4typeERS8_
FN:1393,_ZSt3getILm1EJP12LFThreadPoolSt14default_deleteIS0_EEERNSt13tuple_elementIXT_ESt5tupleIJDpT0_EEE4typeERS8_
FN:1393,_ZSt3getILm0EJP12ActiveObjectSt14default_deleteIS0_EEERNSt13tuple_elementIXT_ESt5tupleIJDpT0_EEE4typeERS8_
FN:1393,_ZSt3getILm0EJP11MSTStrategySt14default_deleteIS0_EEERNSt13tuple_elementIXT_ESt5tupleIJDpT0_EEE4typeERS8_
FN:1393,_ZSt3getILm1EJP12ActiveObjectSt14default_deleteIS0_EEERNSt13tuple_elementIXT_ESt5tupleIJDpT0_EEE4typeERS8_
FN:1393,_ZSt3getILm1EJPNSt6thread6_StateESt14default_deleteIS1_EEERNSt13tuple_elementIXT_ESt5tupleIJDpT0_EEE4typeERS9_
FN:1393,_ZSt3getILm0EJP4TreeSt14default_deleteIS0_EEERNSt13tuple_elementIXT_ESt5tupleIJDpT0_EEE4typeERS8_
FN:1393,_ZSt3getILm1EJP12LFThreadPoolmEERNSt13tuple_elementIXT_ESt5tupleIJDpT0_EEE4typeERS6_
FN:1393,_ZSt3getILm0EJPSt8functionIFvvEESt14default_deleteIS2_EEERNSt13tuple_elementIXT_ESt5tupleIJDpT0_EEE4typeERSA_
FN:1393,_ZSt3getILm1EJP7ReactorSt14default_deleteIS0_EEERNSt13tuple_elementIXT_ESt5tupleIJDpT0_EEE4typeERS8_
FN:1393,_ZSt3getILm0EJP7ReactorSt14default_deleteIS0_EEERNSt13tuple_elementIXT_ESt5tupleIJDpT0_EEE4typeERS8_
FN:1393,_ZSt3getILm0EJRKiEERNSt13tuple_elementIXT_ESt5tupleIJDpT0_EEE4typeERS6_
FN:1393,_ZSt3getILm0EJPNSt6thread6_StateESt14default_deleteIS1_EEERNSt13tuple_elementIXT_ESt5tupleIJDpT0_EEE4typeERS9_
FN:1399,_ZSt3getILm0EJP7ReactorSt14default_deleteIS0_EEERKNSt13tuple_elementIXT_ESt5tupleIJDpT0_EEE4typeERKS8_
FN:1399,_ZSt3getILm0EJP9functArgsSt14default_deleteIS0_EEERKNSt13tuple_elementIXT_ESt5tupleIJDpT0_EEE4typeERKS8_
FN:1399,_ZSt3getILm0EJPSt8functionIFvvEESt14default_deleteIS2_EEERKNSt13tuple_elementIXT_ESt5tupleIJDpT0_EEE4typeERKSA_
FN:1399,_ZSt3getILm0EJP5GraphSt14default_deleteIS0_EEERKNSt13tuple_elementIXT_ESt5tupleIJDpT0_EEE4typeERKS8_
FN:1399,_ZSt3getILm0EJP11MSTStrategySt14default_deleteIS0_EEERKNSt13tuple_elementIXT_ESt5tupleIJDpT0_EEE4typeERKS8_
FN:1399,_ZSt3getILm0EJP12LFThreadPoolSt14default_deleteIS0_EEERKNSt13tuple_elementIXT_ESt5tupleIJDpT0_EEE4typeERKS8_
FN:1399,_ZSt3getILm0EJP4TreeSt14default_deleteIS0_EEERKNSt13tuple_elementIXT_ESt5tupleIJDpT0_EEE4typeERKS8_
FN:1399,_ZSt3getILm0EJP12ActiveObjectSt14default_deleteIS0_EEERKNSt13tuple_elementIXT_ESt5tupleIJDpT0_EEE4typeERKS8_
FN:1405,_ZSt3getILm0EJM12ActiveObjectFvvEPS0_EEONSt13tuple_elementIXT_ESt5tupleIJDpT0_EEE4typeEOS8_
FN:1405,_ZSt3getILm1EJM12ActiveObjectFvvEPS0_EEONSt13tuple_elementIXT_ESt5tupleIJDpT0_EEE4typeEOS8_
FN:1617,_ZSt16forward_as_tupleIJEESt5tupleIJDpOT_EES3_
FN:1804,_ZNSt4pairIKiSt8functionIFvvEEEC2IJRS0_EJEEESt21piecewise_construct_tSt5tupleIJDpT_EES8_IJDpT0_EE
FN:1816,_ZNSt4pairIKiSt8functionIFvvEEEC2IJRS0_EJLm0EEJEJEEERSt5tupleIJDpT_EERS7_IJDpT1_EESt12_Index_tupleIJXspT0_EEESG_IJXspT2_EEE
FNDA:9,_ZNSt5tupleIJP5GraphSt14default_deleteIS0_EEEC1ILb1ELb1EEEv
FNDA:14,_ZNSt5tupleIJM12ActiveObjectFvvEPS0_EEC2IS2_S3_Lb1EEEOT_OT0_
FNDA:112,_ZSt3getILm0EJP12ActiveObjectSt14default_deleteIS0_EEERNSt13tuple_elementIXT_ESt5tupleIJDpT0_EEE4typeERS8_
FNDA:12,_ZNSt5tupleIJP11MSTStrategySt14default_deleteIS0_EEEC2ILb1ELb1EEEv
FNDA:10,_ZNSt11_Tuple_implILm0EJP12LFThreadPoolmEE7_M_headERS2_
FNDA:18,_ZSt12__get_helperILm1ESt14default_deleteI9functArgsEJEERT0_RSt11_Tuple_implIXT_EJS3_DpT1_EE
FNDA:6,_ZNSt11_Tuple_implILm0EJP9functArgsSt14default_deleteIS0_EEE7_M_headERKS4_
FNDA:28,_ZNSt11_Tuple_implILm0EJP12ActiveObjectSt14default_deleteIS0_EEEC2EOS4_
FNDA:96,_ZSt3getILm0EJP11MSTStrategySt14default_deleteIS0_EEERNSt13tuple_elementIXT_ESt5tupleIJDpT0_EEE4typeERS8_
FNDA:10,_ZNSt11_Tuple_implILm1EJmEEC2IRmEEOT_
FNDA:14,_ZSt3getILm1EJP12ActiveObjectSt14default_deleteIS0_EEERNSt13tuple_elementIXT_ESt5tupleIJDpT0_EEE4typeERS8_
FNDA:84,_ZNSt11_Tuple_implILm0EJP5GraphSt14default_deleteIS0_EEE7_M_headERS4_
FNDA:14,_ZNSt10_Head_baseILm1ESt14default_deleteI12ActiveObjectELb1EE7_M_headERS3_
FNDA:112,_ZSt12__get_helperILm0EP12ActiveObjectJSt14default_deleteIS0_EEERT0_RSt11_Tuple_implIXT_EJS4_DpT1_EE
FNDA:126,_ZSt12__get_helperILm0EP4TreeJSt14default_deleteIS0_EEERT0_RSt11_Tuple_implIXT_EJS4_DpT1_EE
FNDA:36,_ZNSt11_Tuple_implILm1EJSt14default_deleteI4TreeEEE7_M_headERS3_
FNDA:10,_ZNSt5tupleIJP12LFThreadPoolmEEC2IS1_RmLb1EEEOT_OT0_
FNDA:10,_ZNSt11_Tuple_implILm0EJP12LFThreadPoolmEEC2EOS2_
FNDA:27,_ZNSt10_Head_baseILm1ESt14default_deleteI5GraphELb1EE7_M_headERS3_
FNDA:12,_ZNSt11_Tuple_implILm1EJSt14default_deleteI4TreeEEEC2Ev
FNDA:14,_ZNSt10_Head_baseILm0EP12ActiveObjectLb0EEC2Ev
FNDA:1,_ZNSt5tupleIJRKiEEC2ILb1ELb1EEES1_
FNDA:126,_ZSt3getILm0EJP4TreeSt14default_deleteIS0_EEERNSt13tuple_elementIXT_ESt5tupleIJDpT0_EEE4typeERS8_
FNDA:18,_ZNSt10_Head_baseILm1ESt14default_deleteI9functArgsELb1EE7_M_headERS3_
FNDA:3,_ZNSt11_Tuple_implILm0EJP7ReactorSt14default_deleteIS0_EEE7_M_headERS4_
FNDA:0,_ZSt3getILm1EJPNSt6thread6_StateESt14default_deleteIS1_EEERNSt13tuple_elementIXT_ESt5tupleIJDpT0_EEE4typeERS9_
FNDA:96,_ZSt12__get_helperILm0EP11MSTStrategyJSt14default_deleteIS0_EEERT0_RSt11_Tuple_implIXT_EJS4_DpT1_EE
FNDA:30,_ZSt3getILm1EJPSt8functionIFvvEESt14default_deleteIS2_EEERNSt13tuple_elementIXT_ESt5tupleIJDpT0_EEE4typeERSA_
FNDA:84,_ZSt12__get_helperILm0EP5GraphJSt14default_deleteIS0_EEERKT0_RKSt11_Tuple_implIXT_EJS4_DpT1_EE
FNDA:0,_ZNSt10_Head_baseILm1ESt14default_deleteINSt6thread6_StateEELb1EE7_M_headERS4_
FNDA:14,_ZNSt11_Tuple_implILm1EJP12ActiveObjectEEC2IS1_EEOT_
FNDA:10,_ZNSt10_Head_baseILm0EP12LFThreadPoolLb0EEC2IS1_EEOT_
FNDA:14,_ZNSt11_Tuple_implILm0EJM12ActiveObjectFvvEPS0_EE7_M_headERS4_
FNDA:14,_ZNSt5tupleIJPNSt6thread6_StateESt14default_deleteIS1_EEEC2ILb1ELb1EEEv
FNDA:3,_ZNSt10_Head_baseILm1ESt14default_deleteI12LFThreadPoolELb1EE7_M_headERS3_
FNDA:1,_ZNSt10_Head_baseILm0EP12LFThreadPoolLb0EEC2Ev
FNDA:36,_ZSt3getILm1EJP11MSTStrategySt14default_deleteIS0_EEERNSt13tuple_elementIXT_ESt5tupleIJDpT0_EEE4typeERS8_
FNDA:90,_ZNSt10_Head_baseILm0EPSt8functionIFvvEELb0EE7_M_headERS4_
FNDA:6,_ZSt12__get_helperILm0EP9functArgsJSt14default_deleteIS0_EEERKT0_RKSt11_Tuple_implIXT_EJS4_DpT1_EE
FNDA:111,_ZSt12__get_helperILm0EP4TreeJSt14default_deleteIS0_EEERKT0_RKSt11_Tuple_implIXT_EJS4_DpT1_EE
FNDA:1,_ZNSt10_Head_baseILm0ERKiLb0EE7_M_headERS2_
FNDA:12,_ZNSt11_Tuple_implILm1EJSt14default_deleteI11MSTStrategyEEEC2Ev
FNDA:8,_ZNSt11_Tuple_implILm0EJP12LFThreadPoolSt14default_deleteIS0_EEE7_M_headERS4_
FNDA:28,_ZNSt10_Head_baseILm0EPNSt6thread6_StateELb0EE7_M_headERS3_
FNDA:2,_ZNSt11_Tuple_implILm0EJP7ReactorSt14default_deleteIS0_EEE7_M_headERKS4_
FNDA:14,_ZNSt10_Head_baseILm0EPNSt6thread6_StateELb0EEC2Ev
FNDA:8,_ZSt3getILm0EJP12LFThreadPoolSt14default_deleteIS0_EEERNSt13tuple_elementIXT_ESt5tupleIJDpT0_EEE4typeERS8_
FNDA:14,_ZNSt11_Tuple_implILm1EJSt14default_deleteI12ActiveObjectEEE7_M_headERS3_
FNDA:10,_ZNSt11_Tuple_implILm1EJmEE7_M_headERS0_
FNDA:3,_ZSt3getILm1EJP12LFThreadPoolSt14default_deleteIS0_EEERNSt13tuple_elementIXT_ESt5tupleIJDpT0_EEE4typeERS8_
FNDA:9,_ZNSt10_Head_baseILm0EP5GraphLb0EEC2Ev
FNDA:84,_ZNSt10_Head_baseILm0EP5GraphLb0EE7_M_headERKS2_
FNDA:3,_ZSt12__get_helperILm0EP7ReactorJSt14default_deleteIS0_EEERT0_RSt11_Tuple_implIXT_EJS4_DpT1_EE
FNDA:111,_ZNSt10_Head_baseILm0EP4TreeLb0EE7_M_headERKS2_
FNDA:36,_ZNSt10_Head_baseILm1ESt14default_deleteI4TreeELb1EE7_M_headERS3_
FNDA:10,_ZSt3getILm0EJP12LFThreadPoolmEERNSt13tuple_elementIXT_ESt5tupleIJDpT0_EEE4typeERS6_
FNDA:1,_ZNSt11_Tuple_implILm1EJSt14default_deleteI7ReactorEEEC2Ev
FNDA:2,_ZSt3getILm0EJP7ReactorSt14default_deleteIS0_EEERKNSt13tuple_elementIXT_ESt5tupleIJDpT0_EEE4typeERKS8_
FNDA:10,_ZNSt10_Head_baseILm0EPSt8functionIFvvEELb0EE7_M_headERKS4_
FNDA:14,_ZNSt11_Tuple_implILm0EJPNSt6thread6_StateESt14default_deleteIS1_EEEC2Ev
FNDA:126,_ZNSt10_Head_baseILm0EP4TreeLb0EE7_M_headERS2_
FNDA:14,_ZNSt5tupleIJP12ActiveObjectSt14default_deleteIS0_EEEC2ILb1ELb1EEEv
FNDA:0,_ZNSt11_Tuple_implILm1EJSt14default_deleteINSt6thread6_StateEEEE7_M_headERS4_
FNDA:84,_ZSt3getILm0EJP5GraphSt14default_deleteIS0_EEERNSt13tuple_elementIXT_ESt5tupleIJDpT0_EEE4typeERS8_
FNDA:1,_ZNSt11_Tuple_implILm1EJSt14default_deleteI7ReactorEEE7_M_headERS3_
FNDA:10,_ZNSt10_Head_baseILm1EmLb0EEC2IRmEEOT_
FNDA:27,_ZSt3getILm1EJP5GraphSt14default_deleteIS0_EEERNSt13tuple_elementIXT_ESt5tupleIJDpT0_EEE4typeERS8_
FNDA:14,_ZNSt11_Tuple_implILm1EJSt14default_deleteINSt6thread6_StateEEEEC2Ev
FNDA:1,_ZSt12__get_helperILm0ERKiJEERT0_RSt11_Tuple_implIXT_EJS2_DpT1_EE
FNDA:1,_ZSt12__get_helperILm1ESt14default_deleteI7ReactorEJEERT0_RSt11_Tuple_implIXT_EJS3_DpT1_EE
FNDA:20,_ZNSt11_Tuple_implILm0EJPSt8functionIFvvEESt14default_deleteIS2_EEEC2Ev
FNDA:18,_ZSt3getILm1EJP9functArgsSt14default_deleteIS0_EEERNSt13tuple_elementIXT_ESt5tupleIJDpT0_EEE4typeERS8_
FNDA:28,_ZNSt5tupleIJP12ActiveObjectSt14default_deleteIS0_EEEC2EOS4_
FNDA:36,_ZNSt10_Head_baseILm1ESt14default_deleteI11MSTStrategyELb1EE7_M_headERS3_
FNDA:14,_ZSt3getILm1EJM12ActiveObjectFvvEPS0_EEONSt13tuple_elementIXT_ESt5tupleIJDpT0_EEE4typeEOS8_
FNDA:3,_ZNSt10_Head_baseILm0EP7ReactorLb0EE7_M_headERS2_
FNDA:10,_ZNSt10_Head_baseILm1EmLb0EE7_M_headERS0_
FNDA:27,_ZNSt11_Tuple_implILm1EJSt14default_deleteI5GraphEEE7_M_headERS3_
FNDA:12,_ZNSt10_Head_baseILm0EP11MSTStrategyLb0EEC2Ev
FNDA:1,_ZNSt5tupleIJP12LFThreadPoolSt14default_deleteIS0_EEEC1ILb1ELb1EEEv
FNDA:40,_ZSt3getILm0EJP9functArgsSt14default_deleteIS0_EEERNSt13tuple_elementIXT_ESt5tupleIJDpT0_EEE4typeERS8_
FNDA:3,_ZNSt11_Tuple_implILm1EJSt14default_deleteI12LFThreadPoolEEE7_M_headERS3_
FNDA:18,_ZNSt10_Head_baseILm0EP12LFThreadPoolLb0EE7_M_headERS2_
FNDA:36,_ZNSt11_Tuple_implILm1EJSt14default_deleteI11MSTStrategyEEE7_M_headERS3_
FNDA:14,_ZNSt11_Tuple_implILm1EJSt14default_deleteI12ActiveObjectEEEC2Ev
FNDA:1,_ZNSt10_Head_baseILm1ESt14default_deleteI7ReactorELb1EEC2Ev
FNDA:30,_ZNSt11_Tuple_implILm1EJSt14default_deleteISt8functionIFvvEEEEE7_M_headERS5_
FNDA:14,_ZSt12__get_helperILm1ESt14default_deleteI12ActiveObjectEJEERT0_RSt11_Tuple_implIXT_EJS3_DpT1_EE
FNDA:1,_ZNSt11_Tuple_implILm0EJRKiEEC2ES1_
FNDA:36,_ZSt3getILm1EJP4TreeSt14default_deleteIS0_EEERNSt13tuple_elementIXT_ESt5tupleIJDpT0_EEE4typeERS8_
FNDA:3,_ZNSt11_Tuple_implILm0EJP12LFThreadPoolSt14default_deleteIS0_EEE7_M_headERKS4_
FNDA:14,_ZSt3getILm0EJM12ActiveObjectFvvEPS0_EEONSt13tuple_elementIXT_ESt5tupleIJDpT0_EEE4typeEOS8_
FNDA:14,_ZSt12__get_helperILm0EM12ActiveObjectFvvEJPS0_EERT0_RSt11_Tuple_implIXT_EJS4_DpT1_EE
FNDA:12,_ZNSt5tupleIJP4TreeSt14default_deleteIS0_EEEC2ILb1ELb1EEEv
FNDA:36,_ZSt12__get_helperILm1ESt14default_deleteI11MSTStrategyEJEERT0_RSt11_Tuple_implIXT_EJS3_DpT1_EE
FNDA:1,_ZNSt10_Head_baseILm0ERKiLb0EEC2ES1_
FNDA:9,_ZNSt11_Tuple_implILm0EJP5GraphSt14default_deleteIS0_EEEC2Ev
FNDA:6,_ZNSt10_Head_baseILm0EP9functArgsLb0EE7_M_headERKS2_
FNDA:28,_ZNSt11_Tuple_implILm0EJPNSt6thread6_StateESt14default_deleteIS1_EEE7_M_headERS5_
FNDA:40,_ZNSt11_Tuple_implILm0EJP9functArgsSt14default_deleteIS0_EEE7_M_headERS4_
FNDA:14,_ZSt12__get_helperILm1EP12ActiveObjectJEERT0_RSt11_Tuple_implIXT_EJS2_DpT1_EE
FNDA:14,_ZNSt11_Tuple_implILm0EJP12ActiveObjectSt14default_deleteIS0_EEEC2Ev
FNDA:126,_ZNSt11_Tuple_implILm0EJP4TreeSt14default_deleteIS0_EEE7_M_headERS4_
FNDA:72,_ZSt3getILm0EJP12ActiveObjectSt14default_deleteIS0_EEERKNSt13tuple_elementIXT_ESt5tupleIJDpT0_EEE4typeERKS8_
FNDA:30,_ZSt12__get_helperILm1ESt14default_deleteISt8functionIFvvEEEJEERT0_RSt11_Tuple_implIXT_EJS5_DpT1_EE
FNDA:2,_ZNSt10_Head_baseILm0EP7ReactorLb0EE7_M_headERKS2_
FNDA:20,_ZNSt10_Head_baseILm0EPSt8functionIFvvEELb0EEC2Ev
FNDA:30,_ZNSt10_Head_baseILm1ESt14default_deleteISt8functionIFvvEEELb1EE7_M_headERS5_
FNDA:96,_ZNSt11_Tuple_implILm0EJP11MSTStrategySt14default_deleteIS0_EEE7_M_headERS4_
FNDA:10,_ZSt12__get_helperILm1EmJEERT0_RSt11_Tuple_implIXT_EJS0_DpT1_EE
FNDA:10,_ZNSt5tupleIJP12LFThreadPoolmEEC2EOS2_
FNDA:9,_ZNSt10_Head_baseILm1ESt14default_deleteI5GraphELb1EEC2Ev
FNDA:28,_ZNSt11_Tuple_implILm1EJSt14default_deleteI12ActiveObjectEEEC2EOS3_
FNDA:12,_ZNSt11_Tuple_implILm0EJP11MSTStrategySt14default_deleteIS0_EEEC2Ev
FNDA:14,_ZNSt10_Head_baseILm1ESt14default_deleteI12ActiveObjectELb1EEC2Ev
FNDA:20,_ZNSt11_Tuple_implILm1EJSt14default_deleteISt8functionIFvvEEEEEC2Ev
FNDA:96,_ZNSt10_Head_baseILm0EP11MSTStrategyLb0EE7_M_headERS2_
FNDA:20,_ZNSt5tupleIJPSt8functionIFvvEESt14default_deleteIS2_EEEC2ILb1ELb1EEEv
FNDA:12,_ZNSt11_Tuple_implILm0EJP4TreeSt14default_deleteIS0_EEEC2Ev
FNDA:1,_ZNSt4pairIKiSt8functionIFvvEEEC2IJRS0_EJEEESt21piecewise_construct_tSt5tupleIJDpT_EES8_IJDpT0_EE
FNDA:14,_ZNSt10_Head_baseILm1EP12ActiveObjectLb0EE7_M_headERS2_
FNDA:84,_ZSt3getILm0EJP5GraphSt14default_deleteIS0_EEERKNSt13tuple_elementIXT_ESt5tupleIJDpT0_EEE4typeERKS8_
FNDA:6,_ZNSt11_Tuple_implILm0EJP9functArgsSt14default_deleteIS0_EEEC2Ev
FNDA:3,_ZSt3getILm0EJP7ReactorSt14default_deleteIS0_EEERNSt13tuple_elementIXT_ESt5tupleIJDpT0_EEE4typeERS8_
FNDA:3,_ZSt12__get_helperILm1ESt14default_deleteI12LFThreadPoolEJEERT0_RSt11_Tuple_implIXT_EJS3_DpT1_EE
FNDA:24,_ZSt3getILm0EJP11MSTStrategySt14default_deleteIS0_EEERKNSt13tuple_elementIXT_ESt5tupleIJDpT0_EEE4typeERKS8_
FNDA:1,_ZNSt5tupleIJRKiEEC2EOS2_
FNDA:0,_ZSt12__get_helperILm1ESt14default_deleteINSt6thread6_StateEEJEERT0_RSt11_Tuple_implIXT_EJS4_DpT1_EE
FNDA:24,_ZSt12__get_helperILm0EP11MSTStrategyJSt14default_deleteIS0_EEERKT0_RKSt11_Tuple_implIXT_EJS4_DpT1_EE
FNDA:1,_ZNSt10_Head_baseILm1ESt14default_deleteI12LFThreadPoolELb1EEC2Ev
FNDA:72,_ZSt12__get_helperILm0EP12ActiveObjectJSt14default_deleteIS0_EEERKT0_RKSt11_Tuple_implIXT_EJS4_DpT1_EE
FNDA:28,_ZSt3getILm0EJPNSt6thread6_StateESt14default_deleteIS1_EEERNSt13tuple_elementIXT_ESt5tupleIJDpT0_EEE4typeERS9_
FNDA:14,_ZNSt10_Head_baseILm1EP12ActiveObjectLb0EEC2IS1_EEOT_
FNDA:12,_ZNSt10_Head_baseILm1ESt14default_deleteI4TreeELb1EEC2Ev
FNDA:1,_ZSt3getILm0EJRKiEERNSt13tuple_elementIXT_ESt5tupleIJDpT0_EEE4typeERS6_
FNDA:14,_ZNSt10_Head_baseILm0EM12ActiveObjectFvvELb0EEC2IS2_EEOT_
FNDA:14,_ZNSt11_Tuple_implILm1EJP12ActiveObjectEE7_M_headERS2_
FNDA:3,_ZNSt10_Head_baseILm0EP12LFThreadPoolLb0EE7_M_headERKS2_
FNDA:3,_ZSt3getILm0EJP12LFThreadPoolSt14default_deleteIS0_EEERKNSt13tuple_elementIXT_ESt5tupleIJDpT0_EEE4typeERKS8_
FNDA:2,_ZSt12__get_helperILm0EP7ReactorJSt14default_deleteIS0_EEERKT0_RKSt11_Tuple_implIXT_EJS4_DpT1_EE
FNDA:14,_ZNSt10_Head_baseILm0EM12ActiveObjectFvvELb0EE7_M_headERS3_
FNDA:6,_ZNSt10_Head_baseILm0EP9functArgsLb0EEC2Ev
FNDA:1,_ZNSt11_Tuple_implILm1EJSt14default_deleteI12LFThreadPoolEEEC2Ev
FNDA:6,_ZNSt10_Head_baseILm1ESt14default_deleteI9functArgsELb1EEC2Ev
FNDA:90,_ZSt12__get_helperILm0EPSt8functionIFvvEEJSt14default_deleteIS2_EEERT0_RSt11_Tuple_implIXT_EJS6_DpT1_EE
FNDA:18,_ZNSt11_Tuple_implILm1EJSt14default_deleteI9functArgsEEE7_M_headERS3_
FNDA:111,_ZSt3getILm0EJP4TreeSt14default_deleteIS0_EEERKNSt13tuple_elementIXT_ESt5tupleIJDpT0_EEE4typeERKS8_
FNDA:10,_ZNSt11_Tuple_implILm0EJP12LFThreadPoolmEEC2IS1_JRmEvEEOT_DpOT0_
FNDA:6,_ZNSt11_Tuple_implILm1EJSt14default_deleteI9functArgsEEEC2Ev
FNDA:12,_ZNSt10_Head_baseILm1ESt14default_deleteI11MSTStrategyELb1EEC2Ev
FNDA:20,_ZNSt10_Head_baseILm1ESt14default_deleteISt8functionIFvvEEELb1EEC2Ev
FNDA:84,_ZNSt10_Head_baseILm0EP5GraphLb0EE7_M_headERS2_
FNDA:1,_ZSt3getILm1EJP7ReactorSt14default_deleteIS0_EEERNSt13tuple_elementIXT_ESt5tupleIJDpT0_EEE4typeERS8_
FNDA:1,_ZNSt10_Head_baseILm1ESt14default_deleteI7ReactorELb1EE7_M_headERS3_
FNDA:1,_ZNSt11_Tuple_implILm0EJP7ReactorSt14default_deleteIS0_EEEC2Ev
FNDA:14,_ZNSt11_Tuple_implILm0EJM12ActiveObjectFvvEPS0_EEC2IS2_JS3_EvEEOT_DpOT0_
FNDA:1,_ZNSt5tupleIJP7ReactorSt14default_deleteIS0_EEEC2ILb1ELb1EEEv
FNDA:24,_ZNSt11_Tuple_implILm0EJP11MSTStrategySt14default_deleteIS0_EEE7_M_headERKS4_
FNDA:84,_ZNSt11_Tuple_implILm0EJP5GraphSt14default_deleteIS0_EEE7_M_headERKS4_
FNDA:6,_ZSt3getILm0EJP9functArgsSt14default_deleteIS0_EEERKNSt13tuple_elementIXT_ESt5tupleIJDpT0_EEE4typeERKS8_
FNDA:36,_ZSt12__get_helperILm1ESt14default_deleteI4TreeEJEERT0_RSt11_Tuple_implIXT_EJS3_DpT1_EE
FNDA:10,_ZNSt11_Tuple_implILm1EJmEEC2EOS0_
FNDA:1,_ZNSt11_Tuple_implILm0EJRKiEEC2EOS2_
FNDA:10,_ZSt3getILm0EJPSt8functionIFvvEESt14default_deleteIS2_EEERKNSt13tuple_elementIXT_ESt5tupleIJDpT0_EEE4typeERKSA_
FNDA:10,_ZNSt11_Tuple_implILm0EJPSt8functionIFvvEESt14default_deleteIS2_EEE7_M_headERKS6_
FNDA:10,_ZSt16forward_as_tupleIJEESt5tupleIJDpOT_EES3_
FNDA:10,_ZSt3getILm1EJP12LFThreadPoolmEERNSt13tuple_elementIXT_ESt5tupleIJDpT0_EEE4typeERS6_
FNDA:3,_ZSt12__get_helperILm0EP12LFThreadPoolJSt14default_deleteIS0_EEERKT0_RKSt11_Tuple_implIXT_EJS4_DpT1_EE
FNDA:1,_ZNSt11_Tuple_implILm0EJRKiEE7_M_headERS2_
FNDA:9,_ZNSt11_Tuple_implILm1EJSt14default_deleteI5GraphEEEC2Ev
FNDA:8,_ZSt12__get_helperILm0EP12LFThreadPoolJSt14default_deleteIS0_EEERT0_RSt11_Tuple_implIXT_EJS4_DpT1_EE
FNDA:1,_ZNSt10_Head_baseILm0EP7ReactorLb0EEC2Ev
FNDA:112,_ZNSt11_Tuple_implILm0EJP12ActiveObjectSt14default_deleteIS0_EEE7_M_headERS4_
FNDA:24,_ZNSt10_Head_baseILm0EP11MSTStrategyLb0EE7_M_headERKS2_
FNDA:27,_ZSt12__get_helperILm1ESt14default_deleteI5GraphEJEERT0_RSt11_Tuple_implIXT_EJS3_DpT1_EE
FNDA:112,_ZNSt10_Head_baseILm0EP12ActiveObjectLb0EE7_M_headERS2_
FNDA:90,_ZSt3getILm0EJPSt8functionIFvvEESt14default_deleteIS2_EEERNSt13tuple_elementIXT_ESt5tupleIJDpT0_EEE4typeERSA_
FNDA:1,_ZNSt4pairIKiSt8functionIFvvEEEC2IJRS0_EJLm0EEJEJEEERSt5tupleIJDpT_EERS7_IJDpT1_EESt12_Index_tupleIJXspT0_EEESG_IJXspT2_EEE
FNDA:84,_ZSt12__get_helperILm0EP5GraphJSt14default_deleteIS0_EEERT0_RSt11_Tuple_implIXT_EJS4_DpT1_EE
FNDA:6,_ZNSt5tupleIJP9functArgsSt14default_deleteIS0_EEEC1ILb1ELb1EEEv
FNDA:40,_ZNSt10_Head_baseILm0EP9functArgsLb0EE7_M_headERS2_
FNDA:72,_ZNSt11_Tuple_implILm0EJP12ActiveObjectSt14default_deleteIS0_EEE7_M_headERKS4_
FNDA:1,_ZNSt11_Tuple_implILm0EJP12LFThreadPoolSt14default_deleteIS0_EEEC2Ev
FNDA:72,_ZNSt10_Head_baseILm0EP12ActiveObjectLb0EE7_M_headERKS2_
FNDA:10,_ZSt12__get_helperILm0EP12LFThreadPoolJmEERT0_RSt11_Tuple_implIXT_EJS2_DpT1_EE
FNDA:28,_ZSt12__get_helperILm0EPNSt6thread6_StateEJSt14default_deleteIS1_EEERT0_RSt11_Tuple_implIXT_EJS5_DpT1_EE
FNDA:111,_ZNSt11_Tuple_implILm0EJP4TreeSt14default_deleteIS0_EEE7_M_headERKS4_
FNDA:12,_ZNSt10_Head_baseILm0EP4TreeLb0EEC2Ev
FNDA:90,_ZNSt11_Tuple_implILm0EJPSt8functionIFvvEESt14default_deleteIS2_EEE7_M_headERS6_
FNDA:40,_ZSt12__get_helperILm0EP9functArgsJSt14default_deleteIS0_EEERT0_RSt11_Tuple_implIXT_EJS4_DpT1_EE
FNDA:10,_ZSt12__get_helperILm0EPSt8functionIFvvEEJSt14default_deleteIS2_EEERKT0_RKSt11_Tuple_implIXT_EJS6_DpT1_EE
FNDA:14,_ZNSt10_Head_baseILm1ESt14default_deleteINSt6thread6_StateEELb1EEC2Ev
FNF:192
FNH:188
DA:80,89
DA:81,89
DA:124,165
DA:189,89
DA:190,89
DA:192,1
DA:193,1
DA:199,48
DA:200,48
DA:233,636
DA:236,312
DA:268,611
DA:271,312
DA:279,89
DA:280,89
DA:290,24
DA:292,24
DA:293,24
DA:301,38
DA:424,190
DA:430,89
DA:431,89
DA:434,1
DA:435,1
DA:436,1
DA:440,24
DA:441,24
DA:442,24
DA:454,39
DA:456,11
DA:457,39
DA:727,1
DA:729,1
DA:756,1
DA:1049,89
DA:1051,89
DA:1077,24
DA:1079,24
DA:1090,38
DA:1377,801
DA:1378,801
DA:1382,312
DA:1383,312
DA:1393,773
DA:1394,773
DA:1399,312
DA:1400,312
DA:1405,28
DA:1408,28
DA:1617,10
DA:1618,10
DA:1804,1
DA:1809,1
DA:1810,1
DA:1816,1
DA:1819,1
DA:1820,1
DA:1821,1
LF:58
LH:58
end_of_record
TN:
SF:/usr/include/c++/11/typeinfo
FN:120,_ZNKSt9type_infoeqERKS_
FNDA:0,_ZNKSt9type_infoeqERKS_
FNF:1
FNH:0
DA:120,0
DA:122,0
DA:123,0
DA:124,0
LF:4
LH:0
end_of_record
TN:
SF:/usr/include/c++/11/utility
FN:183,_ZNSt10__pair_getILm0EE10__move_getIiiEEOT_OSt4pairIS2_T0_E
FN:207,_ZNSt10__pair_getILm1EE10__move_getIiiEEOT0_OSt4pairIT_S2_E
FN:228,_ZSt3getILm0EiiEONSt13tuple_elementIXT_ESt4pairIT0_T1_EE4typeEOS4_
FN:228,_ZSt3getILm1EiiEONSt13tuple_elementIXT_ESt4pairIT0_T1_EE4typeEOS4_
FNDA:12,_ZSt3getILm0EiiEONSt13tuple_elementIXT_ESt4pairIT0_T1_EE4typeEOS4_
FNDA:12,_ZNSt10__pair_getILm0EE10__move_getIiiEEOT_OSt4pairIS2_T0_E
FNDA:12,_ZSt3getILm1EiiEONSt13tuple_elementIXT_ESt4pairIT0_T1_EE4typeEOS4_
FNDA:12,_ZNSt10__pair_getILm1EE10__move_getIiiEEOT0_OSt4pairIT_S2_E
FNF:4
FNH:4
DA:183,12
DA:184,12
DA:207,12
DA:208,12
DA:228,24
DA:229,24
LF:6
LH:6
end_of_record
TN:
SF:/usr/include/x86_64-linux-gnu/c++/11/bits/gthr-default.h
FN:300,_ZL18__gthread_active_pv
FN:746,_ZL20__gthread_mutex_lockP15pthread_mutex_t
FN:755,_ZL23__gthread_mutex_trylockP15pthread_mutex_t
FN:776,_ZL22__gthread_mutex_unlockP15pthread_mutex_t
FNDA:609,_ZL20__gthread_mutex_lockP15pthread_mutex_t
FNDA:627,_ZL22__gthread_mutex_unlockP15pthread_mutex_t
FNDA:23,_ZL23__gthread_mutex_trylockP15pthread_mutex_t
FNDA:1259,_ZL18__gthread_active_pv
FNF:4
FNH:4
DA:300,1259
DA:302,1259
DA:746,609
DA:748,609
DA:749,609
DA:751,0
DA:755,23
DA:757,23
DA:758,23
DA:760,0
DA:776,627
DA:778,627
DA:779,627
DA:781,0
LF:14
LH:11
end_of_record
