TN:
SF:/usr/include/c++/11/bits/stl_uninitialized.h
FN:108,_ZNSt20__uninitialized_copyILb1EE13__uninit_copyIN9__gnu_cxx17__normal_iteratorIPK4EdgeSt6vectorIS4_SaIS4_EEEEPS4_EET0_T_SD_SC_
FNDA:8,_ZNSt20__uninitialized_copyILb1EE13__uninit_copyIN9__gnu_cxx17__normal_iteratorIPK4EdgeSt6vectorIS4_SaIS4_EEEEPS4_EET0_T_SD_SC_
FN:126,_ZSt18uninitialized_copyIN9__gnu_cxx17__normal_iteratorIPK4EdgeSt6vectorIS2_SaIS2_EEEEPS2_ET0_T_SB_SA_
FNDA:8,_ZSt18uninitialized_copyIN9__gnu_cxx17__normal_iteratorIPK4EdgeSt6vectorIS2_SaIS2_EEEEPS2_ET0_T_SB_SA_
FN:331,_ZSt22__uninitialized_copy_aIN9__gnu_cxx17__normal_iteratorIPK4EdgeSt6vectorIS2_SaIS2_EEEEPS2_S2_ET0_T_SB_SA_RSaIT1_E
FNDA:8,_ZSt22__uninitialized_copy_aIN9__gnu_cxx17__normal_iteratorIPK4EdgeSt6vectorIS2_SaIS2_EEEEPS2_S2_ET0_T_SB_SA_RSaIT1_E
DA:108,8
DA:110,8
DA:126,8
DA:145,8
DA:151,8
DA:331,8
DA:333,8
end_of_record
SF:/home/eladubuntu/Git Projects/OS_2024-FINAL_PROJECT_MST/Graph.hpp
FN:22,_ZN5GraphC2Ev
FNDA:4,_ZN5GraphC2Ev
FN:24,_ZN5GraphD0Ev
FNDA:0,_ZN5GraphD0Ev
FN:24,_ZN5GraphD2Ev
FNDA:0,_ZN5GraphD2Ev
DA:22,4
DA:24,0
DA:24,0
end_of_record
SF:/usr/include/c++/11/bits/stl_vector.h
FN:97,_ZNSt12_Vector_baseI4EdgeSaIS0_EE17_Vector_impl_dataC2Ev
FNDA:0,_ZNSt12_Vector_baseI4EdgeSaIS0_EE17_Vector_impl_dataC2Ev
FN:97,_ZNSt12_Vector_baseISt6vectorI4EdgeSaIS1_EESaIS3_EE17_Vector_impl_dataC2Ev
FNDA:0,_ZNSt12_Vector_baseISt6vectorI4EdgeSaIS1_EESaIS3_EE17_Vector_impl_dataC2Ev
FN:97,_ZNSt12_Vector_baseISt6vectorIiSaIiEESaIS2_EE17_Vector_impl_dataC2Ev
FNDA:4,_ZNSt12_Vector_baseISt6vectorIiSaIiEESaIS2_EE17_Vector_impl_dataC2Ev
FN:131,_ZNSt12_Vector_baseISt6vectorI4EdgeSaIS1_EESaIS3_EE12_Vector_implC2Ev
FNDA:0,_ZNSt12_Vector_baseISt6vectorI4EdgeSaIS1_EESaIS3_EE12_Vector_implC2Ev
FN:131,_ZNSt12_Vector_baseISt6vectorIiSaIiEESaIS2_EE12_Vector_implC2Ev
FNDA:4,_ZNSt12_Vector_baseISt6vectorIiSaIiEESaIS2_EE12_Vector_implC2Ev
FN:136,_ZNSt12_Vector_baseI4EdgeSaIS0_EE12_Vector_implC2ERKS1_
FNDA:8,_ZNSt12_Vector_baseI4EdgeSaIS0_EE12_Vector_implC2ERKS1_
FN:276,_ZNSt12_Vector_baseIiSaIiEE19_M_get_Tp_allocatorEv
FNDA:0,_ZNSt12_Vector_baseIiSaIiEE19_M_get_Tp_allocatorEv
FN:276,_ZNSt12_Vector_baseI4EdgeSaIS0_EE19_M_get_Tp_allocatorEv
FNDA:0,_ZNSt12_Vector_baseI4EdgeSaIS0_EE19_M_get_Tp_allocatorEv
FN:276,_ZNSt12_Vector_baseISt6vectorI4EdgeSaIS1_EESaIS3_EE19_M_get_Tp_allocatorEv
FNDA:0,_ZNSt12_Vector_baseISt6vectorI4EdgeSaIS1_EESaIS3_EE19_M_get_Tp_allocatorEv
FN:276,_ZNSt12_Vector_baseISt6vectorIiSaIiEESaIS2_EE19_M_get_Tp_allocatorEv
FNDA:0,_ZNSt12_Vector_baseISt6vectorIiSaIiEESaIS2_EE19_M_get_Tp_allocatorEv
FN:280,_ZNKSt12_Vector_baseI4EdgeSaIS0_EE19_M_get_Tp_allocatorEv
FNDA:0,_ZNKSt12_Vector_baseI4EdgeSaIS0_EE19_M_get_Tp_allocatorEv
FN:288,_ZNSt12_Vector_baseISt6vectorI4EdgeSaIS1_EESaIS3_EEC2Ev
FNDA:0,_ZNSt12_Vector_baseISt6vectorI4EdgeSaIS1_EESaIS3_EEC2Ev
FN:288,_ZNSt12_Vector_baseISt6vectorIiSaIiEESaIS2_EEC2Ev
FNDA:4,_ZNSt12_Vector_baseISt6vectorIiSaIiEESaIS2_EEC2Ev
FN:303,_ZNSt12_Vector_baseI4EdgeSaIS0_EEC2EmRKS1_
FNDA:8,_ZNSt12_Vector_baseI4EdgeSaIS0_EEC2EmRKS1_
FN:333,_ZNSt12_Vector_baseI4EdgeSaIS0_EED2Ev
FNDA:0,_ZNSt12_Vector_baseI4EdgeSaIS0_EED2Ev
FN:333,_ZNSt12_Vector_baseIiSaIiEED2Ev
FNDA:0,_ZNSt12_Vector_baseIiSaIiEED2Ev
FN:333,_ZNSt12_Vector_baseISt6vectorIiSaIiEESaIS2_EED2Ev
FNDA:0,_ZNSt12_Vector_baseISt6vectorIiSaIiEESaIS2_EED2Ev
FN:333,_ZNSt12_Vector_baseISt6vectorI4EdgeSaIS1_EESaIS3_EED2Ev
FNDA:0,_ZNSt12_Vector_baseISt6vectorI4EdgeSaIS1_EESaIS3_EED2Ev
FN:343,_ZNSt12_Vector_baseI4EdgeSaIS0_EE11_M_allocateEm
FNDA:0,_ZNSt12_Vector_baseI4EdgeSaIS0_EE11_M_allocateEm
FN:350,_ZNSt12_Vector_baseI4EdgeSaIS0_EE13_M_deallocateEPS0_m
FNDA:0,_ZNSt12_Vector_baseI4EdgeSaIS0_EE13_M_deallocateEPS0_m
FN:350,_ZNSt12_Vector_baseISt6vectorIiSaIiEESaIS2_EE13_M_deallocateEPS2_m
FNDA:0,_ZNSt12_Vector_baseISt6vectorIiSaIiEESaIS2_EE13_M_deallocateEPS2_m
FN:350,_ZNSt12_Vector_baseIiSaIiEE13_M_deallocateEPim
FNDA:0,_ZNSt12_Vector_baseIiSaIiEE13_M_deallocateEPim
FN:350,_ZNSt12_Vector_baseISt6vectorI4EdgeSaIS1_EESaIS3_EE13_M_deallocateEPS3_m
FNDA:0,_ZNSt12_Vector_baseISt6vectorI4EdgeSaIS1_EESaIS3_EE13_M_deallocateEPS3_m
FN:359,_ZNSt12_Vector_baseI4EdgeSaIS0_EE17_M_create_storageEm
FNDA:8,_ZNSt12_Vector_baseI4EdgeSaIS0_EE17_M_create_storageEm
FN:487,_ZNSt6vectorIS_I4EdgeSaIS0_EESaIS2_EEC2Ev
FNDA:0,_ZNSt6vectorIS_I4EdgeSaIS0_EESaIS2_EEC2Ev
FN:487,_ZNSt6vectorIS_IiSaIiEESaIS1_EEC2Ev
FNDA:4,_ZNSt6vectorIS_IiSaIiEESaIS1_EEC2Ev
FN:553,_ZNSt6vectorI4EdgeSaIS0_EEC2ERKS2_
FNDA:8,_ZNSt6vectorI4EdgeSaIS0_EEC2ERKS2_
FN:678,_ZNSt6vectorIS_I4EdgeSaIS0_EESaIS2_EED2Ev
FNDA:0,_ZNSt6vectorIS_I4EdgeSaIS0_EESaIS2_EED2Ev
FN:678,_ZNSt6vectorIS_IiSaIiEESaIS1_EED2Ev
FNDA:0,_ZNSt6vectorIS_IiSaIiEESaIS1_EED2Ev
FN:678,_ZNSt6vectorI4EdgeSaIS0_EED2Ev
FNDA:0,_ZNSt6vectorI4EdgeSaIS0_EED2Ev
FN:678,_ZNSt6vectorIiSaIiEED2Ev
FNDA:0,_ZNSt6vectorIiSaIiEED2Ev
FN:820,_ZNKSt6vectorI4EdgeSaIS0_EE5beginEv
FNDA:0,_ZNKSt6vectorI4EdgeSaIS0_EE5beginEv
FN:838,_ZNKSt6vectorI4EdgeSaIS0_EE3endEv
FNDA:0,_ZNKSt6vectorI4EdgeSaIS0_EE3endEv
FN:918,_ZNKSt6vectorI4EdgeSaIS0_EE4sizeEv
FNDA:0,_ZNKSt6vectorI4EdgeSaIS0_EE4sizeEv
DA:97,0
DA:98,0
DA:99,0
DA:97,4
DA:98,4
DA:99,4
DA:97,0
DA:98,0
DA:99,0
DA:131,4
DA:133,4
DA:134,4
DA:131,0
DA:133,0
DA:134,0
DA:136,8
DA:137,8
DA:138,8
DA:276,0
DA:277,0
DA:276,0
DA:277,0
DA:276,0
DA:277,0
DA:276,0
DA:277,0
DA:280,0
DA:281,0
DA:288,4
DA:288,0
DA:303,8
DA:304,8
DA:305,8
DA:333,0
DA:335,0
DA:336,0
DA:337,0
DA:333,0
DA:335,0
DA:336,0
DA:337,0
DA:333,0
DA:335,0
DA:336,0
DA:337,0
DA:333,0
DA:335,0
DA:336,0
DA:337,0
DA:343,0
DA:346,0
DA:350,0
DA:353,0
DA:354,0
DA:355,0
DA:350,0
DA:353,0
DA:354,0
DA:355,0
DA:350,0
DA:353,0
DA:354,0
DA:355,0
DA:350,0
DA:353,0
DA:354,0
DA:355,0
DA:359,8
DA:361,8
DA:362,8
DA:363,8
DA:364,8
DA:487,4
DA:487,0
DA:553,8
DA:555,8
DA:557,8
DA:558,8
DA:560,8
DA:561,8
DA:678,0
DA:680,0
DA:681,0
DA:683,0
DA:678,0
DA:680,0
DA:681,0
DA:683,0
DA:678,0
DA:680,0
DA:681,0
DA:683,0
DA:678,0
DA:680,0
DA:681,0
DA:683,0
DA:820,0
DA:821,0
DA:838,0
DA:839,0
DA:918,0
DA:919,0
end_of_record
SF:/usr/include/c++/11/ext/alloc_traits.h
FN:97,_ZN9__gnu_cxx14__alloc_traitsISaI4EdgeES1_E17_S_select_on_copyERKS2_
FNDA:8,_ZN9__gnu_cxx14__alloc_traitsISaI4EdgeES1_E17_S_select_on_copyERKS2_
DA:97,8
DA:98,8
end_of_record
SF:/usr/include/c++/11/bits/stl_construct.h
FN:146,_ZSt8_DestroyISt6vectorIiSaIiEEEvPT_
FNDA:0,_ZSt8_DestroyISt6vectorIiSaIiEEEvPT_
FN:146,_ZSt8_DestroyISt6vectorI4EdgeSaIS1_EEEvPT_
FNDA:0,_ZSt8_DestroyISt6vectorI4EdgeSaIS1_EEEvPT_
FN:160,_ZNSt12_Destroy_auxILb0EE9__destroyIPSt6vectorIiSaIiEEEEvT_S6_
FNDA:0,_ZNSt12_Destroy_auxILb0EE9__destroyIPSt6vectorIiSaIiEEEEvT_S6_
FN:160,_ZNSt12_Destroy_auxILb0EE9__destroyIPSt6vectorI4EdgeSaIS3_EEEEvT_S7_
FNDA:0,_ZNSt12_Destroy_auxILb0EE9__destroyIPSt6vectorI4EdgeSaIS3_EEEEvT_S7_
FN:172,_ZNSt12_Destroy_auxILb1EE9__destroyIPiEEvT_S3_
FNDA:0,_ZNSt12_Destroy_auxILb1EE9__destroyIPiEEvT_S3_
FN:172,_ZNSt12_Destroy_auxILb1EE9__destroyIP4EdgeEEvT_S4_
FNDA:0,_ZNSt12_Destroy_auxILb1EE9__destroyIP4EdgeEEvT_S4_
FN:182,_ZSt8_DestroyIPiEvT_S1_
FNDA:0,_ZSt8_DestroyIPiEvT_S1_
FN:182,_ZSt8_DestroyIP4EdgeEvT_S2_
FNDA:0,_ZSt8_DestroyIP4EdgeEvT_S2_
FN:182,_ZSt8_DestroyIPSt6vectorIiSaIiEEEvT_S4_
FNDA:0,_ZSt8_DestroyIPSt6vectorIiSaIiEEEvT_S4_
FN:182,_ZSt8_DestroyIPSt6vectorI4EdgeSaIS1_EEEvT_S5_
FNDA:0,_ZSt8_DestroyIPSt6vectorI4EdgeSaIS1_EEEvT_S5_
DA:146,0
DA:151,0
DA:153,0
DA:146,0
DA:151,0
DA:153,0
DA:160,0
DA:162,0
DA:163,0
DA:164,0
DA:160,0
DA:162,0
DA:163,0
DA:164,0
DA:172,0
DA:172,0
DA:182,0
DA:196,0
DA:197,0
DA:182,0
DA:196,0
DA:197,0
DA:182,0
DA:196,0
DA:197,0
DA:182,0
DA:196,0
DA:197,0
end_of_record
SF:/usr/include/c++/11/bits/stl_algobase.h
FN:313,_ZSt12__niter_baseIP4EdgeET_S2_
FNDA:0,_ZSt12__niter_baseIP4EdgeET_S2_
FN:335,_ZSt12__niter_wrapIP4EdgeET_RKS2_S2_
FNDA:8,_ZSt12__niter_wrapIP4EdgeET_RKS2_S2_
FN:420,_ZNSt11__copy_moveILb0ELb1ESt26random_access_iterator_tagE8__copy_mI4EdgeEEPT_PKS4_S7_S5_
FNDA:8,_ZNSt11__copy_moveILb0ELb1ESt26random_access_iterator_tagE8__copy_mI4EdgeEEPT_PKS4_S7_S5_
FN:486,_ZSt14__copy_move_a2ILb0EPK4EdgePS0_ET1_T0_S5_S4_
FNDA:8,_ZSt14__copy_move_a2ILb0EPK4EdgePS0_ET1_T0_S5_S4_
FN:521,_ZSt14__copy_move_a1ILb0EPK4EdgePS0_ET1_T0_S5_S4_
FNDA:8,_ZSt14__copy_move_a1ILb0EPK4EdgePS0_ET1_T0_S5_S4_
FN:527,_ZSt13__copy_move_aILb0EN9__gnu_cxx17__normal_iteratorIPK4EdgeSt6vectorIS2_SaIS2_EEEEPS2_ET1_T0_SB_SA_
FNDA:8,_ZSt13__copy_move_aILb0EN9__gnu_cxx17__normal_iteratorIPK4EdgeSt6vectorIS2_SaIS2_EEEEPS2_ET1_T0_SB_SA_
FN:611,_ZSt4copyIN9__gnu_cxx17__normal_iteratorIPK4EdgeSt6vectorIS2_SaIS2_EEEEPS2_ET0_T_SB_SA_
FNDA:8,_ZSt4copyIN9__gnu_cxx17__normal_iteratorIPK4EdgeSt6vectorIS2_SaIS2_EEEEPS2_ET0_T_SB_SA_
DA:313,0
DA:315,0
DA:335,8
DA:336,8
DA:420,8
DA:429,8
DA:430,8
DA:431,8
DA:432,8
DA:486,8
DA:495,8
DA:521,8
DA:522,8
DA:527,8
DA:529,8
DA:532,8
DA:611,8
DA:620,8
end_of_record
SF:/home/eladubuntu/Git Projects/OS_2024-FINAL_PROJECT_MST/Tree.hpp
FN:24,_ZN4TreeC2ESt6vectorI4EdgeSaIS1_EE
FNDA:4,_ZN4TreeC2ESt6vectorI4EdgeSaIS1_EE
DA:24,4
end_of_record
SF:/home/eladubuntu/Git Projects/OS_2024-FINAL_PROJECT_MST/MSTFactory.cpp
FN:3,_ZN10MSTFactory11setStrategyEP11MSTStrategy
FNDA:4,_ZN10MSTFactory11setStrategyEP11MSTStrategy
FN:12,_ZN10MSTFactory9createMSTERSt10unique_ptrI5GraphSt14default_deleteIS1_EE
FNDA:4,_ZN10MSTFactory9createMSTERSt10unique_ptrI5GraphSt14default_deleteIS1_EE
DA:3,4
DA:5,4
DA:7,3
DA:9,4
DA:10,4
DA:12,4
DA:14,4
DA:15,8
DA:16,4
end_of_record
SF:/usr/include/c++/11/bits/move.h
FN:49,_ZSt11__addressofISt6vectorIiSaIiEEEPT_RS3_
FNDA:0,_ZSt11__addressofISt6vectorIiSaIiEEEPT_RS3_
FN:49,_ZSt11__addressofISt6vectorI4EdgeSaIS1_EEEPT_RS4_
FNDA:0,_ZSt11__addressofISt6vectorI4EdgeSaIS1_EEEPT_RS4_
FN:77,_ZSt7forwardIRSt6vectorI4EdgeSaIS1_EEEOT_RNSt16remove_referenceIS5_E4typeE
FNDA:4,_ZSt7forwardIRSt6vectorI4EdgeSaIS1_EEEOT_RNSt16remove_referenceIS5_E4typeE
FN:77,_ZSt7forwardISt14default_deleteI11MSTStrategyEEOT_RNSt16remove_referenceIS3_E4typeE
FNDA:4,_ZSt7forwardISt14default_deleteI11MSTStrategyEEOT_RNSt16remove_referenceIS3_E4typeE
FN:104,_ZSt4moveIRP11MSTStrategyEONSt16remove_referenceIT_E4typeEOS4_
FNDA:0,_ZSt4moveIRP11MSTStrategyEONSt16remove_referenceIT_E4typeEOS4_
DA:49,0
DA:50,0
DA:49,0
DA:50,0
DA:77,4
DA:78,4
DA:77,4
DA:78,4
DA:104,0
DA:105,0
end_of_record
SF:/usr/include/c++/11/ext/new_allocator.h
FN:79,_ZN9__gnu_cxx13new_allocatorISt6vectorIiSaIiEEEC2Ev
FNDA:4,_ZN9__gnu_cxx13new_allocatorISt6vectorIiSaIiEEEC2Ev
FN:79,_ZN9__gnu_cxx13new_allocatorISt6vectorI4EdgeSaIS2_EEEC2Ev
FNDA:0,_ZN9__gnu_cxx13new_allocatorISt6vectorI4EdgeSaIS2_EEEC2Ev
FN:82,_ZN9__gnu_cxx13new_allocatorI4EdgeEC2ERKS2_
FNDA:0,_ZN9__gnu_cxx13new_allocatorI4EdgeEC2ERKS2_
FN:89,_ZN9__gnu_cxx13new_allocatorI4EdgeED2Ev
FNDA:0,_ZN9__gnu_cxx13new_allocatorI4EdgeED2Ev
FN:89,_ZN9__gnu_cxx13new_allocatorIiED2Ev
FNDA:0,_ZN9__gnu_cxx13new_allocatorIiED2Ev
FN:89,_ZN9__gnu_cxx13new_allocatorISt6vectorIiSaIiEEED2Ev
FNDA:0,_ZN9__gnu_cxx13new_allocatorISt6vectorIiSaIiEEED2Ev
FN:89,_ZN9__gnu_cxx13new_allocatorISt6vectorI4EdgeSaIS2_EEED2Ev
FNDA:0,_ZN9__gnu_cxx13new_allocatorISt6vectorI4EdgeSaIS2_EEED2Ev
FN:103,_ZN9__gnu_cxx13new_allocatorI4EdgeE8allocateEmPKv
FNDA:0,_ZN9__gnu_cxx13new_allocatorI4EdgeE8allocateEmPKv
FN:132,_ZN9__gnu_cxx13new_allocatorIiE10deallocateEPim
FNDA:0,_ZN9__gnu_cxx13new_allocatorIiE10deallocateEPim
FN:132,_ZN9__gnu_cxx13new_allocatorI4EdgeE10deallocateEPS1_m
FNDA:0,_ZN9__gnu_cxx13new_allocatorI4EdgeE10deallocateEPS1_m
FN:132,_ZN9__gnu_cxx13new_allocatorISt6vectorIiSaIiEEE10deallocateEPS3_m
FNDA:0,_ZN9__gnu_cxx13new_allocatorISt6vectorIiSaIiEEE10deallocateEPS3_m
FN:132,_ZN9__gnu_cxx13new_allocatorISt6vectorI4EdgeSaIS2_EEE10deallocateEPS4_m
FNDA:0,_ZN9__gnu_cxx13new_allocatorISt6vectorI4EdgeSaIS2_EEE10deallocateEPS4_m
FN:197,_ZNK9__gnu_cxx13new_allocatorI4EdgeE11_M_max_sizeEv
FNDA:0,_ZNK9__gnu_cxx13new_allocatorI4EdgeE11_M_max_sizeEv
DA:79,4
DA:79,0
DA:82,0
DA:89,0
DA:89,0
DA:89,0
DA:89,0
DA:103,0
DA:111,0
DA:115,0
DA:116,0
DA:117,0
DA:127,0
DA:132,0
DA:145,0
DA:132,0
DA:145,0
DA:132,0
DA:145,0
DA:132,0
DA:145,0
DA:197,0
DA:200,0
end_of_record
SF:/usr/include/c++/11/bits/cpp_type_traits.h
FN:560,_ZSt12__miter_baseIN9__gnu_cxx17__normal_iteratorIPK4EdgeSt6vectorIS2_SaIS2_EEEEET_S9_
FNDA:16,_ZSt12__miter_baseIN9__gnu_cxx17__normal_iteratorIPK4EdgeSt6vectorIS2_SaIS2_EEEEET_S9_
DA:560,16
DA:561,16
end_of_record
SF:/usr/include/c++/11/tuple
FN:80,_ZNSt10_Head_baseILm1ESt14default_deleteI11MSTStrategyELb1EEC2Ev
FNDA:4,_ZNSt10_Head_baseILm1ESt14default_deleteI11MSTStrategyELb1EEC2Ev
FN:80,_ZNSt10_Head_baseILm1ESt14default_deleteI4TreeELb1EEC2Ev
FNDA:4,_ZNSt10_Head_baseILm1ESt14default_deleteI4TreeELb1EEC2Ev
FN:124,_ZNSt10_Head_baseILm1ESt14default_deleteI11MSTStrategyELb1EE7_M_headERS3_
FNDA:0,_ZNSt10_Head_baseILm1ESt14default_deleteI11MSTStrategyELb1EE7_M_headERS3_
FN:189,_ZNSt10_Head_baseILm0EP4TreeLb0EEC2Ev
FNDA:4,_ZNSt10_Head_baseILm0EP4TreeLb0EEC2Ev
FN:189,_ZNSt10_Head_baseILm0EP11MSTStrategyLb0EEC2Ev
FNDA:4,_ZNSt10_Head_baseILm0EP11MSTStrategyLb0EEC2Ev
FN:233,_ZNSt10_Head_baseILm0EP4TreeLb0EE7_M_headERS2_
FNDA:0,_ZNSt10_Head_baseILm0EP4TreeLb0EE7_M_headERS2_
FN:233,_ZNSt10_Head_baseILm0EP11MSTStrategyLb0EE7_M_headERS2_
FNDA:0,_ZNSt10_Head_baseILm0EP11MSTStrategyLb0EE7_M_headERS2_
FN:236,_ZNSt10_Head_baseILm0EP5GraphLb0EE7_M_headERKS2_
FNDA:0,_ZNSt10_Head_baseILm0EP5GraphLb0EE7_M_headERKS2_
FN:236,_ZNSt10_Head_baseILm0EP11MSTStrategyLb0EE7_M_headERKS2_
FNDA:8,_ZNSt10_Head_baseILm0EP11MSTStrategyLb0EE7_M_headERKS2_
FN:268,_ZNSt11_Tuple_implILm0EJP4TreeSt14default_deleteIS0_EEE7_M_headERS4_
FNDA:0,_ZNSt11_Tuple_implILm0EJP4TreeSt14default_deleteIS0_EEE7_M_headERS4_
FN:268,_ZNSt11_Tuple_implILm0EJP11MSTStrategySt14default_deleteIS0_EEE7_M_headERS4_
FNDA:0,_ZNSt11_Tuple_implILm0EJP11MSTStrategySt14default_deleteIS0_EEE7_M_headERS4_
FN:271,_ZNSt11_Tuple_implILm0EJP5GraphSt14default_deleteIS0_EEE7_M_headERKS4_
FNDA:0,_ZNSt11_Tuple_implILm0EJP5GraphSt14default_deleteIS0_EEE7_M_headERKS4_
FN:271,_ZNSt11_Tuple_implILm0EJP11MSTStrategySt14default_deleteIS0_EEE7_M_headERKS4_
FNDA:8,_ZNSt11_Tuple_implILm0EJP11MSTStrategySt14default_deleteIS0_EEE7_M_headERKS4_
FN:279,_ZNSt11_Tuple_implILm0EJP11MSTStrategySt14default_deleteIS0_EEEC2Ev
FNDA:4,_ZNSt11_Tuple_implILm0EJP11MSTStrategySt14default_deleteIS0_EEEC2Ev
FN:279,_ZNSt11_Tuple_implILm0EJP4TreeSt14default_deleteIS0_EEEC2Ev
FNDA:4,_ZNSt11_Tuple_implILm0EJP4TreeSt14default_deleteIS0_EEEC2Ev
FN:424,_ZNSt11_Tuple_implILm1EJSt14default_deleteI11MSTStrategyEEE7_M_headERS3_
FNDA:0,_ZNSt11_Tuple_implILm1EJSt14default_deleteI11MSTStrategyEEE7_M_headERS3_
FN:430,_ZNSt11_Tuple_implILm1EJSt14default_deleteI11MSTStrategyEEEC2Ev
FNDA:4,_ZNSt11_Tuple_implILm1EJSt14default_deleteI11MSTStrategyEEEC2Ev
FN:430,_ZNSt11_Tuple_implILm1EJSt14default_deleteI4TreeEEEC2Ev
FNDA:4,_ZNSt11_Tuple_implILm1EJSt14default_deleteI4TreeEEEC2Ev
FN:1049,_ZNSt5tupleIJP4TreeSt14default_deleteIS0_EEEC2ILb1ELb1EEEv
FNDA:4,_ZNSt5tupleIJP4TreeSt14default_deleteIS0_EEEC2ILb1ELb1EEEv
FN:1049,_ZNSt5tupleIJP11MSTStrategySt14default_deleteIS0_EEEC2ILb1ELb1EEEv
FNDA:4,_ZNSt5tupleIJP11MSTStrategySt14default_deleteIS0_EEEC2ILb1ELb1EEEv
FN:1377,_ZSt12__get_helperILm0EP4TreeJSt14default_deleteIS0_EEERT0_RSt11_Tuple_implIXT_EJS4_DpT1_EE
FNDA:0,_ZSt12__get_helperILm0EP4TreeJSt14default_deleteIS0_EEERT0_RSt11_Tuple_implIXT_EJS4_DpT1_EE
FN:1377,_ZSt12__get_helperILm1ESt14default_deleteI11MSTStrategyEJEERT0_RSt11_Tuple_implIXT_EJS3_DpT1_EE
FNDA:0,_ZSt12__get_helperILm1ESt14default_deleteI11MSTStrategyEJEERT0_RSt11_Tuple_implIXT_EJS3_DpT1_EE
FN:1377,_ZSt12__get_helperILm0EP11MSTStrategyJSt14default_deleteIS0_EEERT0_RSt11_Tuple_implIXT_EJS4_DpT1_EE
FNDA:0,_ZSt12__get_helperILm0EP11MSTStrategyJSt14default_deleteIS0_EEERT0_RSt11_Tuple_implIXT_EJS4_DpT1_EE
FN:1382,_ZSt12__get_helperILm0EP11MSTStrategyJSt14default_deleteIS0_EEERKT0_RKSt11_Tuple_implIXT_EJS4_DpT1_EE
FNDA:8,_ZSt12__get_helperILm0EP11MSTStrategyJSt14default_deleteIS0_EEERKT0_RKSt11_Tuple_implIXT_EJS4_DpT1_EE
FN:1382,_ZSt12__get_helperILm0EP5GraphJSt14default_deleteIS0_EEERKT0_RKSt11_Tuple_implIXT_EJS4_DpT1_EE
FNDA:0,_ZSt12__get_helperILm0EP5GraphJSt14default_deleteIS0_EEERKT0_RKSt11_Tuple_implIXT_EJS4_DpT1_EE
FN:1393,_ZSt3getILm0EJP4TreeSt14default_deleteIS0_EEERNSt13tuple_elementIXT_ESt5tupleIJDpT0_EEE4typeERS8_
FNDA:0,_ZSt3getILm0EJP4TreeSt14default_deleteIS0_EEERNSt13tuple_elementIXT_ESt5tupleIJDpT0_EEE4typeERS8_
FN:1393,_ZSt3getILm1EJP11MSTStrategySt14default_deleteIS0_EEERNSt13tuple_elementIXT_ESt5tupleIJDpT0_EEE4typeERS8_
FNDA:0,_ZSt3getILm1EJP11MSTStrategySt14default_deleteIS0_EEERNSt13tuple_elementIXT_ESt5tupleIJDpT0_EEE4typeERS8_
FN:1393,_ZSt3getILm0EJP11MSTStrategySt14default_deleteIS0_EEERNSt13tuple_elementIXT_ESt5tupleIJDpT0_EEE4typeERS8_
FNDA:0,_ZSt3getILm0EJP11MSTStrategySt14default_deleteIS0_EEERNSt13tuple_elementIXT_ESt5tupleIJDpT0_EEE4typeERS8_
FN:1399,_ZSt3getILm0EJP5GraphSt14default_deleteIS0_EEERKNSt13tuple_elementIXT_ESt5tupleIJDpT0_EEE4typeERKS8_
FNDA:0,_ZSt3getILm0EJP5GraphSt14default_deleteIS0_EEERKNSt13tuple_elementIXT_ESt5tupleIJDpT0_EEE4typeERKS8_
FN:1399,_ZSt3getILm0EJP11MSTStrategySt14default_deleteIS0_EEERKNSt13tuple_elementIXT_ESt5tupleIJDpT0_EEE4typeERKS8_
FNDA:8,_ZSt3getILm0EJP11MSTStrategySt14default_deleteIS0_EEERKNSt13tuple_elementIXT_ESt5tupleIJDpT0_EEE4typeERKS8_
DA:80,4
DA:81,4
DA:80,4
DA:81,4
DA:124,0
DA:189,4
DA:190,4
DA:189,4
DA:190,4
DA:233,0
DA:233,0
DA:236,0
DA:236,8
DA:268,0
DA:268,0
DA:271,0
DA:271,8
DA:279,4
DA:280,4
DA:279,4
DA:280,4
DA:424,0
DA:430,4
DA:431,4
DA:430,4
DA:431,4
DA:1049,4
DA:1051,4
DA:1049,4
DA:1051,4
DA:1377,0
DA:1378,0
DA:1377,0
DA:1378,0
DA:1377,0
DA:1378,0
DA:1382,0
DA:1383,0
DA:1382,8
DA:1383,8
DA:1393,0
DA:1394,0
DA:1393,0
DA:1394,0
DA:1393,0
DA:1394,0
DA:1399,0
DA:1400,0
DA:1399,8
DA:1400,8
end_of_record
SF:/usr/include/c++/11/bits/allocator.h
FN:156,_ZNSaISt6vectorIiSaIiEEEC2Ev
FNDA:4,_ZNSaISt6vectorIiSaIiEEEC2Ev
FN:156,_ZNSaISt6vectorI4EdgeSaIS0_EEEC2Ev
FNDA:0,_ZNSaISt6vectorI4EdgeSaIS0_EEEC2Ev
FN:159,_ZNSaI4EdgeEC2ERKS0_
FNDA:0,_ZNSaI4EdgeEC2ERKS0_
FN:174,_ZNSaI4EdgeED2Ev
FNDA:0,_ZNSaI4EdgeED2Ev
FN:174,_ZNSaIiED2Ev
FNDA:0,_ZNSaIiED2Ev
FN:174,_ZNSaISt6vectorIiSaIiEEED2Ev
FNDA:0,_ZNSaISt6vectorIiSaIiEEED2Ev
FN:174,_ZNSaISt6vectorI4EdgeSaIS0_EEED2Ev
FNDA:0,_ZNSaISt6vectorI4EdgeSaIS0_EEED2Ev
DA:156,4
DA:156,0
DA:159,0
DA:160,0
DA:174,0
DA:174,0
DA:174,0
DA:174,0
end_of_record
SF:/usr/include/c++/11/iostream
end_of_record
SF:/usr/include/c++/11/bits/unique_ptr.h
FN:79,_ZNKSt14default_deleteI11MSTStrategyEclEPS0_
FNDA:0,_ZNKSt14default_deleteI11MSTStrategyEclEPS0_
FN:155,_ZNSt15__uniq_ptr_implI4TreeSt14default_deleteIS0_EEC2EPS0_
FNDA:4,_ZNSt15__uniq_ptr_implI4TreeSt14default_deleteIS0_EEC2EPS0_
FN:155,_ZNSt15__uniq_ptr_implI11MSTStrategySt14default_deleteIS0_EEC2EPS0_
FNDA:4,_ZNSt15__uniq_ptr_implI11MSTStrategySt14default_deleteIS0_EEC2EPS0_
FN:165,_ZNSt15__uniq_ptr_implI11MSTStrategySt14default_deleteIS0_EEaSEOS3_
FNDA:4,_ZNSt15__uniq_ptr_implI11MSTStrategySt14default_deleteIS0_EEaSEOS3_
FN:172,_ZNSt15__uniq_ptr_implI4TreeSt14default_deleteIS0_EE6_M_ptrEv
FNDA:0,_ZNSt15__uniq_ptr_implI4TreeSt14default_deleteIS0_EE6_M_ptrEv
FN:172,_ZNSt15__uniq_ptr_implI11MSTStrategySt14default_deleteIS0_EE6_M_ptrEv
FNDA:0,_ZNSt15__uniq_ptr_implI11MSTStrategySt14default_deleteIS0_EE6_M_ptrEv
FN:173,_ZNKSt15__uniq_ptr_implI5GraphSt14default_deleteIS0_EE6_M_ptrEv
FNDA:0,_ZNKSt15__uniq_ptr_implI5GraphSt14default_deleteIS0_EE6_M_ptrEv
FN:173,_ZNKSt15__uniq_ptr_implI11MSTStrategySt14default_deleteIS0_EE6_M_ptrEv
FNDA:8,_ZNKSt15__uniq_ptr_implI11MSTStrategySt14default_deleteIS0_EE6_M_ptrEv
FN:174,_ZNSt15__uniq_ptr_implI11MSTStrategySt14default_deleteIS0_EE10_M_deleterEv
FNDA:0,_ZNSt15__uniq_ptr_implI11MSTStrategySt14default_deleteIS0_EE10_M_deleterEv
FN:177,_ZNSt15__uniq_ptr_implI11MSTStrategySt14default_deleteIS0_EE5resetEPS0_
FNDA:0,_ZNSt15__uniq_ptr_implI11MSTStrategySt14default_deleteIS0_EE5resetEPS0_
FN:185,_ZNSt15__uniq_ptr_implI11MSTStrategySt14default_deleteIS0_EE7releaseEv
FNDA:4,_ZNSt15__uniq_ptr_implI11MSTStrategySt14default_deleteIS0_EE7releaseEv
FN:212,_ZNSt15__uniq_ptr_dataI11MSTStrategySt14default_deleteIS0_ELb1ELb1EEaSEOS3_
FNDA:4,_ZNSt15__uniq_ptr_dataI11MSTStrategySt14default_deleteIS0_ELb1ELb1EEaSEOS3_
FN:281,_ZNSt10unique_ptrI4TreeSt14default_deleteIS0_EEC2IS2_vEEPS0_
FNDA:4,_ZNSt10unique_ptrI4TreeSt14default_deleteIS0_EEC2IS2_vEEPS0_
FN:281,_ZNSt10unique_ptrI11MSTStrategySt14default_deleteIS0_EEC2IS2_vEEPS0_
FNDA:4,_ZNSt10unique_ptrI11MSTStrategySt14default_deleteIS0_EEC2IS2_vEEPS0_
FN:355,_ZNSt10unique_ptrI11MSTStrategySt14default_deleteIS0_EED2Ev
FNDA:0,_ZNSt10unique_ptrI11MSTStrategySt14default_deleteIS0_EED2Ev
FN:371,_ZNSt10unique_ptrI11MSTStrategySt14default_deleteIS0_EEaSEOS3_
FNDA:4,_ZNSt10unique_ptrI11MSTStrategySt14default_deleteIS0_EEaSEOS3_
FN:405,_ZNKSt10unique_ptrI5GraphSt14default_deleteIS0_EEdeEv
FNDA:4,_ZNKSt10unique_ptrI5GraphSt14default_deleteIS0_EEdeEv
FN:413,_ZNKSt10unique_ptrI11MSTStrategySt14default_deleteIS0_EEptEv
FNDA:4,_ZNKSt10unique_ptrI11MSTStrategySt14default_deleteIS0_EEptEv
FN:421,_ZNKSt10unique_ptrI5GraphSt14default_deleteIS0_EE3getEv
FNDA:0,_ZNKSt10unique_ptrI5GraphSt14default_deleteIS0_EE3getEv
FN:421,_ZNKSt10unique_ptrI11MSTStrategySt14default_deleteIS0_EE3getEv
FNDA:8,_ZNKSt10unique_ptrI11MSTStrategySt14default_deleteIS0_EE3getEv
FN:426,_ZNSt10unique_ptrI11MSTStrategySt14default_deleteIS0_EE11get_deleterEv
FNDA:0,_ZNSt10unique_ptrI11MSTStrategySt14default_deleteIS0_EE11get_deleterEv
FN:435,_ZNKSt10unique_ptrI11MSTStrategySt14default_deleteIS0_EEcvbEv
FNDA:4,_ZNKSt10unique_ptrI11MSTStrategySt14default_deleteIS0_EEcvbEv
FN:452,_ZNSt10unique_ptrI11MSTStrategySt14default_deleteIS0_EE5resetEPS0_
FNDA:0,_ZNSt10unique_ptrI11MSTStrategySt14default_deleteIS0_EE5resetEPS0_
FN:781,_ZStneI11MSTStrategySt14default_deleteIS0_EEbRKSt10unique_ptrIT_T0_EDn
FNDA:4,_ZStneI11MSTStrategySt14default_deleteIS0_EEbRKSt10unique_ptrIT_T0_EDn
FN:961,_ZSt11make_uniqueI4TreeJRSt6vectorI4EdgeSaIS2_EEEENSt9_MakeUniqIT_E15__single_objectEDpOT0_
FNDA:4,_ZSt11make_uniqueI4TreeJRSt6vectorI4EdgeSaIS2_EEEENSt9_MakeUniqIT_E15__single_objectEDpOT0_
DA:79,0
DA:85,0
DA:86,0
DA:155,4
DA:155,4
DA:165,4
DA:167,4
DA:168,4
DA:169,4
DA:172,0
DA:172,0
DA:173,0
DA:173,8
DA:174,0
DA:177,0
DA:179,0
DA:180,0
DA:181,0
DA:182,0
DA:183,0
DA:185,4
DA:187,4
DA:188,4
DA:189,4
DA:212,4
DA:281,4
DA:282,4
DA:283,4
DA:281,4
DA:282,4
DA:283,4
DA:355,0
DA:359,0
DA:360,0
DA:361,0
DA:362,0
DA:363,0
DA:371,4
DA:405,4
DA:407,4
DA:408,4
DA:413,4
DA:416,4
DA:421,0
DA:422,0
DA:421,8
DA:422,8
DA:426,0
DA:427,0
DA:435,4
DA:436,4
DA:452,0
DA:456,0
DA:457,0
DA:781,4
DA:782,4
DA:961,4
DA:962,4
end_of_record
SF:/usr/include/c++/11/bits/alloc_traits.h
FN:463,_ZNSt16allocator_traitsISaI4EdgeEE8allocateERS1_m
FNDA:0,_ZNSt16allocator_traitsISaI4EdgeEE8allocateERS1_m
FN:495,_ZNSt16allocator_traitsISaIiEE10deallocateERS0_Pim
FNDA:0,_ZNSt16allocator_traitsISaIiEE10deallocateERS0_Pim
FN:495,_ZNSt16allocator_traitsISaI4EdgeEE10deallocateERS1_PS0_m
FNDA:0,_ZNSt16allocator_traitsISaI4EdgeEE10deallocateERS1_PS0_m
FN:495,_ZNSt16allocator_traitsISaISt6vectorIiSaIiEEEE10deallocateERS3_PS2_m
FNDA:0,_ZNSt16allocator_traitsISaISt6vectorIiSaIiEEEE10deallocateERS3_PS2_m
FN:495,_ZNSt16allocator_traitsISaISt6vectorI4EdgeSaIS1_EEEE10deallocateERS4_PS3_m
FNDA:0,_ZNSt16allocator_traitsISaISt6vectorI4EdgeSaIS1_EEEE10deallocateERS4_PS3_m
FN:562,_ZNSt16allocator_traitsISaI4EdgeEE37select_on_container_copy_constructionERKS1_
FNDA:8,_ZNSt16allocator_traitsISaI4EdgeEE37select_on_container_copy_constructionERKS1_
FN:845,_ZSt8_DestroyIPiiEvT_S1_RSaIT0_E
FNDA:0,_ZSt8_DestroyIPiiEvT_S1_RSaIT0_E
FN:845,_ZSt8_DestroyIP4EdgeS0_EvT_S2_RSaIT0_E
FNDA:0,_ZSt8_DestroyIP4EdgeS0_EvT_S2_RSaIT0_E
FN:845,_ZSt8_DestroyIPSt6vectorIiSaIiEES2_EvT_S4_RSaIT0_E
FNDA:0,_ZSt8_DestroyIPSt6vectorIiSaIiEES2_EvT_S4_RSaIT0_E
FN:845,_ZSt8_DestroyIPSt6vectorI4EdgeSaIS1_EES3_EvT_S5_RSaIT0_E
FNDA:0,_ZSt8_DestroyIPSt6vectorI4EdgeSaIS1_EES3_EvT_S5_RSaIT0_E
DA:463,0
DA:464,0
DA:495,0
DA:496,0
DA:495,0
DA:496,0
DA:495,0
DA:496,0
DA:495,0
DA:496,0
DA:562,8
DA:563,8
DA:845,0
DA:848,0
DA:849,0
DA:845,0
DA:848,0
DA:849,0
DA:845,0
DA:848,0
DA:849,0
DA:845,0
DA:848,0
DA:849,0
end_of_record
SF:/usr/include/c++/11/bits/stl_iterator.h
FN:1027,_ZN9__gnu_cxx17__normal_iteratorIPK4EdgeSt6vectorIS1_SaIS1_EEEC2ERKS3_
FNDA:0,_ZN9__gnu_cxx17__normal_iteratorIPK4EdgeSt6vectorIS1_SaIS1_EEEC2ERKS3_
FN:1105,_ZNK9__gnu_cxx17__normal_iteratorIPK4EdgeSt6vectorIS1_SaIS1_EEE4baseEv
FNDA:0,_ZNK9__gnu_cxx17__normal_iteratorIPK4EdgeSt6vectorIS1_SaIS1_EEE4baseEv
FN:1291,_ZSt12__niter_baseIPK4EdgeSt6vectorIS0_SaIS0_EEET_N9__gnu_cxx17__normal_iteratorIS6_T0_EE
FNDA:16,_ZSt12__niter_baseIPK4EdgeSt6vectorIS0_SaIS0_EEET_N9__gnu_cxx17__normal_iteratorIS6_T0_EE
DA:1027,0
DA:1028,0
DA:1105,0
DA:1106,0
DA:1291,16
DA:1293,16
end_of_record
TN:
SF:/usr/include/c++/11/bits/stl_construct.h
FN:146,_ZSt8_DestroyISt8functionIFvvEEEvPT_
FNDA:0,_ZSt8_DestroyISt8functionIFvvEEEvPT_
FN:160,_ZNSt12_Destroy_auxILb0EE9__destroyIPSt8functionIFvvEEEEvT_S6_
FNDA:0,_ZNSt12_Destroy_auxILb0EE9__destroyIPSt8functionIFvvEEEEvT_S6_
FN:182,_ZSt8_DestroyIPSt8functionIFvvEEEvT_S4_
FNDA:0,_ZSt8_DestroyIPSt8functionIFvvEEEvT_S4_
DA:146,0
DA:151,0
DA:153,0
DA:160,0
DA:162,0
DA:163,0
DA:164,0
DA:182,0
DA:196,0
DA:197,0
end_of_record
SF:/usr/include/c++/11/bits/std_thread.h
FN:86,_ZNSt6thread2idC2Ev
FNDA:0,_ZNSt6thread2idC2Ev
FN:149,_ZNSt6threadD2Ev
FNDA:0,_ZNSt6threadD2Ev
FN:175,_ZNKSt6thread8joinableEv
FNDA:0,_ZNKSt6thread8joinableEv
FN:287,_ZSteqNSt6thread2idES0_
FNDA:0,_ZSteqNSt6thread2idES0_
DA:86,0
DA:149,0
DA:151,0
DA:152,0
DA:153,0
DA:175,0
DA:176,0
DA:287,0
DA:293,0
end_of_record
SF:/usr/include/c++/11/condition_variable
FN:100,_ZNSt18condition_variable4waitIZN12ActiveObject3runEvEUlvE_EEvRSt11unique_lockISt5mutexET_
FNDA:43,_ZNSt18condition_variable4waitIZN12ActiveObject3runEvEUlvE_EEvRSt11unique_lockISt5mutexET_
DA:100,43
DA:102,75
DA:103,32
DA:104,43
end_of_record
SF:/usr/include/c++/11/bits/stl_queue.h
FN:203,_ZNKSt5queueISt8functionIFvvEESt5dequeIS2_SaIS2_EEE5emptyEv
FNDA:75,_ZNKSt5queueISt8functionIFvvEESt5dequeIS2_SaIS2_EEE5emptyEv
FN:216,_ZNSt5queueISt8functionIFvvEESt5dequeIS2_SaIS2_EEE5frontEv
FNDA:36,_ZNSt5queueISt8functionIFvvEESt5dequeIS2_SaIS2_EEE5frontEv
FN:298,_ZNSt5queueISt8functionIFvvEESt5dequeIS2_SaIS2_EEE3popEv
FNDA:36,_ZNSt5queueISt8functionIFvvEESt5dequeIS2_SaIS2_EEE3popEv
DA:203,75
DA:204,75
DA:216,36
DA:219,36
DA:298,36
DA:301,36
DA:302,36
end_of_record
SF:/home/eladubuntu/Git Projects/OS_2024-FINAL_PROJECT_MST/ActiveObject.cpp
FN:4,_ZN12ActiveObjectD2Ev
FNDA:7,_ZN12ActiveObjectD2Ev
FN:17,_ZN12ActiveObject3runEv
FNDA:7,_ZN12ActiveObject3runEv
FN:25,_ZZN12ActiveObject3runEvENKUlvE_clEv
FNDA:75,_ZZN12ActiveObject3runEvENKUlvE_clEv
DA:4,7
DA:7,7
DA:10,7
DA:11,7
DA:12,7
DA:14,7
DA:15,7
DA:17,43
DA:22,43
DA:24,43
DA:25,118
DA:26,50
DA:27,36
DA:28,36
DA:29,43
DA:30,36
DA:32,79
end_of_record
SF:/usr/include/c++/11/bits/allocator.h
FN:169,_ZNSaIPSt8functionIFvvEEEC2IS1_EERKSaIT_E
FNDA:0,_ZNSaIPSt8functionIFvvEEEC2IS1_EERKSaIT_E
FN:174,_ZNSaIPSt8functionIFvvEEED2Ev
FNDA:0,_ZNSaIPSt8functionIFvvEEED2Ev
FN:174,_ZNSaISt8functionIFvvEEED2Ev
FNDA:0,_ZNSaISt8functionIFvvEEED2Ev
DA:169,0
DA:174,0
DA:174,0
end_of_record
SF:/usr/include/c++/11/iostream
end_of_record
SF:/usr/include/c++/11/bits/alloc_traits.h
FN:495,_ZNSt16allocator_traitsISaISt8functionIFvvEEEE10deallocateERS3_PS2_m
FNDA:0,_ZNSt16allocator_traitsISaISt8functionIFvvEEEE10deallocateERS3_PS2_m
FN:495,_ZNSt16allocator_traitsISaIPSt8functionIFvvEEEE10deallocateERS4_PS3_m
FNDA:0,_ZNSt16allocator_traitsISaIPSt8functionIFvvEEEE10deallocateERS4_PS3_m
FN:531,_ZNSt16allocator_traitsISaISt8functionIFvvEEEE7destroyIS2_EEvRS3_PT_
FNDA:36,_ZNSt16allocator_traitsISaISt8functionIFvvEEEE7destroyIS2_EEvRS3_PT_
FN:845,_ZSt8_DestroyIPSt8functionIFvvEES2_EvT_S4_RSaIT0_E
FNDA:0,_ZSt8_DestroyIPSt8functionIFvvEES2_EvT_S4_RSaIT0_E
DA:495,0
DA:496,0
DA:495,0
DA:496,0
DA:531,36
DA:535,36
DA:539,36
DA:845,0
DA:848,0
DA:849,0
end_of_record
SF:/usr/include/c++/11/bits/deque.tcc
FN:576,_ZNSt5dequeISt8functionIFvvEESaIS2_EE16_M_pop_front_auxEv
FNDA:0,_ZNSt5dequeISt8functionIFvvEESaIS2_EE16_M_pop_front_auxEv
FN:859,_ZNSt5dequeISt8functionIFvvEESaIS2_EE19_M_destroy_data_auxESt15_Deque_iteratorIS2_RS2_PS2_ES8_
FNDA:0,_ZNSt5dequeISt8functionIFvvEESaIS2_EE19_M_destroy_data_auxESt15_Deque_iteratorIS2_RS2_PS2_ES8_
DA:576,0
DA:579,0
DA:581,0
DA:582,0
DA:583,0
DA:584,0
DA:859,0
DA:862,0
DA:863,0
DA:864,0
DA:865,0
DA:867,0
DA:869,0
DA:870,0
DA:871,0
DA:872,0
DA:875,0
DA:876,0
DA:877,0
end_of_record
SF:/usr/include/x86_64-linux-gnu/c++/11/bits/gthr-default.h
FN:300,_ZL18__gthread_active_pv
FNDA:0,_ZL18__gthread_active_pv
FN:746,_ZL20__gthread_mutex_lockP15pthread_mutex_t
FNDA:0,_ZL20__gthread_mutex_lockP15pthread_mutex_t
FN:776,_ZL22__gthread_mutex_unlockP15pthread_mutex_t
FNDA:0,_ZL22__gthread_mutex_unlockP15pthread_mutex_t
DA:300,0
DA:302,0
DA:746,0
DA:748,0
DA:749,0
DA:751,0
DA:776,0
DA:778,0
DA:779,0
DA:781,0
end_of_record
SF:/usr/include/c++/11/bits/std_mutex.h
FN:98,_ZNSt5mutex4lockEv
FNDA:0,_ZNSt5mutex4lockEv
FN:115,_ZNSt5mutex6unlockEv
FNDA:0,_ZNSt5mutex6unlockEv
FN:228,_ZNSt10lock_guardISt5mutexEC2ERS0_
FNDA:7,_ZNSt10lock_guardISt5mutexEC2ERS0_
FN:234,_ZNSt10lock_guardISt5mutexED2Ev
FNDA:7,_ZNSt10lock_guardISt5mutexED2Ev
DA:98,0
DA:100,0
DA:103,0
DA:104,0
DA:105,0
DA:115,0
DA:118,0
DA:119,0
DA:228,7
DA:229,7
DA:234,7
DA:235,7
end_of_record
SF:/usr/include/c++/11/bits/atomic_base.h
FN:104,_ZStanSt12memory_orderSt23__memory_order_modifier
FNDA:0,_ZStanSt12memory_orderSt23__memory_order_modifier
DA:104,0
DA:106,0
DA:459,0
DA:464,0
DA:465,0
DA:484,0
DA:488,0
end_of_record
SF:/usr/include/c++/11/bits/move.h
FN:49,_ZSt11__addressofISt8functionIFvvEEEPT_RS3_
FNDA:0,_ZSt11__addressofISt8functionIFvvEEEPT_RS3_
FN:49,_ZSt11__addressofISt5mutexEPT_RS1_
FNDA:0,_ZSt11__addressofISt5mutexEPT_RS1_
FN:104,_ZSt4moveIRPFvRKSt9_Any_dataEEONSt16remove_referenceIT_E4typeEOS7_
FNDA:108,_ZSt4moveIRPFvRKSt9_Any_dataEEONSt16remove_referenceIT_E4typeEOS7_
FN:104,_ZSt4moveIRPFbRSt9_Any_dataRKS0_St18_Manager_operationEEONSt16remove_referenceIT_E4typeEOS9_
FNDA:0,_ZSt4moveIRPFbRSt9_Any_dataRKS0_St18_Manager_operationEEONSt16remove_referenceIT_E4typeEOS9_
FN:104,_ZSt4moveIRSt9_Any_dataEONSt16remove_referenceIT_E4typeEOS3_
FNDA:0,_ZSt4moveIRSt9_Any_dataEONSt16remove_referenceIT_E4typeEOS3_
FN:104,_ZSt4moveIRSt8functionIFvvEEEONSt16remove_referenceIT_E4typeEOS5_
FNDA:72,_ZSt4moveIRSt8functionIFvvEEEONSt16remove_referenceIT_E4typeEOS5_
FN:196,_ZSt4swapIPFvRKSt9_Any_dataEENSt9enable_ifIXsrSt6__and_IJSt6__not_ISt15__is_tuple_likeIT_EESt21is_move_constructibleIS9_ESt18is_move_assignableIS9_EEE5valueEvE4typeERS9_SJ_
FNDA:36,_ZSt4swapIPFvRKSt9_Any_dataEENSt9enable_ifIXsrSt6__and_IJSt6__not_ISt15__is_tuple_likeIT_EESt21is_move_constructibleIS9_ESt18is_move_assignableIS9_EEE5valueEvE4typeERS9_SJ_
FN:196,_ZSt4swapIPFbRSt9_Any_dataRKS0_St18_Manager_operationEENSt9enable_ifIXsrSt6__and_IJSt6__not_ISt15__is_tuple_likeIT_EESt21is_move_constructibleISB_ESt18is_move_assignableISB_EEE5valueEvE4typeERSB_SL_
FNDA:0,_ZSt4swapIPFbRSt9_Any_dataRKS0_St18_Manager_operationEENSt9enable_ifIXsrSt6__and_IJSt6__not_ISt15__is_tuple_likeIT_EESt21is_move_constructibleISB_ESt18is_move_assignableISB_EEE5valueEvE4typeERSB_SL_
FN:196,_ZSt4swapISt9_Any_dataENSt9enable_ifIXsrSt6__and_IJSt6__not_ISt15__is_tuple_likeIT_EESt21is_move_constructibleIS5_ESt18is_move_assignableIS5_EEE5valueEvE4typeERS5_SF_
FNDA:0,_ZSt4swapISt9_Any_dataENSt9enable_ifIXsrSt6__and_IJSt6__not_ISt15__is_tuple_likeIT_EESt21is_move_constructibleIS5_ESt18is_move_assignableIS5_EEE5valueEvE4typeERS5_SF_
DA:49,0
DA:50,0
DA:49,0
DA:50,0
DA:104,108
DA:105,108
DA:104,0
DA:105,0
DA:104,0
DA:105,0
DA:104,72
DA:105,72
DA:196,36
DA:204,36
DA:205,36
DA:206,36
DA:207,36
DA:196,0
DA:204,0
DA:205,0
DA:206,0
DA:207,0
DA:196,0
DA:204,0
DA:205,0
DA:206,0
DA:207,0
end_of_record
SF:/usr/include/c++/11/ext/new_allocator.h
FN:79,_ZN9__gnu_cxx13new_allocatorIPSt8functionIFvvEEEC2Ev
FNDA:0,_ZN9__gnu_cxx13new_allocatorIPSt8functionIFvvEEEC2Ev
FN:89,_ZN9__gnu_cxx13new_allocatorIPSt8functionIFvvEEED2Ev
FNDA:0,_ZN9__gnu_cxx13new_allocatorIPSt8functionIFvvEEED2Ev
FN:89,_ZN9__gnu_cxx13new_allocatorISt8functionIFvvEEED2Ev
FNDA:0,_ZN9__gnu_cxx13new_allocatorISt8functionIFvvEEED2Ev
FN:132,_ZN9__gnu_cxx13new_allocatorISt8functionIFvvEEE10deallocateEPS3_m
FNDA:0,_ZN9__gnu_cxx13new_allocatorISt8functionIFvvEEE10deallocateEPS3_m
FN:132,_ZN9__gnu_cxx13new_allocatorIPSt8functionIFvvEEE10deallocateEPS4_m
FNDA:0,_ZN9__gnu_cxx13new_allocatorIPSt8functionIFvvEEE10deallocateEPS4_m
FN:166,_ZN9__gnu_cxx13new_allocatorISt8functionIFvvEEE7destroyIS3_EEvPT_
FNDA:36,_ZN9__gnu_cxx13new_allocatorISt8functionIFvvEEE7destroyIS3_EEvPT_
DA:79,0
DA:89,0
DA:89,0
DA:132,0
DA:145,0
DA:132,0
DA:145,0
DA:166,36
DA:168,36
end_of_record
SF:/usr/include/c++/11/bits/unique_lock.h
FN:66,_ZNSt11unique_lockISt5mutexEC2ERS0_
FNDA:0,_ZNSt11unique_lockISt5mutexEC2ERS0_
FN:101,_ZNSt11unique_lockISt5mutexED2Ev
FNDA:0,_ZNSt11unique_lockISt5mutexED2Ev
FN:131,_ZNSt11unique_lockISt5mutexE4lockEv
FNDA:0,_ZNSt11unique_lockISt5mutexE4lockEv
FN:189,_ZNSt11unique_lockISt5mutexE6unlockEv
FNDA:0,_ZNSt11unique_lockISt5mutexE6unlockEv
DA:66,0
DA:67,0
DA:69,0
DA:70,0
DA:71,0
DA:101,0
DA:103,0
DA:104,0
DA:105,0
DA:131,0
DA:133,0
DA:134,0
DA:135,0
DA:136,0
DA:139,0
DA:140,0
DA:142,0
DA:189,0
DA:191,0
DA:192,0
DA:193,0
DA:195,0
DA:196,0
DA:198,0
end_of_record
SF:/usr/include/c++/11/bits/std_function.h
FN:239,_ZNSt14_Function_baseC2Ev
FNDA:0,_ZNSt14_Function_baseC2Ev
FN:241,_ZNSt14_Function_baseD2Ev
FNDA:0,_ZNSt14_Function_baseD2Ev
FN:247,_ZNKSt14_Function_base8_M_emptyEv
FNDA:0,_ZNKSt14_Function_base8_M_emptyEv
FN:368,_ZNSt8functionIFvvEEC2Ev
FNDA:43,_ZNSt8functionIFvvEEC2Ev
FN:404,_ZNSt8functionIFvvEEC2EOS1_
FNDA:36,_ZNSt8functionIFvvEEC2EOS1_
FN:487,_ZNSt8functionIFvvEEaSEOS1_
FNDA:36,_ZNSt8functionIFvvEEaSEOS1_
FN:555,_ZNSt8functionIFvvEE4swapERS1_
FNDA:36,_ZNSt8functionIFvvEE4swapERS1_
FN:572,_ZNKSt8functionIFvvEEcvbEv
FNDA:36,_ZNKSt8functionIFvvEEcvbEv
FN:586,_ZNKSt8functionIFvvEEclEv
FNDA:36,_ZNKSt8functionIFvvEEclEv
DA:239,0
DA:241,0
DA:243,0
DA:244,0
DA:245,0
DA:247,0
DA:368,43
DA:369,43
DA:404,36
DA:405,36
DA:407,36
DA:409,36
DA:410,36
DA:411,36
DA:412,36
DA:414,36
DA:487,36
DA:489,36
DA:490,36
DA:555,36
DA:557,36
DA:558,36
DA:559,36
DA:560,36
DA:572,36
DA:573,36
DA:586,36
DA:588,36
DA:589,0
DA:590,36
end_of_record
SF:/usr/include/c++/11/atomic
FN:103,_ZNSt6atomicIbE5storeEbSt12memory_order
FNDA:0,_ZNSt6atomicIbE5storeEbSt12memory_order
FN:111,_ZNKSt6atomicIbE4loadESt12memory_order
FNDA:0,_ZNKSt6atomicIbE4loadESt12memory_order
DA:103,0
DA:104,0
DA:111,0
DA:112,0
end_of_record
SF:/usr/include/c++/11/bits/stl_deque.h
FN:96,_ZSt16__deque_buf_sizem
FNDA:0,_ZSt16__deque_buf_sizem
FN:131,_ZNSt15_Deque_iteratorISt8functionIFvvEERS2_PS2_E14_S_buffer_sizeEv
FNDA:0,_ZNSt15_Deque_iteratorISt8functionIFvvEERS2_PS2_E14_S_buffer_sizeEv
FN:168,_ZNSt15_Deque_iteratorISt8functionIFvvEERS2_PS2_EC2ERKS5_
FNDA:0,_ZNSt15_Deque_iteratorISt8functionIFvvEERS2_PS2_EC2ERKS5_
FN:180,_ZNKSt15_Deque_iteratorISt8functionIFvvEERS2_PS2_EdeEv
FNDA:0,_ZNKSt15_Deque_iteratorISt8functionIFvvEERS2_PS2_EdeEv
FN:260,_ZNSt15_Deque_iteratorISt8functionIFvvEERS2_PS2_E11_M_set_nodeEPS4_
FNDA:0,_ZNSt15_Deque_iteratorISt8functionIFvvEERS2_PS2_E11_M_set_nodeEPS4_
FN:268,_ZSteqRKSt15_Deque_iteratorISt8functionIFvvEERS2_PS2_ES7_
FNDA:75,_ZSteqRKSt15_Deque_iteratorISt8functionIFvvEERS2_PS2_ES7_
FN:547,_ZNSt11_Deque_baseISt8functionIFvvEESaIS2_EE19_M_get_Tp_allocatorEv
FNDA:0,_ZNSt11_Deque_baseISt8functionIFvvEESaIS2_EE19_M_get_Tp_allocatorEv
FN:551,_ZNKSt11_Deque_baseISt8functionIFvvEESaIS2_EE19_M_get_Tp_allocatorEv
FNDA:0,_ZNKSt11_Deque_baseISt8functionIFvvEESaIS2_EE19_M_get_Tp_allocatorEv
FN:555,_ZNKSt11_Deque_baseISt8functionIFvvEESaIS2_EE20_M_get_map_allocatorEv
FNDA:0,_ZNKSt11_Deque_baseISt8functionIFvvEESaIS2_EE20_M_get_map_allocatorEv
FN:566,_ZNSt11_Deque_baseISt8functionIFvvEESaIS2_EE18_M_deallocate_nodeEPS2_
FNDA:0,_ZNSt11_Deque_baseISt8functionIFvvEESaIS2_EE18_M_deallocate_nodeEPS2_
FN:580,_ZNSt11_Deque_baseISt8functionIFvvEESaIS2_EE17_M_deallocate_mapEPPS2_m
FNDA:0,_ZNSt11_Deque_baseISt8functionIFvvEESaIS2_EE17_M_deallocate_mapEPPS2_m
FN:596,_ZNSt11_Deque_baseISt8functionIFvvEESaIS2_EED2Ev
FNDA:0,_ZNSt11_Deque_baseISt8functionIFvvEESaIS2_EED2Ev
FN:674,_ZNSt11_Deque_baseISt8functionIFvvEESaIS2_EE16_M_destroy_nodesEPPS2_S6_
FNDA:0,_ZNSt11_Deque_baseISt8functionIFvvEESaIS2_EE16_M_destroy_nodesEPPS2_S6_
FN:807,_ZNSt5dequeISt8functionIFvvEESaIS2_EE14_S_buffer_sizeEv
FNDA:0,_ZNSt5dequeISt8functionIFvvEESaIS2_EE14_S_buffer_sizeEv
FN:1006,_ZNSt5dequeISt8functionIFvvEESaIS2_EED2Ev
FNDA:0,_ZNSt5dequeISt8functionIFvvEESaIS2_EED2Ev
FN:1128,_ZNSt5dequeISt8functionIFvvEESaIS2_EE5beginEv
FNDA:0,_ZNSt5dequeISt8functionIFvvEESaIS2_EE5beginEv
FN:1145,_ZNSt5dequeISt8functionIFvvEESaIS2_EE3endEv
FNDA:0,_ZNSt5dequeISt8functionIFvvEESaIS2_EE3endEv
FN:1311,_ZNKSt5dequeISt8functionIFvvEESaIS2_EE5emptyEv
FNDA:75,_ZNKSt5dequeISt8functionIFvvEESaIS2_EE5emptyEv
FN:1405,_ZNSt5dequeISt8functionIFvvEESaIS2_EE5frontEv
FNDA:36,_ZNSt5dequeISt8functionIFvvEESaIS2_EE5frontEv
FN:1532,_ZNSt5dequeISt8functionIFvvEESaIS2_EE9pop_frontEv
FNDA:36,_ZNSt5dequeISt8functionIFvvEESaIS2_EE9pop_frontEv
FN:2045,_ZNSt5dequeISt8functionIFvvEESaIS2_EE15_M_destroy_dataESt15_Deque_iteratorIS2_RS2_PS2_ES8_RKS3_
FNDA:0,_ZNSt5dequeISt8functionIFvvEESaIS2_EE15_M_destroy_dataESt15_Deque_iteratorIS2_RS2_PS2_ES8_RKS3_
DA:96,0
DA:98,0
DA:131,0
DA:132,0
DA:168,0
DA:169,0
DA:170,0
DA:180,0
DA:181,0
DA:260,0
DA:262,0
DA:263,0
DA:264,0
DA:265,0
DA:268,75
DA:269,75
DA:547,0
DA:548,0
DA:551,0
DA:552,0
DA:555,0
DA:556,0
DA:566,0
DA:569,0
DA:570,0
DA:580,0
DA:582,0
DA:583,0
DA:584,0
DA:596,0
DA:599,0
DA:601,0
DA:602,0
DA:603,0
DA:605,0
DA:674,0
DA:678,0
DA:679,0
DA:680,0
DA:807,0
DA:808,0
DA:1006,0
DA:1007,0
DA:1128,0
DA:1129,0
DA:1145,0
DA:1146,0
DA:1311,75
DA:1312,75
DA:1405,36
DA:1408,36
DA:1532,36
DA:1535,36
DA:1536,36
DA:1538,36
DA:1540,36
DA:1543,0
DA:1544,36
DA:2045,0
DA:2049,0
DA:2050,0
end_of_record
TN:
SF:/usr/include/c++/11/bits/move.h
FN:49,_ZSt11__addressofISt6vectorI4EdgeSaIS1_EEEPT_RS4_
FNDA:0,_ZSt11__addressofISt6vectorI4EdgeSaIS1_EEEPT_RS4_
FN:77,_ZSt7forwardI4EdgeEOT_RNSt16remove_referenceIS1_E4typeE
FNDA:219,_ZSt7forwardI4EdgeEOT_RNSt16remove_referenceIS1_E4typeE
FN:104,_ZSt4moveIR4EdgeEONSt16remove_referenceIT_E4typeEOS3_
FNDA:74,_ZSt4moveIR4EdgeEONSt16remove_referenceIT_E4typeEOS3_
DA:49,0
DA:50,0
DA:77,219
DA:78,219
DA:104,74
DA:105,74
end_of_record
SF:/usr/include/c++/11/ext/new_allocator.h
FN:89,_ZN9__gnu_cxx13new_allocatorI4EdgeED2Ev
FNDA:0,_ZN9__gnu_cxx13new_allocatorI4EdgeED2Ev
FN:89,_ZN9__gnu_cxx13new_allocatorISt6vectorI4EdgeSaIS2_EEED2Ev
FNDA:0,_ZN9__gnu_cxx13new_allocatorISt6vectorI4EdgeSaIS2_EEED2Ev
FN:103,_ZN9__gnu_cxx13new_allocatorI4EdgeE8allocateEmPKv
FNDA:75,_ZN9__gnu_cxx13new_allocatorI4EdgeE8allocateEmPKv
FN:132,_ZN9__gnu_cxx13new_allocatorI4EdgeE10deallocateEPS1_m
FNDA:0,_ZN9__gnu_cxx13new_allocatorI4EdgeE10deallocateEPS1_m
FN:132,_ZN9__gnu_cxx13new_allocatorISt6vectorI4EdgeSaIS2_EEE10deallocateEPS4_m
FNDA:0,_ZN9__gnu_cxx13new_allocatorISt6vectorI4EdgeSaIS2_EEE10deallocateEPS4_m
FN:154,_ZNK9__gnu_cxx13new_allocatorI4EdgeE8max_sizeEv
FNDA:134,_ZNK9__gnu_cxx13new_allocatorI4EdgeE8max_sizeEv
FN:160,_ZN9__gnu_cxx13new_allocatorI4EdgeE9constructIS1_JS1_EEEvPT_DpOT0_
FNDA:55,_ZN9__gnu_cxx13new_allocatorI4EdgeE9constructIS1_JS1_EEEvPT_DpOT0_
FN:197,_ZNK9__gnu_cxx13new_allocatorI4EdgeE11_M_max_sizeEv
FNDA:209,_ZNK9__gnu_cxx13new_allocatorI4EdgeE11_M_max_sizeEv
DA:89,0
DA:89,0
DA:103,75
DA:111,75
DA:115,0
DA:116,0
DA:117,0
DA:127,75
DA:132,0
DA:145,0
DA:132,0
DA:145,0
DA:154,134
DA:155,134
DA:160,55
DA:162,55
DA:197,209
DA:200,209
end_of_record
SF:/usr/include/c++/11/bits/vector.tcc
FN:109,_ZNSt6vectorI4EdgeSaIS0_EE12emplace_backIJS0_EEERS0_DpOT_
FNDA:55,_ZNSt6vectorI4EdgeSaIS0_EE12emplace_backIJS0_EEERS0_DpOT_
FN:426,_ZNSt6vectorI4EdgeSaIS0_EE17_M_realloc_insertIJS0_EEEvN9__gnu_cxx17__normal_iteratorIPS0_S2_EEDpOT_
FNDA:54,_ZNSt6vectorI4EdgeSaIS0_EE17_M_realloc_insertIJS0_EEEvN9__gnu_cxx17__normal_iteratorIPS0_S2_EEDpOT_
DA:109,55
DA:112,55
DA:115,1
DA:117,1
DA:121,54
DA:123,55
DA:426,54
DA:436,54
DA:437,54
DA:438,54
DA:439,54
DA:440,54
DA:441,54
DA:449,54
DA:450,54
DA:456,54
DA:461,54
DA:462,54
DA:464,54
DA:466,54
DA:467,54
DA:500,54
DA:501,54
DA:502,54
DA:503,54
DA:504,54
DA:505,54
end_of_record
SF:/home/eladubuntu/Git Projects/OS_2024-FINAL_PROJECT_MST/Graph.cpp
FN:3,_ZN5Graph7addEdgeEiii
FNDA:10,_ZN5Graph7addEdgeEiii
DA:3,10
DA:5,10
DA:6,10
DA:7,10
end_of_record
SF:/usr/include/c++/11/bits/allocator.h
FN:174,_ZNSaI4EdgeED2Ev
FNDA:0,_ZNSaI4EdgeED2Ev
FN:174,_ZNSaISt6vectorI4EdgeSaIS0_EEED2Ev
FNDA:0,_ZNSaISt6vectorI4EdgeSaIS0_EEED2Ev
DA:174,0
DA:174,0
end_of_record
SF:/usr/include/c++/11/iostream
end_of_record
SF:/usr/include/c++/11/bits/alloc_traits.h
FN:463,_ZNSt16allocator_traitsISaI4EdgeEE8allocateERS1_m
FNDA:75,_ZNSt16allocator_traitsISaI4EdgeEE8allocateERS1_m
FN:495,_ZNSt16allocator_traitsISaI4EdgeEE10deallocateERS1_PS0_m
FNDA:0,_ZNSt16allocator_traitsISaI4EdgeEE10deallocateERS1_PS0_m
FN:495,_ZNSt16allocator_traitsISaISt6vectorI4EdgeSaIS1_EEEE10deallocateERS4_PS3_m
FNDA:0,_ZNSt16allocator_traitsISaISt6vectorI4EdgeSaIS1_EEEE10deallocateERS4_PS3_m
FN:511,_ZNSt16allocator_traitsISaI4EdgeEE9constructIS0_JS0_EEEvRS1_PT_DpOT0_
FNDA:55,_ZNSt16allocator_traitsISaI4EdgeEE9constructIS0_JS0_EEEvRS1_PT_DpOT0_
FN:547,_ZNSt16allocator_traitsISaI4EdgeEE8max_sizeERKS1_
FNDA:134,_ZNSt16allocator_traitsISaI4EdgeEE8max_sizeERKS1_
FN:845,_ZSt8_DestroyIP4EdgeS0_EvT_S2_RSaIT0_E
FNDA:0,_ZSt8_DestroyIP4EdgeS0_EvT_S2_RSaIT0_E
FN:845,_ZSt8_DestroyIPSt6vectorI4EdgeSaIS1_EES3_EvT_S5_RSaIT0_E
FNDA:0,_ZSt8_DestroyIPSt6vectorI4EdgeSaIS1_EES3_EvT_S5_RSaIT0_E
DA:463,75
DA:464,75
DA:495,0
DA:496,0
DA:495,0
DA:496,0
DA:511,55
DA:516,55
DA:520,55
DA:547,134
DA:550,134
DA:845,0
DA:848,0
DA:849,0
DA:845,0
DA:848,0
DA:849,0
end_of_record
SF:/usr/include/c++/11/bits/stl_iterator.h
FN:1027,_ZN9__gnu_cxx17__normal_iteratorIP4EdgeSt6vectorIS1_SaIS1_EEEC2ERKS2_
FNDA:390,_ZN9__gnu_cxx17__normal_iteratorIP4EdgeSt6vectorIS1_SaIS1_EEEC2ERKS2_
FN:1042,_ZNK9__gnu_cxx17__normal_iteratorIP4EdgeSt6vectorIS1_SaIS1_EEEdeEv
FNDA:214,_ZNK9__gnu_cxx17__normal_iteratorIP4EdgeSt6vectorIS1_SaIS1_EEEdeEv
FN:1100,_ZNK9__gnu_cxx17__normal_iteratorIP4EdgeSt6vectorIS1_SaIS1_EEEmiEl
FNDA:55,_ZNK9__gnu_cxx17__normal_iteratorIP4EdgeSt6vectorIS1_SaIS1_EEEmiEl
FN:1105,_ZNK9__gnu_cxx17__normal_iteratorIP4EdgeSt6vectorIS1_SaIS1_EEE4baseEv
FNDA:676,_ZNK9__gnu_cxx17__normal_iteratorIP4EdgeSt6vectorIS1_SaIS1_EEE4baseEv
FN:1268,_ZN9__gnu_cxxmiIP4EdgeSt6vectorIS1_SaIS1_EEEENS_17__normal_iteratorIT_T0_E15difference_typeERKS9_SC_
FNDA:73,_ZN9__gnu_cxxmiIP4EdgeSt6vectorIS1_SaIS1_EEEENS_17__normal_iteratorIT_T0_E15difference_typeERKS9_SC_
DA:1027,390
DA:1028,390
DA:1042,214
DA:1043,214
DA:1100,55
DA:1101,55
DA:1105,676
DA:1106,676
DA:1268,73
DA:1271,73
end_of_record
SF:/usr/include/c++/11/bits/stl_uninitialized.h
FN:1006,_ZSt14__relocate_a_1I4EdgeS0_ENSt9enable_ifIXsrSt24__is_bitwise_relocatableIT_vE5valueEPS3_E4typeES5_S5_S5_RSaIT0_E
FNDA:134,_ZSt14__relocate_a_1I4EdgeS0_ENSt9enable_ifIXsrSt24__is_bitwise_relocatableIT_vE5valueEPS3_E4typeES5_S5_S5_RSaIT0_E
FN:1040,_ZSt12__relocate_aIP4EdgeS1_SaIS0_EET0_T_S4_S3_RT1_
FNDA:134,_ZSt12__relocate_aIP4EdgeS1_SaIS0_EET0_T_S4_S3_RT1_
DA:1006,134
DA:1009,134
DA:1010,134
DA:1011,32
DA:1012,134
DA:1040,134
DA:1046,134
DA:1048,134
end_of_record
SF:/home/eladubuntu/Git Projects/OS_2024-FINAL_PROJECT_MST/Graph.hpp
FN:24,_ZN5GraphD0Ev
FNDA:3,_ZN5GraphD0Ev
FN:24,_ZN5GraphD2Ev
FNDA:7,_ZN5GraphD2Ev
DA:24,3
DA:24,7
end_of_record
SF:/usr/include/c++/11/bits/stl_vector.h
FN:276,_ZNSt12_Vector_baseISt6vectorI4EdgeSaIS1_EESaIS3_EE19_M_get_Tp_allocatorEv
FNDA:0,_ZNSt12_Vector_baseISt6vectorI4EdgeSaIS1_EESaIS3_EE19_M_get_Tp_allocatorEv
FN:276,_ZNSt12_Vector_baseI4EdgeSaIS0_EE19_M_get_Tp_allocatorEv
FNDA:0,_ZNSt12_Vector_baseI4EdgeSaIS0_EE19_M_get_Tp_allocatorEv
FN:280,_ZNKSt12_Vector_baseI4EdgeSaIS0_EE19_M_get_Tp_allocatorEv
FNDA:142,_ZNKSt12_Vector_baseI4EdgeSaIS0_EE19_M_get_Tp_allocatorEv
FN:333,_ZNSt12_Vector_baseISt6vectorI4EdgeSaIS1_EESaIS3_EED2Ev
FNDA:0,_ZNSt12_Vector_baseISt6vectorI4EdgeSaIS1_EESaIS3_EED2Ev
FN:333,_ZNSt12_Vector_baseI4EdgeSaIS0_EED2Ev
FNDA:0,_ZNSt12_Vector_baseI4EdgeSaIS0_EED2Ev
FN:343,_ZNSt12_Vector_baseI4EdgeSaIS0_EE11_M_allocateEm
FNDA:75,_ZNSt12_Vector_baseI4EdgeSaIS0_EE11_M_allocateEm
FN:350,_ZNSt12_Vector_baseI4EdgeSaIS0_EE13_M_deallocateEPS0_m
FNDA:0,_ZNSt12_Vector_baseI4EdgeSaIS0_EE13_M_deallocateEPS0_m
FN:350,_ZNSt12_Vector_baseISt6vectorI4EdgeSaIS1_EESaIS3_EE13_M_deallocateEPS3_m
FNDA:0,_ZNSt12_Vector_baseISt6vectorI4EdgeSaIS1_EESaIS3_EE13_M_deallocateEPS3_m
FN:453,_ZNSt6vectorI4EdgeSaIS0_EE14_S_do_relocateEPS0_S3_S3_RS1_St17integral_constantIbLb1EE
FNDA:134,_ZNSt6vectorI4EdgeSaIS0_EE14_S_do_relocateEPS0_S3_S3_RS1_St17integral_constantIbLb1EE
FN:465,_ZNSt6vectorI4EdgeSaIS0_EE11_S_relocateEPS0_S3_S3_RS1_
FNDA:134,_ZNSt6vectorI4EdgeSaIS0_EE11_S_relocateEPS0_S3_S3_RS1_
FN:678,_ZNSt6vectorI4EdgeSaIS0_EED2Ev
FNDA:0,_ZNSt6vectorI4EdgeSaIS0_EED2Ev
FN:678,_ZNSt6vectorIS_I4EdgeSaIS0_EESaIS2_EED2Ev
FNDA:0,_ZNSt6vectorIS_I4EdgeSaIS0_EESaIS2_EED2Ev
FN:811,_ZNSt6vectorI4EdgeSaIS0_EE5beginEv
FNDA:136,_ZNSt6vectorI4EdgeSaIS0_EE5beginEv
FN:829,_ZNSt6vectorI4EdgeSaIS0_EE3endEv
FNDA:191,_ZNSt6vectorI4EdgeSaIS0_EE3endEv
FN:918,_ZNKSt6vectorI4EdgeSaIS0_EE4sizeEv
FNDA:287,_ZNKSt6vectorI4EdgeSaIS0_EE4sizeEv
FN:923,_ZNKSt6vectorI4EdgeSaIS0_EE8max_sizeEv
FNDA:134,_ZNKSt6vectorI4EdgeSaIS0_EE8max_sizeEv
FN:1043,_ZNSt6vectorIS_I4EdgeSaIS0_EESaIS2_EEixEm
FNDA:111,_ZNSt6vectorIS_I4EdgeSaIS0_EESaIS2_EEixEm
FN:1143,_ZNSt6vectorI4EdgeSaIS0_EE4backEv
FNDA:55,_ZNSt6vectorI4EdgeSaIS0_EE4backEv
FN:1203,_ZNSt6vectorI4EdgeSaIS0_EE9push_backEOS0_
FNDA:55,_ZNSt6vectorI4EdgeSaIS0_EE9push_backEOS0_
FN:1756,_ZNKSt6vectorI4EdgeSaIS0_EE12_M_check_lenEmPKc
FNDA:67,_ZNKSt6vectorI4EdgeSaIS0_EE12_M_check_lenEmPKc
FN:1776,_ZNSt6vectorI4EdgeSaIS0_EE11_S_max_sizeERKS1_
FNDA:134,_ZNSt6vectorI4EdgeSaIS0_EE11_S_max_sizeERKS1_
DA:276,0
DA:277,0
DA:276,0
DA:277,0
DA:280,142
DA:281,142
DA:333,0
DA:335,0
DA:336,0
DA:337,0
DA:333,0
DA:335,0
DA:336,0
DA:337,0
DA:343,75
DA:346,75
DA:350,0
DA:353,0
DA:354,0
DA:355,0
DA:350,0
DA:353,0
DA:354,0
DA:355,0
DA:453,134
DA:456,134
DA:465,134
DA:469,134
DA:678,0
DA:680,0
DA:681,0
DA:683,0
DA:678,0
DA:680,0
DA:681,0
DA:683,0
DA:811,136
DA:812,136
DA:829,191
DA:830,191
DA:918,287
DA:919,287
DA:923,134
DA:924,134
DA:1043,111
DA:1046,111
DA:1143,55
DA:1146,55
DA:1203,55
DA:1204,55
DA:1756,67
DA:1758,67
DA:1759,0
DA:1761,67
DA:1762,67
DA:1776,134
DA:1781,134
DA:1783,134
DA:1784,134
end_of_record
SF:/usr/include/c++/11/bits/stl_algobase.h
FN:230,_ZSt3minImERKT_S2_S2_
FNDA:0,_ZSt3minImERKT_S2_S2_
FN:254,_ZSt3maxImERKT_S2_S2_
FNDA:0,_ZSt3maxImERKT_S2_S2_
FN:313,_ZSt12__niter_baseIP4EdgeET_S2_
FNDA:410,_ZSt12__niter_baseIP4EdgeET_S2_
DA:230,0
DA:235,0
DA:236,0
DA:237,0
DA:254,0
DA:259,0
DA:260,0
DA:261,0
DA:313,410
DA:315,410
end_of_record
SF:/usr/include/c++/11/bits/stl_construct.h
FN:146,_ZSt8_DestroyISt6vectorI4EdgeSaIS1_EEEvPT_
FNDA:0,_ZSt8_DestroyISt6vectorI4EdgeSaIS1_EEEvPT_
FN:160,_ZNSt12_Destroy_auxILb0EE9__destroyIPSt6vectorI4EdgeSaIS3_EEEEvT_S7_
FNDA:0,_ZNSt12_Destroy_auxILb0EE9__destroyIPSt6vectorI4EdgeSaIS3_EEEEvT_S7_
FN:172,_ZNSt12_Destroy_auxILb1EE9__destroyIP4EdgeEEvT_S4_
FNDA:0,_ZNSt12_Destroy_auxILb1EE9__destroyIP4EdgeEEvT_S4_
FN:182,_ZSt8_DestroyIP4EdgeEvT_S2_
FNDA:0,_ZSt8_DestroyIP4EdgeEvT_S2_
FN:182,_ZSt8_DestroyIPSt6vectorI4EdgeSaIS1_EEEvT_S5_
FNDA:0,_ZSt8_DestroyIPSt6vectorI4EdgeSaIS1_EEEvT_S5_
DA:146,0
DA:151,0
DA:153,0
DA:160,0
DA:162,0
DA:163,0
DA:164,0
DA:172,0
DA:182,0
DA:196,0
DA:197,0
DA:182,0
DA:196,0
DA:197,0
end_of_record
SF:/usr/include/c++/11/new
FN:174,_ZnwmPv
FNDA:0,_ZnwmPv
DA:174,0
DA:175,0
end_of_record
TN:
SF:/usr/include/c++/11/bits/std_mutex.h
FN:65,_ZNSt12__mutex_baseC2Ev
FNDA:7,_ZNSt12__mutex_baseC2Ev
FN:91,_ZNSt5mutexC2Ev
FNDA:7,_ZNSt5mutexC2Ev
FN:98,_ZNSt5mutex4lockEv
FNDA:252,_ZNSt5mutex4lockEv
FN:108,_ZNSt5mutex8try_lockEv
FNDA:5,_ZNSt5mutex8try_lockEv
FN:115,_ZNSt5mutex6unlockEv
FNDA:256,_ZNSt5mutex6unlockEv
DA:65,7
DA:91,7
DA:98,252
DA:100,252
DA:103,252
DA:104,0
DA:105,252
DA:108,5
DA:111,5
DA:115,256
DA:118,256
DA:119,256
end_of_record
SF:/usr/include/c++/11/bits/charconv.h
FN:47,_ZNSt8__detail14__to_chars_lenIjEEjT_i
FNDA:69,_ZNSt8__detail14__to_chars_lenIjEEjT_i
FN:72,_ZNSt8__detail18__to_chars_10_implIjEEvPcjT_
FNDA:69,_ZNSt8__detail18__to_chars_10_implIjEEvPcjT_
DA:47,69
DA:52,69
DA:53,69
DA:54,69
DA:55,69
DA:58,69
DA:59,5
DA:60,0
DA:61,0
DA:62,0
DA:63,0
DA:72,69
DA:83,69
DA:84,69
DA:86,0
DA:87,0
DA:88,0
DA:89,0
DA:90,0
DA:92,69
DA:94,5
DA:95,5
DA:96,5
DA:99,64
DA:100,69
end_of_record
SF:/usr/include/c++/11/bits/vector.tcc
FN:109,_ZNSt6vectorISt10unique_ptrI12ActiveObjectSt14default_deleteIS1_EESaIS4_EE12emplace_backIJS4_EEERS4_DpOT_
FNDA:7,_ZNSt6vectorISt10unique_ptrI12ActiveObjectSt14default_deleteIS1_EESaIS4_EE12emplace_backIJS4_EEERS4_DpOT_
FN:426,_ZNSt6vectorISt10unique_ptrI12ActiveObjectSt14default_deleteIS1_EESaIS4_EE17_M_realloc_insertIJS4_EEEvN9__gnu_cxx17__normal_iteratorIPS4_S6_EEDpOT_
FNDA:4,_ZNSt6vectorISt10unique_ptrI12ActiveObjectSt14default_deleteIS1_EESaIS4_EE17_M_realloc_insertIJS4_EEEvN9__gnu_cxx17__normal_iteratorIPS4_S6_EEDpOT_
FN:426,_ZNSt6vectorImSaImEE17_M_realloc_insertIJRKmEEEvN9__gnu_cxx17__normal_iteratorIPmS1_EEDpOT_
FNDA:3,_ZNSt6vectorImSaImEE17_M_realloc_insertIJRKmEEEvN9__gnu_cxx17__normal_iteratorIPmS1_EEDpOT_
FN:611,_ZNSt6vectorIS_I4EdgeSaIS0_EESaIS2_EE17_M_default_appendEm
FNDA:7,_ZNSt6vectorIS_I4EdgeSaIS0_EESaIS2_EE17_M_default_appendEm
FN:687,_ZNSt6vectorISt10unique_ptrI12ActiveObjectSt14default_deleteIS1_EESaIS4_EE16_M_shrink_to_fitEv
FNDA:1,_ZNSt6vectorISt10unique_ptrI12ActiveObjectSt14default_deleteIS1_EESaIS4_EE16_M_shrink_to_fitEv
FN:687,_ZNSt6vectorImSaImEE16_M_shrink_to_fitEv
FNDA:1,_ZNSt6vectorImSaImEE16_M_shrink_to_fitEv
DA:109,7
DA:112,7
DA:115,3
DA:117,3
DA:121,4
DA:123,7
DA:426,4
DA:436,4
DA:437,4
DA:438,4
DA:439,4
DA:440,4
DA:441,4
DA:449,4
DA:450,4
DA:456,4
DA:461,4
DA:462,4
DA:464,4
DA:466,4
DA:467,4
DA:500,4
DA:501,4
DA:502,4
DA:503,4
DA:504,4
DA:505,4
DA:426,3
DA:436,3
DA:437,3
DA:438,3
DA:439,3
DA:440,3
DA:441,3
DA:449,3
DA:450,3
DA:456,3
DA:461,3
DA:462,3
DA:464,3
DA:466,3
DA:467,3
DA:500,3
DA:501,3
DA:502,3
DA:503,3
DA:504,3
DA:505,3
DA:611,7
DA:614,7
DA:616,7
DA:617,7
DA:618,7
DA:620,7
DA:621,0
DA:623,7
DA:626,0
DA:627,0
DA:628,0
DA:634,7
DA:635,7
DA:640,7
DA:641,7
DA:643,0
DA:645,0
DA:646,0
DA:648,7
DA:649,7
DA:675,7
DA:676,7
DA:677,7
DA:678,7
DA:679,7
DA:680,7
DA:683,7
DA:687,1
DA:690,1
DA:691,0
DA:693,1
DA:687,1
DA:690,1
DA:691,0
DA:693,1
end_of_record
SF:/usr/include/c++/11/ext/new_allocator.h
FN:79,_ZN9__gnu_cxx13new_allocatorIcEC2Ev
FNDA:0,_ZN9__gnu_cxx13new_allocatorIcEC2Ev
FN:79,_ZN9__gnu_cxx13new_allocatorI4EdgeEC2Ev
FNDA:39,_ZN9__gnu_cxx13new_allocatorI4EdgeEC2Ev
FN:79,_ZN9__gnu_cxx13new_allocatorImEC2Ev
FNDA:14,_ZN9__gnu_cxx13new_allocatorImEC2Ev
FN:79,_ZN9__gnu_cxx13new_allocatorISt10unique_ptrI12ActiveObjectSt14default_deleteIS2_EEEC2Ev
FNDA:1,_ZN9__gnu_cxx13new_allocatorISt10unique_ptrI12ActiveObjectSt14default_deleteIS2_EEEC2Ev
FN:79,_ZN9__gnu_cxx13new_allocatorISt8functionIFvvEEEC2Ev
FNDA:7,_ZN9__gnu_cxx13new_allocatorISt8functionIFvvEEEC2Ev
FN:79,_ZN9__gnu_cxx13new_allocatorISt6threadEC2Ev
FNDA:1,_ZN9__gnu_cxx13new_allocatorISt6threadEC2Ev
FN:79,_ZN9__gnu_cxx13new_allocatorIPSt8functionIFvvEEEC2Ev
FNDA:14,_ZN9__gnu_cxx13new_allocatorIPSt8functionIFvvEEEC2Ev
FN:79,_ZN9__gnu_cxx13new_allocatorISt6vectorI4EdgeSaIS2_EEEC2Ev
FNDA:7,_ZN9__gnu_cxx13new_allocatorISt6vectorI4EdgeSaIS2_EEEC2Ev
FN:82,_ZN9__gnu_cxx13new_allocatorIcEC2ERKS1_
FNDA:0,_ZN9__gnu_cxx13new_allocatorIcEC2ERKS1_
FN:82,_ZN9__gnu_cxx13new_allocatorISt10unique_ptrI12ActiveObjectSt14default_deleteIS2_EEEC2ERKS6_
FNDA:3,_ZN9__gnu_cxx13new_allocatorISt10unique_ptrI12ActiveObjectSt14default_deleteIS2_EEEC2ERKS6_
FN:82,_ZN9__gnu_cxx13new_allocatorImEC2ERKS1_
FNDA:23,_ZN9__gnu_cxx13new_allocatorImEC2ERKS1_
FN:82,_ZN9__gnu_cxx13new_allocatorI4EdgeEC2ERKS2_
FNDA:16,_ZN9__gnu_cxx13new_allocatorI4EdgeEC2ERKS2_
FN:89,_ZN9__gnu_cxx13new_allocatorIPSt8functionIFvvEEED2Ev
FNDA:14,_ZN9__gnu_cxx13new_allocatorIPSt8functionIFvvEEED2Ev
FN:89,_ZN9__gnu_cxx13new_allocatorI4EdgeED2Ev
FNDA:55,_ZN9__gnu_cxx13new_allocatorI4EdgeED2Ev
FN:89,_ZN9__gnu_cxx13new_allocatorImED2Ev
FNDA:36,_ZN9__gnu_cxx13new_allocatorImED2Ev
FN:89,_ZN9__gnu_cxx13new_allocatorISt10unique_ptrI12ActiveObjectSt14default_deleteIS2_EEED2Ev
FNDA:3,_ZN9__gnu_cxx13new_allocatorISt10unique_ptrI12ActiveObjectSt14default_deleteIS2_EEED2Ev
FN:89,_ZN9__gnu_cxx13new_allocatorISt8functionIFvvEEED2Ev
FNDA:7,_ZN9__gnu_cxx13new_allocatorISt8functionIFvvEEED2Ev
FN:89,_ZN9__gnu_cxx13new_allocatorISt6threadED2Ev
FNDA:0,_ZN9__gnu_cxx13new_allocatorISt6threadED2Ev
FN:89,_ZN9__gnu_cxx13new_allocatorISt6vectorI4EdgeSaIS2_EEED2Ev
FNDA:7,_ZN9__gnu_cxx13new_allocatorISt6vectorI4EdgeSaIS2_EEED2Ev
FN:89,_ZN9__gnu_cxx13new_allocatorIcED2Ev
FNDA:0,_ZN9__gnu_cxx13new_allocatorIcED2Ev
FN:103,_ZN9__gnu_cxx13new_allocatorISt6vectorI4EdgeSaIS2_EEE8allocateEmPKv
FNDA:7,_ZN9__gnu_cxx13new_allocatorISt6vectorI4EdgeSaIS2_EEE8allocateEmPKv
FN:103,_ZN9__gnu_cxx13new_allocatorIPSt8functionIFvvEEE8allocateEmPKv
FNDA:7,_ZN9__gnu_cxx13new_allocatorIPSt8functionIFvvEEE8allocateEmPKv
FN:103,_ZN9__gnu_cxx13new_allocatorImE8allocateEmPKv
FNDA:16,_ZN9__gnu_cxx13new_allocatorImE8allocateEmPKv
FN:103,_ZN9__gnu_cxx13new_allocatorISt8functionIFvvEEE8allocateEmPKv
FNDA:7,_ZN9__gnu_cxx13new_allocatorISt8functionIFvvEEE8allocateEmPKv
FN:103,_ZN9__gnu_cxx13new_allocatorISt10unique_ptrI12ActiveObjectSt14default_deleteIS2_EEE8allocateEmPKv
FNDA:4,_ZN9__gnu_cxx13new_allocatorISt10unique_ptrI12ActiveObjectSt14default_deleteIS2_EEE8allocateEmPKv
FN:132,_ZN9__gnu_cxx13new_allocatorISt6vectorI4EdgeSaIS2_EEE10deallocateEPS4_m
FNDA:7,_ZN9__gnu_cxx13new_allocatorISt6vectorI4EdgeSaIS2_EEE10deallocateEPS4_m
FN:132,_ZN9__gnu_cxx13new_allocatorImE10deallocateEPmm
FNDA:16,_ZN9__gnu_cxx13new_allocatorImE10deallocateEPmm
FN:132,_ZN9__gnu_cxx13new_allocatorISt6threadE10deallocateEPS1_m
FNDA:0,_ZN9__gnu_cxx13new_allocatorISt6threadE10deallocateEPS1_m
FN:132,_ZN9__gnu_cxx13new_allocatorISt10unique_ptrI12ActiveObjectSt14default_deleteIS2_EEE10deallocateEPS5_m
FNDA:4,_ZN9__gnu_cxx13new_allocatorISt10unique_ptrI12ActiveObjectSt14default_deleteIS2_EEE10deallocateEPS5_m
FN:132,_ZN9__gnu_cxx13new_allocatorISt8functionIFvvEEE10deallocateEPS3_m
FNDA:7,_ZN9__gnu_cxx13new_allocatorISt8functionIFvvEEE10deallocateEPS3_m
FN:132,_ZN9__gnu_cxx13new_allocatorIPSt8functionIFvvEEE10deallocateEPS4_m
FNDA:7,_ZN9__gnu_cxx13new_allocatorIPSt8functionIFvvEEE10deallocateEPS4_m
FN:132,_ZN9__gnu_cxx13new_allocatorI4EdgeE10deallocateEPS1_m
FNDA:75,_ZN9__gnu_cxx13new_allocatorI4EdgeE10deallocateEPS1_m
FN:154,_ZNK9__gnu_cxx13new_allocatorISt10unique_ptrI12ActiveObjectSt14default_deleteIS2_EEE8max_sizeEv
FNDA:9,_ZNK9__gnu_cxx13new_allocatorISt10unique_ptrI12ActiveObjectSt14default_deleteIS2_EEE8max_sizeEv
FN:154,_ZNK9__gnu_cxx13new_allocatorImE8max_sizeEv
FNDA:7,_ZNK9__gnu_cxx13new_allocatorImE8max_sizeEv
FN:154,_ZNK9__gnu_cxx13new_allocatorISt8functionIFvvEEE8max_sizeEv
FNDA:0,_ZNK9__gnu_cxx13new_allocatorISt8functionIFvvEEE8max_sizeEv
FN:154,_ZNK9__gnu_cxx13new_allocatorISt6vectorI4EdgeSaIS2_EEE8max_sizeEv
FNDA:28,_ZNK9__gnu_cxx13new_allocatorISt6vectorI4EdgeSaIS2_EEE8max_sizeEv
FN:160,_ZN9__gnu_cxx13new_allocatorISt6vectorI4EdgeSaIS2_EEE9constructIS4_JS4_EEEvPT_DpOT0_
FNDA:0,_ZN9__gnu_cxx13new_allocatorISt6vectorI4EdgeSaIS2_EEE9constructIS4_JS4_EEEvPT_DpOT0_
FN:160,_ZN9__gnu_cxx13new_allocatorImE9constructImJRKmEEEvPT_DpOT0_
FNDA:3,_ZN9__gnu_cxx13new_allocatorImE9constructImJRKmEEEvPT_DpOT0_
FN:160,_ZN9__gnu_cxx13new_allocatorISt8functionIFvvEEE9constructIS3_JRZ14handleCommandsiRSt6vectorISt10unique_ptrI12ActiveObjectSt14default_deleteIS8_EESaISB_EERS7_I5GraphS9_ISF_EER10MSTFactoryRS7_I4TreeS9_ISL_EEEUlvE_EEEvPT_DpOT0_
FNDA:4,_ZN9__gnu_cxx13new_allocatorISt8functionIFvvEEE9constructIS3_JRZ14handleCommandsiRSt6vectorISt10unique_ptrI12ActiveObjectSt14default_deleteIS8_EESaISB_EERS7_I5GraphS9_ISF_EER10MSTFactoryRS7_I4TreeS9_ISL_EEEUlvE_EEEvPT_DpOT0_
FN:160,_ZN9__gnu_cxx13new_allocatorISt8functionIFvvEEE9constructIS3_JRZ14handleCommandsiRSt6vectorISt10unique_ptrI12ActiveObjectSt14default_deleteIS8_EESaISB_EERS7_I5GraphS9_ISF_EER10MSTFactoryRS7_I4TreeS9_ISL_EEEUlvE0_EEEvPT_DpOT0_
FNDA:10,_ZN9__gnu_cxx13new_allocatorISt8functionIFvvEEE9constructIS3_JRZ14handleCommandsiRSt6vectorISt10unique_ptrI12ActiveObjectSt14default_deleteIS8_EESaISB_EERS7_I5GraphS9_ISF_EER10MSTFactoryRS7_I4TreeS9_ISL_EEEUlvE0_EEEvPT_DpOT0_
FN:160,_ZN9__gnu_cxx13new_allocatorISt8functionIFvvEEE9constructIS3_JRZ14handleCommandsiRSt6vectorISt10unique_ptrI12ActiveObjectSt14default_deleteIS8_EESaISB_EERS7_I5GraphS9_ISF_EER10MSTFactoryRS7_I4TreeS9_ISL_EEEUlvE2_EEEvPT_DpOT0_
FNDA:2,_ZN9__gnu_cxx13new_allocatorISt8functionIFvvEEE9constructIS3_JRZ14handleCommandsiRSt6vectorISt10unique_ptrI12ActiveObjectSt14default_deleteIS8_EESaISB_EERS7_I5GraphS9_ISF_EER10MSTFactoryRS7_I4TreeS9_ISL_EEEUlvE2_EEEvPT_DpOT0_
FN:160,_ZN9__gnu_cxx13new_allocatorISt10unique_ptrI12ActiveObjectSt14default_deleteIS2_EEE9constructIS5_JS5_EEEvPT_DpOT0_
FNDA:14,_ZN9__gnu_cxx13new_allocatorISt10unique_ptrI12ActiveObjectSt14default_deleteIS2_EEE9constructIS5_JS5_EEEvPT_DpOT0_
FN:160,_ZN9__gnu_cxx13new_allocatorISt8functionIFvvEEE9constructIS3_JRZ14handleCommandsiRSt6vectorISt10unique_ptrI12ActiveObjectSt14default_deleteIS8_EESaISB_EERS7_I5GraphS9_ISF_EER10MSTFactoryRS7_I4TreeS9_ISL_EEEUlvE10_EEEvPT_DpOT0_
FNDA:2,_ZN9__gnu_cxx13new_allocatorISt8functionIFvvEEE9constructIS3_JRZ14handleCommandsiRSt6vectorISt10unique_ptrI12ActiveObjectSt14default_deleteIS8_EESaISB_EERS7_I5GraphS9_ISF_EER10MSTFactoryRS7_I4TreeS9_ISL_EEEUlvE10_EEEvPT_DpOT0_
FN:160,_ZN9__gnu_cxx13new_allocatorISt8functionIFvvEEE9constructIS3_JRZ14handleCommandsiRSt6vectorISt10unique_ptrI12ActiveObjectSt14default_deleteIS8_EESaISB_EERS7_I5GraphS9_ISF_EER10MSTFactoryRS7_I4TreeS9_ISL_EEEUlvE9_EEEvPT_DpOT0_
FNDA:2,_ZN9__gnu_cxx13new_allocatorISt8functionIFvvEEE9constructIS3_JRZ14handleCommandsiRSt6vectorISt10unique_ptrI12ActiveObjectSt14default_deleteIS8_EESaISB_EERS7_I5GraphS9_ISF_EER10MSTFactoryRS7_I4TreeS9_ISL_EEEUlvE9_EEEvPT_DpOT0_
FN:160,_ZN9__gnu_cxx13new_allocatorISt8functionIFvvEEE9constructIS3_JRZ14handleCommandsiRSt6vectorISt10unique_ptrI12ActiveObjectSt14default_deleteIS8_EESaISB_EERS7_I5GraphS9_ISF_EER10MSTFactoryRS7_I4TreeS9_ISL_EEEUlvE8_EEEvPT_DpOT0_
FNDA:3,_ZN9__gnu_cxx13new_allocatorISt8functionIFvvEEE9constructIS3_JRZ14handleCommandsiRSt6vectorISt10unique_ptrI12ActiveObjectSt14default_deleteIS8_EESaISB_EERS7_I5GraphS9_ISF_EER10MSTFactoryRS7_I4TreeS9_ISL_EEEUlvE8_EEEvPT_DpOT0_
FN:160,_ZN9__gnu_cxx13new_allocatorISt8functionIFvvEEE9constructIS3_JRZ14handleCommandsiRSt6vectorISt10unique_ptrI12ActiveObjectSt14default_deleteIS8_EESaISB_EERS7_I5GraphS9_ISF_EER10MSTFactoryRS7_I4TreeS9_ISL_EEEUlvE6_EEEvPT_DpOT0_
FNDA:5,_ZN9__gnu_cxx13new_allocatorISt8functionIFvvEEE9constructIS3_JRZ14handleCommandsiRSt6vectorISt10unique_ptrI12ActiveObjectSt14default_deleteIS8_EESaISB_EERS7_I5GraphS9_ISF_EER10MSTFactoryRS7_I4TreeS9_ISL_EEEUlvE6_EEEvPT_DpOT0_
FN:160,_ZN9__gnu_cxx13new_allocatorISt8functionIFvvEEE9constructIS3_JRZ14handleCommandsiRSt6vectorISt10unique_ptrI12ActiveObjectSt14default_deleteIS8_EESaISB_EERS7_I5GraphS9_ISF_EER10MSTFactoryRS7_I4TreeS9_ISL_EEEUlvE5_EEEvPT_DpOT0_
FNDA:2,_ZN9__gnu_cxx13new_allocatorISt8functionIFvvEEE9constructIS3_JRZ14handleCommandsiRSt6vectorISt10unique_ptrI12ActiveObjectSt14default_deleteIS8_EESaISB_EERS7_I5GraphS9_ISF_EER10MSTFactoryRS7_I4TreeS9_ISL_EEEUlvE5_EEEvPT_DpOT0_
FN:160,_ZN9__gnu_cxx13new_allocatorISt8functionIFvvEEE9constructIS3_JRZ14handleCommandsiRSt6vectorISt10unique_ptrI12ActiveObjectSt14default_deleteIS8_EESaISB_EERS7_I5GraphS9_ISF_EER10MSTFactoryRS7_I4TreeS9_ISL_EEEUlvE4_EEEvPT_DpOT0_
FNDA:2,_ZN9__gnu_cxx13new_allocatorISt8functionIFvvEEE9constructIS3_JRZ14handleCommandsiRSt6vectorISt10unique_ptrI12ActiveObjectSt14default_deleteIS8_EESaISB_EERS7_I5GraphS9_ISF_EER10MSTFactoryRS7_I4TreeS9_ISL_EEEUlvE4_EEEvPT_DpOT0_
FN:160,_ZN9__gnu_cxx13new_allocatorISt8functionIFvvEEE9constructIS3_JRZ14handleCommandsiRSt6vectorISt10unique_ptrI12ActiveObjectSt14default_deleteIS8_EESaISB_EERS7_I5GraphS9_ISF_EER10MSTFactoryRS7_I4TreeS9_ISL_EEEUlvE3_EEEvPT_DpOT0_
FNDA:2,_ZN9__gnu_cxx13new_allocatorISt8functionIFvvEEE9constructIS3_JRZ14handleCommandsiRSt6vectorISt10unique_ptrI12ActiveObjectSt14default_deleteIS8_EESaISB_EERS7_I5GraphS9_ISF_EER10MSTFactoryRS7_I4TreeS9_ISL_EEEUlvE3_EEEvPT_DpOT0_
FN:160,_ZN9__gnu_cxx13new_allocatorISt8functionIFvvEEE9constructIS3_JRZ14handleCommandsiRSt6vectorISt10unique_ptrI12ActiveObjectSt14default_deleteIS8_EESaISB_EERS7_I5GraphS9_ISF_EER10MSTFactoryRS7_I4TreeS9_ISL_EEEUlvE1_EEEvPT_DpOT0_
FNDA:2,_ZN9__gnu_cxx13new_allocatorISt8functionIFvvEEE9constructIS3_JRZ14handleCommandsiRSt6vectorISt10unique_ptrI12ActiveObjectSt14default_deleteIS8_EESaISB_EERS7_I5GraphS9_ISF_EER10MSTFactoryRS7_I4TreeS9_ISL_EEEUlvE1_EEEvPT_DpOT0_
FN:166,_ZN9__gnu_cxx13new_allocatorISt10unique_ptrI12ActiveObjectSt14default_deleteIS2_EEE7destroyIS5_EEvPT_
FNDA:7,_ZN9__gnu_cxx13new_allocatorISt10unique_ptrI12ActiveObjectSt14default_deleteIS2_EEE7destroyIS5_EEvPT_
FN:166,_ZN9__gnu_cxx13new_allocatorISt6vectorI4EdgeSaIS2_EEE7destroyIS4_EEvPT_
FNDA:0,_ZN9__gnu_cxx13new_allocatorISt6vectorI4EdgeSaIS2_EEE7destroyIS4_EEvPT_
FN:197,_ZNK9__gnu_cxx13new_allocatorImE11_M_max_sizeEv
FNDA:23,_ZNK9__gnu_cxx13new_allocatorImE11_M_max_sizeEv
FN:197,_ZNK9__gnu_cxx13new_allocatorIPSt8functionIFvvEEE11_M_max_sizeEv
FNDA:7,_ZNK9__gnu_cxx13new_allocatorIPSt8functionIFvvEEE11_M_max_sizeEv
FN:197,_ZNK9__gnu_cxx13new_allocatorISt8functionIFvvEEE11_M_max_sizeEv
FNDA:7,_ZNK9__gnu_cxx13new_allocatorISt8functionIFvvEEE11_M_max_sizeEv
FN:197,_ZNK9__gnu_cxx13new_allocatorISt10unique_ptrI12ActiveObjectSt14default_deleteIS2_EEE11_M_max_sizeEv
FNDA:13,_ZNK9__gnu_cxx13new_allocatorISt10unique_ptrI12ActiveObjectSt14default_deleteIS2_EEE11_M_max_sizeEv
FN:197,_ZNK9__gnu_cxx13new_allocatorISt6vectorI4EdgeSaIS2_EEE11_M_max_sizeEv
FNDA:35,_ZNK9__gnu_cxx13new_allocatorISt6vectorI4EdgeSaIS2_EEE11_M_max_sizeEv
DA:79,39
DA:79,14
DA:79,7
DA:79,14
DA:79,1
DA:79,1
DA:79,7
DA:79,0
DA:82,3
DA:82,23
DA:82,16
DA:82,0
DA:89,14
DA:89,7
DA:89,55
DA:89,36
DA:89,3
DA:89,0
DA:89,7
DA:89,0
DA:103,4
DA:111,4
DA:115,0
DA:116,0
DA:117,0
DA:127,4
DA:103,7
DA:111,7
DA:115,0
DA:116,0
DA:117,0
DA:127,7
DA:103,7
DA:111,7
DA:115,0
DA:116,0
DA:117,0
DA:127,7
DA:103,16
DA:111,16
DA:115,0
DA:116,0
DA:117,0
DA:127,16
DA:103,7
DA:111,7
DA:115,0
DA:116,0
DA:117,0
DA:127,7
DA:132,7
DA:145,7
DA:132,7
DA:145,7
DA:132,75
DA:145,75
DA:132,16
DA:145,16
DA:132,4
DA:145,4
DA:132,0
DA:145,0
DA:132,7
DA:145,7
DA:154,9
DA:155,9
DA:154,7
DA:155,7
DA:154,0
DA:155,0
DA:154,28
DA:155,28
DA:160,0
DA:162,0
DA:160,14
DA:162,14
DA:160,2
DA:162,2
DA:160,2
DA:162,2
DA:160,3
DA:162,3
DA:160,5
DA:162,5
DA:160,2
DA:162,2
DA:160,2
DA:162,2
DA:160,2
DA:162,2
DA:160,2
DA:162,2
DA:160,2
DA:162,2
DA:160,10
DA:162,10
DA:160,4
DA:162,4
DA:160,3
DA:162,3
DA:166,0
DA:168,0
DA:166,7
DA:168,7
DA:197,13
DA:200,13
DA:197,7
DA:200,7
DA:197,7
DA:200,7
DA:197,23
DA:200,23
DA:197,35
DA:200,35
end_of_record
SF:/usr/include/c++/11/bits/move.h
FN:49,_ZSt11__addressofISt6vectorISt10unique_ptrI12ActiveObjectSt14default_deleteIS2_EESaIS5_EEEPT_RS8_
FNDA:3,_ZSt11__addressofISt6vectorISt10unique_ptrI12ActiveObjectSt14default_deleteIS2_EESaIS5_EEEPT_RS8_
FN:49,_ZSt11__addressofISt10unique_ptrI5GraphSt14default_deleteIS1_EEEPT_RS5_
FNDA:3,_ZSt11__addressofISt10unique_ptrI5GraphSt14default_deleteIS1_EEEPT_RS5_
FN:49,_ZSt11__addressofI10MSTFactoryEPT_RS1_
FNDA:3,_ZSt11__addressofI10MSTFactoryEPT_RS1_
FN:49,_ZSt11__addressofISt10unique_ptrI4TreeSt14default_deleteIS1_EEEPT_RS5_
FNDA:3,_ZSt11__addressofISt10unique_ptrI4TreeSt14default_deleteIS1_EEEPT_RS5_
FN:49,_ZSt11__addressofISt6vectorI4EdgeSaIS1_EEEPT_RS4_
FNDA:66,_ZSt11__addressofISt6vectorI4EdgeSaIS1_EEEPT_RS4_
FN:49,_ZSt11__addressofISt6threadEPT_RS1_
FNDA:0,_ZSt11__addressofISt6threadEPT_RS1_
FN:49,_ZSt11__addressofISt10unique_ptrI12ActiveObjectSt14default_deleteIS1_EEEPT_RS5_
FNDA:28,_ZSt11__addressofISt10unique_ptrI12ActiveObjectSt14default_deleteIS1_EEEPT_RS5_
FN:49,_ZSt11__addressofISt5mutexEPT_RS1_
FNDA:249,_ZSt11__addressofISt5mutexEPT_RS1_
FN:49,_ZSt11__addressofISt8functionIFvvEEEPT_RS3_
FNDA:0,_ZSt11__addressofISt8functionIFvvEEEPT_RS3_
FN:77,_ZSt7forwardIR10MSTFactoryEOT_RNSt16remove_referenceIS2_E4typeE
FNDA:3,_ZSt7forwardIR10MSTFactoryEOT_RNSt16remove_referenceIS2_E4typeE
FN:77,_ZSt7forwardIRZ14handleCommandsiRSt6vectorISt10unique_ptrI12ActiveObjectSt14default_deleteIS2_EESaIS5_EERS1_I5GraphS3_IS9_EER10MSTFactoryRS1_I4TreeS3_ISF_EEEUlvE2_EOT_RNSt16remove_referenceISL_E4typeE
FNDA:18,_ZSt7forwardIRZ14handleCommandsiRSt6vectorISt10unique_ptrI12ActiveObjectSt14default_deleteIS2_EESaIS5_EERS1_I5GraphS3_IS9_EER10MSTFactoryRS1_I4TreeS3_ISF_EEEUlvE2_EOT_RNSt16remove_referenceISL_E4typeE
FN:77,_ZSt7forwardIRSt10unique_ptrI5GraphSt14default_deleteIS1_EEEOT_RNSt16remove_referenceIS6_E4typeE
FNDA:3,_ZSt7forwardIRSt10unique_ptrI5GraphSt14default_deleteIS1_EEEOT_RNSt16remove_referenceIS6_E4typeE
FN:77,_ZSt7forwardIRSt6vectorISt10unique_ptrI12ActiveObjectSt14default_deleteIS2_EESaIS5_EEEOT_RNSt16remove_referenceIS9_E4typeE
FNDA:3,_ZSt7forwardIRSt6vectorISt10unique_ptrI12ActiveObjectSt14default_deleteIS2_EESaIS5_EEEOT_RNSt16remove_referenceIS9_E4typeE
FN:77,_ZSt7forwardISt10unique_ptrI12ActiveObjectSt14default_deleteIS1_EEEOT_RNSt16remove_referenceIS5_E4typeE
FNDA:39,_ZSt7forwardISt10unique_ptrI12ActiveObjectSt14default_deleteIS1_EEEOT_RNSt16remove_referenceIS5_E4typeE
FN:77,_ZSt7forwardIP12ActiveObjectEOT_RNSt16remove_referenceIS2_E4typeE
FNDA:70,_ZSt7forwardIP12ActiveObjectEOT_RNSt16remove_referenceIS2_E4typeE
FN:77,_ZSt7forwardIRiEOT_RNSt16remove_referenceIS1_E4typeE
FNDA:23,_ZSt7forwardIRiEOT_RNSt16remove_referenceIS1_E4typeE
FN:77,_ZSt7forwardISt14default_deleteI5GraphEEOT_RNSt16remove_referenceIS3_E4typeE
FNDA:3,_ZSt7forwardISt14default_deleteI5GraphEEOT_RNSt16remove_referenceIS3_E4typeE
FN:77,_ZSt7forwardIRZ14handleCommandsiRSt6vectorISt10unique_ptrI12ActiveObjectSt14default_deleteIS2_EESaIS5_EERS1_I5GraphS3_IS9_EER10MSTFactoryRS1_I4TreeS3_ISF_EEEUlvE_EOT_RNSt16remove_referenceISL_E4typeE
FNDA:36,_ZSt7forwardIRZ14handleCommandsiRSt6vectorISt10unique_ptrI12ActiveObjectSt14default_deleteIS2_EESaIS5_EERS1_I5GraphS3_IS9_EER10MSTFactoryRS1_I4TreeS3_ISF_EEEUlvE_EOT_RNSt16remove_referenceISL_E4typeE
FN:77,_ZSt7forwardISt14default_deleteI9functArgsEEOT_RNSt16remove_referenceIS3_E4typeE
FNDA:3,_ZSt7forwardISt14default_deleteI9functArgsEEOT_RNSt16remove_referenceIS3_E4typeE
FN:77,_ZSt7forwardIRZ14handleCommandsiRSt6vectorISt10unique_ptrI12ActiveObjectSt14default_deleteIS2_EESaIS5_EERS1_I5GraphS3_IS9_EER10MSTFactoryRS1_I4TreeS3_ISF_EEEUlvE0_EOT_RNSt16remove_referenceISL_E4typeE
FNDA:90,_ZSt7forwardIRZ14handleCommandsiRSt6vectorISt10unique_ptrI12ActiveObjectSt14default_deleteIS2_EESaIS5_EERS1_I5GraphS3_IS9_EER10MSTFactoryRS1_I4TreeS3_ISF_EEEUlvE0_EOT_RNSt16remove_referenceISL_E4typeE
FN:77,_ZSt7forwardIZ4mainEUliE_EOT_RNSt16remove_referenceIS1_E4typeE
FNDA:4,_ZSt7forwardIZ4mainEUliE_EOT_RNSt16remove_referenceIS1_E4typeE
FN:77,_ZSt7forwardISt14default_deleteI4TreeEEOT_RNSt16remove_referenceIS3_E4typeE
FNDA:4,_ZSt7forwardISt14default_deleteI4TreeEEOT_RNSt16remove_referenceIS3_E4typeE
FN:77,_ZSt7forwardIRZ14handleCommandsiRSt6vectorISt10unique_ptrI12ActiveObjectSt14default_deleteIS2_EESaIS5_EERS1_I5GraphS3_IS9_EER10MSTFactoryRS1_I4TreeS3_ISF_EEEUlvE1_EOT_RNSt16remove_referenceISL_E4typeE
FNDA:18,_ZSt7forwardIRZ14handleCommandsiRSt6vectorISt10unique_ptrI12ActiveObjectSt14default_deleteIS2_EESaIS5_EERS1_I5GraphS3_IS9_EER10MSTFactoryRS1_I4TreeS3_ISF_EEEUlvE1_EOT_RNSt16remove_referenceISL_E4typeE
FN:77,_ZSt7forwardIRZ14handleCommandsiRSt6vectorISt10unique_ptrI12ActiveObjectSt14default_deleteIS2_EESaIS5_EERS1_I5GraphS3_IS9_EER10MSTFactoryRS1_I4TreeS3_ISF_EEEUlvE10_EOT_RNSt16remove_referenceISL_E4typeE
FNDA:18,_ZSt7forwardIRZ14handleCommandsiRSt6vectorISt10unique_ptrI12ActiveObjectSt14default_deleteIS2_EESaIS5_EERS1_I5GraphS3_IS9_EER10MSTFactoryRS1_I4TreeS3_ISF_EEEUlvE10_EOT_RNSt16remove_referenceISL_E4typeE
FN:77,_ZSt7forwardIRZ14handleCommandsiRSt6vectorISt10unique_ptrI12ActiveObjectSt14default_deleteIS2_EESaIS5_EERS1_I5GraphS3_IS9_EER10MSTFactoryRS1_I4TreeS3_ISF_EEEUlvE9_EOT_RNSt16remove_referenceISL_E4typeE
FNDA:18,_ZSt7forwardIRZ14handleCommandsiRSt6vectorISt10unique_ptrI12ActiveObjectSt14default_deleteIS2_EESaIS5_EERS1_I5GraphS3_IS9_EER10MSTFactoryRS1_I4TreeS3_ISF_EEEUlvE9_EOT_RNSt16remove_referenceISL_E4typeE
FN:77,_ZSt7forwardIRZ14handleCommandsiRSt6vectorISt10unique_ptrI12ActiveObjectSt14default_deleteIS2_EESaIS5_EERS1_I5GraphS3_IS9_EER10MSTFactoryRS1_I4TreeS3_ISF_EEEUlvE8_EOT_RNSt16remove_referenceISL_E4typeE
FNDA:27,_ZSt7forwardIRZ14handleCommandsiRSt6vectorISt10unique_ptrI12ActiveObjectSt14default_deleteIS2_EESaIS5_EERS1_I5GraphS3_IS9_EER10MSTFactoryRS1_I4TreeS3_ISF_EEEUlvE8_EOT_RNSt16remove_referenceISL_E4typeE
FN:77,_ZSt7forwardIRZ14handleCommandsiRSt6vectorISt10unique_ptrI12ActiveObjectSt14default_deleteIS2_EESaIS5_EERS1_I5GraphS3_IS9_EER10MSTFactoryRS1_I4TreeS3_ISF_EEEUlvE6_EOT_RNSt16remove_referenceISL_E4typeE
FNDA:45,_ZSt7forwardIRZ14handleCommandsiRSt6vectorISt10unique_ptrI12ActiveObjectSt14default_deleteIS2_EESaIS5_EERS1_I5GraphS3_IS9_EER10MSTFactoryRS1_I4TreeS3_ISF_EEEUlvE6_EOT_RNSt16remove_referenceISL_E4typeE
FN:77,_ZSt7forwardIRZ14handleCommandsiRSt6vectorISt10unique_ptrI12ActiveObjectSt14default_deleteIS2_EESaIS5_EERS1_I5GraphS3_IS9_EER10MSTFactoryRS1_I4TreeS3_ISF_EEEUlvE5_EOT_RNSt16remove_referenceISL_E4typeE
FNDA:18,_ZSt7forwardIRZ14handleCommandsiRSt6vectorISt10unique_ptrI12ActiveObjectSt14default_deleteIS2_EESaIS5_EERS1_I5GraphS3_IS9_EER10MSTFactoryRS1_I4TreeS3_ISF_EEEUlvE5_EOT_RNSt16remove_referenceISL_E4typeE
FN:77,_ZSt7forwardIRZ14handleCommandsiRSt6vectorISt10unique_ptrI12ActiveObjectSt14default_deleteIS2_EESaIS5_EERS1_I5GraphS3_IS9_EER10MSTFactoryRS1_I4TreeS3_ISF_EEEUlvE4_EOT_RNSt16remove_referenceISL_E4typeE
FNDA:18,_ZSt7forwardIRZ14handleCommandsiRSt6vectorISt10unique_ptrI12ActiveObjectSt14default_deleteIS2_EESaIS5_EERS1_I5GraphS3_IS9_EER10MSTFactoryRS1_I4TreeS3_ISF_EEEUlvE4_EOT_RNSt16remove_referenceISL_E4typeE
FN:77,_ZSt7forwardIRZ14handleCommandsiRSt6vectorISt10unique_ptrI12ActiveObjectSt14default_deleteIS2_EESaIS5_EERS1_I5GraphS3_IS9_EER10MSTFactoryRS1_I4TreeS3_ISF_EEEUlvE3_EOT_RNSt16remove_referenceISL_E4typeE
FNDA:18,_ZSt7forwardIRZ14handleCommandsiRSt6vectorISt10unique_ptrI12ActiveObjectSt14default_deleteIS2_EESaIS5_EERS1_I5GraphS3_IS9_EER10MSTFactoryRS1_I4TreeS3_ISF_EEEUlvE3_EOT_RNSt16remove_referenceISL_E4typeE
FN:77,_ZSt7forwardIRKmEOT_RNSt16remove_referenceIS2_E4typeE
FNDA:9,_ZSt7forwardIRKmEOT_RNSt16remove_referenceIS2_E4typeE
FN:77,_ZSt7forwardIiEOT_RNSt16remove_referenceIS0_E4typeE
FNDA:73,_ZSt7forwardIiEOT_RNSt16remove_referenceIS0_E4typeE
FN:77,_ZSt7forwardIRKZ14handleCommandsiRSt6vectorISt10unique_ptrI12ActiveObjectSt14default_deleteIS2_EESaIS5_EERS1_I5GraphS3_IS9_EER10MSTFactoryRS1_I4TreeS3_ISF_EEEUlvE10_EOT_RNSt16remove_referenceISM_E4typeE
FNDA:0,_ZSt7forwardIRKZ14handleCommandsiRSt6vectorISt10unique_ptrI12ActiveObjectSt14default_deleteIS2_EESaIS5_EERS1_I5GraphS3_IS9_EER10MSTFactoryRS1_I4TreeS3_ISF_EEEUlvE10_EOT_RNSt16remove_referenceISM_E4typeE
FN:77,_ZSt7forwardIRKZ14handleCommandsiRSt6vectorISt10unique_ptrI12ActiveObjectSt14default_deleteIS2_EESaIS5_EERS1_I5GraphS3_IS9_EER10MSTFactoryRS1_I4TreeS3_ISF_EEEUlvE9_EOT_RNSt16remove_referenceISM_E4typeE
FNDA:0,_ZSt7forwardIRKZ14handleCommandsiRSt6vectorISt10unique_ptrI12ActiveObjectSt14default_deleteIS2_EESaIS5_EERS1_I5GraphS3_IS9_EER10MSTFactoryRS1_I4TreeS3_ISF_EEEUlvE9_EOT_RNSt16remove_referenceISM_E4typeE
FN:77,_ZSt7forwardIRKZ14handleCommandsiRSt6vectorISt10unique_ptrI12ActiveObjectSt14default_deleteIS2_EESaIS5_EERS1_I5GraphS3_IS9_EER10MSTFactoryRS1_I4TreeS3_ISF_EEEUlvE8_EOT_RNSt16remove_referenceISM_E4typeE
FNDA:0,_ZSt7forwardIRKZ14handleCommandsiRSt6vectorISt10unique_ptrI12ActiveObjectSt14default_deleteIS2_EESaIS5_EERS1_I5GraphS3_IS9_EER10MSTFactoryRS1_I4TreeS3_ISF_EEEUlvE8_EOT_RNSt16remove_referenceISM_E4typeE
FN:77,_ZSt7forwardIRKZ14handleCommandsiRSt6vectorISt10unique_ptrI12ActiveObjectSt14default_deleteIS2_EESaIS5_EERS1_I5GraphS3_IS9_EER10MSTFactoryRS1_I4TreeS3_ISF_EEEUlvE6_EOT_RNSt16remove_referenceISM_E4typeE
FNDA:0,_ZSt7forwardIRKZ14handleCommandsiRSt6vectorISt10unique_ptrI12ActiveObjectSt14default_deleteIS2_EESaIS5_EERS1_I5GraphS3_IS9_EER10MSTFactoryRS1_I4TreeS3_ISF_EEEUlvE6_EOT_RNSt16remove_referenceISM_E4typeE
FN:77,_ZSt7forwardIRKZ14handleCommandsiRSt6vectorISt10unique_ptrI12ActiveObjectSt14default_deleteIS2_EESaIS5_EERS1_I5GraphS3_IS9_EER10MSTFactoryRS1_I4TreeS3_ISF_EEEUlvE5_EOT_RNSt16remove_referenceISM_E4typeE
FNDA:0,_ZSt7forwardIRKZ14handleCommandsiRSt6vectorISt10unique_ptrI12ActiveObjectSt14default_deleteIS2_EESaIS5_EERS1_I5GraphS3_IS9_EER10MSTFactoryRS1_I4TreeS3_ISF_EEEUlvE5_EOT_RNSt16remove_referenceISM_E4typeE
FN:77,_ZSt7forwardIRKZ14handleCommandsiRSt6vectorISt10unique_ptrI12ActiveObjectSt14default_deleteIS2_EESaIS5_EERS1_I5GraphS3_IS9_EER10MSTFactoryRS1_I4TreeS3_ISF_EEEUlvE4_EOT_RNSt16remove_referenceISM_E4typeE
FNDA:0,_ZSt7forwardIRKZ14handleCommandsiRSt6vectorISt10unique_ptrI12ActiveObjectSt14default_deleteIS2_EESaIS5_EERS1_I5GraphS3_IS9_EER10MSTFactoryRS1_I4TreeS3_ISF_EEEUlvE4_EOT_RNSt16remove_referenceISM_E4typeE
FN:77,_ZSt7forwardIRKZ14handleCommandsiRSt6vectorISt10unique_ptrI12ActiveObjectSt14default_deleteIS2_EESaIS5_EERS1_I5GraphS3_IS9_EER10MSTFactoryRS1_I4TreeS3_ISF_EEEUlvE3_EOT_RNSt16remove_referenceISM_E4typeE
FNDA:0,_ZSt7forwardIRKZ14handleCommandsiRSt6vectorISt10unique_ptrI12ActiveObjectSt14default_deleteIS2_EESaIS5_EERS1_I5GraphS3_IS9_EER10MSTFactoryRS1_I4TreeS3_ISF_EEEUlvE3_EOT_RNSt16remove_referenceISM_E4typeE
FN:77,_ZSt7forwardIRKZ14handleCommandsiRSt6vectorISt10unique_ptrI12ActiveObjectSt14default_deleteIS2_EESaIS5_EERS1_I5GraphS3_IS9_EER10MSTFactoryRS1_I4TreeS3_ISF_EEEUlvE2_EOT_RNSt16remove_referenceISM_E4typeE
FNDA:0,_ZSt7forwardIRKZ14handleCommandsiRSt6vectorISt10unique_ptrI12ActiveObjectSt14default_deleteIS2_EESaIS5_EERS1_I5GraphS3_IS9_EER10MSTFactoryRS1_I4TreeS3_ISF_EEEUlvE2_EOT_RNSt16remove_referenceISM_E4typeE
FN:77,_ZSt7forwardIRKZ14handleCommandsiRSt6vectorISt10unique_ptrI12ActiveObjectSt14default_deleteIS2_EESaIS5_EERS1_I5GraphS3_IS9_EER10MSTFactoryRS1_I4TreeS3_ISF_EEEUlvE1_EOT_RNSt16remove_referenceISM_E4typeE
FNDA:0,_ZSt7forwardIRKZ14handleCommandsiRSt6vectorISt10unique_ptrI12ActiveObjectSt14default_deleteIS2_EESaIS5_EERS1_I5GraphS3_IS9_EER10MSTFactoryRS1_I4TreeS3_ISF_EEEUlvE1_EOT_RNSt16remove_referenceISM_E4typeE
FN:77,_ZSt7forwardIRKZ14handleCommandsiRSt6vectorISt10unique_ptrI12ActiveObjectSt14default_deleteIS2_EESaIS5_EERS1_I5GraphS3_IS9_EER10MSTFactoryRS1_I4TreeS3_ISF_EEEUlvE0_EOT_RNSt16remove_referenceISM_E4typeE
FNDA:0,_ZSt7forwardIRKZ14handleCommandsiRSt6vectorISt10unique_ptrI12ActiveObjectSt14default_deleteIS2_EESaIS5_EERS1_I5GraphS3_IS9_EER10MSTFactoryRS1_I4TreeS3_ISF_EEEUlvE0_EOT_RNSt16remove_referenceISM_E4typeE
FN:77,_ZSt7forwardIRKZ14handleCommandsiRSt6vectorISt10unique_ptrI12ActiveObjectSt14default_deleteIS2_EESaIS5_EERS1_I5GraphS3_IS9_EER10MSTFactoryRS1_I4TreeS3_ISF_EEEUlvE_EOT_RNSt16remove_referenceISM_E4typeE
FNDA:0,_ZSt7forwardIRKZ14handleCommandsiRSt6vectorISt10unique_ptrI12ActiveObjectSt14default_deleteIS2_EESaIS5_EERS1_I5GraphS3_IS9_EER10MSTFactoryRS1_I4TreeS3_ISF_EEEUlvE_EOT_RNSt16remove_referenceISM_E4typeE
FN:77,_ZSt7forwardISt6vectorI4EdgeSaIS1_EEEOT_RNSt16remove_referenceIS4_E4typeE
FNDA:0,_ZSt7forwardISt6vectorI4EdgeSaIS1_EEEOT_RNSt16remove_referenceIS4_E4typeE
FN:77,_ZSt7forwardIRKZ4mainEUliE_EOT_RNSt16remove_referenceIS3_E4typeE
FNDA:0,_ZSt7forwardIRKZ4mainEUliE_EOT_RNSt16remove_referenceIS3_E4typeE
FN:77,_ZSt7forwardIM12ActiveObjectFvvEEOT_RNSt16remove_referenceIS3_E4typeE
FNDA:56,_ZSt7forwardIM12ActiveObjectFvvEEOT_RNSt16remove_referenceIS3_E4typeE
FN:77,_ZSt7forwardIRZ4mainEUliE_EOT_RNSt16remove_referenceIS2_E4typeE
FNDA:2,_ZSt7forwardIRZ4mainEUliE_EOT_RNSt16remove_referenceIS2_E4typeE
FN:77,_ZSt7forwardIRSt10unique_ptrI4TreeSt14default_deleteIS1_EEEOT_RNSt16remove_referenceIS6_E4typeE
FNDA:3,_ZSt7forwardIRSt10unique_ptrI4TreeSt14default_deleteIS1_EEEOT_RNSt16remove_referenceIS6_E4typeE
FN:104,_ZSt4moveIRP4TreeEONSt16remove_referenceIT_E4typeEOS4_
FNDA:9,_ZSt4moveIRP4TreeEONSt16remove_referenceIT_E4typeEOS4_
FN:104,_ZSt4moveIRSaIcEEONSt16remove_referenceIT_E4typeEOS3_
FNDA:0,_ZSt4moveIRSaIcEEONSt16remove_referenceIT_E4typeEOS3_
FN:104,_ZSt4moveIRP5GraphEONSt16remove_referenceIT_E4typeEOS4_
FNDA:5,_ZSt4moveIRP5GraphEONSt16remove_referenceIT_E4typeEOS4_
FN:104,_ZSt4moveIRNSt7__cxx1112basic_stringIcSt11char_traitsIcESaIcEEEEONSt16remove_referenceIT_E4typeEOS8_
FNDA:126,_ZSt4moveIRNSt7__cxx1112basic_stringIcSt11char_traitsIcESaIcEEEEONSt16remove_referenceIT_E4typeEOS8_
FN:104,_ZSt4moveIRP11MSTStrategyEONSt16remove_referenceIT_E4typeEOS4_
FNDA:4,_ZSt4moveIRP11MSTStrategyEONSt16remove_referenceIT_E4typeEOS4_
FN:104,_ZSt4moveIRNSt12_Vector_baseI4EdgeSaIS1_EE12_Vector_implEEONSt16remove_referenceIT_E4typeEOS7_
FNDA:0,_ZSt4moveIRNSt12_Vector_baseI4EdgeSaIS1_EE12_Vector_implEEONSt16remove_referenceIT_E4typeEOS7_
FN:104,_ZSt4moveIRP9functArgsEONSt16remove_referenceIT_E4typeEOS4_
FNDA:1,_ZSt4moveIRP9functArgsEONSt16remove_referenceIT_E4typeEOS4_
FN:104,_ZSt4moveIRP12ActiveObjectEONSt16remove_referenceIT_E4typeEOS4_
FNDA:7,_ZSt4moveIRP12ActiveObjectEONSt16remove_referenceIT_E4typeEOS4_
FN:104,_ZSt4moveIRSt10unique_ptrI12ActiveObjectSt14default_deleteIS1_EEEONSt16remove_referenceIT_E4typeEOS7_
FNDA:14,_ZSt4moveIRSt10unique_ptrI12ActiveObjectSt14default_deleteIS1_EEEONSt16remove_referenceIT_E4typeEOS7_
FN:104,_ZSt4moveIRPNSt6thread6_StateEEONSt16remove_referenceIT_E4typeEOS5_
FNDA:0,_ZSt4moveIRPNSt6thread6_StateEEONSt16remove_referenceIT_E4typeEOS5_
FN:104,_ZSt4moveIRSt9_Any_dataEONSt16remove_referenceIT_E4typeEOS3_
FNDA:111,_ZSt4moveIRSt9_Any_dataEONSt16remove_referenceIT_E4typeEOS3_
FN:104,_ZSt4moveIRPFbRSt9_Any_dataRKS0_St18_Manager_operationEEONSt16remove_referenceIT_E4typeEOS9_
FNDA:111,_ZSt4moveIRPFbRSt9_Any_dataRKS0_St18_Manager_operationEEONSt16remove_referenceIT_E4typeEOS9_
FN:104,_ZSt4moveIRPFvRKSt9_Any_dataOiEEONSt16remove_referenceIT_E4typeEOS8_
FNDA:3,_ZSt4moveIRPFvRKSt9_Any_dataOiEEONSt16remove_referenceIT_E4typeEOS8_
FN:104,_ZSt4moveIRN9__gnu_cxx17__normal_iteratorIPmSt6vectorImSaImEEEEEONSt16remove_referenceIT_E4typeEOS9_
FNDA:2,_ZSt4moveIRN9__gnu_cxx17__normal_iteratorIPmSt6vectorImSaImEEEEEONSt16remove_referenceIT_E4typeEOS9_
FN:104,_ZSt4moveIRN9__gnu_cxx17__normal_iteratorIPSt10unique_ptrI12ActiveObjectSt14default_deleteIS3_EESt6vectorIS6_SaIS6_EEEEEONSt16remove_referenceIT_E4typeEOSE_
FNDA:2,_ZSt4moveIRN9__gnu_cxx17__normal_iteratorIPSt10unique_ptrI12ActiveObjectSt14default_deleteIS3_EESt6vectorIS6_SaIS6_EEEEEONSt16remove_referenceIT_E4typeEOSE_
FN:104,_ZSt4moveIRSt5tupleIJP12ActiveObjectSt14default_deleteIS1_EEEEONSt16remove_referenceIT_E4typeEOS8_
FNDA:14,_ZSt4moveIRSt5tupleIJP12ActiveObjectSt14default_deleteIS1_EEEEONSt16remove_referenceIT_E4typeEOS8_
FN:104,_ZSt4moveIRSt6vectorI4EdgeSaIS1_EEEONSt16remove_referenceIT_E4typeEOS6_
FNDA:0,_ZSt4moveIRSt6vectorI4EdgeSaIS1_EEEONSt16remove_referenceIT_E4typeEOS6_
FN:104,_ZSt4moveIRSt5tupleIJM12ActiveObjectFvvEPS1_EEEONSt16remove_referenceIT_E4typeEOS8_
FNDA:14,_ZSt4moveIRSt5tupleIJM12ActiveObjectFvvEPS1_EEEONSt16remove_referenceIT_E4typeEOS8_
FN:196,_ZSt4swapISt9_Any_dataENSt9enable_ifIXsrSt6__and_IJSt6__not_ISt15__is_tuple_likeIT_EESt21is_move_constructibleIS5_ESt18is_move_assignableIS5_EEE5valueEvE4typeERS5_SF_
FNDA:37,_ZSt4swapISt9_Any_dataENSt9enable_ifIXsrSt6__and_IJSt6__not_ISt15__is_tuple_likeIT_EESt21is_move_constructibleIS5_ESt18is_move_assignableIS5_EEE5valueEvE4typeERS5_SF_
FN:196,_ZSt4swapIPFbRSt9_Any_dataRKS0_St18_Manager_operationEENSt9enable_ifIXsrSt6__and_IJSt6__not_ISt15__is_tuple_likeIT_EESt21is_move_constructibleISB_ESt18is_move_assignableISB_EEE5valueEvE4typeERSB_SL_
FNDA:37,_ZSt4swapIPFbRSt9_Any_dataRKS0_St18_Manager_operationEENSt9enable_ifIXsrSt6__and_IJSt6__not_ISt15__is_tuple_likeIT_EESt21is_move_constructibleISB_ESt18is_move_assignableISB_EEE5valueEvE4typeERSB_SL_
FN:196,_ZSt4swapIPFvRKSt9_Any_dataOiEENSt9enable_ifIXsrSt6__and_IJSt6__not_ISt15__is_tuple_likeIT_EESt21is_move_constructibleISA_ESt18is_move_assignableISA_EEE5valueEvE4typeERSA_SK_
FNDA:1,_ZSt4swapIPFvRKSt9_Any_dataOiEENSt9enable_ifIXsrSt6__and_IJSt6__not_ISt15__is_tuple_likeIT_EESt21is_move_constructibleISA_ESt18is_move_assignableISA_EEE5valueEvE4typeERSA_SK_
DA:49,0
DA:50,0
DA:49,28
DA:50,28
DA:49,0
DA:50,0
DA:49,66
DA:50,66
DA:49,3
DA:50,3
DA:49,3
DA:50,3
DA:49,3
DA:50,3
DA:49,3
DA:50,3
DA:49,249
DA:50,249
DA:77,18
DA:78,18
DA:77,3
DA:78,3
DA:77,4
DA:78,4
DA:77,18
DA:78,18
DA:77,18
DA:78,18
DA:77,27
DA:78,27
DA:77,45
DA:78,45
DA:77,18
DA:78,18
DA:77,18
DA:78,18
DA:77,18
DA:78,18
DA:77,39
DA:78,39
DA:77,18
DA:78,18
DA:77,4
DA:78,4
DA:77,90
DA:78,90
DA:77,36
DA:78,36
DA:77,3
DA:78,3
DA:77,23
DA:78,23
DA:77,70
DA:78,70
DA:77,56
DA:78,56
DA:77,73
DA:78,73
DA:77,0
DA:78,0
DA:77,0
DA:78,0
DA:77,0
DA:78,0
DA:77,0
DA:78,0
DA:77,0
DA:78,0
DA:77,0
DA:78,0
DA:77,0
DA:78,0
DA:77,0
DA:78,0
DA:77,0
DA:78,0
DA:77,0
DA:78,0
DA:77,0
DA:78,0
DA:77,0
DA:78,0
DA:77,0
DA:78,0
DA:77,2
DA:78,2
DA:77,9
DA:78,9
DA:77,3
DA:78,3
DA:77,3
DA:78,3
DA:77,3
DA:78,3
DA:77,3
DA:78,3
DA:104,0
DA:105,0
DA:104,0
DA:105,0
DA:104,126
DA:105,126
DA:104,4
DA:105,4
DA:104,5
DA:105,5
DA:104,9
DA:105,9
DA:104,1
DA:105,1
DA:104,7
DA:105,7
DA:104,14
DA:105,14
DA:104,14
DA:105,14
DA:104,111
DA:105,111
DA:104,111
DA:105,111
DA:104,3
DA:105,3
DA:104,2
DA:105,2
DA:104,2
DA:105,2
DA:104,14
DA:105,14
DA:104,0
DA:105,0
DA:104,0
DA:105,0
DA:196,1
DA:204,1
DA:205,1
DA:206,1
DA:207,1
DA:196,37
DA:204,37
DA:205,37
DA:206,37
DA:207,37
DA:196,37
DA:204,37
DA:205,37
DA:206,37
DA:207,37
end_of_record
SF:/usr/include/c++/11/bits/ios_base.h
FN:129,_ZStorSt13_Ios_OpenmodeS_
FNDA:29,_ZStorSt13_Ios_OpenmodeS_
DA:129,29
DA:130,29
end_of_record
SF:/home/eladubuntu/Git Projects/OS_2024-FINAL_PROJECT_MST/PipelineServer.cpp
FN:34,_Z13signalHandleri
FNDA:1,_Z13signalHandleri
FN:47,_Z12sendResponseiRKNSt7__cxx1112basic_stringIcSt11char_traitsIcESaIcEEE
FNDA:32,_Z12sendResponseiRKNSt7__cxx1112basic_stringIcSt11char_traitsIcESaIcEEE
FN:56,_Z9scanGraphRiS_RNSt7__cxx1118basic_stringstreamIcSt11char_traitsIcESaIcEEERSt10unique_ptrI5GraphSt14default_deleteIS8_EE
FNDA:4,_Z9scanGraphRiS_RNSt7__cxx1118basic_stringstreamIcSt11char_traitsIcESaIcEEERSt10unique_ptrI5GraphSt14default_deleteIS8_EE
FN:71,_Z11scanSrcDestRNSt7__cxx1118basic_stringstreamIcSt11char_traitsIcESaIcEEERSt6atomicIiES8_
FNDA:5,_Z11scanSrcDestRNSt7__cxx1118basic_stringstreamIcSt11char_traitsIcESaIcEEERSt6atomicIiES8_
FN:89,_Z14handleCommandsiRSt6vectorISt10unique_ptrI12ActiveObjectSt14default_deleteIS1_EESaIS4_EERS0_I5GraphS2_IS8_EER10MSTFactoryRS0_I4TreeS2_ISE_EE
FNDA:3,_Z14handleCommandsiRSt6vectorISt10unique_ptrI12ActiveObjectSt14default_deleteIS1_EESaIS4_EERS0_I5GraphS2_IS8_EER10MSTFactoryRS0_I4TreeS2_ISE_EE
FN:144,_ZZ14handleCommandsiRSt6vectorISt10unique_ptrI12ActiveObjectSt14default_deleteIS1_EESaIS4_EERS0_I5GraphS2_IS8_EER10MSTFactoryRS0_I4TreeS2_ISE_EEENKUlvE_clEv
FNDA:4,_ZZ14handleCommandsiRSt6vectorISt10unique_ptrI12ActiveObjectSt14default_deleteIS1_EESaIS4_EERS0_I5GraphS2_IS8_EER10MSTFactoryRS0_I4TreeS2_ISE_EEENKUlvE_clEv
FN:202,_ZZ14handleCommandsiRSt6vectorISt10unique_ptrI12ActiveObjectSt14default_deleteIS1_EESaIS4_EERS0_I5GraphS2_IS8_EER10MSTFactoryRS0_I4TreeS2_ISE_EEENKUlvE0_clEv
FNDA:10,_ZZ14handleCommandsiRSt6vectorISt10unique_ptrI12ActiveObjectSt14default_deleteIS1_EESaIS4_EERS0_I5GraphS2_IS8_EER10MSTFactoryRS0_I4TreeS2_ISE_EEENKUlvE0_clEv
FN:226,_ZZ14handleCommandsiRSt6vectorISt10unique_ptrI12ActiveObjectSt14default_deleteIS1_EESaIS4_EERS0_I5GraphS2_IS8_EER10MSTFactoryRS0_I4TreeS2_ISE_EEENKUlvE1_clEv
FNDA:2,_ZZ14handleCommandsiRSt6vectorISt10unique_ptrI12ActiveObjectSt14default_deleteIS1_EESaIS4_EERS0_I5GraphS2_IS8_EER10MSTFactoryRS0_I4TreeS2_ISE_EEENKUlvE1_clEv
FN:237,_ZZ14handleCommandsiRSt6vectorISt10unique_ptrI12ActiveObjectSt14default_deleteIS1_EESaIS4_EERS0_I5GraphS2_IS8_EER10MSTFactoryRS0_I4TreeS2_ISE_EEENKUlvE2_clEv
FNDA:2,_ZZ14handleCommandsiRSt6vectorISt10unique_ptrI12ActiveObjectSt14default_deleteIS1_EESaIS4_EERS0_I5GraphS2_IS8_EER10MSTFactoryRS0_I4TreeS2_ISE_EEENKUlvE2_clEv
FN:256,_ZZ14handleCommandsiRSt6vectorISt10unique_ptrI12ActiveObjectSt14default_deleteIS1_EESaIS4_EERS0_I5GraphS2_IS8_EER10MSTFactoryRS0_I4TreeS2_ISE_EEENKUlvE3_clEv
FNDA:2,_ZZ14handleCommandsiRSt6vectorISt10unique_ptrI12ActiveObjectSt14default_deleteIS1_EESaIS4_EERS0_I5GraphS2_IS8_EER10MSTFactoryRS0_I4TreeS2_ISE_EEENKUlvE3_clEv
FN:267,_ZZ14handleCommandsiRSt6vectorISt10unique_ptrI12ActiveObjectSt14default_deleteIS1_EESaIS4_EERS0_I5GraphS2_IS8_EER10MSTFactoryRS0_I4TreeS2_ISE_EEENKUlvE4_clEv
FNDA:2,_ZZ14handleCommandsiRSt6vectorISt10unique_ptrI12ActiveObjectSt14default_deleteIS1_EESaIS4_EERS0_I5GraphS2_IS8_EER10MSTFactoryRS0_I4TreeS2_ISE_EEENKUlvE4_clEv
FN:286,_ZZ14handleCommandsiRSt6vectorISt10unique_ptrI12ActiveObjectSt14default_deleteIS1_EESaIS4_EERS0_I5GraphS2_IS8_EER10MSTFactoryRS0_I4TreeS2_ISE_EEENKUlvE5_clEv
FNDA:2,_ZZ14handleCommandsiRSt6vectorISt10unique_ptrI12ActiveObjectSt14default_deleteIS1_EESaIS4_EERS0_I5GraphS2_IS8_EER10MSTFactoryRS0_I4TreeS2_ISE_EEENKUlvE5_clEv
FN:307,_ZZ14handleCommandsiRSt6vectorISt10unique_ptrI12ActiveObjectSt14default_deleteIS1_EESaIS4_EERS0_I5GraphS2_IS8_EER10MSTFactoryRS0_I4TreeS2_ISE_EEENKUlvE6_clEv
FNDA:5,_ZZ14handleCommandsiRSt6vectorISt10unique_ptrI12ActiveObjectSt14default_deleteIS1_EESaIS4_EERS0_I5GraphS2_IS8_EER10MSTFactoryRS0_I4TreeS2_ISE_EEENKUlvE6_clEv
FN:316,_ZZ14handleCommandsiRSt6vectorISt10unique_ptrI12ActiveObjectSt14default_deleteIS1_EESaIS4_EERS0_I5GraphS2_IS8_EER10MSTFactoryRS0_I4TreeS2_ISE_EEENKUlvE7_clEv
FNDA:10,_ZZ14handleCommandsiRSt6vectorISt10unique_ptrI12ActiveObjectSt14default_deleteIS1_EESaIS4_EERS0_I5GraphS2_IS8_EER10MSTFactoryRS0_I4TreeS2_ISE_EEENKUlvE7_clEv
FN:329,_ZZ14handleCommandsiRSt6vectorISt10unique_ptrI12ActiveObjectSt14default_deleteIS1_EESaIS4_EERS0_I5GraphS2_IS8_EER10MSTFactoryRS0_I4TreeS2_ISE_EEENKUlvE8_clEv
FNDA:3,_ZZ14handleCommandsiRSt6vectorISt10unique_ptrI12ActiveObjectSt14default_deleteIS1_EESaIS4_EERS0_I5GraphS2_IS8_EER10MSTFactoryRS0_I4TreeS2_ISE_EEENKUlvE8_clEv
FN:350,_ZZ14handleCommandsiRSt6vectorISt10unique_ptrI12ActiveObjectSt14default_deleteIS1_EESaIS4_EERS0_I5GraphS2_IS8_EER10MSTFactoryRS0_I4TreeS2_ISE_EEENKUlvE9_clEv
FNDA:2,_ZZ14handleCommandsiRSt6vectorISt10unique_ptrI12ActiveObjectSt14default_deleteIS1_EESaIS4_EERS0_I5GraphS2_IS8_EER10MSTFactoryRS0_I4TreeS2_ISE_EEENKUlvE9_clEv
FN:365,_ZZ14handleCommandsiRSt6vectorISt10unique_ptrI12ActiveObjectSt14default_deleteIS1_EESaIS4_EERS0_I5GraphS2_IS8_EER10MSTFactoryRS0_I4TreeS2_ISE_EEENKUlvE10_clEv
FNDA:2,_ZZ14handleCommandsiRSt6vectorISt10unique_ptrI12ActiveObjectSt14default_deleteIS1_EESaIS4_EERS0_I5GraphS2_IS8_EER10MSTFactoryRS0_I4TreeS2_ISE_EEENKUlvE10_clEv
FN:400,_Z16acceptConnectioni
FNDA:4,_Z16acceptConnectioni
FN:422,main
FNDA:1,main
FN:433,_ZZ4mainENKUliE_clEi
FNDA:1,_ZZ4mainENKUliE_clEi
FN:516,_ZZ4mainENKUlPvE0_clES_
FNDA:3,_ZZ4mainENKUlPvE0_clES_
DA:34,1
DA:36,1
DA:37,1
DA:38,1
DA:40,1
DA:41,1
DA:42,1
DA:43,1
DA:44,1
DA:45,0
DA:47,32
DA:49,32
DA:51,0
DA:52,0
DA:53,0
DA:54,32
DA:56,4
DA:59,4
DA:61,1
DA:62,1
DA:63,1
DA:64,1
DA:66,3
DA:68,3
DA:71,5
DA:75,5
DA:78,2
DA:79,2
DA:83,3
DA:84,3
DA:86,3
DA:89,3
DA:90,3
DA:91,3
DA:92,3
DA:93,3
DA:95,31
DA:96,31
DA:97,31
DA:98,31
DA:99,2
DA:100,2
DA:101,2
DA:102,2
DA:103,2
DA:104,2
DA:105,0
DA:108,29
DA:109,29
DA:110,29
DA:112,29
DA:113,29
DA:115,29
DA:116,29
DA:117,29
DA:119,29
DA:121,29
DA:123,5
DA:126,5
DA:127,1
DA:128,1
DA:130,4
DA:131,2
DA:132,2
DA:134,4
DA:135,2
DA:136,2
DA:139,4
DA:140,4
DA:141,4
DA:142,4
DA:144,4
DA:145,4
DA:146,4
DA:147,4
DA:148,4
DA:149,4
DA:150,4
DA:154,4
DA:155,8
DA:156,4
DA:158,4
DA:159,4
DA:160,1
DA:161,1
DA:164,16
DA:165,14
DA:168,14
DA:169,14
DA:170,14
DA:171,14
DA:172,14
DA:173,14
DA:175,14
DA:176,1
DA:177,1
DA:178,1
DA:179,1
DA:180,1
DA:181,1
DA:182,0
DA:183,0
DA:187,13
DA:188,13
DA:189,0
DA:190,0
DA:191,0
DA:194,14
DA:196,13
DA:197,3
DA:198,3
DA:199,3
DA:202,10
DA:203,10
DA:204,10
DA:205,10
DA:209,3
DA:210,3
DA:211,3
DA:212,3
DA:213,3
DA:214,30
DA:215,3
DA:216,3
DA:217,1
DA:218,1
DA:221,2
DA:222,1
DA:223,1
DA:226,2
DA:227,2
DA:228,2
DA:229,2
DA:230,2
DA:233,2
DA:234,2
DA:235,2
DA:237,2
DA:238,2
DA:239,2
DA:240,2
DA:241,2
DA:242,2
DA:243,2
DA:244,24
DA:245,3
DA:246,3
DA:247,1
DA:248,1
DA:251,2
DA:252,1
DA:253,1
DA:256,2
DA:257,2
DA:258,2
DA:259,2
DA:260,2
DA:263,2
DA:264,2
DA:265,2
DA:267,2
DA:268,2
DA:269,2
DA:270,2
DA:271,2
DA:272,2
DA:273,2
DA:274,21
DA:275,3
DA:276,3
DA:277,1
DA:278,1
DA:282,2
DA:283,2
DA:284,2
DA:286,2
DA:287,2
DA:288,2
DA:289,2
DA:290,2
DA:291,2
DA:292,2
DA:293,18
DA:294,6
DA:295,6
DA:296,1
DA:297,1
DA:300,5
DA:301,5
DA:303,5
DA:304,5
DA:305,5
DA:307,5
DA:308,5
DA:309,5
DA:310,5
DA:311,5
DA:312,5
DA:315,5
DA:316,15
DA:317,5
DA:319,5
DA:320,2
DA:321,2
DA:325,3
DA:326,6
DA:327,3
DA:329,3
DA:330,3
DA:331,9
DA:333,3
DA:334,3
DA:335,3
DA:336,3
DA:337,3
DA:338,17
DA:339,3
DA:340,3
DA:341,1
DA:342,1
DA:346,2
DA:347,2
DA:348,2
DA:350,2
DA:351,2
DA:352,2
DA:353,2
DA:354,2
DA:355,2
DA:356,2
DA:357,2
DA:358,9
DA:359,3
DA:360,3
DA:361,1
DA:362,1
DA:365,2
DA:366,2
DA:367,2
DA:368,2
DA:369,2
DA:370,2
DA:371,2
DA:372,6
DA:373,1
DA:374,1
DA:375,1
DA:377,2
DA:378,2
DA:382,16
DA:383,29
DA:384,13
DA:386,16
DA:387,16
DA:388,16
DA:389,16
DA:390,68
DA:392,3
DA:397,3
DA:400,4
DA:403,4
DA:404,4
DA:405,3
DA:407,0
DA:408,0
DA:410,3
DA:412,3
DA:414,3
DA:415,3
DA:416,6
DA:417,3
DA:418,3
DA:422,1
DA:425,1
DA:426,1
DA:427,1
DA:428,1
DA:429,1
DA:430,1
DA:431,1
DA:432,1
DA:433,1
DA:437,4
DA:439,3
DA:440,3
DA:442,1
DA:443,1
DA:444,1
DA:445,1
DA:446,1
DA:447,1
DA:448,8
DA:451,7
DA:453,1
DA:454,1
DA:455,2
DA:460,1
DA:463,1
DA:465,0
DA:466,0
DA:470,1
DA:472,0
DA:473,0
DA:477,1
DA:478,1
DA:479,1
DA:480,1
DA:483,1
DA:485,0
DA:486,0
DA:490,1
DA:492,0
DA:493,0
DA:497,1
DA:498,1
DA:499,1
DA:501,8
DA:503,7
DA:508,4
DA:509,3
DA:511,0
DA:514,3
DA:516,3
DA:518,3
DA:519,3
DA:521,3
DA:523,3
DA:524,3
DA:525,3
DA:529,0
end_of_record
SF:/usr/include/c++/11/bits/basic_string.h
FN:251,_ZNSt7__cxx1112basic_stringIcSt11char_traitsIcESaIcEE16_M_construct_auxIPcEEvT_S7_St12__false_type
FNDA:2,_ZNSt7__cxx1112basic_stringIcSt11char_traitsIcESaIcEE16_M_construct_auxIPcEEvT_S7_St12__false_type
FN:271,_ZNSt7__cxx1112basic_stringIcSt11char_traitsIcESaIcEE12_M_constructIPcEEvT_S7_
FNDA:2,_ZNSt7__cxx1112basic_stringIcSt11char_traitsIcESaIcEE12_M_constructIPcEEvT_S7_
FN:533,_ZNSt7__cxx1112basic_stringIcSt11char_traitsIcESaIcEEC2IS3_EEPKcRKS3_
FNDA:58,_ZNSt7__cxx1112basic_stringIcSt11char_traitsIcESaIcEEC2IS3_EEPKcRKS3_
FN:553,_ZNSt7__cxx1112basic_stringIcSt11char_traitsIcESaIcEEC2IS3_EEmcRKS3_
FNDA:83,_ZNSt7__cxx1112basic_stringIcSt11char_traitsIcESaIcEEC2IS3_EEmcRKS3_
FN:638,_ZNSt7__cxx1112basic_stringIcSt11char_traitsIcESaIcEEC2IPcvEET_S7_RKS3_
FNDA:2,_ZNSt7__cxx1112basic_stringIcSt11char_traitsIcESaIcEEC2IPcvEET_S7_RKS3_
FN:6132,_ZStplIcSt11char_traitsIcESaIcEENSt7__cxx1112basic_stringIT_T0_T1_EERKS8_PKS5_
FNDA:17,_ZStplIcSt11char_traitsIcESaIcEENSt7__cxx1112basic_stringIT_T0_T1_EERKS8_PKS5_
FN:6172,_ZStplIcSt11char_traitsIcESaIcEENSt7__cxx1112basic_stringIT_T0_T1_EEOS8_S9_
FNDA:48,_ZStplIcSt11char_traitsIcESaIcEENSt7__cxx1112basic_stringIT_T0_T1_EEOS8_S9_
FN:6194,_ZStplIcSt11char_traitsIcESaIcEENSt7__cxx1112basic_stringIT_T0_T1_EEPKS5_OS8_
FNDA:10,_ZStplIcSt11char_traitsIcESaIcEENSt7__cxx1112basic_stringIT_T0_T1_EEPKS5_OS8_
FN:6206,_ZStplIcSt11char_traitsIcESaIcEENSt7__cxx1112basic_stringIT_T0_T1_EEOS8_PKS5_
FNDA:68,_ZStplIcSt11char_traitsIcESaIcEENSt7__cxx1112basic_stringIT_T0_T1_EEOS8_PKS5_
FN:6248,_ZSteqIcSt11char_traitsIcESaIcEEbRKNSt7__cxx1112basic_stringIT_T0_T1_EEPKS5_
FNDA:125,_ZSteqIcSt11char_traitsIcESaIcEEbRKNSt7__cxx1112basic_stringIT_T0_T1_EEPKS5_
FN:6660,_ZNSt7__cxx119to_stringEi
FNDA:69,_ZNSt7__cxx119to_stringEi
FN:6721,_ZNSt7__cxx119to_stringEf
FNDA:2,_ZNSt7__cxx119to_stringEf
DA:251,2
DA:255,2
DA:256,2
DA:271,2
DA:274,2
DA:275,2
DA:533,58
DA:534,58
DA:536,58
DA:539,58
DA:540,58
DA:553,83
DA:554,83
DA:555,83
DA:638,2
DA:640,2
DA:641,2
DA:6132,17
DA:6135,17
DA:6136,17
DA:6137,17
DA:6138,0
DA:6172,48
DA:6177,48
DA:6179,48
DA:6182,48
DA:6185,48
DA:6186,48
DA:6187,0
DA:6189,48
DA:6194,10
DA:6196,10
DA:6206,68
DA:6208,68
DA:6248,125
DA:6250,125
DA:6660,69
DA:6662,69
DA:6663,69
DA:6664,69
DA:6665,69
DA:6666,69
DA:6667,69
DA:6668,0
DA:6721,2
DA:6723,2
DA:6726,2
end_of_record
SF:/usr/include/c++/11/condition_variable
FN:100,_ZNSt18condition_variable4waitIZ14handleCommandsiRSt6vectorISt10unique_ptrI12ActiveObjectSt14default_deleteIS3_EESaIS6_EERS2_I5GraphS4_ISA_EER10MSTFactoryRS2_I4TreeS4_ISG_EEEUlvE7_EEvRSt11unique_lockISt5mutexET_
FNDA:5,_ZNSt18condition_variable4waitIZ14handleCommandsiRSt6vectorISt10unique_ptrI12ActiveObjectSt14default_deleteIS3_EESaIS6_EERS2_I5GraphS4_ISA_EER10MSTFactoryRS2_I4TreeS4_ISG_EEEUlvE7_EEvRSt11unique_lockISt5mutexET_
DA:100,5
DA:102,10
DA:103,5
DA:104,5
end_of_record
SF:/usr/include/c++/11/ext/string_conversions.h
FN:99,_ZN9__gnu_cxx12__to_xstringINSt7__cxx1112basic_stringIcSt11char_traitsIcESaIcEEEcEET_PFiPT0_mPKS8_P13__va_list_tagEmSB_z
FNDA:2,_ZN9__gnu_cxx12__to_xstringINSt7__cxx1112basic_stringIcSt11char_traitsIcESaIcEEEcEET_PFiPT0_mPKS8_P13__va_list_tagEmSB_z
DA:99,2
DA:105,2
DA:109,2
DA:111,2
DA:113,2
DA:115,2
end_of_record
SF:/usr/include/c++/11/bits/stl_vector.h
FN:97,_ZNSt12_Vector_baseI4EdgeSaIS0_EE17_Vector_impl_dataC2Ev
FNDA:47,_ZNSt12_Vector_baseI4EdgeSaIS0_EE17_Vector_impl_dataC2Ev
FN:97,_ZNSt12_Vector_baseISt6threadSaIS0_EE17_Vector_impl_dataC2Ev
FNDA:1,_ZNSt12_Vector_baseISt6threadSaIS0_EE17_Vector_impl_dataC2Ev
FN:97,_ZNSt12_Vector_baseImSaImEE17_Vector_impl_dataC2Ev
FNDA:3,_ZNSt12_Vector_baseImSaImEE17_Vector_impl_dataC2Ev
FN:97,_ZNSt12_Vector_baseISt10unique_ptrI12ActiveObjectSt14default_deleteIS1_EESaIS4_EE17_Vector_impl_dataC2Ev
FNDA:3,_ZNSt12_Vector_baseISt10unique_ptrI12ActiveObjectSt14default_deleteIS1_EESaIS4_EE17_Vector_impl_dataC2Ev
FN:97,_ZNSt12_Vector_baseISt6vectorI4EdgeSaIS1_EESaIS3_EE17_Vector_impl_dataC2Ev
FNDA:7,_ZNSt12_Vector_baseISt6vectorI4EdgeSaIS1_EESaIS3_EE17_Vector_impl_dataC2Ev
FN:102,_ZNSt12_Vector_baseI4EdgeSaIS0_EE17_Vector_impl_dataC2EOS3_
FNDA:0,_ZNSt12_Vector_baseI4EdgeSaIS0_EE17_Vector_impl_dataC2EOS3_
FN:109,_ZNSt12_Vector_baseISt10unique_ptrI12ActiveObjectSt14default_deleteIS1_EESaIS4_EE17_Vector_impl_data12_M_copy_dataERKS7_
FNDA:3,_ZNSt12_Vector_baseISt10unique_ptrI12ActiveObjectSt14default_deleteIS1_EESaIS4_EE17_Vector_impl_data12_M_copy_dataERKS7_
FN:109,_ZNSt12_Vector_baseImSaImEE17_Vector_impl_data12_M_copy_dataERKS2_
FNDA:3,_ZNSt12_Vector_baseImSaImEE17_Vector_impl_data12_M_copy_dataERKS2_
FN:117,_ZNSt12_Vector_baseImSaImEE17_Vector_impl_data12_M_swap_dataERS2_
FNDA:1,_ZNSt12_Vector_baseImSaImEE17_Vector_impl_data12_M_swap_dataERS2_
FN:117,_ZNSt12_Vector_baseISt10unique_ptrI12ActiveObjectSt14default_deleteIS1_EESaIS4_EE17_Vector_impl_data12_M_swap_dataERS7_
FNDA:1,_ZNSt12_Vector_baseISt10unique_ptrI12ActiveObjectSt14default_deleteIS1_EESaIS4_EE17_Vector_impl_data12_M_swap_dataERS7_
FN:131,_ZNSt12_Vector_baseI4EdgeSaIS0_EE12_Vector_implC2Ev
FNDA:39,_ZNSt12_Vector_baseI4EdgeSaIS0_EE12_Vector_implC2Ev
FN:131,_ZNSt12_Vector_baseISt6vectorI4EdgeSaIS1_EESaIS3_EE12_Vector_implC2Ev
FNDA:7,_ZNSt12_Vector_baseISt6vectorI4EdgeSaIS1_EESaIS3_EE12_Vector_implC2Ev
FN:131,_ZNSt12_Vector_baseISt6threadSaIS0_EE12_Vector_implC2Ev
FNDA:1,_ZNSt12_Vector_baseISt6threadSaIS0_EE12_Vector_implC2Ev
FN:131,_ZNSt12_Vector_baseISt10unique_ptrI12ActiveObjectSt14default_deleteIS1_EESaIS4_EE12_Vector_implC2Ev
FNDA:1,_ZNSt12_Vector_baseISt10unique_ptrI12ActiveObjectSt14default_deleteIS1_EESaIS4_EE12_Vector_implC2Ev
FN:131,_ZNSt12_Vector_baseImSaImEE12_Vector_implC2Ev
FNDA:1,_ZNSt12_Vector_baseImSaImEE12_Vector_implC2Ev
FN:136,_ZNSt12_Vector_baseImSaImEE12_Vector_implC2ERKS0_
FNDA:1,_ZNSt12_Vector_baseImSaImEE12_Vector_implC2ERKS0_
FN:136,_ZNSt12_Vector_baseISt10unique_ptrI12ActiveObjectSt14default_deleteIS1_EESaIS4_EE12_Vector_implC2ERKS5_
FNDA:1,_ZNSt12_Vector_baseISt10unique_ptrI12ActiveObjectSt14default_deleteIS1_EESaIS4_EE12_Vector_implC2ERKS5_
FN:143,_ZNSt12_Vector_baseI4EdgeSaIS0_EE12_Vector_implC2EOS3_
FNDA:0,_ZNSt12_Vector_baseI4EdgeSaIS0_EE12_Vector_implC2EOS3_
FN:276,_ZNSt12_Vector_baseISt10unique_ptrI12ActiveObjectSt14default_deleteIS1_EESaIS4_EE19_M_get_Tp_allocatorEv
FNDA:14,_ZNSt12_Vector_baseISt10unique_ptrI12ActiveObjectSt14default_deleteIS1_EESaIS4_EE19_M_get_Tp_allocatorEv
FN:276,_ZNSt12_Vector_baseISt6vectorI4EdgeSaIS1_EESaIS3_EE19_M_get_Tp_allocatorEv
FNDA:21,_ZNSt12_Vector_baseISt6vectorI4EdgeSaIS1_EESaIS3_EE19_M_get_Tp_allocatorEv
FN:276,_ZNSt12_Vector_baseImSaImEE19_M_get_Tp_allocatorEv
FNDA:12,_ZNSt12_Vector_baseImSaImEE19_M_get_Tp_allocatorEv
FN:276,_ZNSt12_Vector_baseISt6threadSaIS0_EE19_M_get_Tp_allocatorEv
FNDA:0,_ZNSt12_Vector_baseISt6threadSaIS0_EE19_M_get_Tp_allocatorEv
FN:276,_ZNSt12_Vector_baseI4EdgeSaIS0_EE19_M_get_Tp_allocatorEv
FNDA:189,_ZNSt12_Vector_baseI4EdgeSaIS0_EE19_M_get_Tp_allocatorEv
FN:280,_ZNKSt12_Vector_baseISt10unique_ptrI12ActiveObjectSt14default_deleteIS1_EESaIS4_EE19_M_get_Tp_allocatorEv
FNDA:9,_ZNKSt12_Vector_baseISt10unique_ptrI12ActiveObjectSt14default_deleteIS1_EESaIS4_EE19_M_get_Tp_allocatorEv
FN:280,_ZNKSt12_Vector_baseImSaImEE19_M_get_Tp_allocatorEv
FNDA:7,_ZNKSt12_Vector_baseImSaImEE19_M_get_Tp_allocatorEv
FN:280,_ZNKSt12_Vector_baseISt6vectorI4EdgeSaIS1_EESaIS3_EE19_M_get_Tp_allocatorEv
FNDA:28,_ZNKSt12_Vector_baseISt6vectorI4EdgeSaIS1_EESaIS3_EE19_M_get_Tp_allocatorEv
FN:284,_ZNKSt12_Vector_baseImSaImEE13get_allocatorEv
FNDA:1,_ZNKSt12_Vector_baseImSaImEE13get_allocatorEv
FN:284,_ZNKSt12_Vector_baseISt10unique_ptrI12ActiveObjectSt14default_deleteIS1_EESaIS4_EE13get_allocatorEv
FNDA:1,_ZNKSt12_Vector_baseISt10unique_ptrI12ActiveObjectSt14default_deleteIS1_EESaIS4_EE13get_allocatorEv
FN:288,_ZNSt12_Vector_baseISt6vectorI4EdgeSaIS1_EESaIS3_EEC2Ev
FNDA:7,_ZNSt12_Vector_baseISt6vectorI4EdgeSaIS1_EESaIS3_EEC2Ev
FN:288,_ZNSt12_Vector_baseImSaImEEC2Ev
FNDA:1,_ZNSt12_Vector_baseImSaImEEC2Ev
FN:288,_ZNSt12_Vector_baseISt10unique_ptrI12ActiveObjectSt14default_deleteIS1_EESaIS4_EEC2Ev
FNDA:1,_ZNSt12_Vector_baseISt10unique_ptrI12ActiveObjectSt14default_deleteIS1_EESaIS4_EEC2Ev
FN:288,_ZNSt12_Vector_baseISt6threadSaIS0_EEC2Ev
FNDA:1,_ZNSt12_Vector_baseISt6threadSaIS0_EEC2Ev
FN:288,_ZNSt12_Vector_baseI4EdgeSaIS0_EEC2Ev
FNDA:39,_ZNSt12_Vector_baseI4EdgeSaIS0_EEC2Ev
FN:293,_ZNSt12_Vector_baseISt10unique_ptrI12ActiveObjectSt14default_deleteIS1_EESaIS4_EEC2ERKS5_
FNDA:1,_ZNSt12_Vector_baseISt10unique_ptrI12ActiveObjectSt14default_deleteIS1_EESaIS4_EEC2ERKS5_
FN:293,_ZNSt12_Vector_baseImSaImEEC2ERKS0_
FNDA:1,_ZNSt12_Vector_baseImSaImEEC2ERKS0_
FN:308,_ZNSt12_Vector_baseI4EdgeSaIS0_EEC2EOS2_
FNDA:0,_ZNSt12_Vector_baseI4EdgeSaIS0_EEC2EOS2_
FN:333,_ZNSt12_Vector_baseImSaImEED2Ev
FNDA:1,_ZNSt12_Vector_baseImSaImEED2Ev
FN:333,_ZNSt12_Vector_baseISt10unique_ptrI12ActiveObjectSt14default_deleteIS1_EESaIS4_EED2Ev
FNDA:1,_ZNSt12_Vector_baseISt10unique_ptrI12ActiveObjectSt14default_deleteIS1_EESaIS4_EED2Ev
FN:333,_ZNSt12_Vector_baseISt6vectorI4EdgeSaIS1_EESaIS3_EED2Ev
FNDA:7,_ZNSt12_Vector_baseISt6vectorI4EdgeSaIS1_EESaIS3_EED2Ev
FN:333,_ZNSt12_Vector_baseI4EdgeSaIS0_EED2Ev
FNDA:47,_ZNSt12_Vector_baseI4EdgeSaIS0_EED2Ev
FN:333,_ZNSt12_Vector_baseISt6threadSaIS0_EED2Ev
FNDA:0,_ZNSt12_Vector_baseISt6threadSaIS0_EED2Ev
FN:343,_ZNSt12_Vector_baseISt10unique_ptrI12ActiveObjectSt14default_deleteIS1_EESaIS4_EE11_M_allocateEm
FNDA:5,_ZNSt12_Vector_baseISt10unique_ptrI12ActiveObjectSt14default_deleteIS1_EESaIS4_EE11_M_allocateEm
FN:343,_ZNSt12_Vector_baseImSaImEE11_M_allocateEm
FNDA:4,_ZNSt12_Vector_baseImSaImEE11_M_allocateEm
FN:343,_ZNSt12_Vector_baseISt6vectorI4EdgeSaIS1_EESaIS3_EE11_M_allocateEm
FNDA:7,_ZNSt12_Vector_baseISt6vectorI4EdgeSaIS1_EESaIS3_EE11_M_allocateEm
FN:350,_ZNSt12_Vector_baseI4EdgeSaIS0_EE13_M_deallocateEPS0_m
FNDA:114,_ZNSt12_Vector_baseI4EdgeSaIS0_EE13_M_deallocateEPS0_m
FN:350,_ZNSt12_Vector_baseISt10unique_ptrI12ActiveObjectSt14default_deleteIS1_EESaIS4_EE13_M_deallocateEPS4_m
FNDA:5,_ZNSt12_Vector_baseISt10unique_ptrI12ActiveObjectSt14default_deleteIS1_EESaIS4_EE13_M_deallocateEPS4_m
FN:350,_ZNSt12_Vector_baseImSaImEE13_M_deallocateEPmm
FNDA:4,_ZNSt12_Vector_baseImSaImEE13_M_deallocateEPmm
FN:350,_ZNSt12_Vector_baseISt6vectorI4EdgeSaIS1_EESaIS3_EE13_M_deallocateEPS3_m
FNDA:14,_ZNSt12_Vector_baseISt6vectorI4EdgeSaIS1_EESaIS3_EE13_M_deallocateEPS3_m
FN:350,_ZNSt12_Vector_baseISt6threadSaIS0_EE13_M_deallocateEPS0_m
FNDA:0,_ZNSt12_Vector_baseISt6threadSaIS0_EE13_M_deallocateEPS0_m
FN:453,_ZNSt6vectorImSaImEE14_S_do_relocateEPmS2_S2_RS0_St17integral_constantIbLb1EE
FNDA:6,_ZNSt6vectorImSaImEE14_S_do_relocateEPmS2_S2_RS0_St17integral_constantIbLb1EE
FN:453,_ZNSt6vectorIS_I4EdgeSaIS0_EESaIS2_EE14_S_do_relocateEPS2_S5_S5_RS3_St17integral_constantIbLb1EE
FNDA:7,_ZNSt6vectorIS_I4EdgeSaIS0_EESaIS2_EE14_S_do_relocateEPS2_S5_S5_RS3_St17integral_constantIbLb1EE
FN:453,_ZNSt6vectorISt10unique_ptrI12ActiveObjectSt14default_deleteIS1_EESaIS4_EE14_S_do_relocateEPS4_S7_S7_RS5_St17integral_constantIbLb1EE
FNDA:8,_ZNSt6vectorISt10unique_ptrI12ActiveObjectSt14default_deleteIS1_EESaIS4_EE14_S_do_relocateEPS4_S7_S7_RS5_St17integral_constantIbLb1EE
FN:465,_ZNSt6vectorIS_I4EdgeSaIS0_EESaIS2_EE11_S_relocateEPS2_S5_S5_RS3_
FNDA:7,_ZNSt6vectorIS_I4EdgeSaIS0_EESaIS2_EE11_S_relocateEPS2_S5_S5_RS3_
FN:465,_ZNSt6vectorISt10unique_ptrI12ActiveObjectSt14default_deleteIS1_EESaIS4_EE11_S_relocateEPS4_S7_S7_RS5_
FNDA:8,_ZNSt6vectorISt10unique_ptrI12ActiveObjectSt14default_deleteIS1_EESaIS4_EE11_S_relocateEPS4_S7_S7_RS5_
FN:465,_ZNSt6vectorImSaImEE11_S_relocateEPmS2_S2_RS0_
FNDA:6,_ZNSt6vectorImSaImEE11_S_relocateEPmS2_S2_RS0_
FN:487,_ZNSt6vectorIS_I4EdgeSaIS0_EESaIS2_EEC2Ev
FNDA:7,_ZNSt6vectorIS_I4EdgeSaIS0_EESaIS2_EEC2Ev
FN:487,_ZNSt6vectorI4EdgeSaIS0_EEC2Ev
FNDA:39,_ZNSt6vectorI4EdgeSaIS0_EEC2Ev
FN:487,_ZNSt6vectorImSaImEEC2Ev
FNDA:1,_ZNSt6vectorImSaImEEC2Ev
FN:487,_ZNSt6vectorISt10unique_ptrI12ActiveObjectSt14default_deleteIS1_EESaIS4_EEC2Ev
FNDA:1,_ZNSt6vectorISt10unique_ptrI12ActiveObjectSt14default_deleteIS1_EESaIS4_EEC2Ev
FN:487,_ZNSt6vectorISt6threadSaIS0_EEC2Ev
FNDA:1,_ZNSt6vectorISt6threadSaIS0_EEC2Ev
FN:572,_ZNSt6vectorI4EdgeSaIS0_EEC2EOS2_
FNDA:0,_ZNSt6vectorI4EdgeSaIS0_EEC2EOS2_
FN:653,_ZNSt6vectorISt10unique_ptrI12ActiveObjectSt14default_deleteIS1_EESaIS4_EEC2ISt13move_iteratorIN9__gnu_cxx17__normal_iteratorIPS4_S6_EEEvEET_SE_RKS5_
FNDA:1,_ZNSt6vectorISt10unique_ptrI12ActiveObjectSt14default_deleteIS1_EESaIS4_EEC2ISt13move_iteratorIN9__gnu_cxx17__normal_iteratorIPS4_S6_EEEvEET_SE_RKS5_
FN:653,_ZNSt6vectorImSaImEEC2ISt13move_iteratorIN9__gnu_cxx17__normal_iteratorIPmS1_EEEvEET_S9_RKS0_
FNDA:1,_ZNSt6vectorImSaImEEC2ISt13move_iteratorIN9__gnu_cxx17__normal_iteratorIPmS1_EEEvEET_S9_RKS0_
FN:678,_ZNSt6vectorISt10unique_ptrI12ActiveObjectSt14default_deleteIS1_EESaIS4_EED2Ev
FNDA:1,_ZNSt6vectorISt10unique_ptrI12ActiveObjectSt14default_deleteIS1_EESaIS4_EED2Ev
FN:678,_ZNSt6vectorISt6threadSaIS0_EED2Ev
FNDA:0,_ZNSt6vectorISt6threadSaIS0_EED2Ev
FN:678,_ZNSt6vectorI4EdgeSaIS0_EED2Ev
FNDA:47,_ZNSt6vectorI4EdgeSaIS0_EED2Ev
FN:678,_ZNSt6vectorImSaImEED2Ev
FNDA:1,_ZNSt6vectorImSaImEED2Ev
FN:678,_ZNSt6vectorIS_I4EdgeSaIS0_EESaIS2_EED2Ev
FNDA:7,_ZNSt6vectorIS_I4EdgeSaIS0_EESaIS2_EED2Ev
FN:811,_ZNSt6vectorImSaImEE5beginEv
FNDA:5,_ZNSt6vectorImSaImEE5beginEv
FN:811,_ZNSt6vectorISt10unique_ptrI12ActiveObjectSt14default_deleteIS1_EESaIS4_EE5beginEv
FNDA:6,_ZNSt6vectorISt10unique_ptrI12ActiveObjectSt14default_deleteIS1_EESaIS4_EE5beginEv
FN:820,_ZNKSt6vectorIS_I4EdgeSaIS0_EESaIS2_EE5beginEv
FNDA:4,_ZNKSt6vectorIS_I4EdgeSaIS0_EESaIS2_EE5beginEv
FN:829,_ZNSt6vectorImSaImEE3endEv
FNDA:5,_ZNSt6vectorImSaImEE3endEv
FN:829,_ZNSt6vectorISt10unique_ptrI12ActiveObjectSt14default_deleteIS1_EESaIS4_EE3endEv
FNDA:13,_ZNSt6vectorISt10unique_ptrI12ActiveObjectSt14default_deleteIS1_EESaIS4_EE3endEv
FN:838,_ZNKSt6vectorIS_I4EdgeSaIS0_EESaIS2_EE3endEv
FNDA:4,_ZNKSt6vectorIS_I4EdgeSaIS0_EESaIS2_EE3endEv
FN:918,_ZNKSt6vectorIS_I4EdgeSaIS0_EESaIS2_EE4sizeEv
FNDA:49,_ZNKSt6vectorIS_I4EdgeSaIS0_EESaIS2_EE4sizeEv
FN:918,_ZNKSt6vectorImSaImEE4sizeEv
FNDA:13,_ZNKSt6vectorImSaImEE4sizeEv
FN:918,_ZNKSt6vectorISt10unique_ptrI12ActiveObjectSt14default_deleteIS1_EESaIS4_EE4sizeEv
FNDA:17,_ZNKSt6vectorISt10unique_ptrI12ActiveObjectSt14default_deleteIS1_EESaIS4_EE4sizeEv
FN:923,_ZNKSt6vectorIS_I4EdgeSaIS0_EESaIS2_EE8max_sizeEv
FNDA:28,_ZNKSt6vectorIS_I4EdgeSaIS0_EESaIS2_EE8max_sizeEv
FN:923,_ZNKSt6vectorImSaImEE8max_sizeEv
FNDA:6,_ZNKSt6vectorImSaImEE8max_sizeEv
FN:923,_ZNKSt6vectorISt10unique_ptrI12ActiveObjectSt14default_deleteIS1_EESaIS4_EE8max_sizeEv
FNDA:8,_ZNKSt6vectorISt10unique_ptrI12ActiveObjectSt14default_deleteIS1_EESaIS4_EE8max_sizeEv
FN:937,_ZNSt6vectorIS_I4EdgeSaIS0_EESaIS2_EE6resizeEm
FNDA:7,_ZNSt6vectorIS_I4EdgeSaIS0_EESaIS2_EE6resizeEm
FN:989,_ZNSt6vectorISt10unique_ptrI12ActiveObjectSt14default_deleteIS1_EESaIS4_EE13shrink_to_fitEv
FNDA:1,_ZNSt6vectorISt10unique_ptrI12ActiveObjectSt14default_deleteIS1_EESaIS4_EE13shrink_to_fitEv
FN:989,_ZNSt6vectorImSaImEE13shrink_to_fitEv
FNDA:1,_ZNSt6vectorImSaImEE13shrink_to_fitEv
FN:998,_ZNKSt6vectorISt10unique_ptrI12ActiveObjectSt14default_deleteIS1_EESaIS4_EE8capacityEv
FNDA:1,_ZNKSt6vectorISt10unique_ptrI12ActiveObjectSt14default_deleteIS1_EESaIS4_EE8capacityEv
FN:998,_ZNKSt6vectorImSaImEE8capacityEv
FNDA:1,_ZNKSt6vectorImSaImEE8capacityEv
FN:1007,_ZNKSt6vectorIS_I4EdgeSaIS0_EESaIS2_EE5emptyEv
FNDA:4,_ZNKSt6vectorIS_I4EdgeSaIS0_EESaIS2_EE5emptyEv
FN:1043,_ZNSt6vectorISt10unique_ptrI12ActiveObjectSt14default_deleteIS1_EESaIS4_EEixEm
FNDA:36,_ZNSt6vectorISt10unique_ptrI12ActiveObjectSt14default_deleteIS1_EESaIS4_EEixEm
FN:1143,_ZNSt6vectorISt10unique_ptrI12ActiveObjectSt14default_deleteIS1_EESaIS4_EE4backEv
FNDA:7,_ZNSt6vectorISt10unique_ptrI12ActiveObjectSt14default_deleteIS1_EESaIS4_EE4backEv
FN:1187,_ZNSt6vectorImSaImEE9push_backERKm
FNDA:3,_ZNSt6vectorImSaImEE9push_backERKm
FN:1203,_ZNSt6vectorISt10unique_ptrI12ActiveObjectSt14default_deleteIS1_EESaIS4_EE9push_backEOS4_
FNDA:7,_ZNSt6vectorISt10unique_ptrI12ActiveObjectSt14default_deleteIS1_EESaIS4_EE9push_backEOS4_
FN:1480,_ZNSt6vectorISt10unique_ptrI12ActiveObjectSt14default_deleteIS1_EESaIS4_EE4swapERS6_
FNDA:1,_ZNSt6vectorISt10unique_ptrI12ActiveObjectSt14default_deleteIS1_EESaIS4_EE4swapERS6_
FN:1480,_ZNSt6vectorImSaImEE4swapERS1_
FNDA:1,_ZNSt6vectorImSaImEE4swapERS1_
FN:1498,_ZNSt6vectorImSaImEE5clearEv
FNDA:1,_ZNSt6vectorImSaImEE5clearEv
FN:1498,_ZNSt6vectorISt10unique_ptrI12ActiveObjectSt14default_deleteIS1_EESaIS4_EE5clearEv
FNDA:1,_ZNSt6vectorISt10unique_ptrI12ActiveObjectSt14default_deleteIS1_EESaIS4_EE5clearEv
FN:1577,_ZNSt6vectorImSaImEE19_M_range_initializeISt13move_iteratorIN9__gnu_cxx17__normal_iteratorIPmS1_EEEEEvT_S9_St20forward_iterator_tag
FNDA:1,_ZNSt6vectorImSaImEE19_M_range_initializeISt13move_iteratorIN9__gnu_cxx17__normal_iteratorIPmS1_EEEEEvT_S9_St20forward_iterator_tag
FN:1577,_ZNSt6vectorISt10unique_ptrI12ActiveObjectSt14default_deleteIS1_EESaIS4_EE19_M_range_initializeISt13move_iteratorIN9__gnu_cxx17__normal_iteratorIPS4_S6_EEEEEvT_SE_St20forward_iterator_tag
FNDA:1,_ZNSt6vectorISt10unique_ptrI12ActiveObjectSt14default_deleteIS1_EESaIS4_EE19_M_range_initializeISt13move_iteratorIN9__gnu_cxx17__normal_iteratorIPS4_S6_EEEEEvT_SE_St20forward_iterator_tag
FN:1756,_ZNKSt6vectorIS_I4EdgeSaIS0_EESaIS2_EE12_M_check_lenEmPKc
FNDA:7,_ZNKSt6vectorIS_I4EdgeSaIS0_EESaIS2_EE12_M_check_lenEmPKc
FN:1756,_ZNKSt6vectorImSaImEE12_M_check_lenEmPKc
FNDA:3,_ZNKSt6vectorImSaImEE12_M_check_lenEmPKc
FN:1756,_ZNKSt6vectorISt10unique_ptrI12ActiveObjectSt14default_deleteIS1_EESaIS4_EE12_M_check_lenEmPKc
FNDA:4,_ZNKSt6vectorISt10unique_ptrI12ActiveObjectSt14default_deleteIS1_EESaIS4_EE12_M_check_lenEmPKc
FN:1767,_ZNSt6vectorImSaImEE17_S_check_init_lenEmRKS0_
FNDA:1,_ZNSt6vectorImSaImEE17_S_check_init_lenEmRKS0_
FN:1767,_ZNSt6vectorISt10unique_ptrI12ActiveObjectSt14default_deleteIS1_EESaIS4_EE17_S_check_init_lenEmRKS5_
FNDA:1,_ZNSt6vectorISt10unique_ptrI12ActiveObjectSt14default_deleteIS1_EESaIS4_EE17_S_check_init_lenEmRKS5_
FN:1776,_ZNSt6vectorImSaImEE11_S_max_sizeERKS0_
FNDA:7,_ZNSt6vectorImSaImEE11_S_max_sizeERKS0_
FN:1776,_ZNSt6vectorISt10unique_ptrI12ActiveObjectSt14default_deleteIS1_EESaIS4_EE11_S_max_sizeERKS5_
FNDA:9,_ZNSt6vectorISt10unique_ptrI12ActiveObjectSt14default_deleteIS1_EESaIS4_EE11_S_max_sizeERKS5_
FN:1776,_ZNSt6vectorIS_I4EdgeSaIS0_EESaIS2_EE11_S_max_sizeERKS3_
FNDA:28,_ZNSt6vectorIS_I4EdgeSaIS0_EESaIS2_EE11_S_max_sizeERKS3_
FN:1792,_ZNSt6vectorISt10unique_ptrI12ActiveObjectSt14default_deleteIS1_EESaIS4_EE15_M_erase_at_endEPS4_
FNDA:1,_ZNSt6vectorISt10unique_ptrI12ActiveObjectSt14default_deleteIS1_EESaIS4_EE15_M_erase_at_endEPS4_
FN:1792,_ZNSt6vectorImSaImEE15_M_erase_at_endEPm
FNDA:1,_ZNSt6vectorImSaImEE15_M_erase_at_endEPm
FN:1792,_ZNSt6vectorIS_I4EdgeSaIS0_EESaIS2_EE15_M_erase_at_endEPS2_
FNDA:0,_ZNSt6vectorIS_I4EdgeSaIS0_EESaIS2_EE15_M_erase_at_endEPS2_
DA:97,47
DA:98,47
DA:99,47
DA:97,3
DA:98,3
DA:99,3
DA:97,3
DA:98,3
DA:99,3
DA:97,1
DA:98,1
DA:99,1
DA:97,7
DA:98,7
DA:99,7
DA:102,0
DA:103,0
DA:104,0
DA:105,0
DA:109,3
DA:111,3
DA:112,3
DA:113,3
DA:114,3
DA:109,3
DA:111,3
DA:112,3
DA:113,3
DA:114,3
DA:117,1
DA:121,1
DA:122,1
DA:123,1
DA:124,1
DA:125,1
DA:117,1
DA:121,1
DA:122,1
DA:123,1
DA:124,1
DA:125,1
DA:131,39
DA:133,39
DA:134,39
DA:131,1
DA:133,1
DA:134,1
DA:131,1
DA:133,1
DA:134,1
DA:131,1
DA:133,1
DA:134,1
DA:131,7
DA:133,7
DA:134,7
DA:136,1
DA:137,1
DA:138,1
DA:136,1
DA:137,1
DA:138,1
DA:143,0
DA:144,0
DA:145,0
DA:276,12
DA:277,12
DA:276,14
DA:277,14
DA:276,0
DA:277,0
DA:276,189
DA:277,189
DA:276,21
DA:277,21
DA:280,9
DA:281,9
DA:280,7
DA:281,7
DA:280,28
DA:281,28
DA:284,1
DA:285,1
DA:284,1
DA:285,1
DA:288,39
DA:288,1
DA:288,1
DA:288,1
DA:288,7
DA:293,1
DA:294,1
DA:293,1
DA:294,1
DA:308,0
DA:333,47
DA:335,47
DA:336,47
DA:337,47
DA:333,1
DA:335,1
DA:336,1
DA:337,1
DA:333,1
DA:335,1
DA:336,1
DA:337,1
DA:333,0
DA:335,0
DA:336,0
DA:337,0
DA:333,7
DA:335,7
DA:336,7
DA:337,7
DA:343,5
DA:346,5
DA:343,4
DA:346,4
DA:343,7
DA:346,7
DA:350,114
DA:353,114
DA:354,75
DA:355,114
DA:350,4
DA:353,4
DA:354,3
DA:355,4
DA:350,5
DA:353,5
DA:354,4
DA:355,5
DA:350,0
DA:353,0
DA:354,0
DA:355,0
DA:350,14
DA:353,14
DA:354,7
DA:355,14
DA:453,8
DA:456,8
DA:453,6
DA:456,6
DA:453,7
DA:456,7
DA:465,8
DA:469,8
DA:465,6
DA:469,6
DA:465,7
DA:469,7
DA:487,39
DA:487,1
DA:487,1
DA:487,1
DA:487,7
DA:572,0
DA:653,1
DA:655,1
DA:657,1
DA:658,1
DA:659,1
DA:653,1
DA:655,1
DA:657,1
DA:658,1
DA:659,1
DA:678,1
DA:680,1
DA:681,1
DA:683,1
DA:678,1
DA:680,1
DA:681,1
DA:683,1
DA:678,0
DA:680,0
DA:681,0
DA:683,0
DA:678,47
DA:680,47
DA:681,47
DA:683,47
DA:678,7
DA:680,7
DA:681,7
DA:683,7
DA:811,6
DA:812,6
DA:811,5
DA:812,5
DA:820,4
DA:821,4
DA:829,13
DA:830,13
DA:829,5
DA:830,5
DA:838,4
DA:839,4
DA:918,17
DA:919,17
DA:918,13
DA:919,13
DA:918,49
DA:919,49
DA:923,8
DA:924,8
DA:923,6
DA:924,6
DA:923,28
DA:924,28
DA:937,7
DA:939,7
DA:940,7
DA:941,0
DA:942,0
DA:943,7
DA:989,1
DA:990,1
DA:989,1
DA:990,1
DA:998,1
DA:999,1
DA:1000,1
DA:998,1
DA:999,1
DA:1000,1
DA:1007,4
DA:1008,4
DA:1043,36
DA:1046,36
DA:1143,7
DA:1146,7
DA:1187,3
DA:1189,3
DA:1192,0
DA:1194,0
DA:1198,3
DA:1199,3
DA:1203,7
DA:1204,7
DA:1480,1
DA:1483,1
DA:1486,1
DA:1487,1
DA:1488,1
DA:1489,1
DA:1480,1
DA:1483,1
DA:1486,1
DA:1487,1
DA:1488,1
DA:1489,1
DA:1498,1
DA:1499,1
DA:1498,1
DA:1499,1
DA:1577,1
DA:1580,1
DA:1582,1
DA:1583,1
DA:1584,1
DA:1585,1
DA:1587,1
DA:1588,1
DA:1577,1
DA:1580,1
DA:1582,1
DA:1583,1
DA:1584,1
DA:1585,1
DA:1587,1
DA:1588,1
DA:1756,4
DA:1758,4
DA:1759,0
DA:1761,4
DA:1762,4
DA:1756,3
DA:1758,3
DA:1759,0
DA:1761,3
DA:1762,3
DA:1756,7
DA:1758,7
DA:1759,0
DA:1761,7
DA:1762,7
DA:1767,1
DA:1769,1
DA:1770,0
DA:1772,1
DA:1767,1
DA:1769,1
DA:1770,0
DA:1772,1
DA:1776,9
DA:1781,9
DA:1783,9
DA:1784,9
DA:1776,7
DA:1781,7
DA:1783,7
DA:1784,7
DA:1776,28
DA:1781,28
DA:1783,28
DA:1784,28
DA:1792,1
DA:1794,1
DA:1796,1
DA:1797,1
DA:1798,1
DA:1801,1
DA:1792,1
DA:1794,1
DA:1796,1
DA:1797,1
DA:1798,1
DA:1801,1
DA:1792,0
DA:1794,0
DA:1796,0
DA:1797,0
DA:1798,0
DA:1801,0
end_of_record
SF:/home/eladubuntu/Git Projects/OS_2024-FINAL_PROJECT_MST/Graph.hpp
FN:23,_ZN5GraphC2Eii
FNDA:3,_ZN5GraphC2Eii
FN:29,_ZNK5Graph6getAdjEv
FNDA:20,_ZNK5Graph6getAdjEv
DA:23,3
DA:29,20
end_of_record
SF:/home/eladubuntu/Git Projects/OS_2024-FINAL_PROJECT_MST/ActiveObject.hpp
FN:51,_ZN12ActiveObjectC2Ev
FNDA:7,_ZN12ActiveObjectC2Ev
FN:63,_ZN12ActiveObject7enqueueIZ14handleCommandsiRSt6vectorISt10unique_ptrIS_St14default_deleteIS_EESaIS5_EERS2_I5GraphS3_IS9_EER10MSTFactoryRS2_I4TreeS3_ISF_EEEUlvE10_EEvT_
FNDA:2,_ZN12ActiveObject7enqueueIZ14handleCommandsiRSt6vectorISt10unique_ptrIS_St14default_deleteIS_EESaIS5_EERS2_I5GraphS3_IS9_EER10MSTFactoryRS2_I4TreeS3_ISF_EEEUlvE10_EEvT_
FN:63,_ZN12ActiveObject7enqueueIZ14handleCommandsiRSt6vectorISt10unique_ptrIS_St14default_deleteIS_EESaIS5_EERS2_I5GraphS3_IS9_EER10MSTFactoryRS2_I4TreeS3_ISF_EEEUlvE9_EEvT_
FNDA:2,_ZN12ActiveObject7enqueueIZ14handleCommandsiRSt6vectorISt10unique_ptrIS_St14default_deleteIS_EESaIS5_EERS2_I5GraphS3_IS9_EER10MSTFactoryRS2_I4TreeS3_ISF_EEEUlvE9_EEvT_
FN:63,_ZN12ActiveObject7enqueueIZ14handleCommandsiRSt6vectorISt10unique_ptrIS_St14default_deleteIS_EESaIS5_EERS2_I5GraphS3_IS9_EER10MSTFactoryRS2_I4TreeS3_ISF_EEEUlvE8_EEvT_
FNDA:3,_ZN12ActiveObject7enqueueIZ14handleCommandsiRSt6vectorISt10unique_ptrIS_St14default_deleteIS_EESaIS5_EERS2_I5GraphS3_IS9_EER10MSTFactoryRS2_I4TreeS3_ISF_EEEUlvE8_EEvT_
FN:63,_ZN12ActiveObject7enqueueIZ14handleCommandsiRSt6vectorISt10unique_ptrIS_St14default_deleteIS_EESaIS5_EERS2_I5GraphS3_IS9_EER10MSTFactoryRS2_I4TreeS3_ISF_EEEUlvE6_EEvT_
FNDA:5,_ZN12ActiveObject7enqueueIZ14handleCommandsiRSt6vectorISt10unique_ptrIS_St14default_deleteIS_EESaIS5_EERS2_I5GraphS3_IS9_EER10MSTFactoryRS2_I4TreeS3_ISF_EEEUlvE6_EEvT_
FN:63,_ZN12ActiveObject7enqueueIZ14handleCommandsiRSt6vectorISt10unique_ptrIS_St14default_deleteIS_EESaIS5_EERS2_I5GraphS3_IS9_EER10MSTFactoryRS2_I4TreeS3_ISF_EEEUlvE5_EEvT_
FNDA:2,_ZN12ActiveObject7enqueueIZ14handleCommandsiRSt6vectorISt10unique_ptrIS_St14default_deleteIS_EESaIS5_EERS2_I5GraphS3_IS9_EER10MSTFactoryRS2_I4TreeS3_ISF_EEEUlvE5_EEvT_
FN:63,_ZN12ActiveObject7enqueueIZ14handleCommandsiRSt6vectorISt10unique_ptrIS_St14default_deleteIS_EESaIS5_EERS2_I5GraphS3_IS9_EER10MSTFactoryRS2_I4TreeS3_ISF_EEEUlvE4_EEvT_
FNDA:2,_ZN12ActiveObject7enqueueIZ14handleCommandsiRSt6vectorISt10unique_ptrIS_St14default_deleteIS_EESaIS5_EERS2_I5GraphS3_IS9_EER10MSTFactoryRS2_I4TreeS3_ISF_EEEUlvE4_EEvT_
FN:63,_ZN12ActiveObject7enqueueIZ14handleCommandsiRSt6vectorISt10unique_ptrIS_St14default_deleteIS_EESaIS5_EERS2_I5GraphS3_IS9_EER10MSTFactoryRS2_I4TreeS3_ISF_EEEUlvE3_EEvT_
FNDA:2,_ZN12ActiveObject7enqueueIZ14handleCommandsiRSt6vectorISt10unique_ptrIS_St14default_deleteIS_EESaIS5_EERS2_I5GraphS3_IS9_EER10MSTFactoryRS2_I4TreeS3_ISF_EEEUlvE3_EEvT_
FN:63,_ZN12ActiveObject7enqueueIZ14handleCommandsiRSt6vectorISt10unique_ptrIS_St14default_deleteIS_EESaIS5_EERS2_I5GraphS3_IS9_EER10MSTFactoryRS2_I4TreeS3_ISF_EEEUlvE2_EEvT_
FNDA:2,_ZN12ActiveObject7enqueueIZ14handleCommandsiRSt6vectorISt10unique_ptrIS_St14default_deleteIS_EESaIS5_EERS2_I5GraphS3_IS9_EER10MSTFactoryRS2_I4TreeS3_ISF_EEEUlvE2_EEvT_
FN:63,_ZN12ActiveObject7enqueueIZ14handleCommandsiRSt6vectorISt10unique_ptrIS_St14default_deleteIS_EESaIS5_EERS2_I5GraphS3_IS9_EER10MSTFactoryRS2_I4TreeS3_ISF_EEEUlvE1_EEvT_
FNDA:2,_ZN12ActiveObject7enqueueIZ14handleCommandsiRSt6vectorISt10unique_ptrIS_St14default_deleteIS_EESaIS5_EERS2_I5GraphS3_IS9_EER10MSTFactoryRS2_I4TreeS3_ISF_EEEUlvE1_EEvT_
FN:63,_ZN12ActiveObject7enqueueIZ14handleCommandsiRSt6vectorISt10unique_ptrIS_St14default_deleteIS_EESaIS5_EERS2_I5GraphS3_IS9_EER10MSTFactoryRS2_I4TreeS3_ISF_EEEUlvE0_EEvT_
FNDA:10,_ZN12ActiveObject7enqueueIZ14handleCommandsiRSt6vectorISt10unique_ptrIS_St14default_deleteIS_EESaIS5_EERS2_I5GraphS3_IS9_EER10MSTFactoryRS2_I4TreeS3_ISF_EEEUlvE0_EEvT_
FN:63,_ZN12ActiveObject7enqueueIZ14handleCommandsiRSt6vectorISt10unique_ptrIS_St14default_deleteIS_EESaIS5_EERS2_I5GraphS3_IS9_EER10MSTFactoryRS2_I4TreeS3_ISF_EEEUlvE_EEvT_
FNDA:4,_ZN12ActiveObject7enqueueIZ14handleCommandsiRSt6vectorISt10unique_ptrIS_St14default_deleteIS_EESaIS5_EERS2_I5GraphS3_IS9_EER10MSTFactoryRS2_I4TreeS3_ISF_EEEUlvE_EEvT_
FN:73,_ZN12ActiveObject14getOutputMutexEv
FNDA:1,_ZN12ActiveObject14getOutputMutexEv
DA:51,7
DA:63,2
DA:66,2
DA:68,2
DA:70,2
DA:71,2
DA:63,2
DA:66,2
DA:68,2
DA:70,2
DA:71,2
DA:63,3
DA:66,3
DA:68,3
DA:70,3
DA:71,3
DA:63,5
DA:66,5
DA:68,5
DA:70,5
DA:71,5
DA:63,2
DA:66,2
DA:68,2
DA:70,2
DA:71,2
DA:63,2
DA:66,2
DA:68,2
DA:70,2
DA:71,2
DA:63,2
DA:66,2
DA:68,2
DA:70,2
DA:71,2
DA:63,2
DA:66,2
DA:68,2
DA:70,2
DA:71,2
DA:63,2
DA:66,2
DA:68,2
DA:70,2
DA:71,2
DA:63,10
DA:66,10
DA:68,10
DA:70,10
DA:71,10
DA:63,4
DA:66,4
DA:68,4
DA:70,4
DA:71,4
DA:73,1
end_of_record
SF:/usr/include/c++/11/bits/atomic_base.h
FN:104,_ZStanSt12memory_orderSt23__memory_order_modifier
FNDA:275,_ZStanSt12memory_orderSt23__memory_order_modifier
FN:345,_ZNSt13__atomic_baseIbEC1Eb
FNDA:7,_ZNSt13__atomic_baseIbEC1Eb
DA:104,275
DA:106,275
DA:345,7
DA:459,62
DA:464,62
DA:465,62
DA:484,213
DA:488,213
end_of_record
SF:/usr/include/x86_64-linux-gnu/c++/11/bits/gthr-default.h
FN:300,_ZL18__gthread_active_pv
FNDA:513,_ZL18__gthread_active_pv
FN:746,_ZL20__gthread_mutex_lockP15pthread_mutex_t
FNDA:252,_ZL20__gthread_mutex_lockP15pthread_mutex_t
FN:755,_ZL23__gthread_mutex_trylockP15pthread_mutex_t
FNDA:5,_ZL23__gthread_mutex_trylockP15pthread_mutex_t
FN:776,_ZL22__gthread_mutex_unlockP15pthread_mutex_t
FNDA:256,_ZL22__gthread_mutex_unlockP15pthread_mutex_t
DA:300,513
DA:302,513
DA:746,252
DA:748,252
DA:749,252
DA:751,0
DA:755,5
DA:757,5
DA:758,5
DA:760,0
DA:776,256
DA:778,256
DA:779,256
DA:781,0
end_of_record
SF:/usr/include/c++/11/bits/unique_ptr.h
FN:79,_ZNKSt14default_deleteI5GraphEclEPS0_
FNDA:3,_ZNKSt14default_deleteI5GraphEclEPS0_
FN:79,_ZNKSt14default_deleteI12ActiveObjectEclEPS0_
FNDA:7,_ZNKSt14default_deleteI12ActiveObjectEclEPS0_
FN:79,_ZNKSt14default_deleteI9functArgsEclEPS0_
FNDA:3,_ZNKSt14default_deleteI9functArgsEclEPS0_
FN:79,_ZNKSt14default_deleteI4TreeEclEPS0_
FNDA:4,_ZNKSt14default_deleteI4TreeEclEPS0_
FN:79,_ZNKSt14default_deleteI11MSTStrategyEclEPS0_
FNDA:4,_ZNKSt14default_deleteI11MSTStrategyEclEPS0_
FN:79,_ZNKSt14default_deleteINSt6thread6_StateEEclEPS1_
FNDA:0,_ZNKSt14default_deleteINSt6thread6_StateEEclEPS1_
FN:155,_ZNSt15__uniq_ptr_implI5GraphSt14default_deleteIS0_EEC2EPS0_
FNDA:3,_ZNSt15__uniq_ptr_implI5GraphSt14default_deleteIS0_EEC2EPS0_
FN:155,_ZNSt15__uniq_ptr_implI9functArgsSt14default_deleteIS0_EEC2EPS0_
FNDA:3,_ZNSt15__uniq_ptr_implI9functArgsSt14default_deleteIS0_EEC2EPS0_
FN:155,_ZNSt15__uniq_ptr_implINSt6thread6_StateESt14default_deleteIS1_EEC2EPS1_
FNDA:7,_ZNSt15__uniq_ptr_implINSt6thread6_StateESt14default_deleteIS1_EEC2EPS1_
FN:155,_ZNSt15__uniq_ptr_implI12ActiveObjectSt14default_deleteIS0_EEC2EPS0_
FNDA:7,_ZNSt15__uniq_ptr_implI12ActiveObjectSt14default_deleteIS0_EEC2EPS0_
FN:161,_ZNSt15__uniq_ptr_implI12ActiveObjectSt14default_deleteIS0_EEC2EOS3_
FNDA:14,_ZNSt15__uniq_ptr_implI12ActiveObjectSt14default_deleteIS0_EEC2EOS3_
FN:165,_ZNSt15__uniq_ptr_implI9functArgsSt14default_deleteIS0_EEaSEOS3_
FNDA:3,_ZNSt15__uniq_ptr_implI9functArgsSt14default_deleteIS0_EEaSEOS3_
FN:165,_ZNSt15__uniq_ptr_implI4TreeSt14default_deleteIS0_EEaSEOS3_
FNDA:4,_ZNSt15__uniq_ptr_implI4TreeSt14default_deleteIS0_EEaSEOS3_
FN:165,_ZNSt15__uniq_ptr_implI5GraphSt14default_deleteIS0_EEaSEOS3_
FNDA:3,_ZNSt15__uniq_ptr_implI5GraphSt14default_deleteIS0_EEaSEOS3_
FN:172,_ZNSt15__uniq_ptr_implI12ActiveObjectSt14default_deleteIS0_EE6_M_ptrEv
FNDA:56,_ZNSt15__uniq_ptr_implI12ActiveObjectSt14default_deleteIS0_EE6_M_ptrEv
FN:172,_ZNSt15__uniq_ptr_implI11MSTStrategySt14default_deleteIS0_EE6_M_ptrEv
FNDA:32,_ZNSt15__uniq_ptr_implI11MSTStrategySt14default_deleteIS0_EE6_M_ptrEv
FN:172,_ZNSt15__uniq_ptr_implI9functArgsSt14default_deleteIS0_EE6_M_ptrEv
FNDA:20,_ZNSt15__uniq_ptr_implI9functArgsSt14default_deleteIS0_EE6_M_ptrEv
FN:172,_ZNSt15__uniq_ptr_implI5GraphSt14default_deleteIS0_EE6_M_ptrEv
FNDA:28,_ZNSt15__uniq_ptr_implI5GraphSt14default_deleteIS0_EE6_M_ptrEv
FN:172,_ZNSt15__uniq_ptr_implI4TreeSt14default_deleteIS0_EE6_M_ptrEv
FNDA:42,_ZNSt15__uniq_ptr_implI4TreeSt14default_deleteIS0_EE6_M_ptrEv
FN:172,_ZNSt15__uniq_ptr_implINSt6thread6_StateESt14default_deleteIS1_EE6_M_ptrEv
FNDA:14,_ZNSt15__uniq_ptr_implINSt6thread6_StateESt14default_deleteIS1_EE6_M_ptrEv
FN:173,_ZNKSt15__uniq_ptr_implI4TreeSt14default_deleteIS0_EE6_M_ptrEv
FNDA:36,_ZNKSt15__uniq_ptr_implI4TreeSt14default_deleteIS0_EE6_M_ptrEv
FN:173,_ZNKSt15__uniq_ptr_implI5GraphSt14default_deleteIS0_EE6_M_ptrEv
FNDA:28,_ZNKSt15__uniq_ptr_implI5GraphSt14default_deleteIS0_EE6_M_ptrEv
FN:173,_ZNKSt15__uniq_ptr_implI9functArgsSt14default_deleteIS0_EE6_M_ptrEv
FNDA:3,_ZNKSt15__uniq_ptr_implI9functArgsSt14default_deleteIS0_EE6_M_ptrEv
FN:173,_ZNKSt15__uniq_ptr_implI12ActiveObjectSt14default_deleteIS0_EE6_M_ptrEv
FNDA:36,_ZNKSt15__uniq_ptr_implI12ActiveObjectSt14default_deleteIS0_EE6_M_ptrEv
FN:174,_ZNSt15__uniq_ptr_implI5GraphSt14default_deleteIS0_EE10_M_deleterEv
FNDA:9,_ZNSt15__uniq_ptr_implI5GraphSt14default_deleteIS0_EE10_M_deleterEv
FN:174,_ZNSt15__uniq_ptr_implINSt6thread6_StateESt14default_deleteIS1_EE10_M_deleterEv
FNDA:0,_ZNSt15__uniq_ptr_implINSt6thread6_StateESt14default_deleteIS1_EE10_M_deleterEv
FN:174,_ZNSt15__uniq_ptr_implI12ActiveObjectSt14default_deleteIS0_EE10_M_deleterEv
FNDA:7,_ZNSt15__uniq_ptr_implI12ActiveObjectSt14default_deleteIS0_EE10_M_deleterEv
FN:174,_ZNSt15__uniq_ptr_implI4TreeSt14default_deleteIS0_EE10_M_deleterEv
FNDA:12,_ZNSt15__uniq_ptr_implI4TreeSt14default_deleteIS0_EE10_M_deleterEv
FN:174,_ZNSt15__uniq_ptr_implI11MSTStrategySt14default_deleteIS0_EE10_M_deleterEv
FNDA:12,_ZNSt15__uniq_ptr_implI11MSTStrategySt14default_deleteIS0_EE10_M_deleterEv
FN:174,_ZNSt15__uniq_ptr_implI9functArgsSt14default_deleteIS0_EE10_M_deleterEv
FNDA:9,_ZNSt15__uniq_ptr_implI9functArgsSt14default_deleteIS0_EE10_M_deleterEv
FN:177,_ZNSt15__uniq_ptr_implI9functArgsSt14default_deleteIS0_EE5resetEPS0_
FNDA:4,_ZNSt15__uniq_ptr_implI9functArgsSt14default_deleteIS0_EE5resetEPS0_
FN:177,_ZNSt15__uniq_ptr_implI11MSTStrategySt14default_deleteIS0_EE5resetEPS0_
FNDA:8,_ZNSt15__uniq_ptr_implI11MSTStrategySt14default_deleteIS0_EE5resetEPS0_
FN:177,_ZNSt15__uniq_ptr_implI12ActiveObjectSt14default_deleteIS0_EE5resetEPS0_
FNDA:7,_ZNSt15__uniq_ptr_implI12ActiveObjectSt14default_deleteIS0_EE5resetEPS0_
FN:177,_ZNSt15__uniq_ptr_implI5GraphSt14default_deleteIS0_EE5resetEPS0_
FNDA:8,_ZNSt15__uniq_ptr_implI5GraphSt14default_deleteIS0_EE5resetEPS0_
FN:177,_ZNSt15__uniq_ptr_implI4TreeSt14default_deleteIS0_EE5resetEPS0_
FNDA:13,_ZNSt15__uniq_ptr_implI4TreeSt14default_deleteIS0_EE5resetEPS0_
FN:185,_ZNSt15__uniq_ptr_implI4TreeSt14default_deleteIS0_EE7releaseEv
FNDA:4,_ZNSt15__uniq_ptr_implI4TreeSt14default_deleteIS0_EE7releaseEv
FN:185,_ZNSt15__uniq_ptr_implI5GraphSt14default_deleteIS0_EE7releaseEv
FNDA:3,_ZNSt15__uniq_ptr_implI5GraphSt14default_deleteIS0_EE7releaseEv
FN:185,_ZNSt15__uniq_ptr_implI9functArgsSt14default_deleteIS0_EE7releaseEv
FNDA:3,_ZNSt15__uniq_ptr_implI9functArgsSt14default_deleteIS0_EE7releaseEv
FN:211,_ZNSt15__uniq_ptr_dataI12ActiveObjectSt14default_deleteIS0_ELb1ELb1EEC2EOS3_
FNDA:14,_ZNSt15__uniq_ptr_dataI12ActiveObjectSt14default_deleteIS0_ELb1ELb1EEC2EOS3_
FN:212,_ZNSt15__uniq_ptr_dataI4TreeSt14default_deleteIS0_ELb1ELb1EEaSEOS3_
FNDA:4,_ZNSt15__uniq_ptr_dataI4TreeSt14default_deleteIS0_ELb1ELb1EEaSEOS3_
FN:212,_ZNSt15__uniq_ptr_dataI5GraphSt14default_deleteIS0_ELb1ELb1EEaSEOS3_
FNDA:3,_ZNSt15__uniq_ptr_dataI5GraphSt14default_deleteIS0_ELb1ELb1EEaSEOS3_
FN:212,_ZNSt15__uniq_ptr_dataI9functArgsSt14default_deleteIS0_ELb1ELb1EEaSEOS3_
FNDA:3,_ZNSt15__uniq_ptr_dataI9functArgsSt14default_deleteIS0_ELb1ELb1EEaSEOS3_
FN:281,_ZNSt10unique_ptrI12ActiveObjectSt14default_deleteIS0_EEC2IS2_vEEPS0_
FNDA:7,_ZNSt10unique_ptrI12ActiveObjectSt14default_deleteIS0_EEC2IS2_vEEPS0_
FN:281,_ZNSt10unique_ptrI5GraphSt14default_deleteIS0_EEC2IS2_vEEPS0_
FNDA:3,_ZNSt10unique_ptrI5GraphSt14default_deleteIS0_EEC2IS2_vEEPS0_
FN:281,_ZNSt10unique_ptrINSt6thread6_StateESt14default_deleteIS1_EEC2IS3_vEEPS1_
FNDA:7,_ZNSt10unique_ptrINSt6thread6_StateESt14default_deleteIS1_EEC2IS3_vEEPS1_
FN:281,_ZNSt10unique_ptrI9functArgsSt14default_deleteIS0_EEC2IS2_vEEPS0_
FNDA:3,_ZNSt10unique_ptrI9functArgsSt14default_deleteIS0_EEC2IS2_vEEPS0_
FN:327,_ZNSt10unique_ptrI12ActiveObjectSt14default_deleteIS0_EEC2EOS3_
FNDA:14,_ZNSt10unique_ptrI12ActiveObjectSt14default_deleteIS0_EEC2EOS3_
FN:355,_ZNSt10unique_ptrI12ActiveObjectSt14default_deleteIS0_EED2Ev
FNDA:21,_ZNSt10unique_ptrI12ActiveObjectSt14default_deleteIS0_EED2Ev
FN:355,_ZNSt10unique_ptrI4TreeSt14default_deleteIS0_EED2Ev
FNDA:4,_ZNSt10unique_ptrI4TreeSt14default_deleteIS0_EED2Ev
FN:355,_ZNSt10unique_ptrI11MSTStrategySt14default_deleteIS0_EED2Ev
FNDA:4,_ZNSt10unique_ptrI11MSTStrategySt14default_deleteIS0_EED2Ev
FN:355,_ZNSt10unique_ptrI9functArgsSt14default_deleteIS0_EED2Ev
FNDA:3,_ZNSt10unique_ptrI9functArgsSt14default_deleteIS0_EED2Ev
FN:355,_ZNSt10unique_ptrI5GraphSt14default_deleteIS0_EED2Ev
FNDA:3,_ZNSt10unique_ptrI5GraphSt14default_deleteIS0_EED2Ev
FN:355,_ZNSt10unique_ptrINSt6thread6_StateESt14default_deleteIS1_EED2Ev
FNDA:7,_ZNSt10unique_ptrINSt6thread6_StateESt14default_deleteIS1_EED2Ev
FN:371,_ZNSt10unique_ptrI4TreeSt14default_deleteIS0_EEaSEOS3_
FNDA:4,_ZNSt10unique_ptrI4TreeSt14default_deleteIS0_EEaSEOS3_
FN:371,_ZNSt10unique_ptrI9functArgsSt14default_deleteIS0_EEaSEOS3_
FNDA:3,_ZNSt10unique_ptrI9functArgsSt14default_deleteIS0_EEaSEOS3_
FN:371,_ZNSt10unique_ptrI5GraphSt14default_deleteIS0_EEaSEOS3_
FNDA:3,_ZNSt10unique_ptrI5GraphSt14default_deleteIS0_EEaSEOS3_
FN:395,_ZNSt10unique_ptrI5GraphSt14default_deleteIS0_EEaSEDn
FNDA:2,_ZNSt10unique_ptrI5GraphSt14default_deleteIS0_EEaSEDn
FN:395,_ZNSt10unique_ptrI4TreeSt14default_deleteIS0_EEaSEDn
FNDA:4,_ZNSt10unique_ptrI4TreeSt14default_deleteIS0_EEaSEDn
FN:413,_ZNKSt10unique_ptrI4TreeSt14default_deleteIS0_EEptEv
FNDA:13,_ZNKSt10unique_ptrI4TreeSt14default_deleteIS0_EEptEv
FN:413,_ZNKSt10unique_ptrI5GraphSt14default_deleteIS0_EEptEv
FNDA:14,_ZNKSt10unique_ptrI5GraphSt14default_deleteIS0_EEptEv
FN:413,_ZNKSt10unique_ptrI12ActiveObjectSt14default_deleteIS0_EEptEv
FNDA:36,_ZNKSt10unique_ptrI12ActiveObjectSt14default_deleteIS0_EEptEv
FN:421,_ZNKSt10unique_ptrI9functArgsSt14default_deleteIS0_EE3getEv
FNDA:3,_ZNKSt10unique_ptrI9functArgsSt14default_deleteIS0_EE3getEv
FN:421,_ZNKSt10unique_ptrI4TreeSt14default_deleteIS0_EE3getEv
FNDA:36,_ZNKSt10unique_ptrI4TreeSt14default_deleteIS0_EE3getEv
FN:421,_ZNKSt10unique_ptrI5GraphSt14default_deleteIS0_EE3getEv
FNDA:28,_ZNKSt10unique_ptrI5GraphSt14default_deleteIS0_EE3getEv
FN:421,_ZNKSt10unique_ptrI12ActiveObjectSt14default_deleteIS0_EE3getEv
FNDA:36,_ZNKSt10unique_ptrI12ActiveObjectSt14default_deleteIS0_EE3getEv
FN:426,_ZNSt10unique_ptrI9functArgsSt14default_deleteIS0_EE11get_deleterEv
FNDA:0,_ZNSt10unique_ptrI9functArgsSt14default_deleteIS0_EE11get_deleterEv
FN:426,_ZNSt10unique_ptrI12ActiveObjectSt14default_deleteIS0_EE11get_deleterEv
FNDA:0,_ZNSt10unique_ptrI12ActiveObjectSt14default_deleteIS0_EE11get_deleterEv
FN:426,_ZNSt10unique_ptrINSt6thread6_StateESt14default_deleteIS1_EE11get_deleterEv
FNDA:0,_ZNSt10unique_ptrINSt6thread6_StateESt14default_deleteIS1_EE11get_deleterEv
FN:426,_ZNSt10unique_ptrI11MSTStrategySt14default_deleteIS0_EE11get_deleterEv
FNDA:0,_ZNSt10unique_ptrI11MSTStrategySt14default_deleteIS0_EE11get_deleterEv
FN:426,_ZNSt10unique_ptrI4TreeSt14default_deleteIS0_EE11get_deleterEv
FNDA:0,_ZNSt10unique_ptrI4TreeSt14default_deleteIS0_EE11get_deleterEv
FN:426,_ZNSt10unique_ptrI5GraphSt14default_deleteIS0_EE11get_deleterEv
FNDA:0,_ZNSt10unique_ptrI5GraphSt14default_deleteIS0_EE11get_deleterEv
FN:435,_ZNKSt10unique_ptrI5GraphSt14default_deleteIS0_EEcvbEv
FNDA:10,_ZNKSt10unique_ptrI5GraphSt14default_deleteIS0_EEcvbEv
FN:435,_ZNKSt10unique_ptrI4TreeSt14default_deleteIS0_EEcvbEv
FNDA:23,_ZNKSt10unique_ptrI4TreeSt14default_deleteIS0_EEcvbEv
FN:452,_ZNSt10unique_ptrI4TreeSt14default_deleteIS0_EE5resetEPS0_
FNDA:9,_ZNSt10unique_ptrI4TreeSt14default_deleteIS0_EE5resetEPS0_
FN:452,_ZNSt10unique_ptrI5GraphSt14default_deleteIS0_EE5resetEPS0_
FNDA:5,_ZNSt10unique_ptrI5GraphSt14default_deleteIS0_EE5resetEPS0_
FN:452,_ZNSt10unique_ptrI9functArgsSt14default_deleteIS0_EE5resetEPS0_
FNDA:1,_ZNSt10unique_ptrI9functArgsSt14default_deleteIS0_EE5resetEPS0_
FN:452,_ZNSt10unique_ptrI11MSTStrategySt14default_deleteIS0_EE5resetEPS0_
FNDA:4,_ZNSt10unique_ptrI11MSTStrategySt14default_deleteIS0_EE5resetEPS0_
FN:452,_ZNSt10unique_ptrI12ActiveObjectSt14default_deleteIS0_EE5resetEPS0_
FNDA:7,_ZNSt10unique_ptrI12ActiveObjectSt14default_deleteIS0_EE5resetEPS0_
FN:760,_ZSteqI5GraphSt14default_deleteIS0_EEbRKSt10unique_ptrIT_T0_EDn
FNDA:6,_ZSteqI5GraphSt14default_deleteIS0_EEbRKSt10unique_ptrIT_T0_EDn
FN:760,_ZSteqI4TreeSt14default_deleteIS0_EEbRKSt10unique_ptrIT_T0_EDn
FNDA:15,_ZSteqI4TreeSt14default_deleteIS0_EEbRKSt10unique_ptrIT_T0_EDn
FN:781,_ZStneI4TreeSt14default_deleteIS0_EEbRKSt10unique_ptrIT_T0_EDn
FNDA:8,_ZStneI4TreeSt14default_deleteIS0_EEbRKSt10unique_ptrIT_T0_EDn
FN:781,_ZStneI5GraphSt14default_deleteIS0_EEbRKSt10unique_ptrIT_T0_EDn
FNDA:4,_ZStneI5GraphSt14default_deleteIS0_EEbRKSt10unique_ptrIT_T0_EDn
FN:961,_ZSt11make_uniqueI5GraphJRiS1_EENSt9_MakeUniqIT_E15__single_objectEDpOT0_
FNDA:3,_ZSt11make_uniqueI5GraphJRiS1_EENSt9_MakeUniqIT_E15__single_objectEDpOT0_
FN:961,_ZSt11make_uniqueI12ActiveObjectJEENSt9_MakeUniqIT_E15__single_objectEDpOT0_
FNDA:7,_ZSt11make_uniqueI12ActiveObjectJEENSt9_MakeUniqIT_E15__single_objectEDpOT0_
DA:79,0
DA:85,0
DA:86,0
DA:79,7
DA:85,7
DA:86,7
DA:79,3
DA:85,3
DA:86,3
DA:79,4
DA:85,4
DA:86,4
DA:79,4
DA:85,4
DA:86,4
DA:79,3
DA:85,3
DA:86,3
DA:155,7
DA:155,3
DA:155,7
DA:155,3
DA:161,14
DA:162,14
DA:163,14
DA:165,3
DA:167,3
DA:168,3
DA:169,3
DA:165,4
DA:167,4
DA:168,4
DA:169,4
DA:165,3
DA:167,3
DA:168,3
DA:169,3
DA:172,14
DA:172,56
DA:172,20
DA:172,32
DA:172,42
DA:172,28
DA:173,36
DA:173,28
DA:173,36
DA:173,3
DA:174,0
DA:174,7
DA:174,12
DA:174,9
DA:174,12
DA:174,9
DA:177,7
DA:179,7
DA:180,7
DA:181,7
DA:182,7
DA:183,7
DA:177,4
DA:179,4
DA:180,4
DA:181,4
DA:182,3
DA:183,4
DA:177,13
DA:179,13
DA:180,13
DA:181,13
DA:182,4
DA:183,13
DA:177,8
DA:179,8
DA:180,8
DA:181,8
DA:182,3
DA:183,8
DA:177,8
DA:179,8
DA:180,8
DA:181,8
DA:182,4
DA:183,8
DA:185,3
DA:187,3
DA:188,3
DA:189,3
DA:185,4
DA:187,4
DA:188,4
DA:189,4
DA:185,3
DA:187,3
DA:188,3
DA:189,3
DA:211,14
DA:212,3
DA:212,4
DA:212,3
DA:281,7
DA:282,7
DA:283,7
DA:281,3
DA:282,3
DA:283,3
DA:281,7
DA:282,7
DA:283,7
DA:281,3
DA:282,3
DA:283,3
DA:327,14
DA:355,7
DA:359,7
DA:360,7
DA:361,0
DA:362,7
DA:363,7
DA:355,21
DA:359,21
DA:360,21
DA:361,0
DA:362,21
DA:363,21
DA:355,3
DA:359,3
DA:360,3
DA:361,0
DA:362,3
DA:363,3
DA:355,4
DA:359,4
DA:360,4
DA:361,0
DA:362,4
DA:363,4
DA:355,4
DA:359,4
DA:360,4
DA:361,0
DA:362,4
DA:363,4
DA:355,3
DA:359,3
DA:360,3
DA:361,0
DA:362,3
DA:363,3
DA:371,3
DA:371,4
DA:371,3
DA:395,4
DA:397,4
DA:398,4
DA:395,2
DA:397,2
DA:398,2
DA:413,13
DA:416,13
DA:413,14
DA:416,14
DA:413,36
DA:416,36
DA:421,36
DA:422,36
DA:421,28
DA:422,28
DA:421,36
DA:422,36
DA:421,3
DA:422,3
DA:426,0
DA:427,0
DA:426,0
DA:427,0
DA:426,0
DA:427,0
DA:426,0
DA:427,0
DA:426,0
DA:427,0
DA:426,0
DA:427,0
DA:435,23
DA:436,23
DA:435,10
DA:436,10
DA:452,7
DA:456,7
DA:457,7
DA:452,1
DA:456,1
DA:457,1
DA:452,9
DA:456,9
DA:457,9
DA:452,5
DA:456,5
DA:457,5
DA:452,4
DA:456,4
DA:457,4
DA:760,15
DA:761,15
DA:760,6
DA:761,6
DA:781,8
DA:782,8
DA:781,4
DA:782,4
DA:961,7
DA:962,7
DA:961,3
DA:962,3
end_of_record
SF:/usr/include/c++/11/ext/type_traits.h
FN:152,_ZN9__gnu_cxx17__is_null_pointerIcEEbPT_
FNDA:19,_ZN9__gnu_cxx17__is_null_pointerIcEEbPT_
FN:152,_ZN9__gnu_cxx17__is_null_pointerIKcEEbPT_
FNDA:58,_ZN9__gnu_cxx17__is_null_pointerIKcEEbPT_
DA:152,19
DA:153,19
DA:152,58
DA:153,58
end_of_record
SF:/usr/include/c++/11/atomic
FN:76,_ZNSt6atomicIbEC2Eb
FNDA:7,_ZNSt6atomicIbEC2Eb
FN:86,_ZNKSt6atomicIbEcvbEv
FNDA:37,_ZNKSt6atomicIbEcvbEv
FN:103,_ZNSt6atomicIbE5storeEbSt12memory_order
FNDA:44,_ZNSt6atomicIbE5storeEbSt12memory_order
FN:111,_ZNKSt6atomicIbE4loadESt12memory_order
FNDA:149,_ZNKSt6atomicIbE4loadESt12memory_order
DA:76,7
DA:86,37
DA:87,74
DA:103,44
DA:104,44
DA:111,149
DA:112,298
end_of_record
SF:/usr/include/c++/11/bits/char_traits.h
FN:106,_ZN9__gnu_cxx11char_traitsIcE2eqERKcS3_
FNDA:0,_ZN9__gnu_cxx11char_traitsIcE2eqERKcS3_
FN:167,_ZN9__gnu_cxx11char_traitsIcE6lengthEPKc
FNDA:0,_ZN9__gnu_cxx11char_traitsIcE6lengthEPKc
FN:393,_ZNSt11char_traitsIcE6lengthEPKc
FNDA:60,_ZNSt11char_traitsIcE6lengthEPKc
FN:429,_ZNSt11char_traitsIcE4copyEPcPKcm
FNDA:0,_ZNSt11char_traitsIcE4copyEPcPKcm
DA:106,0
DA:107,0
DA:167,0
DA:170,0
DA:171,0
DA:172,0
DA:173,0
DA:290,60
DA:393,60
DA:396,60
DA:397,0
DA:399,60
DA:429,0
DA:431,0
DA:432,0
DA:437,0
end_of_record
SF:/usr/include/c++/11/bits/invoke.h
FN:60,_ZSt13__invoke_implIvRZ4mainEUliE_JiEET_St14__invoke_otherOT0_DpOT1_
FNDA:1,_ZSt13__invoke_implIvRZ4mainEUliE_JiEET_St14__invoke_otherOT0_DpOT1_
FN:60,_ZSt13__invoke_implIvRZ14handleCommandsiRSt6vectorISt10unique_ptrI12ActiveObjectSt14default_deleteIS2_EESaIS5_EERS1_I5GraphS3_IS9_EER10MSTFactoryRS1_I4TreeS3_ISF_EEEUlvE10_JEET_St14__invoke_otherOT0_DpOT1_
FNDA:2,_ZSt13__invoke_implIvRZ14handleCommandsiRSt6vectorISt10unique_ptrI12ActiveObjectSt14default_deleteIS2_EESaIS5_EERS1_I5GraphS3_IS9_EER10MSTFactoryRS1_I4TreeS3_ISF_EEEUlvE10_JEET_St14__invoke_otherOT0_DpOT1_
FN:60,_ZSt13__invoke_implIvRZ14handleCommandsiRSt6vectorISt10unique_ptrI12ActiveObjectSt14default_deleteIS2_EESaIS5_EERS1_I5GraphS3_IS9_EER10MSTFactoryRS1_I4TreeS3_ISF_EEEUlvE9_JEET_St14__invoke_otherOT0_DpOT1_
FNDA:2,_ZSt13__invoke_implIvRZ14handleCommandsiRSt6vectorISt10unique_ptrI12ActiveObjectSt14default_deleteIS2_EESaIS5_EERS1_I5GraphS3_IS9_EER10MSTFactoryRS1_I4TreeS3_ISF_EEEUlvE9_JEET_St14__invoke_otherOT0_DpOT1_
FN:60,_ZSt13__invoke_implIvRZ14handleCommandsiRSt6vectorISt10unique_ptrI12ActiveObjectSt14default_deleteIS2_EESaIS5_EERS1_I5GraphS3_IS9_EER10MSTFactoryRS1_I4TreeS3_ISF_EEEUlvE8_JEET_St14__invoke_otherOT0_DpOT1_
FNDA:3,_ZSt13__invoke_implIvRZ14handleCommandsiRSt6vectorISt10unique_ptrI12ActiveObjectSt14default_deleteIS2_EESaIS5_EERS1_I5GraphS3_IS9_EER10MSTFactoryRS1_I4TreeS3_ISF_EEEUlvE8_JEET_St14__invoke_otherOT0_DpOT1_
FN:60,_ZSt13__invoke_implIvRZ14handleCommandsiRSt6vectorISt10unique_ptrI12ActiveObjectSt14default_deleteIS2_EESaIS5_EERS1_I5GraphS3_IS9_EER10MSTFactoryRS1_I4TreeS3_ISF_EEEUlvE6_JEET_St14__invoke_otherOT0_DpOT1_
FNDA:5,_ZSt13__invoke_implIvRZ14handleCommandsiRSt6vectorISt10unique_ptrI12ActiveObjectSt14default_deleteIS2_EESaIS5_EERS1_I5GraphS3_IS9_EER10MSTFactoryRS1_I4TreeS3_ISF_EEEUlvE6_JEET_St14__invoke_otherOT0_DpOT1_
FN:60,_ZSt13__invoke_implIvRZ14handleCommandsiRSt6vectorISt10unique_ptrI12ActiveObjectSt14default_deleteIS2_EESaIS5_EERS1_I5GraphS3_IS9_EER10MSTFactoryRS1_I4TreeS3_ISF_EEEUlvE5_JEET_St14__invoke_otherOT0_DpOT1_
FNDA:2,_ZSt13__invoke_implIvRZ14handleCommandsiRSt6vectorISt10unique_ptrI12ActiveObjectSt14default_deleteIS2_EESaIS5_EERS1_I5GraphS3_IS9_EER10MSTFactoryRS1_I4TreeS3_ISF_EEEUlvE5_JEET_St14__invoke_otherOT0_DpOT1_
FN:60,_ZSt13__invoke_implIvRZ14handleCommandsiRSt6vectorISt10unique_ptrI12ActiveObjectSt14default_deleteIS2_EESaIS5_EERS1_I5GraphS3_IS9_EER10MSTFactoryRS1_I4TreeS3_ISF_EEEUlvE4_JEET_St14__invoke_otherOT0_DpOT1_
FNDA:2,_ZSt13__invoke_implIvRZ14handleCommandsiRSt6vectorISt10unique_ptrI12ActiveObjectSt14default_deleteIS2_EESaIS5_EERS1_I5GraphS3_IS9_EER10MSTFactoryRS1_I4TreeS3_ISF_EEEUlvE4_JEET_St14__invoke_otherOT0_DpOT1_
FN:60,_ZSt13__invoke_implIvRZ14handleCommandsiRSt6vectorISt10unique_ptrI12ActiveObjectSt14default_deleteIS2_EESaIS5_EERS1_I5GraphS3_IS9_EER10MSTFactoryRS1_I4TreeS3_ISF_EEEUlvE3_JEET_St14__invoke_otherOT0_DpOT1_
FNDA:2,_ZSt13__invoke_implIvRZ14handleCommandsiRSt6vectorISt10unique_ptrI12ActiveObjectSt14default_deleteIS2_EESaIS5_EERS1_I5GraphS3_IS9_EER10MSTFactoryRS1_I4TreeS3_ISF_EEEUlvE3_JEET_St14__invoke_otherOT0_DpOT1_
FN:60,_ZSt13__invoke_implIvRZ14handleCommandsiRSt6vectorISt10unique_ptrI12ActiveObjectSt14default_deleteIS2_EESaIS5_EERS1_I5GraphS3_IS9_EER10MSTFactoryRS1_I4TreeS3_ISF_EEEUlvE2_JEET_St14__invoke_otherOT0_DpOT1_
FNDA:2,_ZSt13__invoke_implIvRZ14handleCommandsiRSt6vectorISt10unique_ptrI12ActiveObjectSt14default_deleteIS2_EESaIS5_EERS1_I5GraphS3_IS9_EER10MSTFactoryRS1_I4TreeS3_ISF_EEEUlvE2_JEET_St14__invoke_otherOT0_DpOT1_
FN:60,_ZSt13__invoke_implIvRZ14handleCommandsiRSt6vectorISt10unique_ptrI12ActiveObjectSt14default_deleteIS2_EESaIS5_EERS1_I5GraphS3_IS9_EER10MSTFactoryRS1_I4TreeS3_ISF_EEEUlvE1_JEET_St14__invoke_otherOT0_DpOT1_
FNDA:2,_ZSt13__invoke_implIvRZ14handleCommandsiRSt6vectorISt10unique_ptrI12ActiveObjectSt14default_deleteIS2_EESaIS5_EERS1_I5GraphS3_IS9_EER10MSTFactoryRS1_I4TreeS3_ISF_EEEUlvE1_JEET_St14__invoke_otherOT0_DpOT1_
FN:60,_ZSt13__invoke_implIvRZ14handleCommandsiRSt6vectorISt10unique_ptrI12ActiveObjectSt14default_deleteIS2_EESaIS5_EERS1_I5GraphS3_IS9_EER10MSTFactoryRS1_I4TreeS3_ISF_EEEUlvE0_JEET_St14__invoke_otherOT0_DpOT1_
FNDA:10,_ZSt13__invoke_implIvRZ14handleCommandsiRSt6vectorISt10unique_ptrI12ActiveObjectSt14default_deleteIS2_EESaIS5_EERS1_I5GraphS3_IS9_EER10MSTFactoryRS1_I4TreeS3_ISF_EEEUlvE0_JEET_St14__invoke_otherOT0_DpOT1_
FN:60,_ZSt13__invoke_implIvRZ14handleCommandsiRSt6vectorISt10unique_ptrI12ActiveObjectSt14default_deleteIS2_EESaIS5_EERS1_I5GraphS3_IS9_EER10MSTFactoryRS1_I4TreeS3_ISF_EEEUlvE_JEET_St14__invoke_otherOT0_DpOT1_
FNDA:4,_ZSt13__invoke_implIvRZ14handleCommandsiRSt6vectorISt10unique_ptrI12ActiveObjectSt14default_deleteIS2_EESaIS5_EERS1_I5GraphS3_IS9_EER10MSTFactoryRS1_I4TreeS3_ISF_EEEUlvE_JEET_St14__invoke_otherOT0_DpOT1_
FN:71,_ZSt13__invoke_implIvM12ActiveObjectFvvEPS0_JEET_St21__invoke_memfun_derefOT0_OT1_DpOT2_
FNDA:7,_ZSt13__invoke_implIvM12ActiveObjectFvvEPS0_JEET_St21__invoke_memfun_derefOT0_OT1_DpOT2_
FN:90,_ZSt8__invokeIM12ActiveObjectFvvEJPS0_EENSt15__invoke_resultIT_JDpT0_EE4typeEOS5_DpOS6_
FNDA:7,_ZSt8__invokeIM12ActiveObjectFvvEJPS0_EENSt15__invoke_resultIT_JDpT0_EE4typeEOS5_DpOS6_
FN:104,_ZSt10__invoke_rIvRZ4mainEUliE_JiEENSt9enable_ifIX16is_invocable_r_vIT_T0_DpT1_EES3_E4typeEOS4_DpOS5_
FNDA:1,_ZSt10__invoke_rIvRZ4mainEUliE_JiEENSt9enable_ifIX16is_invocable_r_vIT_T0_DpT1_EES3_E4typeEOS4_DpOS5_
FN:104,_ZSt10__invoke_rIvRZ14handleCommandsiRSt6vectorISt10unique_ptrI12ActiveObjectSt14default_deleteIS2_EESaIS5_EERS1_I5GraphS3_IS9_EER10MSTFactoryRS1_I4TreeS3_ISF_EEEUlvE_JEENSt9enable_ifIX16is_invocable_r_vIT_T0_DpT1_EESM_E4typeEOSN_DpOSO_
FNDA:4,_ZSt10__invoke_rIvRZ14handleCommandsiRSt6vectorISt10unique_ptrI12ActiveObjectSt14default_deleteIS2_EESaIS5_EERS1_I5GraphS3_IS9_EER10MSTFactoryRS1_I4TreeS3_ISF_EEEUlvE_JEENSt9enable_ifIX16is_invocable_r_vIT_T0_DpT1_EESM_E4typeEOSN_DpOSO_
FN:104,_ZSt10__invoke_rIvRZ14handleCommandsiRSt6vectorISt10unique_ptrI12ActiveObjectSt14default_deleteIS2_EESaIS5_EERS1_I5GraphS3_IS9_EER10MSTFactoryRS1_I4TreeS3_ISF_EEEUlvE0_JEENSt9enable_ifIX16is_invocable_r_vIT_T0_DpT1_EESM_E4typeEOSN_DpOSO_
FNDA:10,_ZSt10__invoke_rIvRZ14handleCommandsiRSt6vectorISt10unique_ptrI12ActiveObjectSt14default_deleteIS2_EESaIS5_EERS1_I5GraphS3_IS9_EER10MSTFactoryRS1_I4TreeS3_ISF_EEEUlvE0_JEENSt9enable_ifIX16is_invocable_r_vIT_T0_DpT1_EESM_E4typeEOSN_DpOSO_
FN:104,_ZSt10__invoke_rIvRZ14handleCommandsiRSt6vectorISt10unique_ptrI12ActiveObjectSt14default_deleteIS2_EESaIS5_EERS1_I5GraphS3_IS9_EER10MSTFactoryRS1_I4TreeS3_ISF_EEEUlvE1_JEENSt9enable_ifIX16is_invocable_r_vIT_T0_DpT1_EESM_E4typeEOSN_DpOSO_
FNDA:2,_ZSt10__invoke_rIvRZ14handleCommandsiRSt6vectorISt10unique_ptrI12ActiveObjectSt14default_deleteIS2_EESaIS5_EERS1_I5GraphS3_IS9_EER10MSTFactoryRS1_I4TreeS3_ISF_EEEUlvE1_JEENSt9enable_ifIX16is_invocable_r_vIT_T0_DpT1_EESM_E4typeEOSN_DpOSO_
FN:104,_ZSt10__invoke_rIvRZ14handleCommandsiRSt6vectorISt10unique_ptrI12ActiveObjectSt14default_deleteIS2_EESaIS5_EERS1_I5GraphS3_IS9_EER10MSTFactoryRS1_I4TreeS3_ISF_EEEUlvE2_JEENSt9enable_ifIX16is_invocable_r_vIT_T0_DpT1_EESM_E4typeEOSN_DpOSO_
FNDA:2,_ZSt10__invoke_rIvRZ14handleCommandsiRSt6vectorISt10unique_ptrI12ActiveObjectSt14default_deleteIS2_EESaIS5_EERS1_I5GraphS3_IS9_EER10MSTFactoryRS1_I4TreeS3_ISF_EEEUlvE2_JEENSt9enable_ifIX16is_invocable_r_vIT_T0_DpT1_EESM_E4typeEOSN_DpOSO_
FN:104,_ZSt10__invoke_rIvRZ14handleCommandsiRSt6vectorISt10unique_ptrI12ActiveObjectSt14default_deleteIS2_EESaIS5_EERS1_I5GraphS3_IS9_EER10MSTFactoryRS1_I4TreeS3_ISF_EEEUlvE3_JEENSt9enable_ifIX16is_invocable_r_vIT_T0_DpT1_EESM_E4typeEOSN_DpOSO_
FNDA:2,_ZSt10__invoke_rIvRZ14handleCommandsiRSt6vectorISt10unique_ptrI12ActiveObjectSt14default_deleteIS2_EESaIS5_EERS1_I5GraphS3_IS9_EER10MSTFactoryRS1_I4TreeS3_ISF_EEEUlvE3_JEENSt9enable_ifIX16is_invocable_r_vIT_T0_DpT1_EESM_E4typeEOSN_DpOSO_
FN:104,_ZSt10__invoke_rIvRZ14handleCommandsiRSt6vectorISt10unique_ptrI12ActiveObjectSt14default_deleteIS2_EESaIS5_EERS1_I5GraphS3_IS9_EER10MSTFactoryRS1_I4TreeS3_ISF_EEEUlvE4_JEENSt9enable_ifIX16is_invocable_r_vIT_T0_DpT1_EESM_E4typeEOSN_DpOSO_
FNDA:2,_ZSt10__invoke_rIvRZ14handleCommandsiRSt6vectorISt10unique_ptrI12ActiveObjectSt14default_deleteIS2_EESaIS5_EERS1_I5GraphS3_IS9_EER10MSTFactoryRS1_I4TreeS3_ISF_EEEUlvE4_JEENSt9enable_ifIX16is_invocable_r_vIT_T0_DpT1_EESM_E4typeEOSN_DpOSO_
FN:104,_ZSt10__invoke_rIvRZ14handleCommandsiRSt6vectorISt10unique_ptrI12ActiveObjectSt14default_deleteIS2_EESaIS5_EERS1_I5GraphS3_IS9_EER10MSTFactoryRS1_I4TreeS3_ISF_EEEUlvE5_JEENSt9enable_ifIX16is_invocable_r_vIT_T0_DpT1_EESM_E4typeEOSN_DpOSO_
FNDA:2,_ZSt10__invoke_rIvRZ14handleCommandsiRSt6vectorISt10unique_ptrI12ActiveObjectSt14default_deleteIS2_EESaIS5_EERS1_I5GraphS3_IS9_EER10MSTFactoryRS1_I4TreeS3_ISF_EEEUlvE5_JEENSt9enable_ifIX16is_invocable_r_vIT_T0_DpT1_EESM_E4typeEOSN_DpOSO_
FN:104,_ZSt10__invoke_rIvRZ14handleCommandsiRSt6vectorISt10unique_ptrI12ActiveObjectSt14default_deleteIS2_EESaIS5_EERS1_I5GraphS3_IS9_EER10MSTFactoryRS1_I4TreeS3_ISF_EEEUlvE6_JEENSt9enable_ifIX16is_invocable_r_vIT_T0_DpT1_EESM_E4typeEOSN_DpOSO_
FNDA:5,_ZSt10__invoke_rIvRZ14handleCommandsiRSt6vectorISt10unique_ptrI12ActiveObjectSt14default_deleteIS2_EESaIS5_EERS1_I5GraphS3_IS9_EER10MSTFactoryRS1_I4TreeS3_ISF_EEEUlvE6_JEENSt9enable_ifIX16is_invocable_r_vIT_T0_DpT1_EESM_E4typeEOSN_DpOSO_
FN:104,_ZSt10__invoke_rIvRZ14handleCommandsiRSt6vectorISt10unique_ptrI12ActiveObjectSt14default_deleteIS2_EESaIS5_EERS1_I5GraphS3_IS9_EER10MSTFactoryRS1_I4TreeS3_ISF_EEEUlvE8_JEENSt9enable_ifIX16is_invocable_r_vIT_T0_DpT1_EESM_E4typeEOSN_DpOSO_
FNDA:3,_ZSt10__invoke_rIvRZ14handleCommandsiRSt6vectorISt10unique_ptrI12ActiveObjectSt14default_deleteIS2_EESaIS5_EERS1_I5GraphS3_IS9_EER10MSTFactoryRS1_I4TreeS3_ISF_EEEUlvE8_JEENSt9enable_ifIX16is_invocable_r_vIT_T0_DpT1_EESM_E4typeEOSN_DpOSO_
FN:104,_ZSt10__invoke_rIvRZ14handleCommandsiRSt6vectorISt10unique_ptrI12ActiveObjectSt14default_deleteIS2_EESaIS5_EERS1_I5GraphS3_IS9_EER10MSTFactoryRS1_I4TreeS3_ISF_EEEUlvE9_JEENSt9enable_ifIX16is_invocable_r_vIT_T0_DpT1_EESM_E4typeEOSN_DpOSO_
FNDA:2,_ZSt10__invoke_rIvRZ14handleCommandsiRSt6vectorISt10unique_ptrI12ActiveObjectSt14default_deleteIS2_EESaIS5_EERS1_I5GraphS3_IS9_EER10MSTFactoryRS1_I4TreeS3_ISF_EEEUlvE9_JEENSt9enable_ifIX16is_invocable_r_vIT_T0_DpT1_EESM_E4typeEOSN_DpOSO_
FN:104,_ZSt10__invoke_rIvRZ14handleCommandsiRSt6vectorISt10unique_ptrI12ActiveObjectSt14default_deleteIS2_EESaIS5_EERS1_I5GraphS3_IS9_EER10MSTFactoryRS1_I4TreeS3_ISF_EEEUlvE10_JEENSt9enable_ifIX16is_invocable_r_vIT_T0_DpT1_EESM_E4typeEOSN_DpOSO_
FNDA:2,_ZSt10__invoke_rIvRZ14handleCommandsiRSt6vectorISt10unique_ptrI12ActiveObjectSt14default_deleteIS2_EESaIS5_EERS1_I5GraphS3_IS9_EER10MSTFactoryRS1_I4TreeS3_ISF_EEEUlvE10_JEENSt9enable_ifIX16is_invocable_r_vIT_T0_DpT1_EESM_E4typeEOSN_DpOSO_
DA:60,2
DA:61,2
DA:60,2
DA:61,2
DA:60,3
DA:61,3
DA:60,5
DA:61,5
DA:60,2
DA:61,2
DA:60,2
DA:61,2
DA:60,2
DA:61,2
DA:60,2
DA:61,2
DA:60,2
DA:61,2
DA:60,10
DA:61,10
DA:60,4
DA:61,4
DA:60,1
DA:61,1
DA:71,7
DA:74,7
DA:90,7
DA:96,7
DA:97,7
DA:104,2
DA:111,2
DA:117,2
DA:104,2
DA:111,2
DA:117,2
DA:104,3
DA:111,3
DA:117,3
DA:104,5
DA:111,5
DA:117,5
DA:104,2
DA:111,2
DA:117,2
DA:104,2
DA:111,2
DA:117,2
DA:104,2
DA:111,2
DA:117,2
DA:104,2
DA:111,2
DA:117,2
DA:104,2
DA:111,2
DA:117,2
DA:104,10
DA:111,10
DA:117,10
DA:104,4
DA:111,4
DA:117,4
DA:104,1
DA:111,1
DA:117,1
end_of_record
SF:/usr/include/c++/11/bits/stl_construct.h
FN:109,_ZSt10_ConstructISt6vectorI4EdgeSaIS1_EEJEEvPT_DpOT0_
FNDA:33,_ZSt10_ConstructISt6vectorI4EdgeSaIS1_EEJEEvPT_DpOT0_
FN:109,_ZSt10_ConstructISt10unique_ptrI12ActiveObjectSt14default_deleteIS1_EEJS4_EEvPT_DpOT0_
FNDA:0,_ZSt10_ConstructISt10unique_ptrI12ActiveObjectSt14default_deleteIS1_EEJS4_EEvPT_DpOT0_
FN:146,_ZSt8_DestroyISt8functionIFvvEEEvPT_
FNDA:0,_ZSt8_DestroyISt8functionIFvvEEEvPT_
FN:146,_ZSt8_DestroyISt10unique_ptrI12ActiveObjectSt14default_deleteIS1_EEEvPT_
FNDA:7,_ZSt8_DestroyISt10unique_ptrI12ActiveObjectSt14default_deleteIS1_EEEvPT_
FN:146,_ZSt8_DestroyISt6threadEvPT_
FNDA:0,_ZSt8_DestroyISt6threadEvPT_
FN:146,_ZSt8_DestroyISt6vectorI4EdgeSaIS1_EEEvPT_
FNDA:33,_ZSt8_DestroyISt6vectorI4EdgeSaIS1_EEEvPT_
FN:160,_ZNSt12_Destroy_auxILb0EE9__destroyIPSt10unique_ptrI12ActiveObjectSt14default_deleteIS3_EEEEvT_S8_
FNDA:2,_ZNSt12_Destroy_auxILb0EE9__destroyIPSt10unique_ptrI12ActiveObjectSt14default_deleteIS3_EEEEvT_S8_
FN:160,_ZNSt12_Destroy_auxILb0EE9__destroyIPSt6vectorI4EdgeSaIS3_EEEEvT_S7_
FNDA:7,_ZNSt12_Destroy_auxILb0EE9__destroyIPSt6vectorI4EdgeSaIS3_EEEEvT_S7_
FN:160,_ZNSt12_Destroy_auxILb0EE9__destroyIPSt6threadEEvT_S4_
FNDA:0,_ZNSt12_Destroy_auxILb0EE9__destroyIPSt6threadEEvT_S4_
FN:160,_ZNSt12_Destroy_auxILb0EE9__destroyIPSt8functionIFvvEEEEvT_S6_
FNDA:7,_ZNSt12_Destroy_auxILb0EE9__destroyIPSt8functionIFvvEEEEvT_S6_
FN:172,_ZNSt12_Destroy_auxILb1EE9__destroyIPmEEvT_S3_
FNDA:2,_ZNSt12_Destroy_auxILb1EE9__destroyIPmEEvT_S3_
FN:172,_ZNSt12_Destroy_auxILb1EE9__destroyIP4EdgeEEvT_S4_
FNDA:47,_ZNSt12_Destroy_auxILb1EE9__destroyIP4EdgeEEvT_S4_
FN:182,_ZSt8_DestroyIPSt8functionIFvvEEEvT_S4_
FNDA:7,_ZSt8_DestroyIPSt8functionIFvvEEEvT_S4_
FN:182,_ZSt8_DestroyIPmEvT_S1_
FNDA:2,_ZSt8_DestroyIPmEvT_S1_
FN:182,_ZSt8_DestroyIPSt10unique_ptrI12ActiveObjectSt14default_deleteIS1_EEEvT_S6_
FNDA:2,_ZSt8_DestroyIPSt10unique_ptrI12ActiveObjectSt14default_deleteIS1_EEEvT_S6_
FN:182,_ZSt8_DestroyIPSt6threadEvT_S2_
FNDA:0,_ZSt8_DestroyIPSt6threadEvT_S2_
FN:182,_ZSt8_DestroyIP4EdgeEvT_S2_
FNDA:47,_ZSt8_DestroyIP4EdgeEvT_S2_
FN:182,_ZSt8_DestroyIPSt6vectorI4EdgeSaIS1_EEEvT_S5_
FNDA:7,_ZSt8_DestroyIPSt6vectorI4EdgeSaIS1_EEEvT_S5_
DA:109,0
DA:119,0
DA:120,0
DA:109,33
DA:119,33
DA:120,33
DA:146,0
DA:151,0
DA:153,0
DA:146,7
DA:151,7
DA:153,7
DA:146,0
DA:151,0
DA:153,0
DA:146,33
DA:151,33
DA:153,33
DA:160,7
DA:162,7
DA:163,0
DA:164,7
DA:160,2
DA:162,9
DA:163,7
DA:164,2
DA:160,0
DA:162,0
DA:163,0
DA:164,0
DA:160,7
DA:162,40
DA:163,33
DA:164,7
DA:172,2
DA:172,47
DA:182,7
DA:196,7
DA:197,7
DA:182,2
DA:196,2
DA:197,2
DA:182,2
DA:196,2
DA:197,2
DA:182,0
DA:196,0
DA:197,0
DA:182,47
DA:196,47
DA:197,47
DA:182,7
DA:196,7
DA:197,7
end_of_record
SF:/usr/include/c++/11/bits/stl_iterator_base_funcs.h
FN:98,_ZSt10__distanceISt13move_iteratorIN9__gnu_cxx17__normal_iteratorIPSt10unique_ptrI12ActiveObjectSt14default_deleteIS4_EESt6vectorIS7_SaIS7_EEEEEENSt15iterator_traitsIT_E15difference_typeESF_SF_St26random_access_iterator_tag
FNDA:1,_ZSt10__distanceISt13move_iteratorIN9__gnu_cxx17__normal_iteratorIPSt10unique_ptrI12ActiveObjectSt14default_deleteIS4_EESt6vectorIS7_SaIS7_EEEEEENSt15iterator_traitsIT_E15difference_typeESF_SF_St26random_access_iterator_tag
FN:98,_ZSt10__distanceISt13move_iteratorIN9__gnu_cxx17__normal_iteratorIPmSt6vectorImSaImEEEEEENSt15iterator_traitsIT_E15difference_typeESA_SA_St26random_access_iterator_tag
FNDA:1,_ZSt10__distanceISt13move_iteratorIN9__gnu_cxx17__normal_iteratorIPmSt6vectorImSaImEEEEEENSt15iterator_traitsIT_E15difference_typeESA_SA_St26random_access_iterator_tag
FN:98,_ZSt10__distanceIPcENSt15iterator_traitsIT_E15difference_typeES2_S2_St26random_access_iterator_tag
FNDA:19,_ZSt10__distanceIPcENSt15iterator_traitsIT_E15difference_typeES2_S2_St26random_access_iterator_tag
FN:98,_ZSt10__distanceIPKcENSt15iterator_traitsIT_E15difference_typeES3_S3_St26random_access_iterator_tag
FNDA:58,_ZSt10__distanceIPKcENSt15iterator_traitsIT_E15difference_typeES3_S3_St26random_access_iterator_tag
FN:138,_ZSt8distanceISt13move_iteratorIN9__gnu_cxx17__normal_iteratorIPSt10unique_ptrI12ActiveObjectSt14default_deleteIS4_EESt6vectorIS7_SaIS7_EEEEEENSt15iterator_traitsIT_E15difference_typeESF_SF_
FNDA:1,_ZSt8distanceISt13move_iteratorIN9__gnu_cxx17__normal_iteratorIPSt10unique_ptrI12ActiveObjectSt14default_deleteIS4_EESt6vectorIS7_SaIS7_EEEEEENSt15iterator_traitsIT_E15difference_typeESF_SF_
FN:138,_ZSt8distanceISt13move_iteratorIN9__gnu_cxx17__normal_iteratorIPmSt6vectorImSaImEEEEEENSt15iterator_traitsIT_E15difference_typeESA_SA_
FNDA:1,_ZSt8distanceISt13move_iteratorIN9__gnu_cxx17__normal_iteratorIPmSt6vectorImSaImEEEEEENSt15iterator_traitsIT_E15difference_typeESA_SA_
FN:138,_ZSt8distanceIPcENSt15iterator_traitsIT_E15difference_typeES2_S2_
FNDA:19,_ZSt8distanceIPcENSt15iterator_traitsIT_E15difference_typeES2_S2_
FN:138,_ZSt8distanceIPKcENSt15iterator_traitsIT_E15difference_typeES3_S3_
FNDA:58,_ZSt8distanceIPKcENSt15iterator_traitsIT_E15difference_typeES3_S3_
DA:98,1
DA:104,1
DA:98,1
DA:104,1
DA:98,19
DA:104,19
DA:98,58
DA:104,58
DA:138,1
DA:141,1
DA:142,2
DA:138,1
DA:141,1
DA:142,2
DA:138,19
DA:141,19
DA:142,38
DA:138,58
DA:141,58
DA:142,116
end_of_record
SF:/usr/include/c++/11/bits/stl_iterator.h
FN:1027,_ZN9__gnu_cxx17__normal_iteratorIPKSt6vectorI4EdgeSaIS2_EES1_IS4_SaIS4_EEEC2ERKS6_
FNDA:8,_ZN9__gnu_cxx17__normal_iteratorIPKSt6vectorI4EdgeSaIS2_EES1_IS4_SaIS4_EEEC2ERKS6_
FN:1027,_ZN9__gnu_cxx17__normal_iteratorIPmSt6vectorImSaImEEEC2ERKS1_
FNDA:10,_ZN9__gnu_cxx17__normal_iteratorIPmSt6vectorImSaImEEEC2ERKS1_
FN:1027,_ZN9__gnu_cxx17__normal_iteratorIPSt10unique_ptrI12ActiveObjectSt14default_deleteIS2_EESt6vectorIS5_SaIS5_EEEC2ERKS6_
FNDA:26,_ZN9__gnu_cxx17__normal_iteratorIPSt10unique_ptrI12ActiveObjectSt14default_deleteIS2_EESt6vectorIS5_SaIS5_EEEC2ERKS6_
FN:1042,_ZNK9__gnu_cxx17__normal_iteratorIPmSt6vectorImSaImEEEdeEv
FNDA:3,_ZNK9__gnu_cxx17__normal_iteratorIPmSt6vectorImSaImEEEdeEv
FN:1042,_ZNK9__gnu_cxx17__normal_iteratorIPSt10unique_ptrI12ActiveObjectSt14default_deleteIS2_EESt6vectorIS5_SaIS5_EEEdeEv
FNDA:14,_ZNK9__gnu_cxx17__normal_iteratorIPSt10unique_ptrI12ActiveObjectSt14default_deleteIS2_EESt6vectorIS5_SaIS5_EEEdeEv
FN:1052,_ZN9__gnu_cxx17__normal_iteratorIPmSt6vectorImSaImEEEppEv
FNDA:3,_ZN9__gnu_cxx17__normal_iteratorIPmSt6vectorImSaImEEEppEv
FN:1052,_ZN9__gnu_cxx17__normal_iteratorIPSt10unique_ptrI12ActiveObjectSt14default_deleteIS2_EESt6vectorIS5_SaIS5_EEEppEv
FNDA:7,_ZN9__gnu_cxx17__normal_iteratorIPSt10unique_ptrI12ActiveObjectSt14default_deleteIS2_EESt6vectorIS5_SaIS5_EEEppEv
FN:1100,_ZNK9__gnu_cxx17__normal_iteratorIPSt10unique_ptrI12ActiveObjectSt14default_deleteIS2_EESt6vectorIS5_SaIS5_EEEmiEl
FNDA:7,_ZNK9__gnu_cxx17__normal_iteratorIPSt10unique_ptrI12ActiveObjectSt14default_deleteIS2_EESt6vectorIS5_SaIS5_EEEmiEl
FN:1105,_ZNK9__gnu_cxx17__normal_iteratorIPKSt6vectorI4EdgeSaIS2_EES1_IS4_SaIS4_EEE4baseEv
FNDA:8,_ZNK9__gnu_cxx17__normal_iteratorIPKSt6vectorI4EdgeSaIS2_EES1_IS4_SaIS4_EEE4baseEv
FN:1105,_ZNK9__gnu_cxx17__normal_iteratorIPSt10unique_ptrI12ActiveObjectSt14default_deleteIS2_EESt6vectorIS5_SaIS5_EEE4baseEv
FNDA:36,_ZNK9__gnu_cxx17__normal_iteratorIPSt10unique_ptrI12ActiveObjectSt14default_deleteIS2_EESt6vectorIS5_SaIS5_EEE4baseEv
FN:1105,_ZNK9__gnu_cxx17__normal_iteratorIPmSt6vectorImSaImEEE4baseEv
FNDA:24,_ZNK9__gnu_cxx17__normal_iteratorIPmSt6vectorImSaImEEE4baseEv
FN:1163,_ZN9__gnu_cxxeqIPSt10unique_ptrI12ActiveObjectSt14default_deleteIS2_EESt6vectorIS5_SaIS5_EEEEbRKNS_17__normal_iteratorIT_T0_EESF_
FNDA:1,_ZN9__gnu_cxxeqIPSt10unique_ptrI12ActiveObjectSt14default_deleteIS2_EESt6vectorIS5_SaIS5_EEEEbRKNS_17__normal_iteratorIT_T0_EESF_
FN:1163,_ZN9__gnu_cxxeqIPKSt6vectorI4EdgeSaIS2_EES1_IS4_SaIS4_EEEEbRKNS_17__normal_iteratorIT_T0_EESE_
FNDA:4,_ZN9__gnu_cxxeqIPKSt6vectorI4EdgeSaIS2_EES1_IS4_SaIS4_EEEEbRKNS_17__normal_iteratorIT_T0_EESE_
FN:1179,_ZN9__gnu_cxxneIPSt10unique_ptrI12ActiveObjectSt14default_deleteIS2_EESt6vectorIS5_SaIS5_EEEEbRKNS_17__normal_iteratorIT_T0_EESF_
FNDA:8,_ZN9__gnu_cxxneIPSt10unique_ptrI12ActiveObjectSt14default_deleteIS2_EESt6vectorIS5_SaIS5_EEEEbRKNS_17__normal_iteratorIT_T0_EESF_
FN:1179,_ZN9__gnu_cxxneIPmSt6vectorImSaImEEEEbRKNS_17__normal_iteratorIT_T0_EESA_
FNDA:4,_ZN9__gnu_cxxneIPmSt6vectorImSaImEEEEbRKNS_17__normal_iteratorIT_T0_EESA_
FN:1268,_ZN9__gnu_cxxmiIPSt10unique_ptrI12ActiveObjectSt14default_deleteIS2_EESt6vectorIS5_SaIS5_EEEENS_17__normal_iteratorIT_T0_E15difference_typeERKSD_SG_
FNDA:5,_ZN9__gnu_cxxmiIPSt10unique_ptrI12ActiveObjectSt14default_deleteIS2_EESt6vectorIS5_SaIS5_EEEENS_17__normal_iteratorIT_T0_E15difference_typeERKSD_SG_
FN:1268,_ZN9__gnu_cxxmiIPmSt6vectorImSaImEEEENS_17__normal_iteratorIT_T0_E15difference_typeERKS8_SB_
FNDA:4,_ZN9__gnu_cxxmiIPmSt6vectorImSaImEEEENS_17__normal_iteratorIT_T0_E15difference_typeERKS8_SB_
FN:1291,_ZSt12__niter_baseIPmSt6vectorImSaImEEET_N9__gnu_cxx17__normal_iteratorIS4_T0_EE
FNDA:2,_ZSt12__niter_baseIPmSt6vectorImSaImEEET_N9__gnu_cxx17__normal_iteratorIS4_T0_EE
FN:1439,_ZNSt13move_iteratorIN9__gnu_cxx17__normal_iteratorIPmSt6vectorImSaImEEEEEC2ES6_
FNDA:2,_ZNSt13move_iteratorIN9__gnu_cxx17__normal_iteratorIPmSt6vectorImSaImEEEEEC2ES6_
FN:1439,_ZNSt13move_iteratorIN9__gnu_cxx17__normal_iteratorIPSt10unique_ptrI12ActiveObjectSt14default_deleteIS3_EESt6vectorIS6_SaIS6_EEEEEC2ESB_
FNDA:2,_ZNSt13move_iteratorIN9__gnu_cxx17__normal_iteratorIPSt10unique_ptrI12ActiveObjectSt14default_deleteIS3_EESt6vectorIS6_SaIS6_EEEEEC2ESB_
FN:1464,_ZNKSt13move_iteratorIN9__gnu_cxx17__normal_iteratorIPmSt6vectorImSaImEEEEE4baseEv
FNDA:4,_ZNKSt13move_iteratorIN9__gnu_cxx17__normal_iteratorIPmSt6vectorImSaImEEEEE4baseEv
FN:1464,_ZNKSt13move_iteratorIN9__gnu_cxx17__normal_iteratorIPSt10unique_ptrI12ActiveObjectSt14default_deleteIS3_EESt6vectorIS6_SaIS6_EEEEE4baseEv
FNDA:4,_ZNKSt13move_iteratorIN9__gnu_cxx17__normal_iteratorIPSt10unique_ptrI12ActiveObjectSt14default_deleteIS3_EESt6vectorIS6_SaIS6_EEEEE4baseEv
FN:1477,_ZNKSt13move_iteratorIN9__gnu_cxx17__normal_iteratorIPSt10unique_ptrI12ActiveObjectSt14default_deleteIS3_EESt6vectorIS6_SaIS6_EEEEEdeEv
FNDA:0,_ZNKSt13move_iteratorIN9__gnu_cxx17__normal_iteratorIPSt10unique_ptrI12ActiveObjectSt14default_deleteIS3_EESt6vectorIS6_SaIS6_EEEEEdeEv
FN:1489,_ZNSt13move_iteratorIN9__gnu_cxx17__normal_iteratorIPSt10unique_ptrI12ActiveObjectSt14default_deleteIS3_EESt6vectorIS6_SaIS6_EEEEEppEv
FNDA:0,_ZNSt13move_iteratorIN9__gnu_cxx17__normal_iteratorIPSt10unique_ptrI12ActiveObjectSt14default_deleteIS3_EESt6vectorIS6_SaIS6_EEEEEppEv
FN:1648,_ZSteqIN9__gnu_cxx17__normal_iteratorIPSt10unique_ptrI12ActiveObjectSt14default_deleteIS3_EESt6vectorIS6_SaIS6_EEEEEbRKSt13move_iteratorIT_ESG_
FNDA:1,_ZSteqIN9__gnu_cxx17__normal_iteratorIPSt10unique_ptrI12ActiveObjectSt14default_deleteIS3_EESt6vectorIS6_SaIS6_EEEEEbRKSt13move_iteratorIT_ESG_
FN:1661,_ZStneIN9__gnu_cxx17__normal_iteratorIPSt10unique_ptrI12ActiveObjectSt14default_deleteIS3_EESt6vectorIS6_SaIS6_EEEEEbRKSt13move_iteratorIT_ESG_
FNDA:1,_ZStneIN9__gnu_cxx17__normal_iteratorIPSt10unique_ptrI12ActiveObjectSt14default_deleteIS3_EESt6vectorIS6_SaIS6_EEEEEbRKSt13move_iteratorIT_ESG_
FN:1693,_ZStmiIN9__gnu_cxx17__normal_iteratorIPmSt6vectorImSaImEEEES6_EDTmicldtfp_4baseEcldtfp0_4baseEERKSt13move_iteratorIT_ERKS8_IT0_E
FNDA:1,_ZStmiIN9__gnu_cxx17__normal_iteratorIPmSt6vectorImSaImEEEES6_EDTmicldtfp_4baseEcldtfp0_4baseEERKSt13move_iteratorIT_ERKS8_IT0_E
FN:1693,_ZStmiIN9__gnu_cxx17__normal_iteratorIPSt10unique_ptrI12ActiveObjectSt14default_deleteIS3_EESt6vectorIS6_SaIS6_EEEESB_EDTmicldtfp_4baseEcldtfp0_4baseEERKSt13move_iteratorIT_ERKSD_IT0_E
FNDA:1,_ZStmiIN9__gnu_cxx17__normal_iteratorIPSt10unique_ptrI12ActiveObjectSt14default_deleteIS3_EESt6vectorIS6_SaIS6_EEEESB_EDTmicldtfp_4baseEcldtfp0_4baseEERKSt13move_iteratorIT_ERKSD_IT0_E
FN:1714,_ZSt32__make_move_if_noexcept_iteratorIN9__gnu_cxx17__normal_iteratorIPmSt6vectorImSaImEEEESt13move_iteratorIS6_EET0_T_
FNDA:2,_ZSt32__make_move_if_noexcept_iteratorIN9__gnu_cxx17__normal_iteratorIPmSt6vectorImSaImEEEESt13move_iteratorIS6_EET0_T_
FN:1714,_ZSt32__make_move_if_noexcept_iteratorIN9__gnu_cxx17__normal_iteratorIPSt10unique_ptrI12ActiveObjectSt14default_deleteIS3_EESt6vectorIS6_SaIS6_EEEESt13move_iteratorISB_EET0_T_
FNDA:2,_ZSt32__make_move_if_noexcept_iteratorIN9__gnu_cxx17__normal_iteratorIPSt10unique_ptrI12ActiveObjectSt14default_deleteIS3_EESt6vectorIS6_SaIS6_EEEESt13move_iteratorISB_EET0_T_
FN:2464,_ZSt12__miter_baseIN9__gnu_cxx17__normal_iteratorIPmSt6vectorImSaImEEEEEDTcl12__miter_basecldtfp_4baseEEESt13move_iteratorIT_E
FNDA:2,_ZSt12__miter_baseIN9__gnu_cxx17__normal_iteratorIPmSt6vectorImSaImEEEEEDTcl12__miter_basecldtfp_4baseEEESt13move_iteratorIT_E
DA:1027,8
DA:1028,8
DA:1027,26
DA:1028,26
DA:1027,10
DA:1028,10
DA:1042,14
DA:1043,14
DA:1042,3
DA:1043,3
DA:1052,7
DA:1054,7
DA:1055,7
DA:1052,3
DA:1054,3
DA:1055,3
DA:1100,7
DA:1101,7
DA:1105,8
DA:1106,8
DA:1105,36
DA:1106,36
DA:1105,24
DA:1106,24
DA:1163,1
DA:1166,1
DA:1163,4
DA:1166,4
DA:1179,8
DA:1182,8
DA:1179,4
DA:1182,4
DA:1268,5
DA:1271,5
DA:1268,4
DA:1271,4
DA:1291,2
DA:1293,2
DA:1439,2
DA:1440,2
DA:1439,2
DA:1440,2
DA:1464,4
DA:1465,4
DA:1464,4
DA:1465,4
DA:1477,0
DA:1481,0
DA:1489,0
DA:1491,0
DA:1492,0
DA:1648,1
DA:1650,1
DA:1661,1
DA:1663,1
DA:1693,1
DA:1696,1
DA:1693,1
DA:1696,1
DA:1714,2
DA:1715,2
DA:1714,2
DA:1715,2
DA:2464,2
DA:2466,2
end_of_record
SF:/usr/include/c++/11/bits/alloc_traits.h
FN:463,_ZNSt16allocator_traitsISaISt10unique_ptrI12ActiveObjectSt14default_deleteIS1_EEEE8allocateERS5_m
FNDA:4,_ZNSt16allocator_traitsISaISt10unique_ptrI12ActiveObjectSt14default_deleteIS1_EEEE8allocateERS5_m
FN:463,_ZNSt16allocator_traitsISaISt8functionIFvvEEEE8allocateERS3_m
FNDA:7,_ZNSt16allocator_traitsISaISt8functionIFvvEEEE8allocateERS3_m
FN:463,_ZNSt16allocator_traitsISaIPSt8functionIFvvEEEE8allocateERS4_m
FNDA:7,_ZNSt16allocator_traitsISaIPSt8functionIFvvEEEE8allocateERS4_m
FN:463,_ZNSt16allocator_traitsISaImEE8allocateERS0_m
FNDA:16,_ZNSt16allocator_traitsISaImEE8allocateERS0_m
FN:463,_ZNSt16allocator_traitsISaISt6vectorI4EdgeSaIS1_EEEE8allocateERS4_m
FNDA:7,_ZNSt16allocator_traitsISaISt6vectorI4EdgeSaIS1_EEEE8allocateERS4_m
FN:495,_ZNSt16allocator_traitsISaISt6vectorI4EdgeSaIS1_EEEE10deallocateERS4_PS3_m
FNDA:7,_ZNSt16allocator_traitsISaISt6vectorI4EdgeSaIS1_EEEE10deallocateERS4_PS3_m
FN:495,_ZNSt16allocator_traitsISaISt6threadEE10deallocateERS1_PS0_m
FNDA:0,_ZNSt16allocator_traitsISaISt6threadEE10deallocateERS1_PS0_m
FN:495,_ZNSt16allocator_traitsISaISt10unique_ptrI12ActiveObjectSt14default_deleteIS1_EEEE10deallocateERS5_PS4_m
FNDA:4,_ZNSt16allocator_traitsISaISt10unique_ptrI12ActiveObjectSt14default_deleteIS1_EEEE10deallocateERS5_PS4_m
FN:495,_ZNSt16allocator_traitsISaImEE10deallocateERS0_Pmm
FNDA:16,_ZNSt16allocator_traitsISaImEE10deallocateERS0_Pmm
FN:495,_ZNSt16allocator_traitsISaISt8functionIFvvEEEE10deallocateERS3_PS2_m
FNDA:7,_ZNSt16allocator_traitsISaISt8functionIFvvEEEE10deallocateERS3_PS2_m
FN:495,_ZNSt16allocator_traitsISaI4EdgeEE10deallocateERS1_PS0_m
FNDA:75,_ZNSt16allocator_traitsISaI4EdgeEE10deallocateERS1_PS0_m
FN:495,_ZNSt16allocator_traitsISaIPSt8functionIFvvEEEE10deallocateERS4_PS3_m
FNDA:7,_ZNSt16allocator_traitsISaIPSt8functionIFvvEEEE10deallocateERS4_PS3_m
FN:511,_ZNSt16allocator_traitsISaISt8functionIFvvEEEE9constructIS2_JRZ14handleCommandsiRSt6vectorISt10unique_ptrI12ActiveObjectSt14default_deleteIS8_EESaISB_EERS7_I5GraphS9_ISF_EER10MSTFactoryRS7_I4TreeS9_ISL_EEEUlvE9_EEEvRS3_PT_DpOT0_
FNDA:2,_ZNSt16allocator_traitsISaISt8functionIFvvEEEE9constructIS2_JRZ14handleCommandsiRSt6vectorISt10unique_ptrI12ActiveObjectSt14default_deleteIS8_EESaISB_EERS7_I5GraphS9_ISF_EER10MSTFactoryRS7_I4TreeS9_ISL_EEEUlvE9_EEEvRS3_PT_DpOT0_
FN:511,_ZNSt16allocator_traitsISaISt6vectorI4EdgeSaIS1_EEEE9constructIS3_JS3_EEEvRS4_PT_DpOT0_
FNDA:0,_ZNSt16allocator_traitsISaISt6vectorI4EdgeSaIS1_EEEE9constructIS3_JS3_EEEvRS4_PT_DpOT0_
FN:511,_ZNSt16allocator_traitsISaISt8functionIFvvEEEE9constructIS2_JRZ14handleCommandsiRSt6vectorISt10unique_ptrI12ActiveObjectSt14default_deleteIS8_EESaISB_EERS7_I5GraphS9_ISF_EER10MSTFactoryRS7_I4TreeS9_ISL_EEEUlvE8_EEEvRS3_PT_DpOT0_
FNDA:3,_ZNSt16allocator_traitsISaISt8functionIFvvEEEE9constructIS2_JRZ14handleCommandsiRSt6vectorISt10unique_ptrI12ActiveObjectSt14default_deleteIS8_EESaISB_EERS7_I5GraphS9_ISF_EER10MSTFactoryRS7_I4TreeS9_ISL_EEEUlvE8_EEEvRS3_PT_DpOT0_
FN:511,_ZNSt16allocator_traitsISaISt8functionIFvvEEEE9constructIS2_JRZ14handleCommandsiRSt6vectorISt10unique_ptrI12ActiveObjectSt14default_deleteIS8_EESaISB_EERS7_I5GraphS9_ISF_EER10MSTFactoryRS7_I4TreeS9_ISL_EEEUlvE6_EEEvRS3_PT_DpOT0_
FNDA:5,_ZNSt16allocator_traitsISaISt8functionIFvvEEEE9constructIS2_JRZ14handleCommandsiRSt6vectorISt10unique_ptrI12ActiveObjectSt14default_deleteIS8_EESaISB_EERS7_I5GraphS9_ISF_EER10MSTFactoryRS7_I4TreeS9_ISL_EEEUlvE6_EEEvRS3_PT_DpOT0_
FN:511,_ZNSt16allocator_traitsISaISt8functionIFvvEEEE9constructIS2_JRZ14handleCommandsiRSt6vectorISt10unique_ptrI12ActiveObjectSt14default_deleteIS8_EESaISB_EERS7_I5GraphS9_ISF_EER10MSTFactoryRS7_I4TreeS9_ISL_EEEUlvE5_EEEvRS3_PT_DpOT0_
FNDA:2,_ZNSt16allocator_traitsISaISt8functionIFvvEEEE9constructIS2_JRZ14handleCommandsiRSt6vectorISt10unique_ptrI12ActiveObjectSt14default_deleteIS8_EESaISB_EERS7_I5GraphS9_ISF_EER10MSTFactoryRS7_I4TreeS9_ISL_EEEUlvE5_EEEvRS3_PT_DpOT0_
FN:511,_ZNSt16allocator_traitsISaISt8functionIFvvEEEE9constructIS2_JRZ14handleCommandsiRSt6vectorISt10unique_ptrI12ActiveObjectSt14default_deleteIS8_EESaISB_EERS7_I5GraphS9_ISF_EER10MSTFactoryRS7_I4TreeS9_ISL_EEEUlvE4_EEEvRS3_PT_DpOT0_
FNDA:2,_ZNSt16allocator_traitsISaISt8functionIFvvEEEE9constructIS2_JRZ14handleCommandsiRSt6vectorISt10unique_ptrI12ActiveObjectSt14default_deleteIS8_EESaISB_EERS7_I5GraphS9_ISF_EER10MSTFactoryRS7_I4TreeS9_ISL_EEEUlvE4_EEEvRS3_PT_DpOT0_
FN:511,_ZNSt16allocator_traitsISaISt8functionIFvvEEEE9constructIS2_JRZ14handleCommandsiRSt6vectorISt10unique_ptrI12ActiveObjectSt14default_deleteIS8_EESaISB_EERS7_I5GraphS9_ISF_EER10MSTFactoryRS7_I4TreeS9_ISL_EEEUlvE3_EEEvRS3_PT_DpOT0_
FNDA:2,_ZNSt16allocator_traitsISaISt8functionIFvvEEEE9constructIS2_JRZ14handleCommandsiRSt6vectorISt10unique_ptrI12ActiveObjectSt14default_deleteIS8_EESaISB_EERS7_I5GraphS9_ISF_EER10MSTFactoryRS7_I4TreeS9_ISL_EEEUlvE3_EEEvRS3_PT_DpOT0_
FN:511,_ZNSt16allocator_traitsISaISt8functionIFvvEEEE9constructIS2_JRZ14handleCommandsiRSt6vectorISt10unique_ptrI12ActiveObjectSt14default_deleteIS8_EESaISB_EERS7_I5GraphS9_ISF_EER10MSTFactoryRS7_I4TreeS9_ISL_EEEUlvE2_EEEvRS3_PT_DpOT0_
FNDA:2,_ZNSt16allocator_traitsISaISt8functionIFvvEEEE9constructIS2_JRZ14handleCommandsiRSt6vectorISt10unique_ptrI12ActiveObjectSt14default_deleteIS8_EESaISB_EERS7_I5GraphS9_ISF_EER10MSTFactoryRS7_I4TreeS9_ISL_EEEUlvE2_EEEvRS3_PT_DpOT0_
FN:511,_ZNSt16allocator_traitsISaISt8functionIFvvEEEE9constructIS2_JRZ14handleCommandsiRSt6vectorISt10unique_ptrI12ActiveObjectSt14default_deleteIS8_EESaISB_EERS7_I5GraphS9_ISF_EER10MSTFactoryRS7_I4TreeS9_ISL_EEEUlvE1_EEEvRS3_PT_DpOT0_
FNDA:2,_ZNSt16allocator_traitsISaISt8functionIFvvEEEE9constructIS2_JRZ14handleCommandsiRSt6vectorISt10unique_ptrI12ActiveObjectSt14default_deleteIS8_EESaISB_EERS7_I5GraphS9_ISF_EER10MSTFactoryRS7_I4TreeS9_ISL_EEEUlvE1_EEEvRS3_PT_DpOT0_
FN:511,_ZNSt16allocator_traitsISaISt8functionIFvvEEEE9constructIS2_JRZ14handleCommandsiRSt6vectorISt10unique_ptrI12ActiveObjectSt14default_deleteIS8_EESaISB_EERS7_I5GraphS9_ISF_EER10MSTFactoryRS7_I4TreeS9_ISL_EEEUlvE0_EEEvRS3_PT_DpOT0_
FNDA:10,_ZNSt16allocator_traitsISaISt8functionIFvvEEEE9constructIS2_JRZ14handleCommandsiRSt6vectorISt10unique_ptrI12ActiveObjectSt14default_deleteIS8_EESaISB_EERS7_I5GraphS9_ISF_EER10MSTFactoryRS7_I4TreeS9_ISL_EEEUlvE0_EEEvRS3_PT_DpOT0_
FN:511,_ZNSt16allocator_traitsISaISt8functionIFvvEEEE9constructIS2_JRZ14handleCommandsiRSt6vectorISt10unique_ptrI12ActiveObjectSt14default_deleteIS8_EESaISB_EERS7_I5GraphS9_ISF_EER10MSTFactoryRS7_I4TreeS9_ISL_EEEUlvE_EEEvRS3_PT_DpOT0_
FNDA:4,_ZNSt16allocator_traitsISaISt8functionIFvvEEEE9constructIS2_JRZ14handleCommandsiRSt6vectorISt10unique_ptrI12ActiveObjectSt14default_deleteIS8_EESaISB_EERS7_I5GraphS9_ISF_EER10MSTFactoryRS7_I4TreeS9_ISL_EEEUlvE_EEEvRS3_PT_DpOT0_
FN:511,_ZNSt16allocator_traitsISaImEE9constructImJRKmEEEvRS0_PT_DpOT0_
FNDA:3,_ZNSt16allocator_traitsISaImEE9constructImJRKmEEEvRS0_PT_DpOT0_
FN:511,_ZNSt16allocator_traitsISaISt10unique_ptrI12ActiveObjectSt14default_deleteIS1_EEEE9constructIS4_JS4_EEEvRS5_PT_DpOT0_
FNDA:14,_ZNSt16allocator_traitsISaISt10unique_ptrI12ActiveObjectSt14default_deleteIS1_EEEE9constructIS4_JS4_EEEvRS5_PT_DpOT0_
FN:511,_ZNSt16allocator_traitsISaISt8functionIFvvEEEE9constructIS2_JRZ14handleCommandsiRSt6vectorISt10unique_ptrI12ActiveObjectSt14default_deleteIS8_EESaISB_EERS7_I5GraphS9_ISF_EER10MSTFactoryRS7_I4TreeS9_ISL_EEEUlvE10_EEEvRS3_PT_DpOT0_
FNDA:2,_ZNSt16allocator_traitsISaISt8functionIFvvEEEE9constructIS2_JRZ14handleCommandsiRSt6vectorISt10unique_ptrI12ActiveObjectSt14default_deleteIS8_EESaISB_EERS7_I5GraphS9_ISF_EER10MSTFactoryRS7_I4TreeS9_ISL_EEEUlvE10_EEEvRS3_PT_DpOT0_
FN:531,_ZNSt16allocator_traitsISaISt6vectorI4EdgeSaIS1_EEEE7destroyIS3_EEvRS4_PT_
FNDA:0,_ZNSt16allocator_traitsISaISt6vectorI4EdgeSaIS1_EEEE7destroyIS3_EEvRS4_PT_
FN:531,_ZNSt16allocator_traitsISaISt10unique_ptrI12ActiveObjectSt14default_deleteIS1_EEEE7destroyIS4_EEvRS5_PT_
FNDA:7,_ZNSt16allocator_traitsISaISt10unique_ptrI12ActiveObjectSt14default_deleteIS1_EEEE7destroyIS4_EEvRS5_PT_
FN:547,_ZNSt16allocator_traitsISaISt6vectorI4EdgeSaIS1_EEEE8max_sizeERKS4_
FNDA:28,_ZNSt16allocator_traitsISaISt6vectorI4EdgeSaIS1_EEEE8max_sizeERKS4_
FN:547,_ZNSt16allocator_traitsISaISt8functionIFvvEEEE8max_sizeERKS3_
FNDA:0,_ZNSt16allocator_traitsISaISt8functionIFvvEEEE8max_sizeERKS3_
FN:547,_ZNSt16allocator_traitsISaISt10unique_ptrI12ActiveObjectSt14default_deleteIS1_EEEE8max_sizeERKS5_
FNDA:9,_ZNSt16allocator_traitsISaISt10unique_ptrI12ActiveObjectSt14default_deleteIS1_EEEE8max_sizeERKS5_
FN:547,_ZNSt16allocator_traitsISaImEE8max_sizeERKS0_
FNDA:7,_ZNSt16allocator_traitsISaImEE8max_sizeERKS0_
FN:562,_ZNSt16allocator_traitsISaIcEE37select_on_container_copy_constructionERKS0_
FNDA:2,_ZNSt16allocator_traitsISaIcEE37select_on_container_copy_constructionERKS0_
FN:737,_ZSt15__alloc_on_swapISaISt10unique_ptrI12ActiveObjectSt14default_deleteIS1_EEEEvRT_S7_
FNDA:1,_ZSt15__alloc_on_swapISaISt10unique_ptrI12ActiveObjectSt14default_deleteIS1_EEEEvRT_S7_
FN:737,_ZSt15__alloc_on_swapISaImEEvRT_S2_
FNDA:1,_ZSt15__alloc_on_swapISaImEEvRT_S2_
FN:845,_ZSt8_DestroyIPSt8functionIFvvEES2_EvT_S4_RSaIT0_E
FNDA:7,_ZSt8_DestroyIPSt8functionIFvvEES2_EvT_S4_RSaIT0_E
FN:845,_ZSt8_DestroyIPmmEvT_S1_RSaIT0_E
FNDA:2,_ZSt8_DestroyIPmmEvT_S1_RSaIT0_E
FN:845,_ZSt8_DestroyIPSt10unique_ptrI12ActiveObjectSt14default_deleteIS1_EES4_EvT_S6_RSaIT0_E
FNDA:2,_ZSt8_DestroyIPSt10unique_ptrI12ActiveObjectSt14default_deleteIS1_EES4_EvT_S6_RSaIT0_E
FN:845,_ZSt8_DestroyIPSt6threadS0_EvT_S2_RSaIT0_E
FNDA:0,_ZSt8_DestroyIPSt6threadS0_EvT_S2_RSaIT0_E
FN:845,_ZSt8_DestroyIP4EdgeS0_EvT_S2_RSaIT0_E
FNDA:47,_ZSt8_DestroyIP4EdgeS0_EvT_S2_RSaIT0_E
FN:845,_ZSt8_DestroyIPSt6vectorI4EdgeSaIS1_EES3_EvT_S5_RSaIT0_E
FNDA:7,_ZSt8_DestroyIPSt6vectorI4EdgeSaIS1_EES3_EvT_S5_RSaIT0_E
DA:463,4
DA:464,4
DA:463,7
DA:464,7
DA:463,7
DA:464,7
DA:463,16
DA:464,16
DA:463,7
DA:464,7
DA:495,7
DA:496,7
DA:495,7
DA:496,7
DA:495,75
DA:496,75
DA:495,16
DA:496,16
DA:495,4
DA:496,4
DA:495,0
DA:496,0
DA:495,7
DA:496,7
DA:511,0
DA:516,0
DA:520,0
DA:511,14
DA:516,14
DA:520,14
DA:511,2
DA:516,2
DA:520,2
DA:511,2
DA:516,2
DA:520,2
DA:511,3
DA:516,3
DA:520,3
DA:511,5
DA:516,5
DA:520,5
DA:511,2
DA:516,2
DA:520,2
DA:511,2
DA:516,2
DA:520,2
DA:511,2
DA:516,2
DA:520,2
DA:511,2
DA:516,2
DA:520,2
DA:511,2
DA:516,2
DA:520,2
DA:511,10
DA:516,10
DA:520,10
DA:511,4
DA:516,4
DA:520,4
DA:511,3
DA:516,3
DA:520,3
DA:531,0
DA:535,0
DA:539,0
DA:531,7
DA:535,7
DA:539,7
DA:547,9
DA:550,9
DA:547,7
DA:550,7
DA:547,0
DA:550,0
DA:547,28
DA:550,28
DA:562,2
DA:563,2
DA:737,1
DA:750,1
DA:737,1
DA:750,1
DA:845,7
DA:848,7
DA:849,7
DA:845,2
DA:848,2
DA:849,2
DA:845,2
DA:848,2
DA:849,2
DA:845,0
DA:848,0
DA:849,0
DA:845,47
DA:848,47
DA:849,47
DA:845,7
DA:848,7
DA:849,7
end_of_record
SF:/usr/include/c++/11/iostream
end_of_record
SF:/usr/include/c++/11/bits/stl_iterator_base_types.h
FN:238,_ZSt19__iterator_categoryIPcENSt15iterator_traitsIT_E17iterator_categoryERKS2_
FNDA:19,_ZSt19__iterator_categoryIPcENSt15iterator_traitsIT_E17iterator_categoryERKS2_
FN:238,_ZSt19__iterator_categoryISt13move_iteratorIN9__gnu_cxx17__normal_iteratorIPSt10unique_ptrI12ActiveObjectSt14default_deleteIS4_EESt6vectorIS7_SaIS7_EEEEEENSt15iterator_traitsIT_E17iterator_categoryERKSF_
FNDA:2,_ZSt19__iterator_categoryISt13move_iteratorIN9__gnu_cxx17__normal_iteratorIPSt10unique_ptrI12ActiveObjectSt14default_deleteIS4_EESt6vectorIS7_SaIS7_EEEEEENSt15iterator_traitsIT_E17iterator_categoryERKSF_
FN:238,_ZSt19__iterator_categoryISt13move_iteratorIN9__gnu_cxx17__normal_iteratorIPmSt6vectorImSaImEEEEEENSt15iterator_traitsIT_E17iterator_categoryERKSA_
FNDA:2,_ZSt19__iterator_categoryISt13move_iteratorIN9__gnu_cxx17__normal_iteratorIPmSt6vectorImSaImEEEEEENSt15iterator_traitsIT_E17iterator_categoryERKSA_
FN:238,_ZSt19__iterator_categoryIPKcENSt15iterator_traitsIT_E17iterator_categoryERKS3_
FNDA:58,_ZSt19__iterator_categoryIPKcENSt15iterator_traitsIT_E17iterator_categoryERKS3_
DA:238,19
DA:239,19
DA:238,2
DA:239,2
DA:238,2
DA:239,2
DA:238,58
DA:239,58
end_of_record
SF:/usr/include/c++/11/bits/unique_lock.h
FN:66,_ZNSt11unique_lockISt5mutexEC2ERS0_
FNDA:244,_ZNSt11unique_lockISt5mutexEC2ERS0_
FN:77,_ZNSt11unique_lockISt5mutexEC2ERS0_St13try_to_lock_t
FNDA:5,_ZNSt11unique_lockISt5mutexEC2ERS0_St13try_to_lock_t
FN:101,_ZNSt11unique_lockISt5mutexED2Ev
FNDA:248,_ZNSt11unique_lockISt5mutexED2Ev
FN:131,_ZNSt11unique_lockISt5mutexE4lockEv
FNDA:244,_ZNSt11unique_lockISt5mutexE4lockEv
FN:189,_ZNSt11unique_lockISt5mutexE6unlockEv
FNDA:248,_ZNSt11unique_lockISt5mutexE6unlockEv
FN:217,_ZNKSt11unique_lockISt5mutexE9owns_lockEv
FNDA:5,_ZNKSt11unique_lockISt5mutexE9owns_lockEv
DA:66,244
DA:67,244
DA:69,244
DA:70,244
DA:71,244
DA:77,5
DA:78,5
DA:79,5
DA:101,248
DA:103,248
DA:104,247
DA:105,248
DA:131,244
DA:133,244
DA:134,0
DA:135,244
DA:136,0
DA:139,244
DA:140,244
DA:142,244
DA:189,248
DA:191,248
DA:192,0
DA:193,248
DA:195,248
DA:196,248
DA:198,248
DA:217,5
DA:218,5
end_of_record
SF:/usr/include/c++/11/bits/std_thread.h
FN:86,_ZNSt6thread2idC2Ev
FNDA:14,_ZNSt6thread2idC2Ev
FN:127,_ZNSt6threadC2IM12ActiveObjectFvvEJPS1_EvEEOT_DpOT0_
FNDA:7,_ZNSt6threadC2IM12ActiveObjectFvvEJPS1_EvEEOT_DpOT0_
FN:149,_ZNSt6threadD2Ev
FNDA:7,_ZNSt6threadD2Ev
FN:175,_ZNKSt6thread8joinableEv
FNDA:7,_ZNKSt6thread8joinableEv
FN:206,_ZNSt6thread11_State_implINS_8_InvokerISt5tupleIJM12ActiveObjectFvvEPS3_EEEEEC2IJS5_S6_EEEDpOT_
FNDA:7,_ZNSt6thread11_State_implINS_8_InvokerISt5tupleIJM12ActiveObjectFvvEPS3_EEEEEC2IJS5_S6_EEEDpOT_
FN:211,_ZNSt6thread11_State_implINS_8_InvokerISt5tupleIJM12ActiveObjectFvvEPS3_EEEEE6_M_runEv
FNDA:7,_ZNSt6thread11_State_implINS_8_InvokerISt5tupleIJM12ActiveObjectFvvEPS3_EEEEE6_M_runEv
FN:243,_ZNSt6thread8_InvokerISt5tupleIJM12ActiveObjectFvvEPS2_EEEC2IJS4_S5_EEEDpOT_
FNDA:7,_ZNSt6thread8_InvokerISt5tupleIJM12ActiveObjectFvvEPS2_EEEC2IJS4_S5_EEEDpOT_
FN:258,_ZNSt6thread8_InvokerISt5tupleIJM12ActiveObjectFvvEPS2_EEE9_M_invokeIJLm0ELm1EEEEvSt12_Index_tupleIJXspT_EEE
FNDA:7,_ZNSt6thread8_InvokerISt5tupleIJM12ActiveObjectFvvEPS2_EEE9_M_invokeIJLm0ELm1EEEEvSt12_Index_tupleIJXspT_EEE
FN:262,_ZNSt6thread8_InvokerISt5tupleIJM12ActiveObjectFvvEPS2_EEEclEv
FNDA:7,_ZNSt6thread8_InvokerISt5tupleIJM12ActiveObjectFvvEPS2_EEEclEv
FN:287,_ZSteqNSt6thread2idES0_
FNDA:7,_ZSteqNSt6thread2idES0_
DA:86,14
DA:127,7
DA:128,7
DA:138,7
DA:143,7
DA:144,7
DA:146,7
DA:149,7
DA:151,7
DA:152,0
DA:153,7
DA:175,7
DA:176,7
DA:206,7
DA:207,7
DA:208,7
DA:211,7
DA:243,7
DA:244,7
DA:245,7
DA:258,7
DA:259,7
DA:262,7
DA:266,7
DA:287,7
DA:293,7
end_of_record
SF:/usr/include/c++/11/bits/refwrap.h
FN:304,_ZNSt17reference_wrapperI10MSTFactoryE6_S_funERS0_
FNDA:3,_ZNSt17reference_wrapperI10MSTFactoryE6_S_funERS0_
FN:304,_ZNSt17reference_wrapperISt10unique_ptrI5GraphSt14default_deleteIS1_EEE6_S_funERS4_
FNDA:3,_ZNSt17reference_wrapperISt10unique_ptrI5GraphSt14default_deleteIS1_EEE6_S_funERS4_
FN:304,_ZNSt17reference_wrapperISt6vectorISt10unique_ptrI12ActiveObjectSt14default_deleteIS2_EESaIS5_EEE6_S_funERS7_
FNDA:3,_ZNSt17reference_wrapperISt6vectorISt10unique_ptrI12ActiveObjectSt14default_deleteIS2_EESaIS5_EEE6_S_funERS7_
FN:304,_ZNSt17reference_wrapperISt10unique_ptrI4TreeSt14default_deleteIS1_EEE6_S_funERS4_
FNDA:3,_ZNSt17reference_wrapperISt10unique_ptrI4TreeSt14default_deleteIS1_EEE6_S_funERS4_
FN:321,_ZNSt17reference_wrapperISt10unique_ptrI5GraphSt14default_deleteIS1_EEEC2IRS4_vPS4_EEOT_
FNDA:3,_ZNSt17reference_wrapperISt10unique_ptrI5GraphSt14default_deleteIS1_EEEC2IRS4_vPS4_EEOT_
FN:321,_ZNSt17reference_wrapperISt6vectorISt10unique_ptrI12ActiveObjectSt14default_deleteIS2_EESaIS5_EEEC2IRS7_vPS7_EEOT_
FNDA:3,_ZNSt17reference_wrapperISt6vectorISt10unique_ptrI12ActiveObjectSt14default_deleteIS2_EESaIS5_EEEC2IRS7_vPS7_EEOT_
FN:321,_ZNSt17reference_wrapperI10MSTFactoryEC2IRS0_vPS0_EEOT_
FNDA:3,_ZNSt17reference_wrapperI10MSTFactoryEC2IRS0_vPS0_EEOT_
FN:321,_ZNSt17reference_wrapperISt10unique_ptrI4TreeSt14default_deleteIS1_EEEC2IRS4_vPS4_EEOT_
FNDA:3,_ZNSt17reference_wrapperISt10unique_ptrI4TreeSt14default_deleteIS1_EEEC2IRS4_vPS4_EEOT_
FN:332,_ZNKSt17reference_wrapperISt10unique_ptrI4TreeSt14default_deleteIS1_EEEcvRS4_Ev
FNDA:3,_ZNKSt17reference_wrapperISt10unique_ptrI4TreeSt14default_deleteIS1_EEEcvRS4_Ev
FN:332,_ZNKSt17reference_wrapperI10MSTFactoryEcvRS0_Ev
FNDA:3,_ZNKSt17reference_wrapperI10MSTFactoryEcvRS0_Ev
FN:332,_ZNKSt17reference_wrapperISt10unique_ptrI5GraphSt14default_deleteIS1_EEEcvRS4_Ev
FNDA:3,_ZNKSt17reference_wrapperISt10unique_ptrI5GraphSt14default_deleteIS1_EEEcvRS4_Ev
FN:332,_ZNKSt17reference_wrapperISt6vectorISt10unique_ptrI12ActiveObjectSt14default_deleteIS2_EESaIS5_EEEcvRS7_Ev
FNDA:3,_ZNKSt17reference_wrapperISt6vectorISt10unique_ptrI12ActiveObjectSt14default_deleteIS2_EESaIS5_EEEcvRS7_Ev
FN:337,_ZNKSt17reference_wrapperISt6vectorISt10unique_ptrI12ActiveObjectSt14default_deleteIS2_EESaIS5_EEE3getEv
FNDA:3,_ZNKSt17reference_wrapperISt6vectorISt10unique_ptrI12ActiveObjectSt14default_deleteIS2_EESaIS5_EEE3getEv
FN:337,_ZNKSt17reference_wrapperISt10unique_ptrI5GraphSt14default_deleteIS1_EEE3getEv
FNDA:3,_ZNKSt17reference_wrapperISt10unique_ptrI5GraphSt14default_deleteIS1_EEE3getEv
FN:337,_ZNKSt17reference_wrapperI10MSTFactoryE3getEv
FNDA:3,_ZNKSt17reference_wrapperI10MSTFactoryE3getEv
FN:337,_ZNKSt17reference_wrapperISt10unique_ptrI4TreeSt14default_deleteIS1_EEE3getEv
FNDA:3,_ZNKSt17reference_wrapperISt10unique_ptrI4TreeSt14default_deleteIS1_EEE3getEv
FN:364,_ZSt3refISt10unique_ptrI4TreeSt14default_deleteIS1_EEESt17reference_wrapperIT_ERS6_
FNDA:3,_ZSt3refISt10unique_ptrI4TreeSt14default_deleteIS1_EEESt17reference_wrapperIT_ERS6_
FN:364,_ZSt3refI10MSTFactoryESt17reference_wrapperIT_ERS2_
FNDA:3,_ZSt3refI10MSTFactoryESt17reference_wrapperIT_ERS2_
FN:364,_ZSt3refISt10unique_ptrI5GraphSt14default_deleteIS1_EEESt17reference_wrapperIT_ERS6_
FNDA:3,_ZSt3refISt10unique_ptrI5GraphSt14default_deleteIS1_EEESt17reference_wrapperIT_ERS6_
FN:364,_ZSt3refISt6vectorISt10unique_ptrI12ActiveObjectSt14default_deleteIS2_EESaIS5_EEESt17reference_wrapperIT_ERS9_
FNDA:3,_ZSt3refISt6vectorISt10unique_ptrI12ActiveObjectSt14default_deleteIS2_EESaIS5_EEESt17reference_wrapperIT_ERS9_
DA:304,3
DA:304,3
DA:304,3
DA:304,3
DA:321,3
DA:323,3
DA:324,3
DA:321,3
DA:323,3
DA:324,3
DA:321,3
DA:323,3
DA:324,3
DA:321,3
DA:323,3
DA:324,3
DA:332,3
DA:333,3
DA:332,3
DA:333,3
DA:332,3
DA:333,3
DA:332,3
DA:333,3
DA:337,3
DA:338,3
DA:337,3
DA:338,3
DA:337,3
DA:338,3
DA:337,3
DA:338,3
DA:364,3
DA:365,3
DA:364,3
DA:365,3
DA:364,3
DA:365,3
DA:364,3
DA:365,3
end_of_record
SF:/usr/include/c++/11/new
FN:174,_ZnwmPv
FNDA:184,_ZnwmPv
FN:180,_ZdlPvS_
FNDA:0,_ZdlPvS_
DA:174,184
DA:175,184
DA:180,0
end_of_record
SF:/usr/include/c++/11/ext/alloc_traits.h
FN:97,_ZN9__gnu_cxx14__alloc_traitsISaIcEcE17_S_select_on_copyERKS1_
FNDA:2,_ZN9__gnu_cxx14__alloc_traitsISaIcEcE17_S_select_on_copyERKS1_
FN:100,_ZN9__gnu_cxx14__alloc_traitsISaISt10unique_ptrI12ActiveObjectSt14default_deleteIS2_EEES5_E10_S_on_swapERS6_S8_
FNDA:1,_ZN9__gnu_cxx14__alloc_traitsISaISt10unique_ptrI12ActiveObjectSt14default_deleteIS2_EEES5_E10_S_on_swapERS6_S8_
FN:100,_ZN9__gnu_cxx14__alloc_traitsISaImEmE10_S_on_swapERS1_S3_
FNDA:1,_ZN9__gnu_cxx14__alloc_traitsISaImEmE10_S_on_swapERS1_S3_
DA:97,2
DA:98,2
DA:100,1
DA:101,1
DA:100,1
DA:101,1
end_of_record
SF:/home/eladubuntu/Git Projects/OS_2024-FINAL_PROJECT_MST/MSTStrategy.hpp
end_of_record
SF:/usr/include/c++/11/bits/stl_uninitialized.h
FN:85,_ZNSt20__uninitialized_copyILb0EE13__uninit_copyISt13move_iteratorIN9__gnu_cxx17__normal_iteratorIPSt10unique_ptrI12ActiveObjectSt14default_deleteIS6_EESt6vectorIS9_SaIS9_EEEEESA_EET0_T_SH_SG_
FNDA:1,_ZNSt20__uninitialized_copyILb0EE13__uninit_copyISt13move_iteratorIN9__gnu_cxx17__normal_iteratorIPSt10unique_ptrI12ActiveObjectSt14default_deleteIS6_EESt6vectorIS9_SaIS9_EEEEESA_EET0_T_SH_SG_
FN:108,_ZNSt20__uninitialized_copyILb1EE13__uninit_copyISt13move_iteratorIN9__gnu_cxx17__normal_iteratorIPmSt6vectorImSaImEEEEES5_EET0_T_SC_SB_
FNDA:1,_ZNSt20__uninitialized_copyILb1EE13__uninit_copyISt13move_iteratorIN9__gnu_cxx17__normal_iteratorIPmSt6vectorImSaImEEEEES5_EET0_T_SC_SB_
FN:126,_ZSt18uninitialized_copyISt13move_iteratorIN9__gnu_cxx17__normal_iteratorIPSt10unique_ptrI12ActiveObjectSt14default_deleteIS4_EESt6vectorIS7_SaIS7_EEEEES8_ET0_T_SF_SE_
FNDA:1,_ZSt18uninitialized_copyISt13move_iteratorIN9__gnu_cxx17__normal_iteratorIPSt10unique_ptrI12ActiveObjectSt14default_deleteIS4_EESt6vectorIS7_SaIS7_EEEEES8_ET0_T_SF_SE_
FN:126,_ZSt18uninitialized_copyISt13move_iteratorIN9__gnu_cxx17__normal_iteratorIPmSt6vectorImSaImEEEEES3_ET0_T_SA_S9_
FNDA:1,_ZSt18uninitialized_copyISt13move_iteratorIN9__gnu_cxx17__normal_iteratorIPmSt6vectorImSaImEEEEES3_ET0_T_SA_S9_
FN:331,_ZSt22__uninitialized_copy_aISt13move_iteratorIN9__gnu_cxx17__normal_iteratorIPmSt6vectorImSaImEEEEES3_mET0_T_SA_S9_RSaIT1_E
FNDA:1,_ZSt22__uninitialized_copy_aISt13move_iteratorIN9__gnu_cxx17__normal_iteratorIPmSt6vectorImSaImEEEEES3_mET0_T_SA_S9_RSaIT1_E
FN:331,_ZSt22__uninitialized_copy_aISt13move_iteratorIN9__gnu_cxx17__normal_iteratorIPSt10unique_ptrI12ActiveObjectSt14default_deleteIS4_EESt6vectorIS7_SaIS7_EEEEES8_S7_ET0_T_SF_SE_RSaIT1_E
FNDA:1,_ZSt22__uninitialized_copy_aISt13move_iteratorIN9__gnu_cxx17__normal_iteratorIPSt10unique_ptrI12ActiveObjectSt14default_deleteIS4_EESt6vectorIS7_SaIS7_EEEEES8_S7_ET0_T_SF_SE_RSaIT1_E
FN:573,_ZNSt27__uninitialized_default_n_1ILb0EE18__uninit_default_nIPSt6vectorI4EdgeSaIS3_EEmEET_S7_T0_
FNDA:7,_ZNSt27__uninitialized_default_n_1ILb0EE18__uninit_default_nIPSt6vectorI4EdgeSaIS3_EEmEET_S7_T0_
FN:630,_ZSt25__uninitialized_default_nIPSt6vectorI4EdgeSaIS1_EEmET_S5_T0_
FNDA:7,_ZSt25__uninitialized_default_nIPSt6vectorI4EdgeSaIS1_EEmET_S5_T0_
FN:702,_ZSt27__uninitialized_default_n_aIPSt6vectorI4EdgeSaIS1_EEmS3_ET_S5_T0_RSaIT1_E
FNDA:7,_ZSt27__uninitialized_default_n_aIPSt6vectorI4EdgeSaIS1_EEmS3_ET_S5_T0_RSaIT1_E
FN:986,_ZSt19__relocate_object_aISt6vectorI4EdgeSaIS1_EES3_SaIS3_EEvPT_PT0_RT1_
FNDA:0,_ZSt19__relocate_object_aISt6vectorI4EdgeSaIS1_EES3_SaIS3_EEvPT_PT0_RT1_
FN:986,_ZSt19__relocate_object_aISt10unique_ptrI12ActiveObjectSt14default_deleteIS1_EES4_SaIS4_EEvPT_PT0_RT1_
FNDA:7,_ZSt19__relocate_object_aISt10unique_ptrI12ActiveObjectSt14default_deleteIS1_EES4_SaIS4_EEvPT_PT0_RT1_
FN:1006,_ZSt14__relocate_a_1ImmENSt9enable_ifIXsrSt24__is_bitwise_relocatableIT_vE5valueEPS2_E4typeES4_S4_S4_RSaIT0_E
FNDA:6,_ZSt14__relocate_a_1ImmENSt9enable_ifIXsrSt24__is_bitwise_relocatableIT_vE5valueEPS2_E4typeES4_S4_S4_RSaIT0_E
FN:1018,_ZSt14__relocate_a_1IPSt6vectorI4EdgeSaIS1_EES4_SaIS3_EET0_T_S7_S6_RT1_
FNDA:7,_ZSt14__relocate_a_1IPSt6vectorI4EdgeSaIS1_EES4_SaIS3_EET0_T_S7_S6_RT1_
FN:1018,_ZSt14__relocate_a_1IPSt10unique_ptrI12ActiveObjectSt14default_deleteIS1_EES5_SaIS4_EET0_T_S8_S7_RT1_
FNDA:8,_ZSt14__relocate_a_1IPSt10unique_ptrI12ActiveObjectSt14default_deleteIS1_EES5_SaIS4_EET0_T_S8_S7_RT1_
FN:1040,_ZSt12__relocate_aIPSt10unique_ptrI12ActiveObjectSt14default_deleteIS1_EES5_SaIS4_EET0_T_S8_S7_RT1_
FNDA:8,_ZSt12__relocate_aIPSt10unique_ptrI12ActiveObjectSt14default_deleteIS1_EES5_SaIS4_EET0_T_S8_S7_RT1_
FN:1040,_ZSt12__relocate_aIPmS0_SaImEET0_T_S3_S2_RT1_
FNDA:6,_ZSt12__relocate_aIPmS0_SaImEET0_T_S3_S2_RT1_
FN:1040,_ZSt12__relocate_aIPSt6vectorI4EdgeSaIS1_EES4_SaIS3_EET0_T_S7_S6_RT1_
FNDA:7,_ZSt12__relocate_aIPSt6vectorI4EdgeSaIS1_EES4_SaIS3_EET0_T_S7_S6_RT1_
DA:85,1
DA:88,1
DA:91,1
DA:92,0
DA:93,1
DA:95,0
DA:97,0
DA:98,0
DA:108,1
DA:110,1
DA:126,1
DA:145,1
DA:151,1
DA:126,1
DA:145,1
DA:151,1
DA:331,1
DA:333,1
DA:331,1
DA:333,1
DA:573,7
DA:575,7
DA:578,40
DA:579,33
DA:580,7
DA:630,7
DA:635,7
DA:640,7
DA:702,7
DA:704,7
DA:986,7
DA:994,7
DA:995,7
DA:996,7
DA:986,0
DA:994,0
DA:995,0
DA:996,0
DA:1006,6
DA:1009,6
DA:1010,6
DA:1011,2
DA:1012,6
DA:1018,8
DA:1030,8
DA:1031,15
DA:1032,7
DA:1034,8
DA:1018,7
DA:1030,7
DA:1031,7
DA:1032,0
DA:1034,7
DA:1040,8
DA:1046,8
DA:1048,8
DA:1040,6
DA:1046,6
DA:1048,6
DA:1040,7
DA:1046,7
DA:1048,7
end_of_record
SF:/usr/include/c++/11/bits/deque.tcc
FN:164,_ZNSt5dequeISt8functionIFvvEESaIS2_EE12emplace_backIJRZ14handleCommandsiRSt6vectorISt10unique_ptrI12ActiveObjectSt14default_deleteIS8_EESaISB_EERS7_I5GraphS9_ISF_EER10MSTFactoryRS7_I4TreeS9_ISL_EEEUlvE_EEERS2_DpOT_
FNDA:4,_ZNSt5dequeISt8functionIFvvEESaIS2_EE12emplace_backIJRZ14handleCommandsiRSt6vectorISt10unique_ptrI12ActiveObjectSt14default_deleteIS8_EESaISB_EERS7_I5GraphS9_ISF_EER10MSTFactoryRS7_I4TreeS9_ISL_EEEUlvE_EEERS2_DpOT_
FN:164,_ZNSt5dequeISt8functionIFvvEESaIS2_EE12emplace_backIJRZ14handleCommandsiRSt6vectorISt10unique_ptrI12ActiveObjectSt14default_deleteIS8_EESaISB_EERS7_I5GraphS9_ISF_EER10MSTFactoryRS7_I4TreeS9_ISL_EEEUlvE0_EEERS2_DpOT_
FNDA:10,_ZNSt5dequeISt8functionIFvvEESaIS2_EE12emplace_backIJRZ14handleCommandsiRSt6vectorISt10unique_ptrI12ActiveObjectSt14default_deleteIS8_EESaISB_EERS7_I5GraphS9_ISF_EER10MSTFactoryRS7_I4TreeS9_ISL_EEEUlvE0_EEERS2_DpOT_
FN:164,_ZNSt5dequeISt8functionIFvvEESaIS2_EE12emplace_backIJRZ14handleCommandsiRSt6vectorISt10unique_ptrI12ActiveObjectSt14default_deleteIS8_EESaISB_EERS7_I5GraphS9_ISF_EER10MSTFactoryRS7_I4TreeS9_ISL_EEEUlvE1_EEERS2_DpOT_
FNDA:2,_ZNSt5dequeISt8functionIFvvEESaIS2_EE12emplace_backIJRZ14handleCommandsiRSt6vectorISt10unique_ptrI12ActiveObjectSt14default_deleteIS8_EESaISB_EERS7_I5GraphS9_ISF_EER10MSTFactoryRS7_I4TreeS9_ISL_EEEUlvE1_EEERS2_DpOT_
FN:164,_ZNSt5dequeISt8functionIFvvEESaIS2_EE12emplace_backIJRZ14handleCommandsiRSt6vectorISt10unique_ptrI12ActiveObjectSt14default_deleteIS8_EESaISB_EERS7_I5GraphS9_ISF_EER10MSTFactoryRS7_I4TreeS9_ISL_EEEUlvE2_EEERS2_DpOT_
FNDA:2,_ZNSt5dequeISt8functionIFvvEESaIS2_EE12emplace_backIJRZ14handleCommandsiRSt6vectorISt10unique_ptrI12ActiveObjectSt14default_deleteIS8_EESaISB_EERS7_I5GraphS9_ISF_EER10MSTFactoryRS7_I4TreeS9_ISL_EEEUlvE2_EEERS2_DpOT_
FN:164,_ZNSt5dequeISt8functionIFvvEESaIS2_EE12emplace_backIJRZ14handleCommandsiRSt6vectorISt10unique_ptrI12ActiveObjectSt14default_deleteIS8_EESaISB_EERS7_I5GraphS9_ISF_EER10MSTFactoryRS7_I4TreeS9_ISL_EEEUlvE3_EEERS2_DpOT_
FNDA:2,_ZNSt5dequeISt8functionIFvvEESaIS2_EE12emplace_backIJRZ14handleCommandsiRSt6vectorISt10unique_ptrI12ActiveObjectSt14default_deleteIS8_EESaISB_EERS7_I5GraphS9_ISF_EER10MSTFactoryRS7_I4TreeS9_ISL_EEEUlvE3_EEERS2_DpOT_
FN:164,_ZNSt5dequeISt8functionIFvvEESaIS2_EE12emplace_backIJRZ14handleCommandsiRSt6vectorISt10unique_ptrI12ActiveObjectSt14default_deleteIS8_EESaISB_EERS7_I5GraphS9_ISF_EER10MSTFactoryRS7_I4TreeS9_ISL_EEEUlvE4_EEERS2_DpOT_
FNDA:2,_ZNSt5dequeISt8functionIFvvEESaIS2_EE12emplace_backIJRZ14handleCommandsiRSt6vectorISt10unique_ptrI12ActiveObjectSt14default_deleteIS8_EESaISB_EERS7_I5GraphS9_ISF_EER10MSTFactoryRS7_I4TreeS9_ISL_EEEUlvE4_EEERS2_DpOT_
FN:164,_ZNSt5dequeISt8functionIFvvEESaIS2_EE12emplace_backIJRZ14handleCommandsiRSt6vectorISt10unique_ptrI12ActiveObjectSt14default_deleteIS8_EESaISB_EERS7_I5GraphS9_ISF_EER10MSTFactoryRS7_I4TreeS9_ISL_EEEUlvE5_EEERS2_DpOT_
FNDA:2,_ZNSt5dequeISt8functionIFvvEESaIS2_EE12emplace_backIJRZ14handleCommandsiRSt6vectorISt10unique_ptrI12ActiveObjectSt14default_deleteIS8_EESaISB_EERS7_I5GraphS9_ISF_EER10MSTFactoryRS7_I4TreeS9_ISL_EEEUlvE5_EEERS2_DpOT_
FN:164,_ZNSt5dequeISt8functionIFvvEESaIS2_EE12emplace_backIJRZ14handleCommandsiRSt6vectorISt10unique_ptrI12ActiveObjectSt14default_deleteIS8_EESaISB_EERS7_I5GraphS9_ISF_EER10MSTFactoryRS7_I4TreeS9_ISL_EEEUlvE6_EEERS2_DpOT_
FNDA:5,_ZNSt5dequeISt8functionIFvvEESaIS2_EE12emplace_backIJRZ14handleCommandsiRSt6vectorISt10unique_ptrI12ActiveObjectSt14default_deleteIS8_EESaISB_EERS7_I5GraphS9_ISF_EER10MSTFactoryRS7_I4TreeS9_ISL_EEEUlvE6_EEERS2_DpOT_
FN:164,_ZNSt5dequeISt8functionIFvvEESaIS2_EE12emplace_backIJRZ14handleCommandsiRSt6vectorISt10unique_ptrI12ActiveObjectSt14default_deleteIS8_EESaISB_EERS7_I5GraphS9_ISF_EER10MSTFactoryRS7_I4TreeS9_ISL_EEEUlvE8_EEERS2_DpOT_
FNDA:3,_ZNSt5dequeISt8functionIFvvEESaIS2_EE12emplace_backIJRZ14handleCommandsiRSt6vectorISt10unique_ptrI12ActiveObjectSt14default_deleteIS8_EESaISB_EERS7_I5GraphS9_ISF_EER10MSTFactoryRS7_I4TreeS9_ISL_EEEUlvE8_EEERS2_DpOT_
FN:164,_ZNSt5dequeISt8functionIFvvEESaIS2_EE12emplace_backIJRZ14handleCommandsiRSt6vectorISt10unique_ptrI12ActiveObjectSt14default_deleteIS8_EESaISB_EERS7_I5GraphS9_ISF_EER10MSTFactoryRS7_I4TreeS9_ISL_EEEUlvE9_EEERS2_DpOT_
FNDA:2,_ZNSt5dequeISt8functionIFvvEESaIS2_EE12emplace_backIJRZ14handleCommandsiRSt6vectorISt10unique_ptrI12ActiveObjectSt14default_deleteIS8_EESaISB_EERS7_I5GraphS9_ISF_EER10MSTFactoryRS7_I4TreeS9_ISL_EEEUlvE9_EEERS2_DpOT_
FN:164,_ZNSt5dequeISt8functionIFvvEESaIS2_EE12emplace_backIJRZ14handleCommandsiRSt6vectorISt10unique_ptrI12ActiveObjectSt14default_deleteIS8_EESaISB_EERS7_I5GraphS9_ISF_EER10MSTFactoryRS7_I4TreeS9_ISL_EEEUlvE10_EEERS2_DpOT_
FNDA:2,_ZNSt5dequeISt8functionIFvvEESaIS2_EE12emplace_backIJRZ14handleCommandsiRSt6vectorISt10unique_ptrI12ActiveObjectSt14default_deleteIS8_EESaISB_EERS7_I5GraphS9_ISF_EER10MSTFactoryRS7_I4TreeS9_ISL_EEEUlvE10_EEERS2_DpOT_
FN:484,_ZNSt5dequeISt8functionIFvvEESaIS2_EE16_M_push_back_auxIJRZ14handleCommandsiRSt6vectorISt10unique_ptrI12ActiveObjectSt14default_deleteIS8_EESaISB_EERS7_I5GraphS9_ISF_EER10MSTFactoryRS7_I4TreeS9_ISL_EEEUlvE10_EEEvDpOT_
FNDA:0,_ZNSt5dequeISt8functionIFvvEESaIS2_EE16_M_push_back_auxIJRZ14handleCommandsiRSt6vectorISt10unique_ptrI12ActiveObjectSt14default_deleteIS8_EESaISB_EERS7_I5GraphS9_ISF_EER10MSTFactoryRS7_I4TreeS9_ISL_EEEUlvE10_EEEvDpOT_
FN:484,_ZNSt5dequeISt8functionIFvvEESaIS2_EE16_M_push_back_auxIJRZ14handleCommandsiRSt6vectorISt10unique_ptrI12ActiveObjectSt14default_deleteIS8_EESaISB_EERS7_I5GraphS9_ISF_EER10MSTFactoryRS7_I4TreeS9_ISL_EEEUlvE_EEEvDpOT_
FNDA:0,_ZNSt5dequeISt8functionIFvvEESaIS2_EE16_M_push_back_auxIJRZ14handleCommandsiRSt6vectorISt10unique_ptrI12ActiveObjectSt14default_deleteIS8_EESaISB_EERS7_I5GraphS9_ISF_EER10MSTFactoryRS7_I4TreeS9_ISL_EEEUlvE_EEEvDpOT_
FN:484,_ZNSt5dequeISt8functionIFvvEESaIS2_EE16_M_push_back_auxIJRZ14handleCommandsiRSt6vectorISt10unique_ptrI12ActiveObjectSt14default_deleteIS8_EESaISB_EERS7_I5GraphS9_ISF_EER10MSTFactoryRS7_I4TreeS9_ISL_EEEUlvE0_EEEvDpOT_
FNDA:0,_ZNSt5dequeISt8functionIFvvEESaIS2_EE16_M_push_back_auxIJRZ14handleCommandsiRSt6vectorISt10unique_ptrI12ActiveObjectSt14default_deleteIS8_EESaISB_EERS7_I5GraphS9_ISF_EER10MSTFactoryRS7_I4TreeS9_ISL_EEEUlvE0_EEEvDpOT_
FN:484,_ZNSt5dequeISt8functionIFvvEESaIS2_EE16_M_push_back_auxIJRZ14handleCommandsiRSt6vectorISt10unique_ptrI12ActiveObjectSt14default_deleteIS8_EESaISB_EERS7_I5GraphS9_ISF_EER10MSTFactoryRS7_I4TreeS9_ISL_EEEUlvE1_EEEvDpOT_
FNDA:0,_ZNSt5dequeISt8functionIFvvEESaIS2_EE16_M_push_back_auxIJRZ14handleCommandsiRSt6vectorISt10unique_ptrI12ActiveObjectSt14default_deleteIS8_EESaISB_EERS7_I5GraphS9_ISF_EER10MSTFactoryRS7_I4TreeS9_ISL_EEEUlvE1_EEEvDpOT_
FN:484,_ZNSt5dequeISt8functionIFvvEESaIS2_EE16_M_push_back_auxIJRZ14handleCommandsiRSt6vectorISt10unique_ptrI12ActiveObjectSt14default_deleteIS8_EESaISB_EERS7_I5GraphS9_ISF_EER10MSTFactoryRS7_I4TreeS9_ISL_EEEUlvE2_EEEvDpOT_
FNDA:0,_ZNSt5dequeISt8functionIFvvEESaIS2_EE16_M_push_back_auxIJRZ14handleCommandsiRSt6vectorISt10unique_ptrI12ActiveObjectSt14default_deleteIS8_EESaISB_EERS7_I5GraphS9_ISF_EER10MSTFactoryRS7_I4TreeS9_ISL_EEEUlvE2_EEEvDpOT_
FN:484,_ZNSt5dequeISt8functionIFvvEESaIS2_EE16_M_push_back_auxIJRZ14handleCommandsiRSt6vectorISt10unique_ptrI12ActiveObjectSt14default_deleteIS8_EESaISB_EERS7_I5GraphS9_ISF_EER10MSTFactoryRS7_I4TreeS9_ISL_EEEUlvE3_EEEvDpOT_
FNDA:0,_ZNSt5dequeISt8functionIFvvEESaIS2_EE16_M_push_back_auxIJRZ14handleCommandsiRSt6vectorISt10unique_ptrI12ActiveObjectSt14default_deleteIS8_EESaISB_EERS7_I5GraphS9_ISF_EER10MSTFactoryRS7_I4TreeS9_ISL_EEEUlvE3_EEEvDpOT_
FN:484,_ZNSt5dequeISt8functionIFvvEESaIS2_EE16_M_push_back_auxIJRZ14handleCommandsiRSt6vectorISt10unique_ptrI12ActiveObjectSt14default_deleteIS8_EESaISB_EERS7_I5GraphS9_ISF_EER10MSTFactoryRS7_I4TreeS9_ISL_EEEUlvE4_EEEvDpOT_
FNDA:0,_ZNSt5dequeISt8functionIFvvEESaIS2_EE16_M_push_back_auxIJRZ14handleCommandsiRSt6vectorISt10unique_ptrI12ActiveObjectSt14default_deleteIS8_EESaISB_EERS7_I5GraphS9_ISF_EER10MSTFactoryRS7_I4TreeS9_ISL_EEEUlvE4_EEEvDpOT_
FN:484,_ZNSt5dequeISt8functionIFvvEESaIS2_EE16_M_push_back_auxIJRZ14handleCommandsiRSt6vectorISt10unique_ptrI12ActiveObjectSt14default_deleteIS8_EESaISB_EERS7_I5GraphS9_ISF_EER10MSTFactoryRS7_I4TreeS9_ISL_EEEUlvE5_EEEvDpOT_
FNDA:0,_ZNSt5dequeISt8functionIFvvEESaIS2_EE16_M_push_back_auxIJRZ14handleCommandsiRSt6vectorISt10unique_ptrI12ActiveObjectSt14default_deleteIS8_EESaISB_EERS7_I5GraphS9_ISF_EER10MSTFactoryRS7_I4TreeS9_ISL_EEEUlvE5_EEEvDpOT_
FN:484,_ZNSt5dequeISt8functionIFvvEESaIS2_EE16_M_push_back_auxIJRZ14handleCommandsiRSt6vectorISt10unique_ptrI12ActiveObjectSt14default_deleteIS8_EESaISB_EERS7_I5GraphS9_ISF_EER10MSTFactoryRS7_I4TreeS9_ISL_EEEUlvE6_EEEvDpOT_
FNDA:0,_ZNSt5dequeISt8functionIFvvEESaIS2_EE16_M_push_back_auxIJRZ14handleCommandsiRSt6vectorISt10unique_ptrI12ActiveObjectSt14default_deleteIS8_EESaISB_EERS7_I5GraphS9_ISF_EER10MSTFactoryRS7_I4TreeS9_ISL_EEEUlvE6_EEEvDpOT_
FN:484,_ZNSt5dequeISt8functionIFvvEESaIS2_EE16_M_push_back_auxIJRZ14handleCommandsiRSt6vectorISt10unique_ptrI12ActiveObjectSt14default_deleteIS8_EESaISB_EERS7_I5GraphS9_ISF_EER10MSTFactoryRS7_I4TreeS9_ISL_EEEUlvE8_EEEvDpOT_
FNDA:0,_ZNSt5dequeISt8functionIFvvEESaIS2_EE16_M_push_back_auxIJRZ14handleCommandsiRSt6vectorISt10unique_ptrI12ActiveObjectSt14default_deleteIS8_EESaISB_EERS7_I5GraphS9_ISF_EER10MSTFactoryRS7_I4TreeS9_ISL_EEEUlvE8_EEEvDpOT_
FN:484,_ZNSt5dequeISt8functionIFvvEESaIS2_EE16_M_push_back_auxIJRZ14handleCommandsiRSt6vectorISt10unique_ptrI12ActiveObjectSt14default_deleteIS8_EESaISB_EERS7_I5GraphS9_ISF_EER10MSTFactoryRS7_I4TreeS9_ISL_EEEUlvE9_EEEvDpOT_
FNDA:0,_ZNSt5dequeISt8functionIFvvEESaIS2_EE16_M_push_back_auxIJRZ14handleCommandsiRSt6vectorISt10unique_ptrI12ActiveObjectSt14default_deleteIS8_EESaISB_EERS7_I5GraphS9_ISF_EER10MSTFactoryRS7_I4TreeS9_ISL_EEEUlvE9_EEEvDpOT_
FN:859,_ZNSt5dequeISt8functionIFvvEESaIS2_EE19_M_destroy_data_auxESt15_Deque_iteratorIS2_RS2_PS2_ES8_
FNDA:7,_ZNSt5dequeISt8functionIFvvEESaIS2_EE19_M_destroy_data_auxESt15_Deque_iteratorIS2_RS2_PS2_ES8_
FN:931,_ZNSt5dequeISt8functionIFvvEESaIS2_EE17_M_reallocate_mapEmb
FNDA:0,_ZNSt5dequeISt8functionIFvvEESaIS2_EE17_M_reallocate_mapEmb
DA:164,2
DA:167,2
DA:168,2
DA:170,2
DA:173,2
DA:176,0
DA:178,2
DA:164,2
DA:167,2
DA:168,2
DA:170,2
DA:173,2
DA:176,0
DA:178,2
DA:164,3
DA:167,3
DA:168,3
DA:170,3
DA:173,3
DA:176,0
DA:178,3
DA:164,5
DA:167,5
DA:168,5
DA:170,5
DA:173,5
DA:176,0
DA:178,5
DA:164,2
DA:167,2
DA:168,2
DA:170,2
DA:173,2
DA:176,0
DA:178,2
DA:164,2
DA:167,2
DA:168,2
DA:170,2
DA:173,2
DA:176,0
DA:178,2
DA:164,2
DA:167,2
DA:168,2
DA:170,2
DA:173,2
DA:176,0
DA:178,2
DA:164,2
DA:167,2
DA:168,2
DA:170,2
DA:173,2
DA:176,0
DA:178,2
DA:164,2
DA:167,2
DA:168,2
DA:170,2
DA:173,2
DA:176,0
DA:178,2
DA:164,10
DA:167,10
DA:168,10
DA:170,10
DA:173,10
DA:176,0
DA:178,10
DA:164,4
DA:167,4
DA:168,4
DA:170,4
DA:173,4
DA:176,0
DA:178,4
DA:484,0
DA:492,0
DA:493,0
DA:496,0
DA:497,0
DA:501,0
DA:507,0
DA:509,0
DA:511,0
DA:513,0
DA:514,0
DA:516,0
DA:484,0
DA:492,0
DA:493,0
DA:496,0
DA:497,0
DA:501,0
DA:507,0
DA:509,0
DA:511,0
DA:513,0
DA:514,0
DA:516,0
DA:484,0
DA:492,0
DA:493,0
DA:496,0
DA:497,0
DA:501,0
DA:507,0
DA:509,0
DA:511,0
DA:513,0
DA:514,0
DA:516,0
DA:484,0
DA:492,0
DA:493,0
DA:496,0
DA:497,0
DA:501,0
DA:507,0
DA:509,0
DA:511,0
DA:513,0
DA:514,0
DA:516,0
DA:484,0
DA:492,0
DA:493,0
DA:496,0
DA:497,0
DA:501,0
DA:507,0
DA:509,0
DA:511,0
DA:513,0
DA:514,0
DA:516,0
DA:484,0
DA:492,0
DA:493,0
DA:496,0
DA:497,0
DA:501,0
DA:507,0
DA:509,0
DA:511,0
DA:513,0
DA:514,0
DA:516,0
DA:484,0
DA:492,0
DA:493,0
DA:496,0
DA:497,0
DA:501,0
DA:507,0
DA:509,0
DA:511,0
DA:513,0
DA:514,0
DA:516,0
DA:484,0
DA:492,0
DA:493,0
DA:496,0
DA:497,0
DA:501,0
DA:507,0
DA:509,0
DA:511,0
DA:513,0
DA:514,0
DA:516,0
DA:484,0
DA:492,0
DA:493,0
DA:496,0
DA:497,0
DA:501,0
DA:507,0
DA:509,0
DA:511,0
DA:513,0
DA:514,0
DA:516,0
DA:484,0
DA:492,0
DA:493,0
DA:496,0
DA:497,0
DA:501,0
DA:507,0
DA:509,0
DA:511,0
DA:513,0
DA:514,0
DA:516,0
DA:484,0
DA:492,0
DA:493,0
DA:496,0
DA:497,0
DA:501,0
DA:507,0
DA:509,0
DA:511,0
DA:513,0
DA:514,0
DA:516,0
DA:859,7
DA:862,7
DA:863,7
DA:864,0
DA:865,0
DA:867,7
DA:869,0
DA:870,0
DA:871,0
DA:872,0
DA:875,7
DA:876,7
DA:877,7
DA:931,0
DA:934,0
DA:935,0
DA:936,0
DA:939,0
DA:941,0
DA:942,0
DA:943,0
DA:944,0
DA:945,0
DA:946,0
DA:949,0
DA:950,0
DA:951,0
DA:955,0
DA:956,0
DA:959,0
DA:960,0
DA:961,0
DA:962,0
DA:963,0
DA:965,0
DA:967,0
DA:968,0
DA:971,0
DA:972,0
DA:973,0
end_of_record
SF:/usr/include/c++/11/bits/allocator.h
FN:156,_ZNSaI4EdgeEC2Ev
FNDA:39,_ZNSaI4EdgeEC2Ev
FN:156,_ZNSaISt8functionIFvvEEEC2Ev
FNDA:7,_ZNSaISt8functionIFvvEEEC2Ev
FN:156,_ZNSaImEC2Ev
FNDA:1,_ZNSaImEC2Ev
FN:156,_ZNSaISt10unique_ptrI12ActiveObjectSt14default_deleteIS0_EEEC2Ev
FNDA:1,_ZNSaISt10unique_ptrI12ActiveObjectSt14default_deleteIS0_EEEC2Ev
FN:156,_ZNSaISt6threadEC2Ev
FNDA:1,_ZNSaISt6threadEC2Ev
FN:156,_ZNSaISt6vectorI4EdgeSaIS0_EEEC2Ev
FNDA:7,_ZNSaISt6vectorI4EdgeSaIS0_EEEC2Ev
FN:159,_ZNSaISt10unique_ptrI12ActiveObjectSt14default_deleteIS0_EEEC2ERKS4_
FNDA:3,_ZNSaISt10unique_ptrI12ActiveObjectSt14default_deleteIS0_EEEC2ERKS4_
FN:159,_ZNSaImEC2ERKS_
FNDA:23,_ZNSaImEC2ERKS_
FN:159,_ZNSaI4EdgeEC2ERKS0_
FNDA:16,_ZNSaI4EdgeEC2ERKS0_
FN:169,_ZNSaIPSt8functionIFvvEEEC2IS1_EERKSaIT_E
FNDA:14,_ZNSaIPSt8functionIFvvEEEC2IS1_EERKSaIT_E
FN:174,_ZNSaISt6vectorI4EdgeSaIS0_EEED2Ev
FNDA:7,_ZNSaISt6vectorI4EdgeSaIS0_EEED2Ev
FN:174,_ZNSaISt6threadED2Ev
FNDA:0,_ZNSaISt6threadED2Ev
FN:174,_ZNSaISt10unique_ptrI12ActiveObjectSt14default_deleteIS0_EEED2Ev
FNDA:3,_ZNSaISt10unique_ptrI12ActiveObjectSt14default_deleteIS0_EEED2Ev
FN:174,_ZNSaImED2Ev
FNDA:36,_ZNSaImED2Ev
FN:174,_ZNSaI4EdgeED2Ev
FNDA:55,_ZNSaI4EdgeED2Ev
FN:174,_ZNSaISt8functionIFvvEEED2Ev
FNDA:7,_ZNSaISt8functionIFvvEEED2Ev
FN:174,_ZNSaIPSt8functionIFvvEEED2Ev
FNDA:14,_ZNSaIPSt8functionIFvvEEED2Ev
FN:313,_ZNSt19__shrink_to_fit_auxISt6vectorImSaImEELb1EE8_S_do_itERS2_
FNDA:1,_ZNSt19__shrink_to_fit_auxISt6vectorImSaImEELb1EE8_S_do_itERS2_
FN:313,_ZNSt19__shrink_to_fit_auxISt6vectorISt10unique_ptrI12ActiveObjectSt14default_deleteIS2_EESaIS5_EELb1EE8_S_do_itERS7_
FNDA:1,_ZNSt19__shrink_to_fit_auxISt6vectorISt10unique_ptrI12ActiveObjectSt14default_deleteIS2_EESaIS5_EELb1EE8_S_do_itERS7_
DA:156,39
DA:156,7
DA:156,1
DA:156,1
DA:156,1
DA:156,7
DA:159,3
DA:160,3
DA:159,23
DA:160,23
DA:159,16
DA:160,16
DA:169,14
DA:174,14
DA:174,7
DA:174,55
DA:174,36
DA:174,3
DA:174,0
DA:174,7
DA:313,1
DA:318,2
DA:320,1
DA:321,1
DA:323,0
DA:324,0
DA:313,1
DA:318,2
DA:320,1
DA:321,1
DA:323,0
DA:324,0
end_of_record
SF:/usr/include/c++/11/tuple
FN:80,_ZNSt10_Head_baseILm1ESt14default_deleteI5GraphELb1EEC2Ev
FNDA:3,_ZNSt10_Head_baseILm1ESt14default_deleteI5GraphELb1EEC2Ev
FN:80,_ZNSt10_Head_baseILm1ESt14default_deleteI9functArgsELb1EEC2Ev
FNDA:3,_ZNSt10_Head_baseILm1ESt14default_deleteI9functArgsELb1EEC2Ev
FN:80,_ZNSt10_Head_baseILm1ESt14default_deleteI12ActiveObjectELb1EEC2Ev
FNDA:7,_ZNSt10_Head_baseILm1ESt14default_deleteI12ActiveObjectELb1EEC2Ev
FN:80,_ZNSt10_Head_baseILm1ESt14default_deleteINSt6thread6_StateEELb1EEC2Ev
FNDA:7,_ZNSt10_Head_baseILm1ESt14default_deleteINSt6thread6_StateEELb1EEC2Ev
FN:124,_ZNSt10_Head_baseILm1ESt14default_deleteI5GraphELb1EE7_M_headERS3_
FNDA:9,_ZNSt10_Head_baseILm1ESt14default_deleteI5GraphELb1EE7_M_headERS3_
FN:124,_ZNSt10_Head_baseILm1ESt14default_deleteI4TreeELb1EE7_M_headERS3_
FNDA:12,_ZNSt10_Head_baseILm1ESt14default_deleteI4TreeELb1EE7_M_headERS3_
FN:124,_ZNSt10_Head_baseILm1ESt14default_deleteINSt6thread6_StateEELb1EE7_M_headERS4_
FNDA:0,_ZNSt10_Head_baseILm1ESt14default_deleteINSt6thread6_StateEELb1EE7_M_headERS4_
FN:124,_ZNSt10_Head_baseILm1ESt14default_deleteI12ActiveObjectELb1EE7_M_headERS3_
FNDA:7,_ZNSt10_Head_baseILm1ESt14default_deleteI12ActiveObjectELb1EE7_M_headERS3_
FN:124,_ZNSt10_Head_baseILm1ESt14default_deleteI9functArgsELb1EE7_M_headERS3_
FNDA:9,_ZNSt10_Head_baseILm1ESt14default_deleteI9functArgsELb1EE7_M_headERS3_
FN:124,_ZNSt10_Head_baseILm1ESt14default_deleteI11MSTStrategyELb1EE7_M_headERS3_
FNDA:12,_ZNSt10_Head_baseILm1ESt14default_deleteI11MSTStrategyELb1EE7_M_headERS3_
FN:189,_ZNSt10_Head_baseILm0EP5GraphLb0EEC2Ev
FNDA:3,_ZNSt10_Head_baseILm0EP5GraphLb0EEC2Ev
FN:189,_ZNSt10_Head_baseILm0EP9functArgsLb0EEC2Ev
FNDA:3,_ZNSt10_Head_baseILm0EP9functArgsLb0EEC2Ev
FN:189,_ZNSt10_Head_baseILm0EPNSt6thread6_StateELb0EEC2Ev
FNDA:7,_ZNSt10_Head_baseILm0EPNSt6thread6_StateELb0EEC2Ev
FN:189,_ZNSt10_Head_baseILm0EP12ActiveObjectLb0EEC2Ev
FNDA:7,_ZNSt10_Head_baseILm0EP12ActiveObjectLb0EEC2Ev
FN:199,_ZNSt10_Head_baseILm1EP12ActiveObjectLb0EEC2IS1_EEOT_
FNDA:7,_ZNSt10_Head_baseILm1EP12ActiveObjectLb0EEC2IS1_EEOT_
FN:199,_ZNSt10_Head_baseILm0EM12ActiveObjectFvvELb0EEC2IS2_EEOT_
FNDA:7,_ZNSt10_Head_baseILm0EM12ActiveObjectFvvELb0EEC2IS2_EEOT_
FN:233,_ZNSt10_Head_baseILm0EM12ActiveObjectFvvELb0EE7_M_headERS3_
FNDA:7,_ZNSt10_Head_baseILm0EM12ActiveObjectFvvELb0EE7_M_headERS3_
FN:233,_ZNSt10_Head_baseILm1EP12ActiveObjectLb0EE7_M_headERS2_
FNDA:7,_ZNSt10_Head_baseILm1EP12ActiveObjectLb0EE7_M_headERS2_
FN:233,_ZNSt10_Head_baseILm0EP5GraphLb0EE7_M_headERS2_
FNDA:28,_ZNSt10_Head_baseILm0EP5GraphLb0EE7_M_headERS2_
FN:233,_ZNSt10_Head_baseILm0EP4TreeLb0EE7_M_headERS2_
FNDA:42,_ZNSt10_Head_baseILm0EP4TreeLb0EE7_M_headERS2_
FN:233,_ZNSt10_Head_baseILm0EP11MSTStrategyLb0EE7_M_headERS2_
FNDA:32,_ZNSt10_Head_baseILm0EP11MSTStrategyLb0EE7_M_headERS2_
FN:233,_ZNSt10_Head_baseILm0EP12ActiveObjectLb0EE7_M_headERS2_
FNDA:56,_ZNSt10_Head_baseILm0EP12ActiveObjectLb0EE7_M_headERS2_
FN:233,_ZNSt10_Head_baseILm0EP9functArgsLb0EE7_M_headERS2_
FNDA:20,_ZNSt10_Head_baseILm0EP9functArgsLb0EE7_M_headERS2_
FN:233,_ZNSt10_Head_baseILm0EPNSt6thread6_StateELb0EE7_M_headERS3_
FNDA:14,_ZNSt10_Head_baseILm0EPNSt6thread6_StateELb0EE7_M_headERS3_
FN:236,_ZNSt10_Head_baseILm0EP4TreeLb0EE7_M_headERKS2_
FNDA:36,_ZNSt10_Head_baseILm0EP4TreeLb0EE7_M_headERKS2_
FN:236,_ZNSt10_Head_baseILm0EP5GraphLb0EE7_M_headERKS2_
FNDA:28,_ZNSt10_Head_baseILm0EP5GraphLb0EE7_M_headERKS2_
FN:236,_ZNSt10_Head_baseILm0EP12ActiveObjectLb0EE7_M_headERKS2_
FNDA:36,_ZNSt10_Head_baseILm0EP12ActiveObjectLb0EE7_M_headERKS2_
FN:236,_ZNSt10_Head_baseILm0EP9functArgsLb0EE7_M_headERKS2_
FNDA:3,_ZNSt10_Head_baseILm0EP9functArgsLb0EE7_M_headERKS2_
FN:268,_ZNSt11_Tuple_implILm0EJP12ActiveObjectSt14default_deleteIS0_EEE7_M_headERS4_
FNDA:56,_ZNSt11_Tuple_implILm0EJP12ActiveObjectSt14default_deleteIS0_EEE7_M_headERS4_
FN:268,_ZNSt11_Tuple_implILm0EJP9functArgsSt14default_deleteIS0_EEE7_M_headERS4_
FNDA:20,_ZNSt11_Tuple_implILm0EJP9functArgsSt14default_deleteIS0_EEE7_M_headERS4_
FN:268,_ZNSt11_Tuple_implILm0EJP4TreeSt14default_deleteIS0_EEE7_M_headERS4_
FNDA:42,_ZNSt11_Tuple_implILm0EJP4TreeSt14default_deleteIS0_EEE7_M_headERS4_
FN:268,_ZNSt11_Tuple_implILm0EJP5GraphSt14default_deleteIS0_EEE7_M_headERS4_
FNDA:28,_ZNSt11_Tuple_implILm0EJP5GraphSt14default_deleteIS0_EEE7_M_headERS4_
FN:268,_ZNSt11_Tuple_implILm0EJPNSt6thread6_StateESt14default_deleteIS1_EEE7_M_headERS5_
FNDA:14,_ZNSt11_Tuple_implILm0EJPNSt6thread6_StateESt14default_deleteIS1_EEE7_M_headERS5_
FN:268,_ZNSt11_Tuple_implILm0EJP11MSTStrategySt14default_deleteIS0_EEE7_M_headERS4_
FNDA:32,_ZNSt11_Tuple_implILm0EJP11MSTStrategySt14default_deleteIS0_EEE7_M_headERS4_
FN:268,_ZNSt11_Tuple_implILm0EJM12ActiveObjectFvvEPS0_EE7_M_headERS4_
FNDA:7,_ZNSt11_Tuple_implILm0EJM12ActiveObjectFvvEPS0_EE7_M_headERS4_
FN:271,_ZNSt11_Tuple_implILm0EJP12ActiveObjectSt14default_deleteIS0_EEE7_M_headERKS4_
FNDA:36,_ZNSt11_Tuple_implILm0EJP12ActiveObjectSt14default_deleteIS0_EEE7_M_headERKS4_
FN:271,_ZNSt11_Tuple_implILm0EJP5GraphSt14default_deleteIS0_EEE7_M_headERKS4_
FNDA:28,_ZNSt11_Tuple_implILm0EJP5GraphSt14default_deleteIS0_EEE7_M_headERKS4_
FN:271,_ZNSt11_Tuple_implILm0EJP4TreeSt14default_deleteIS0_EEE7_M_headERKS4_
FNDA:36,_ZNSt11_Tuple_implILm0EJP4TreeSt14default_deleteIS0_EEE7_M_headERKS4_
FN:271,_ZNSt11_Tuple_implILm0EJP9functArgsSt14default_deleteIS0_EEE7_M_headERKS4_
FNDA:3,_ZNSt11_Tuple_implILm0EJP9functArgsSt14default_deleteIS0_EEE7_M_headERKS4_
FN:279,_ZNSt11_Tuple_implILm0EJPNSt6thread6_StateESt14default_deleteIS1_EEEC2Ev
FNDA:7,_ZNSt11_Tuple_implILm0EJPNSt6thread6_StateESt14default_deleteIS1_EEEC2Ev
FN:279,_ZNSt11_Tuple_implILm0EJP9functArgsSt14default_deleteIS0_EEEC2Ev
FNDA:3,_ZNSt11_Tuple_implILm0EJP9functArgsSt14default_deleteIS0_EEEC2Ev
FN:279,_ZNSt11_Tuple_implILm0EJP5GraphSt14default_deleteIS0_EEEC2Ev
FNDA:3,_ZNSt11_Tuple_implILm0EJP5GraphSt14default_deleteIS0_EEEC2Ev
FN:279,_ZNSt11_Tuple_implILm0EJP12ActiveObjectSt14default_deleteIS0_EEEC2Ev
FNDA:7,_ZNSt11_Tuple_implILm0EJP12ActiveObjectSt14default_deleteIS0_EEEC2Ev
FN:290,_ZNSt11_Tuple_implILm0EJM12ActiveObjectFvvEPS0_EEC2IS2_JS3_EvEEOT_DpOT0_
FNDA:7,_ZNSt11_Tuple_implILm0EJM12ActiveObjectFvvEPS0_EEC2IS2_JS3_EvEEOT_DpOT0_
FN:301,_ZNSt11_Tuple_implILm0EJP12ActiveObjectSt14default_deleteIS0_EEEC2EOS4_
FNDA:14,_ZNSt11_Tuple_implILm0EJP12ActiveObjectSt14default_deleteIS0_EEEC2EOS4_
FN:424,_ZNSt11_Tuple_implILm1EJSt14default_deleteI4TreeEEE7_M_headERS3_
FNDA:12,_ZNSt11_Tuple_implILm1EJSt14default_deleteI4TreeEEE7_M_headERS3_
FN:424,_ZNSt11_Tuple_implILm1EJSt14default_deleteI5GraphEEE7_M_headERS3_
FNDA:9,_ZNSt11_Tuple_implILm1EJSt14default_deleteI5GraphEEE7_M_headERS3_
FN:424,_ZNSt11_Tuple_implILm1EJP12ActiveObjectEE7_M_headERS2_
FNDA:7,_ZNSt11_Tuple_implILm1EJP12ActiveObjectEE7_M_headERS2_
FN:424,_ZNSt11_Tuple_implILm1EJSt14default_deleteINSt6thread6_StateEEEE7_M_headERS4_
FNDA:0,_ZNSt11_Tuple_implILm1EJSt14default_deleteINSt6thread6_StateEEEE7_M_headERS4_
FN:424,_ZNSt11_Tuple_implILm1EJSt14default_deleteI9functArgsEEE7_M_headERS3_
FNDA:9,_ZNSt11_Tuple_implILm1EJSt14default_deleteI9functArgsEEE7_M_headERS3_
FN:424,_ZNSt11_Tuple_implILm1EJSt14default_deleteI11MSTStrategyEEE7_M_headERS3_
FNDA:12,_ZNSt11_Tuple_implILm1EJSt14default_deleteI11MSTStrategyEEE7_M_headERS3_
FN:424,_ZNSt11_Tuple_implILm1EJSt14default_deleteI12ActiveObjectEEE7_M_headERS3_
FNDA:7,_ZNSt11_Tuple_implILm1EJSt14default_deleteI12ActiveObjectEEE7_M_headERS3_
FN:430,_ZNSt11_Tuple_implILm1EJSt14default_deleteI12ActiveObjectEEEC2Ev
FNDA:7,_ZNSt11_Tuple_implILm1EJSt14default_deleteI12ActiveObjectEEEC2Ev
FN:430,_ZNSt11_Tuple_implILm1EJSt14default_deleteI5GraphEEEC2Ev
FNDA:3,_ZNSt11_Tuple_implILm1EJSt14default_deleteI5GraphEEEC2Ev
FN:430,_ZNSt11_Tuple_implILm1EJSt14default_deleteINSt6thread6_StateEEEEC2Ev
FNDA:7,_ZNSt11_Tuple_implILm1EJSt14default_deleteINSt6thread6_StateEEEEC2Ev
FN:430,_ZNSt11_Tuple_implILm1EJSt14default_deleteI9functArgsEEEC2Ev
FNDA:3,_ZNSt11_Tuple_implILm1EJSt14default_deleteI9functArgsEEEC2Ev
FN:440,_ZNSt11_Tuple_implILm1EJP12ActiveObjectEEC2IS1_EEOT_
FNDA:7,_ZNSt11_Tuple_implILm1EJP12ActiveObjectEEC2IS1_EEOT_
FN:454,_ZNSt11_Tuple_implILm1EJSt14default_deleteI12ActiveObjectEEEC2EOS3_
FNDA:14,_ZNSt11_Tuple_implILm1EJSt14default_deleteI12ActiveObjectEEEC2EOS3_
FN:1049,_ZNSt5tupleIJP5GraphSt14default_deleteIS0_EEEC1ILb1ELb1EEEv
FNDA:3,_ZNSt5tupleIJP5GraphSt14default_deleteIS0_EEEC1ILb1ELb1EEEv
FN:1049,_ZNSt5tupleIJP12ActiveObjectSt14default_deleteIS0_EEEC2ILb1ELb1EEEv
FNDA:7,_ZNSt5tupleIJP12ActiveObjectSt14default_deleteIS0_EEEC2ILb1ELb1EEEv
FN:1049,_ZNSt5tupleIJPNSt6thread6_StateESt14default_deleteIS1_EEEC2ILb1ELb1EEEv
FNDA:7,_ZNSt5tupleIJPNSt6thread6_StateESt14default_deleteIS1_EEEC2ILb1ELb1EEEv
FN:1049,_ZNSt5tupleIJP9functArgsSt14default_deleteIS0_EEEC1ILb1ELb1EEEv
FNDA:3,_ZNSt5tupleIJP9functArgsSt14default_deleteIS0_EEEC1ILb1ELb1EEEv
FN:1077,_ZNSt5tupleIJM12ActiveObjectFvvEPS0_EEC2IS2_S3_Lb1EEEOT_OT0_
FNDA:7,_ZNSt5tupleIJM12ActiveObjectFvvEPS0_EEC2IS2_S3_Lb1EEEOT_OT0_
FN:1090,_ZNSt5tupleIJP12ActiveObjectSt14default_deleteIS0_EEEC2EOS4_
FNDA:14,_ZNSt5tupleIJP12ActiveObjectSt14default_deleteIS0_EEEC2EOS4_
FN:1377,_ZSt12__get_helperILm1EP12ActiveObjectJEERT0_RSt11_Tuple_implIXT_EJS2_DpT1_EE
FNDA:7,_ZSt12__get_helperILm1EP12ActiveObjectJEERT0_RSt11_Tuple_implIXT_EJS2_DpT1_EE
FN:1377,_ZSt12__get_helperILm0EM12ActiveObjectFvvEJPS0_EERT0_RSt11_Tuple_implIXT_EJS4_DpT1_EE
FNDA:7,_ZSt12__get_helperILm0EM12ActiveObjectFvvEJPS0_EERT0_RSt11_Tuple_implIXT_EJS4_DpT1_EE
FN:1377,_ZSt12__get_helperILm1ESt14default_deleteINSt6thread6_StateEEJEERT0_RSt11_Tuple_implIXT_EJS4_DpT1_EE
FNDA:0,_ZSt12__get_helperILm1ESt14default_deleteINSt6thread6_StateEEJEERT0_RSt11_Tuple_implIXT_EJS4_DpT1_EE
FN:1377,_ZSt12__get_helperILm0EP5GraphJSt14default_deleteIS0_EEERT0_RSt11_Tuple_implIXT_EJS4_DpT1_EE
FNDA:28,_ZSt12__get_helperILm0EP5GraphJSt14default_deleteIS0_EEERT0_RSt11_Tuple_implIXT_EJS4_DpT1_EE
FN:1377,_ZSt12__get_helperILm1ESt14default_deleteI5GraphEJEERT0_RSt11_Tuple_implIXT_EJS3_DpT1_EE
FNDA:9,_ZSt12__get_helperILm1ESt14default_deleteI5GraphEJEERT0_RSt11_Tuple_implIXT_EJS3_DpT1_EE
FN:1377,_ZSt12__get_helperILm0EP4TreeJSt14default_deleteIS0_EEERT0_RSt11_Tuple_implIXT_EJS4_DpT1_EE
FNDA:42,_ZSt12__get_helperILm0EP4TreeJSt14default_deleteIS0_EEERT0_RSt11_Tuple_implIXT_EJS4_DpT1_EE
FN:1377,_ZSt12__get_helperILm1ESt14default_deleteI4TreeEJEERT0_RSt11_Tuple_implIXT_EJS3_DpT1_EE
FNDA:12,_ZSt12__get_helperILm1ESt14default_deleteI4TreeEJEERT0_RSt11_Tuple_implIXT_EJS3_DpT1_EE
FN:1377,_ZSt12__get_helperILm0EP11MSTStrategyJSt14default_deleteIS0_EEERT0_RSt11_Tuple_implIXT_EJS4_DpT1_EE
FNDA:32,_ZSt12__get_helperILm0EP11MSTStrategyJSt14default_deleteIS0_EEERT0_RSt11_Tuple_implIXT_EJS4_DpT1_EE
FN:1377,_ZSt12__get_helperILm1ESt14default_deleteI12ActiveObjectEJEERT0_RSt11_Tuple_implIXT_EJS3_DpT1_EE
FNDA:7,_ZSt12__get_helperILm1ESt14default_deleteI12ActiveObjectEJEERT0_RSt11_Tuple_implIXT_EJS3_DpT1_EE
FN:1377,_ZSt12__get_helperILm0EPNSt6thread6_StateEJSt14default_deleteIS1_EEERT0_RSt11_Tuple_implIXT_EJS5_DpT1_EE
FNDA:14,_ZSt12__get_helperILm0EPNSt6thread6_StateEJSt14default_deleteIS1_EEERT0_RSt11_Tuple_implIXT_EJS5_DpT1_EE
FN:1377,_ZSt12__get_helperILm1ESt14default_deleteI11MSTStrategyEJEERT0_RSt11_Tuple_implIXT_EJS3_DpT1_EE
FNDA:12,_ZSt12__get_helperILm1ESt14default_deleteI11MSTStrategyEJEERT0_RSt11_Tuple_implIXT_EJS3_DpT1_EE
FN:1377,_ZSt12__get_helperILm1ESt14default_deleteI9functArgsEJEERT0_RSt11_Tuple_implIXT_EJS3_DpT1_EE
FNDA:9,_ZSt12__get_helperILm1ESt14default_deleteI9functArgsEJEERT0_RSt11_Tuple_implIXT_EJS3_DpT1_EE
FN:1377,_ZSt12__get_helperILm0EP12ActiveObjectJSt14default_deleteIS0_EEERT0_RSt11_Tuple_implIXT_EJS4_DpT1_EE
FNDA:56,_ZSt12__get_helperILm0EP12ActiveObjectJSt14default_deleteIS0_EEERT0_RSt11_Tuple_implIXT_EJS4_DpT1_EE
FN:1377,_ZSt12__get_helperILm0EP9functArgsJSt14default_deleteIS0_EEERT0_RSt11_Tuple_implIXT_EJS4_DpT1_EE
FNDA:20,_ZSt12__get_helperILm0EP9functArgsJSt14default_deleteIS0_EEERT0_RSt11_Tuple_implIXT_EJS4_DpT1_EE
FN:1382,_ZSt12__get_helperILm0EP4TreeJSt14default_deleteIS0_EEERKT0_RKSt11_Tuple_implIXT_EJS4_DpT1_EE
FNDA:36,_ZSt12__get_helperILm0EP4TreeJSt14default_deleteIS0_EEERKT0_RKSt11_Tuple_implIXT_EJS4_DpT1_EE
FN:1382,_ZSt12__get_helperILm0EP5GraphJSt14default_deleteIS0_EEERKT0_RKSt11_Tuple_implIXT_EJS4_DpT1_EE
FNDA:28,_ZSt12__get_helperILm0EP5GraphJSt14default_deleteIS0_EEERKT0_RKSt11_Tuple_implIXT_EJS4_DpT1_EE
FN:1382,_ZSt12__get_helperILm0EP12ActiveObjectJSt14default_deleteIS0_EEERKT0_RKSt11_Tuple_implIXT_EJS4_DpT1_EE
FNDA:36,_ZSt12__get_helperILm0EP12ActiveObjectJSt14default_deleteIS0_EEERKT0_RKSt11_Tuple_implIXT_EJS4_DpT1_EE
FN:1382,_ZSt12__get_helperILm0EP9functArgsJSt14default_deleteIS0_EEERKT0_RKSt11_Tuple_implIXT_EJS4_DpT1_EE
FNDA:3,_ZSt12__get_helperILm0EP9functArgsJSt14default_deleteIS0_EEERKT0_RKSt11_Tuple_implIXT_EJS4_DpT1_EE
FN:1393,_ZSt3getILm1EJP12ActiveObjectSt14default_deleteIS0_EEERNSt13tuple_elementIXT_ESt5tupleIJDpT0_EEE4typeERS8_
FNDA:7,_ZSt3getILm1EJP12ActiveObjectSt14default_deleteIS0_EEERNSt13tuple_elementIXT_ESt5tupleIJDpT0_EEE4typeERS8_
FN:1393,_ZSt3getILm1EJPNSt6thread6_StateESt14default_deleteIS1_EEERNSt13tuple_elementIXT_ESt5tupleIJDpT0_EEE4typeERS9_
FNDA:0,_ZSt3getILm1EJPNSt6thread6_StateESt14default_deleteIS1_EEERNSt13tuple_elementIXT_ESt5tupleIJDpT0_EEE4typeERS9_
FN:1393,_ZSt3getILm0EJP5GraphSt14default_deleteIS0_EEERNSt13tuple_elementIXT_ESt5tupleIJDpT0_EEE4typeERS8_
FNDA:28,_ZSt3getILm0EJP5GraphSt14default_deleteIS0_EEERNSt13tuple_elementIXT_ESt5tupleIJDpT0_EEE4typeERS8_
FN:1393,_ZSt3getILm1EJP5GraphSt14default_deleteIS0_EEERNSt13tuple_elementIXT_ESt5tupleIJDpT0_EEE4typeERS8_
FNDA:9,_ZSt3getILm1EJP5GraphSt14default_deleteIS0_EEERNSt13tuple_elementIXT_ESt5tupleIJDpT0_EEE4typeERS8_
FN:1393,_ZSt3getILm0EJP4TreeSt14default_deleteIS0_EEERNSt13tuple_elementIXT_ESt5tupleIJDpT0_EEE4typeERS8_
FNDA:42,_ZSt3getILm0EJP4TreeSt14default_deleteIS0_EEERNSt13tuple_elementIXT_ESt5tupleIJDpT0_EEE4typeERS8_
FN:1393,_ZSt3getILm1EJP4TreeSt14default_deleteIS0_EEERNSt13tuple_elementIXT_ESt5tupleIJDpT0_EEE4typeERS8_
FNDA:12,_ZSt3getILm1EJP4TreeSt14default_deleteIS0_EEERNSt13tuple_elementIXT_ESt5tupleIJDpT0_EEE4typeERS8_
FN:1393,_ZSt3getILm0EJP11MSTStrategySt14default_deleteIS0_EEERNSt13tuple_elementIXT_ESt5tupleIJDpT0_EEE4typeERS8_
FNDA:32,_ZSt3getILm0EJP11MSTStrategySt14default_deleteIS0_EEERNSt13tuple_elementIXT_ESt5tupleIJDpT0_EEE4typeERS8_
FN:1393,_ZSt3getILm0EJP9functArgsSt14default_deleteIS0_EEERNSt13tuple_elementIXT_ESt5tupleIJDpT0_EEE4typeERS8_
FNDA:20,_ZSt3getILm0EJP9functArgsSt14default_deleteIS0_EEERNSt13tuple_elementIXT_ESt5tupleIJDpT0_EEE4typeERS8_
FN:1393,_ZSt3getILm0EJP12ActiveObjectSt14default_deleteIS0_EEERNSt13tuple_elementIXT_ESt5tupleIJDpT0_EEE4typeERS8_
FNDA:56,_ZSt3getILm0EJP12ActiveObjectSt14default_deleteIS0_EEERNSt13tuple_elementIXT_ESt5tupleIJDpT0_EEE4typeERS8_
FN:1393,_ZSt3getILm1EJP9functArgsSt14default_deleteIS0_EEERNSt13tuple_elementIXT_ESt5tupleIJDpT0_EEE4typeERS8_
FNDA:9,_ZSt3getILm1EJP9functArgsSt14default_deleteIS0_EEERNSt13tuple_elementIXT_ESt5tupleIJDpT0_EEE4typeERS8_
FN:1393,_ZSt3getILm1EJP11MSTStrategySt14default_deleteIS0_EEERNSt13tuple_elementIXT_ESt5tupleIJDpT0_EEE4typeERS8_
FNDA:12,_ZSt3getILm1EJP11MSTStrategySt14default_deleteIS0_EEERNSt13tuple_elementIXT_ESt5tupleIJDpT0_EEE4typeERS8_
FN:1393,_ZSt3getILm0EJPNSt6thread6_StateESt14default_deleteIS1_EEERNSt13tuple_elementIXT_ESt5tupleIJDpT0_EEE4typeERS9_
FNDA:14,_ZSt3getILm0EJPNSt6thread6_StateESt14default_deleteIS1_EEERNSt13tuple_elementIXT_ESt5tupleIJDpT0_EEE4typeERS9_
FN:1399,_ZSt3getILm0EJP12ActiveObjectSt14default_deleteIS0_EEERKNSt13tuple_elementIXT_ESt5tupleIJDpT0_EEE4typeERKS8_
FNDA:36,_ZSt3getILm0EJP12ActiveObjectSt14default_deleteIS0_EEERKNSt13tuple_elementIXT_ESt5tupleIJDpT0_EEE4typeERKS8_
FN:1399,_ZSt3getILm0EJP5GraphSt14default_deleteIS0_EEERKNSt13tuple_elementIXT_ESt5tupleIJDpT0_EEE4typeERKS8_
FNDA:28,_ZSt3getILm0EJP5GraphSt14default_deleteIS0_EEERKNSt13tuple_elementIXT_ESt5tupleIJDpT0_EEE4typeERKS8_
FN:1399,_ZSt3getILm0EJP9functArgsSt14default_deleteIS0_EEERKNSt13tuple_elementIXT_ESt5tupleIJDpT0_EEE4typeERKS8_
FNDA:3,_ZSt3getILm0EJP9functArgsSt14default_deleteIS0_EEERKNSt13tuple_elementIXT_ESt5tupleIJDpT0_EEE4typeERKS8_
FN:1399,_ZSt3getILm0EJP4TreeSt14default_deleteIS0_EEERKNSt13tuple_elementIXT_ESt5tupleIJDpT0_EEE4typeERKS8_
FNDA:36,_ZSt3getILm0EJP4TreeSt14default_deleteIS0_EEERKNSt13tuple_elementIXT_ESt5tupleIJDpT0_EEE4typeERKS8_
FN:1405,_ZSt3getILm1EJM12ActiveObjectFvvEPS0_EEONSt13tuple_elementIXT_ESt5tupleIJDpT0_EEE4typeEOS8_
FNDA:7,_ZSt3getILm1EJM12ActiveObjectFvvEPS0_EEONSt13tuple_elementIXT_ESt5tupleIJDpT0_EEE4typeEOS8_
FN:1405,_ZSt3getILm0EJM12ActiveObjectFvvEPS0_EEONSt13tuple_elementIXT_ESt5tupleIJDpT0_EEE4typeEOS8_
FNDA:7,_ZSt3getILm0EJM12ActiveObjectFvvEPS0_EEONSt13tuple_elementIXT_ESt5tupleIJDpT0_EEE4typeEOS8_
DA:80,7
DA:81,7
DA:80,7
DA:81,7
DA:80,3
DA:81,3
DA:80,3
DA:81,3
DA:124,0
DA:124,7
DA:124,12
DA:124,9
DA:124,12
DA:124,9
DA:189,7
DA:190,7
DA:189,7
DA:190,7
DA:189,3
DA:190,3
DA:189,3
DA:190,3
DA:199,7
DA:200,7
DA:199,7
DA:200,7
DA:233,7
DA:233,7
DA:233,14
DA:233,56
DA:233,20
DA:233,32
DA:233,42
DA:233,28
DA:236,36
DA:236,28
DA:236,36
DA:236,3
DA:268,7
DA:268,14
DA:268,56
DA:268,20
DA:268,32
DA:268,42
DA:268,28
DA:271,36
DA:271,28
DA:271,36
DA:271,3
DA:279,7
DA:280,7
DA:279,7
DA:280,7
DA:279,3
DA:280,3
DA:279,3
DA:280,3
DA:290,7
DA:292,7
DA:293,7
DA:301,14
DA:424,7
DA:424,0
DA:424,7
DA:424,12
DA:424,9
DA:424,12
DA:424,9
DA:430,7
DA:431,7
DA:430,7
DA:431,7
DA:430,3
DA:431,3
DA:430,3
DA:431,3
DA:440,7
DA:441,7
DA:442,7
DA:454,14
DA:457,14
DA:1049,7
DA:1051,7
DA:1049,7
DA:1051,7
DA:1049,3
DA:1051,3
DA:1049,3
DA:1051,3
DA:1077,7
DA:1079,7
DA:1090,14
DA:1377,7
DA:1378,7
DA:1377,7
DA:1378,7
DA:1377,0
DA:1378,0
DA:1377,7
DA:1378,7
DA:1377,14
DA:1378,14
DA:1377,12
DA:1378,12
DA:1377,9
DA:1378,9
DA:1377,56
DA:1378,56
DA:1377,20
DA:1378,20
DA:1377,32
DA:1378,32
DA:1377,12
DA:1378,12
DA:1377,42
DA:1378,42
DA:1377,9
DA:1378,9
DA:1377,28
DA:1378,28
DA:1382,36
DA:1383,36
DA:1382,28
DA:1383,28
DA:1382,36
DA:1383,36
DA:1382,3
DA:1383,3
DA:1393,0
DA:1394,0
DA:1393,7
DA:1394,7
DA:1393,14
DA:1394,14
DA:1393,12
DA:1394,12
DA:1393,9
DA:1394,9
DA:1393,56
DA:1394,56
DA:1393,20
DA:1394,20
DA:1393,32
DA:1394,32
DA:1393,12
DA:1394,12
DA:1393,42
DA:1394,42
DA:1393,9
DA:1394,9
DA:1393,28
DA:1394,28
DA:1399,36
DA:1400,36
DA:1399,28
DA:1400,28
DA:1399,36
DA:1400,36
DA:1399,3
DA:1400,3
DA:1405,7
DA:1408,7
DA:1405,7
DA:1408,7
end_of_record
SF:/usr/include/c++/11/bits/stl_deque.h
FN:96,_ZSt16__deque_buf_sizem
FNDA:42,_ZSt16__deque_buf_sizem
FN:131,_ZNSt15_Deque_iteratorISt8functionIFvvEERS2_PS2_E14_S_buffer_sizeEv
FNDA:14,_ZNSt15_Deque_iteratorISt8functionIFvvEERS2_PS2_E14_S_buffer_sizeEv
FN:151,_ZNSt15_Deque_iteratorISt8functionIFvvEERS2_PS2_EC2Ev
FNDA:14,_ZNSt15_Deque_iteratorISt8functionIFvvEERS2_PS2_EC2Ev
FN:168,_ZNSt15_Deque_iteratorISt8functionIFvvEERS2_PS2_EC2ERKS5_
FNDA:100,_ZNSt15_Deque_iteratorISt8functionIFvvEERS2_PS2_EC2ERKS5_
FN:180,_ZNKSt15_Deque_iteratorISt8functionIFvvEERS2_PS2_EdeEv
FNDA:72,_ZNKSt15_Deque_iteratorISt8functionIFvvEERS2_PS2_EdeEv
FN:208,_ZNSt15_Deque_iteratorISt8functionIFvvEERS2_PS2_EmmEv
FNDA:36,_ZNSt15_Deque_iteratorISt8functionIFvvEERS2_PS2_EmmEv
FN:260,_ZNSt15_Deque_iteratorISt8functionIFvvEERS2_PS2_E11_M_set_nodeEPS4_
FNDA:14,_ZNSt15_Deque_iteratorISt8functionIFvvEERS2_PS2_E11_M_set_nodeEPS4_
FN:353,_ZStmiRKSt15_Deque_iteratorISt8functionIFvvEERS2_PS2_ES7_
FNDA:0,_ZStmiRKSt15_Deque_iteratorISt8functionIFvvEERS2_PS2_ES7_
FN:437,_ZNSt11_Deque_baseISt8functionIFvvEESaIS2_EEC2Ev
FNDA:7,_ZNSt11_Deque_baseISt8functionIFvvEESaIS2_EEC2Ev
FN:495,_ZNSt11_Deque_baseISt8functionIFvvEESaIS2_EE16_Deque_impl_dataC2Ev
FNDA:7,_ZNSt11_Deque_baseISt8functionIFvvEESaIS2_EE16_Deque_impl_dataC2Ev
FN:524,_ZNSt11_Deque_baseISt8functionIFvvEESaIS2_EE11_Deque_implC2Ev
FNDA:7,_ZNSt11_Deque_baseISt8functionIFvvEESaIS2_EE11_Deque_implC2Ev
FN:547,_ZNSt11_Deque_baseISt8functionIFvvEESaIS2_EE19_M_get_Tp_allocatorEv
FNDA:50,_ZNSt11_Deque_baseISt8functionIFvvEESaIS2_EE19_M_get_Tp_allocatorEv
FN:551,_ZNKSt11_Deque_baseISt8functionIFvvEESaIS2_EE19_M_get_Tp_allocatorEv
FNDA:14,_ZNKSt11_Deque_baseISt8functionIFvvEESaIS2_EE19_M_get_Tp_allocatorEv
FN:555,_ZNKSt11_Deque_baseISt8functionIFvvEESaIS2_EE20_M_get_map_allocatorEv
FNDA:14,_ZNKSt11_Deque_baseISt8functionIFvvEESaIS2_EE20_M_get_map_allocatorEv
FN:559,_ZNSt11_Deque_baseISt8functionIFvvEESaIS2_EE16_M_allocate_nodeEv
FNDA:7,_ZNSt11_Deque_baseISt8functionIFvvEESaIS2_EE16_M_allocate_nodeEv
FN:566,_ZNSt11_Deque_baseISt8functionIFvvEESaIS2_EE18_M_deallocate_nodeEPS2_
FNDA:7,_ZNSt11_Deque_baseISt8functionIFvvEESaIS2_EE18_M_deallocate_nodeEPS2_
FN:573,_ZNSt11_Deque_baseISt8functionIFvvEESaIS2_EE15_M_allocate_mapEm
FNDA:7,_ZNSt11_Deque_baseISt8functionIFvvEESaIS2_EE15_M_allocate_mapEm
FN:580,_ZNSt11_Deque_baseISt8functionIFvvEESaIS2_EE17_M_deallocate_mapEPPS2_m
FNDA:7,_ZNSt11_Deque_baseISt8functionIFvvEESaIS2_EE17_M_deallocate_mapEPPS2_m
FN:596,_ZNSt11_Deque_baseISt8functionIFvvEESaIS2_EED2Ev
FNDA:7,_ZNSt11_Deque_baseISt8functionIFvvEESaIS2_EED2Ev
FN:617,_ZNSt11_Deque_baseISt8functionIFvvEESaIS2_EE17_M_initialize_mapEm
FNDA:7,_ZNSt11_Deque_baseISt8functionIFvvEESaIS2_EE17_M_initialize_mapEm
FN:656,_ZNSt11_Deque_baseISt8functionIFvvEESaIS2_EE15_M_create_nodesEPPS2_S6_
FNDA:7,_ZNSt11_Deque_baseISt8functionIFvvEESaIS2_EE15_M_create_nodesEPPS2_S6_
FN:674,_ZNSt11_Deque_baseISt8functionIFvvEESaIS2_EE16_M_destroy_nodesEPPS2_S6_
FNDA:7,_ZNSt11_Deque_baseISt8functionIFvvEESaIS2_EE16_M_destroy_nodesEPPS2_S6_
FN:807,_ZNSt5dequeISt8functionIFvvEESaIS2_EE14_S_buffer_sizeEv
FNDA:0,_ZNSt5dequeISt8functionIFvvEESaIS2_EE14_S_buffer_sizeEv
FN:834,_ZNSt5dequeISt8functionIFvvEESaIS2_EEC2Ev
FNDA:7,_ZNSt5dequeISt8functionIFvvEESaIS2_EEC2Ev
FN:1006,_ZNSt5dequeISt8functionIFvvEESaIS2_EED2Ev
FNDA:7,_ZNSt5dequeISt8functionIFvvEESaIS2_EED2Ev
FN:1128,_ZNSt5dequeISt8functionIFvvEESaIS2_EE5beginEv
FNDA:43,_ZNSt5dequeISt8functionIFvvEESaIS2_EE5beginEv
FN:1145,_ZNSt5dequeISt8functionIFvvEESaIS2_EE3endEv
FNDA:43,_ZNSt5dequeISt8functionIFvvEESaIS2_EE3endEv
FN:1233,_ZNKSt5dequeISt8functionIFvvEESaIS2_EE4sizeEv
FNDA:0,_ZNKSt5dequeISt8functionIFvvEESaIS2_EE4sizeEv
FN:1238,_ZNKSt5dequeISt8functionIFvvEESaIS2_EE8max_sizeEv
FNDA:0,_ZNKSt5dequeISt8functionIFvvEESaIS2_EE8max_sizeEv
FN:1427,_ZNSt5dequeISt8functionIFvvEESaIS2_EE4backEv
FNDA:36,_ZNSt5dequeISt8functionIFvvEESaIS2_EE4backEv
FN:1834,_ZNSt5dequeISt8functionIFvvEESaIS2_EE11_S_max_sizeERKS3_
FNDA:0,_ZNSt5dequeISt8functionIFvvEESaIS2_EE11_S_max_sizeERKS3_
FN:2045,_ZNSt5dequeISt8functionIFvvEESaIS2_EE15_M_destroy_dataESt15_Deque_iteratorIS2_RS2_PS2_ES8_RKS3_
FNDA:7,_ZNSt5dequeISt8functionIFvvEESaIS2_EE15_M_destroy_dataESt15_Deque_iteratorIS2_RS2_PS2_ES8_RKS3_
FN:2126,_ZNSt5dequeISt8functionIFvvEESaIS2_EE22_M_reserve_map_at_backEm
FNDA:0,_ZNSt5dequeISt8functionIFvvEESaIS2_EE22_M_reserve_map_at_backEm
DA:96,42
DA:98,42
DA:131,14
DA:132,14
DA:151,14
DA:152,14
DA:168,100
DA:169,100
DA:170,100
DA:180,72
DA:181,72
DA:208,36
DA:210,36
DA:212,0
DA:213,0
DA:215,36
DA:216,36
DA:260,14
DA:262,14
DA:263,14
DA:264,14
DA:265,14
DA:353,0
DA:355,0
DA:356,0
DA:357,0
DA:358,0
DA:437,7
DA:438,7
DA:439,7
DA:495,7
DA:496,7
DA:497,7
DA:524,7
DA:526,7
DA:527,7
DA:547,50
DA:548,50
DA:551,14
DA:552,14
DA:555,14
DA:556,14
DA:559,7
DA:562,7
DA:566,7
DA:569,7
DA:570,7
DA:573,7
DA:575,7
DA:576,14
DA:577,7
DA:580,7
DA:582,7
DA:583,7
DA:584,7
DA:596,7
DA:599,7
DA:601,7
DA:602,7
DA:603,7
DA:605,7
DA:617,7
DA:620,7
DA:623,14
DA:624,7
DA:625,7
DA:632,7
DA:633,7
DA:634,7
DA:637,7
DA:638,0
DA:640,0
DA:641,0
DA:642,0
DA:643,0
DA:646,7
DA:647,7
DA:648,7
DA:649,14
DA:650,7
DA:651,7
DA:652,7
DA:656,7
DA:662,14
DA:663,7
DA:665,0
DA:667,0
DA:668,0
DA:670,7
DA:674,7
DA:678,14
DA:679,7
DA:680,7
DA:807,0
DA:808,0
DA:834,7
DA:1006,7
DA:1007,7
DA:1128,43
DA:1129,43
DA:1145,43
DA:1146,43
DA:1233,0
DA:1234,0
DA:1238,0
DA:1239,0
DA:1427,36
DA:1430,36
DA:1431,36
DA:1432,36
DA:1834,0
DA:1836,0
DA:1837,0
DA:1838,0
DA:2045,7
DA:2049,7
DA:2050,7
DA:2126,0
DA:2128,0
DA:2129,0
DA:2130,0
DA:2131,0
end_of_record
SF:/usr/include/c++/11/bits/cpp_type_traits.h
FN:560,_ZSt12__miter_baseIN9__gnu_cxx17__normal_iteratorIPmSt6vectorImSaImEEEEET_S7_
FNDA:2,_ZSt12__miter_baseIN9__gnu_cxx17__normal_iteratorIPmSt6vectorImSaImEEEEET_S7_
FN:560,_ZSt12__miter_baseIPPSt8functionIFvvEEET_S5_
FNDA:0,_ZSt12__miter_baseIPPSt8functionIFvvEEET_S5_
DA:560,2
DA:561,2
DA:560,0
DA:561,0
end_of_record
SF:/usr/include/c++/11/bits/std_function.h
FN:85,_ZNSt9_Any_data9_M_accessEv
FNDA:74,_ZNSt9_Any_data9_M_accessEv
FN:86,_ZNKSt9_Any_data9_M_accessEv
FNDA:37,_ZNKSt9_Any_data9_M_accessEv
FN:90,_ZNSt9_Any_data9_M_accessIPZ14handleCommandsiRSt6vectorISt10unique_ptrI12ActiveObjectSt14default_deleteIS3_EESaIS6_EERS2_I5GraphS4_ISA_EER10MSTFactoryRS2_I4TreeS4_ISG_EEEUlvE2_EERT_v
FNDA:4,_ZNSt9_Any_data9_M_accessIPZ14handleCommandsiRSt6vectorISt10unique_ptrI12ActiveObjectSt14default_deleteIS3_EESaIS6_EERS2_I5GraphS4_ISA_EER10MSTFactoryRS2_I4TreeS4_ISG_EEEUlvE2_EERT_v
FN:90,_ZNSt9_Any_data9_M_accessIPZ14handleCommandsiRSt6vectorISt10unique_ptrI12ActiveObjectSt14default_deleteIS3_EESaIS6_EERS2_I5GraphS4_ISA_EER10MSTFactoryRS2_I4TreeS4_ISG_EEEUlvE1_EERT_v
FNDA:4,_ZNSt9_Any_data9_M_accessIPZ14handleCommandsiRSt6vectorISt10unique_ptrI12ActiveObjectSt14default_deleteIS3_EESaIS6_EERS2_I5GraphS4_ISA_EER10MSTFactoryRS2_I4TreeS4_ISG_EEEUlvE1_EERT_v
FN:90,_ZNSt9_Any_data9_M_accessIPZ14handleCommandsiRSt6vectorISt10unique_ptrI12ActiveObjectSt14default_deleteIS3_EESaIS6_EERS2_I5GraphS4_ISA_EER10MSTFactoryRS2_I4TreeS4_ISG_EEEUlvE3_EERT_v
FNDA:4,_ZNSt9_Any_data9_M_accessIPZ14handleCommandsiRSt6vectorISt10unique_ptrI12ActiveObjectSt14default_deleteIS3_EESaIS6_EERS2_I5GraphS4_ISA_EER10MSTFactoryRS2_I4TreeS4_ISG_EEEUlvE3_EERT_v
FN:90,_ZNSt9_Any_data9_M_accessIPZ14handleCommandsiRSt6vectorISt10unique_ptrI12ActiveObjectSt14default_deleteIS3_EESaIS6_EERS2_I5GraphS4_ISA_EER10MSTFactoryRS2_I4TreeS4_ISG_EEEUlvE4_EERT_v
FNDA:4,_ZNSt9_Any_data9_M_accessIPZ14handleCommandsiRSt6vectorISt10unique_ptrI12ActiveObjectSt14default_deleteIS3_EESaIS6_EERS2_I5GraphS4_ISA_EER10MSTFactoryRS2_I4TreeS4_ISG_EEEUlvE4_EERT_v
FN:90,_ZNSt9_Any_data9_M_accessIPZ14handleCommandsiRSt6vectorISt10unique_ptrI12ActiveObjectSt14default_deleteIS3_EESaIS6_EERS2_I5GraphS4_ISA_EER10MSTFactoryRS2_I4TreeS4_ISG_EEEUlvE0_EERT_v
FNDA:20,_ZNSt9_Any_data9_M_accessIPZ14handleCommandsiRSt6vectorISt10unique_ptrI12ActiveObjectSt14default_deleteIS3_EESaIS6_EERS2_I5GraphS4_ISA_EER10MSTFactoryRS2_I4TreeS4_ISG_EEEUlvE0_EERT_v
FN:90,_ZNSt9_Any_data9_M_accessIPZ14handleCommandsiRSt6vectorISt10unique_ptrI12ActiveObjectSt14default_deleteIS3_EESaIS6_EERS2_I5GraphS4_ISA_EER10MSTFactoryRS2_I4TreeS4_ISG_EEEUlvE5_EERT_v
FNDA:4,_ZNSt9_Any_data9_M_accessIPZ14handleCommandsiRSt6vectorISt10unique_ptrI12ActiveObjectSt14default_deleteIS3_EESaIS6_EERS2_I5GraphS4_ISA_EER10MSTFactoryRS2_I4TreeS4_ISG_EEEUlvE5_EERT_v
FN:90,_ZNSt9_Any_data9_M_accessIPZ14handleCommandsiRSt6vectorISt10unique_ptrI12ActiveObjectSt14default_deleteIS3_EESaIS6_EERS2_I5GraphS4_ISA_EER10MSTFactoryRS2_I4TreeS4_ISG_EEEUlvE_EERT_v
FNDA:8,_ZNSt9_Any_data9_M_accessIPZ14handleCommandsiRSt6vectorISt10unique_ptrI12ActiveObjectSt14default_deleteIS3_EESaIS6_EERS2_I5GraphS4_ISA_EER10MSTFactoryRS2_I4TreeS4_ISG_EEEUlvE_EERT_v
FN:90,_ZNSt9_Any_data9_M_accessIPZ14handleCommandsiRSt6vectorISt10unique_ptrI12ActiveObjectSt14default_deleteIS3_EESaIS6_EERS2_I5GraphS4_ISA_EER10MSTFactoryRS2_I4TreeS4_ISG_EEEUlvE6_EERT_v
FNDA:10,_ZNSt9_Any_data9_M_accessIPZ14handleCommandsiRSt6vectorISt10unique_ptrI12ActiveObjectSt14default_deleteIS3_EESaIS6_EERS2_I5GraphS4_ISA_EER10MSTFactoryRS2_I4TreeS4_ISG_EEEUlvE6_EERT_v
FN:90,_ZNSt9_Any_data9_M_accessIPZ14handleCommandsiRSt6vectorISt10unique_ptrI12ActiveObjectSt14default_deleteIS3_EESaIS6_EERS2_I5GraphS4_ISA_EER10MSTFactoryRS2_I4TreeS4_ISG_EEEUlvE10_EERT_v
FNDA:4,_ZNSt9_Any_data9_M_accessIPZ14handleCommandsiRSt6vectorISt10unique_ptrI12ActiveObjectSt14default_deleteIS3_EESaIS6_EERS2_I5GraphS4_ISA_EER10MSTFactoryRS2_I4TreeS4_ISG_EEEUlvE10_EERT_v
FN:90,_ZNSt9_Any_data9_M_accessIPZ4mainEUliE_EERT_v
FNDA:2,_ZNSt9_Any_data9_M_accessIPZ4mainEUliE_EERT_v
FN:90,_ZNSt9_Any_data9_M_accessIPZ14handleCommandsiRSt6vectorISt10unique_ptrI12ActiveObjectSt14default_deleteIS3_EESaIS6_EERS2_I5GraphS4_ISA_EER10MSTFactoryRS2_I4TreeS4_ISG_EEEUlvE8_EERT_v
FNDA:6,_ZNSt9_Any_data9_M_accessIPZ14handleCommandsiRSt6vectorISt10unique_ptrI12ActiveObjectSt14default_deleteIS3_EESaIS6_EERS2_I5GraphS4_ISA_EER10MSTFactoryRS2_I4TreeS4_ISG_EEEUlvE8_EERT_v
FN:90,_ZNSt9_Any_data9_M_accessIPZ14handleCommandsiRSt6vectorISt10unique_ptrI12ActiveObjectSt14default_deleteIS3_EESaIS6_EERS2_I5GraphS4_ISA_EER10MSTFactoryRS2_I4TreeS4_ISG_EEEUlvE9_EERT_v
FNDA:4,_ZNSt9_Any_data9_M_accessIPZ14handleCommandsiRSt6vectorISt10unique_ptrI12ActiveObjectSt14default_deleteIS3_EESaIS6_EERS2_I5GraphS4_ISA_EER10MSTFactoryRS2_I4TreeS4_ISG_EEEUlvE9_EERT_v
FN:90,_ZNSt9_Any_data9_M_accessIPKSt9type_infoEERT_v
FNDA:0,_ZNSt9_Any_data9_M_accessIPKSt9type_infoEERT_v
FN:95,_ZNKSt9_Any_data9_M_accessIPZ14handleCommandsiRSt6vectorISt10unique_ptrI12ActiveObjectSt14default_deleteIS3_EESaIS6_EERS2_I5GraphS4_ISA_EER10MSTFactoryRS2_I4TreeS4_ISG_EEEUlvE0_EERKT_v
FNDA:10,_ZNKSt9_Any_data9_M_accessIPZ14handleCommandsiRSt6vectorISt10unique_ptrI12ActiveObjectSt14default_deleteIS3_EESaIS6_EERS2_I5GraphS4_ISA_EER10MSTFactoryRS2_I4TreeS4_ISG_EEEUlvE0_EERKT_v
FN:95,_ZNKSt9_Any_data9_M_accessIPZ14handleCommandsiRSt6vectorISt10unique_ptrI12ActiveObjectSt14default_deleteIS3_EESaIS6_EERS2_I5GraphS4_ISA_EER10MSTFactoryRS2_I4TreeS4_ISG_EEEUlvE_EERKT_v
FNDA:4,_ZNKSt9_Any_data9_M_accessIPZ14handleCommandsiRSt6vectorISt10unique_ptrI12ActiveObjectSt14default_deleteIS3_EESaIS6_EERS2_I5GraphS4_ISA_EER10MSTFactoryRS2_I4TreeS4_ISG_EEEUlvE_EERKT_v
FN:95,_ZNKSt9_Any_data9_M_accessIPZ14handleCommandsiRSt6vectorISt10unique_ptrI12ActiveObjectSt14default_deleteIS3_EESaIS6_EERS2_I5GraphS4_ISA_EER10MSTFactoryRS2_I4TreeS4_ISG_EEEUlvE1_EERKT_v
FNDA:2,_ZNKSt9_Any_data9_M_accessIPZ14handleCommandsiRSt6vectorISt10unique_ptrI12ActiveObjectSt14default_deleteIS3_EESaIS6_EERS2_I5GraphS4_ISA_EER10MSTFactoryRS2_I4TreeS4_ISG_EEEUlvE1_EERKT_v
FN:95,_ZNKSt9_Any_data9_M_accessIPZ14handleCommandsiRSt6vectorISt10unique_ptrI12ActiveObjectSt14default_deleteIS3_EESaIS6_EERS2_I5GraphS4_ISA_EER10MSTFactoryRS2_I4TreeS4_ISG_EEEUlvE2_EERKT_v
FNDA:2,_ZNKSt9_Any_data9_M_accessIPZ14handleCommandsiRSt6vectorISt10unique_ptrI12ActiveObjectSt14default_deleteIS3_EESaIS6_EERS2_I5GraphS4_ISA_EER10MSTFactoryRS2_I4TreeS4_ISG_EEEUlvE2_EERKT_v
FN:95,_ZNKSt9_Any_data9_M_accessIPZ14handleCommandsiRSt6vectorISt10unique_ptrI12ActiveObjectSt14default_deleteIS3_EESaIS6_EERS2_I5GraphS4_ISA_EER10MSTFactoryRS2_I4TreeS4_ISG_EEEUlvE3_EERKT_v
FNDA:2,_ZNKSt9_Any_data9_M_accessIPZ14handleCommandsiRSt6vectorISt10unique_ptrI12ActiveObjectSt14default_deleteIS3_EESaIS6_EERS2_I5GraphS4_ISA_EER10MSTFactoryRS2_I4TreeS4_ISG_EEEUlvE3_EERKT_v
FN:95,_ZNKSt9_Any_data9_M_accessIPZ14handleCommandsiRSt6vectorISt10unique_ptrI12ActiveObjectSt14default_deleteIS3_EESaIS6_EERS2_I5GraphS4_ISA_EER10MSTFactoryRS2_I4TreeS4_ISG_EEEUlvE4_EERKT_v
FNDA:2,_ZNKSt9_Any_data9_M_accessIPZ14handleCommandsiRSt6vectorISt10unique_ptrI12ActiveObjectSt14default_deleteIS3_EESaIS6_EERS2_I5GraphS4_ISA_EER10MSTFactoryRS2_I4TreeS4_ISG_EEEUlvE4_EERKT_v
FN:95,_ZNKSt9_Any_data9_M_accessIPZ14handleCommandsiRSt6vectorISt10unique_ptrI12ActiveObjectSt14default_deleteIS3_EESaIS6_EERS2_I5GraphS4_ISA_EER10MSTFactoryRS2_I4TreeS4_ISG_EEEUlvE5_EERKT_v
FNDA:2,_ZNKSt9_Any_data9_M_accessIPZ14handleCommandsiRSt6vectorISt10unique_ptrI12ActiveObjectSt14default_deleteIS3_EESaIS6_EERS2_I5GraphS4_ISA_EER10MSTFactoryRS2_I4TreeS4_ISG_EEEUlvE5_EERKT_v
FN:95,_ZNKSt9_Any_data9_M_accessIPZ4mainEUliE_EERKT_v
FNDA:1,_ZNKSt9_Any_data9_M_accessIPZ4mainEUliE_EERKT_v
FN:95,_ZNKSt9_Any_data9_M_accessIPZ14handleCommandsiRSt6vectorISt10unique_ptrI12ActiveObjectSt14default_deleteIS3_EESaIS6_EERS2_I5GraphS4_ISA_EER10MSTFactoryRS2_I4TreeS4_ISG_EEEUlvE8_EERKT_v
FNDA:3,_ZNKSt9_Any_data9_M_accessIPZ14handleCommandsiRSt6vectorISt10unique_ptrI12ActiveObjectSt14default_deleteIS3_EESaIS6_EERS2_I5GraphS4_ISA_EER10MSTFactoryRS2_I4TreeS4_ISG_EEEUlvE8_EERKT_v
FN:95,_ZNKSt9_Any_data9_M_accessIPZ14handleCommandsiRSt6vectorISt10unique_ptrI12ActiveObjectSt14default_deleteIS3_EESaIS6_EERS2_I5GraphS4_ISA_EER10MSTFactoryRS2_I4TreeS4_ISG_EEEUlvE10_EERKT_v
FNDA:2,_ZNKSt9_Any_data9_M_accessIPZ14handleCommandsiRSt6vectorISt10unique_ptrI12ActiveObjectSt14default_deleteIS3_EESaIS6_EERS2_I5GraphS4_ISA_EER10MSTFactoryRS2_I4TreeS4_ISG_EEEUlvE10_EERKT_v
FN:95,_ZNKSt9_Any_data9_M_accessIPZ14handleCommandsiRSt6vectorISt10unique_ptrI12ActiveObjectSt14default_deleteIS3_EESaIS6_EERS2_I5GraphS4_ISA_EER10MSTFactoryRS2_I4TreeS4_ISG_EEEUlvE6_EERKT_v
FNDA:5,_ZNKSt9_Any_data9_M_accessIPZ14handleCommandsiRSt6vectorISt10unique_ptrI12ActiveObjectSt14default_deleteIS3_EESaIS6_EERS2_I5GraphS4_ISA_EER10MSTFactoryRS2_I4TreeS4_ISG_EEEUlvE6_EERKT_v
FN:95,_ZNKSt9_Any_data9_M_accessIPZ14handleCommandsiRSt6vectorISt10unique_ptrI12ActiveObjectSt14default_deleteIS3_EESaIS6_EERS2_I5GraphS4_ISA_EER10MSTFactoryRS2_I4TreeS4_ISG_EEEUlvE9_EERKT_v
FNDA:2,_ZNKSt9_Any_data9_M_accessIPZ14handleCommandsiRSt6vectorISt10unique_ptrI12ActiveObjectSt14default_deleteIS3_EESaIS6_EERS2_I5GraphS4_ISA_EER10MSTFactoryRS2_I4TreeS4_ISG_EEEUlvE9_EERKT_v
FN:134,_ZNSt14_Function_base13_Base_managerIZ14handleCommandsiRSt6vectorISt10unique_ptrI12ActiveObjectSt14default_deleteIS3_EESaIS6_EERS2_I5GraphS4_ISA_EER10MSTFactoryRS2_I4TreeS4_ISG_EEEUlvE5_E14_M_get_pointerERKSt9_Any_data
FNDA:2,_ZNSt14_Function_base13_Base_managerIZ14handleCommandsiRSt6vectorISt10unique_ptrI12ActiveObjectSt14default_deleteIS3_EESaIS6_EERS2_I5GraphS4_ISA_EER10MSTFactoryRS2_I4TreeS4_ISG_EEEUlvE5_E14_M_get_pointerERKSt9_Any_data
FN:134,_ZNSt14_Function_base13_Base_managerIZ14handleCommandsiRSt6vectorISt10unique_ptrI12ActiveObjectSt14default_deleteIS3_EESaIS6_EERS2_I5GraphS4_ISA_EER10MSTFactoryRS2_I4TreeS4_ISG_EEEUlvE9_E14_M_get_pointerERKSt9_Any_data
FNDA:2,_ZNSt14_Function_base13_Base_managerIZ14handleCommandsiRSt6vectorISt10unique_ptrI12ActiveObjectSt14default_deleteIS3_EESaIS6_EERS2_I5GraphS4_ISA_EER10MSTFactoryRS2_I4TreeS4_ISG_EEEUlvE9_E14_M_get_pointerERKSt9_Any_data
FN:134,_ZNSt14_Function_base13_Base_managerIZ4mainEUliE_E14_M_get_pointerERKSt9_Any_data
FNDA:1,_ZNSt14_Function_base13_Base_managerIZ4mainEUliE_E14_M_get_pointerERKSt9_Any_data
FN:134,_ZNSt14_Function_base13_Base_managerIZ14handleCommandsiRSt6vectorISt10unique_ptrI12ActiveObjectSt14default_deleteIS3_EESaIS6_EERS2_I5GraphS4_ISA_EER10MSTFactoryRS2_I4TreeS4_ISG_EEEUlvE8_E14_M_get_pointerERKSt9_Any_data
FNDA:3,_ZNSt14_Function_base13_Base_managerIZ14handleCommandsiRSt6vectorISt10unique_ptrI12ActiveObjectSt14default_deleteIS3_EESaIS6_EERS2_I5GraphS4_ISA_EER10MSTFactoryRS2_I4TreeS4_ISG_EEEUlvE8_E14_M_get_pointerERKSt9_Any_data
FN:134,_ZNSt14_Function_base13_Base_managerIZ14handleCommandsiRSt6vectorISt10unique_ptrI12ActiveObjectSt14default_deleteIS3_EESaIS6_EERS2_I5GraphS4_ISA_EER10MSTFactoryRS2_I4TreeS4_ISG_EEEUlvE10_E14_M_get_pointerERKSt9_Any_data
FNDA:2,_ZNSt14_Function_base13_Base_managerIZ14handleCommandsiRSt6vectorISt10unique_ptrI12ActiveObjectSt14default_deleteIS3_EESaIS6_EERS2_I5GraphS4_ISA_EER10MSTFactoryRS2_I4TreeS4_ISG_EEEUlvE10_E14_M_get_pointerERKSt9_Any_data
FN:134,_ZNSt14_Function_base13_Base_managerIZ14handleCommandsiRSt6vectorISt10unique_ptrI12ActiveObjectSt14default_deleteIS3_EESaIS6_EERS2_I5GraphS4_ISA_EER10MSTFactoryRS2_I4TreeS4_ISG_EEEUlvE6_E14_M_get_pointerERKSt9_Any_data
FNDA:5,_ZNSt14_Function_base13_Base_managerIZ14handleCommandsiRSt6vectorISt10unique_ptrI12ActiveObjectSt14default_deleteIS3_EESaIS6_EERS2_I5GraphS4_ISA_EER10MSTFactoryRS2_I4TreeS4_ISG_EEEUlvE6_E14_M_get_pointerERKSt9_Any_data
FN:134,_ZNSt14_Function_base13_Base_managerIZ14handleCommandsiRSt6vectorISt10unique_ptrI12ActiveObjectSt14default_deleteIS3_EESaIS6_EERS2_I5GraphS4_ISA_EER10MSTFactoryRS2_I4TreeS4_ISG_EEEUlvE_E14_M_get_pointerERKSt9_Any_data
FNDA:4,_ZNSt14_Function_base13_Base_managerIZ14handleCommandsiRSt6vectorISt10unique_ptrI12ActiveObjectSt14default_deleteIS3_EESaIS6_EERS2_I5GraphS4_ISA_EER10MSTFactoryRS2_I4TreeS4_ISG_EEEUlvE_E14_M_get_pointerERKSt9_Any_data
FN:134,_ZNSt14_Function_base13_Base_managerIZ14handleCommandsiRSt6vectorISt10unique_ptrI12ActiveObjectSt14default_deleteIS3_EESaIS6_EERS2_I5GraphS4_ISA_EER10MSTFactoryRS2_I4TreeS4_ISG_EEEUlvE2_E14_M_get_pointerERKSt9_Any_data
FNDA:2,_ZNSt14_Function_base13_Base_managerIZ14handleCommandsiRSt6vectorISt10unique_ptrI12ActiveObjectSt14default_deleteIS3_EESaIS6_EERS2_I5GraphS4_ISA_EER10MSTFactoryRS2_I4TreeS4_ISG_EEEUlvE2_E14_M_get_pointerERKSt9_Any_data
FN:134,_ZNSt14_Function_base13_Base_managerIZ14handleCommandsiRSt6vectorISt10unique_ptrI12ActiveObjectSt14default_deleteIS3_EESaIS6_EERS2_I5GraphS4_ISA_EER10MSTFactoryRS2_I4TreeS4_ISG_EEEUlvE4_E14_M_get_pointerERKSt9_Any_data
FNDA:2,_ZNSt14_Function_base13_Base_managerIZ14handleCommandsiRSt6vectorISt10unique_ptrI12ActiveObjectSt14default_deleteIS3_EESaIS6_EERS2_I5GraphS4_ISA_EER10MSTFactoryRS2_I4TreeS4_ISG_EEEUlvE4_E14_M_get_pointerERKSt9_Any_data
FN:134,_ZNSt14_Function_base13_Base_managerIZ14handleCommandsiRSt6vectorISt10unique_ptrI12ActiveObjectSt14default_deleteIS3_EESaIS6_EERS2_I5GraphS4_ISA_EER10MSTFactoryRS2_I4TreeS4_ISG_EEEUlvE1_E14_M_get_pointerERKSt9_Any_data
FNDA:2,_ZNSt14_Function_base13_Base_managerIZ14handleCommandsiRSt6vectorISt10unique_ptrI12ActiveObjectSt14default_deleteIS3_EESaIS6_EERS2_I5GraphS4_ISA_EER10MSTFactoryRS2_I4TreeS4_ISG_EEEUlvE1_E14_M_get_pointerERKSt9_Any_data
FN:134,_ZNSt14_Function_base13_Base_managerIZ14handleCommandsiRSt6vectorISt10unique_ptrI12ActiveObjectSt14default_deleteIS3_EESaIS6_EERS2_I5GraphS4_ISA_EER10MSTFactoryRS2_I4TreeS4_ISG_EEEUlvE0_E14_M_get_pointerERKSt9_Any_data
FNDA:10,_ZNSt14_Function_base13_Base_managerIZ14handleCommandsiRSt6vectorISt10unique_ptrI12ActiveObjectSt14default_deleteIS3_EESaIS6_EERS2_I5GraphS4_ISA_EER10MSTFactoryRS2_I4TreeS4_ISG_EEEUlvE0_E14_M_get_pointerERKSt9_Any_data
FN:134,_ZNSt14_Function_base13_Base_managerIZ14handleCommandsiRSt6vectorISt10unique_ptrI12ActiveObjectSt14default_deleteIS3_EESaIS6_EERS2_I5GraphS4_ISA_EER10MSTFactoryRS2_I4TreeS4_ISG_EEEUlvE3_E14_M_get_pointerERKSt9_Any_data
FNDA:2,_ZNSt14_Function_base13_Base_managerIZ14handleCommandsiRSt6vectorISt10unique_ptrI12ActiveObjectSt14default_deleteIS3_EESaIS6_EERS2_I5GraphS4_ISA_EER10MSTFactoryRS2_I4TreeS4_ISG_EEEUlvE3_E14_M_get_pointerERKSt9_Any_data
FN:158,_ZNSt14_Function_base13_Base_managerIZ14handleCommandsiRSt6vectorISt10unique_ptrI12ActiveObjectSt14default_deleteIS3_EESaIS6_EERS2_I5GraphS4_ISA_EER10MSTFactoryRS2_I4TreeS4_ISG_EEEUlvE_E9_M_createIRSK_EEvRSt9_Any_dataOT_St17integral_constantIbLb0EE
FNDA:4,_ZNSt14_Function_base13_Base_managerIZ14handleCommandsiRSt6vectorISt10unique_ptrI12ActiveObjectSt14default_deleteIS3_EESaIS6_EERS2_I5GraphS4_ISA_EER10MSTFactoryRS2_I4TreeS4_ISG_EEEUlvE_E9_M_createIRSK_EEvRSt9_Any_dataOT_St17integral_constantIbLb0EE
FN:158,_ZNSt14_Function_base13_Base_managerIZ4mainEUliE_E9_M_createIS1_EEvRSt9_Any_dataOT_St17integral_constantIbLb0EE
FNDA:1,_ZNSt14_Function_base13_Base_managerIZ4mainEUliE_E9_M_createIS1_EEvRSt9_Any_dataOT_St17integral_constantIbLb0EE
FN:158,_ZNSt14_Function_base13_Base_managerIZ14handleCommandsiRSt6vectorISt10unique_ptrI12ActiveObjectSt14default_deleteIS3_EESaIS6_EERS2_I5GraphS4_ISA_EER10MSTFactoryRS2_I4TreeS4_ISG_EEEUlvE2_E9_M_createIRSK_EEvRSt9_Any_dataOT_St17integral_constantIbLb0EE
FNDA:2,_ZNSt14_Function_base13_Base_managerIZ14handleCommandsiRSt6vectorISt10unique_ptrI12ActiveObjectSt14default_deleteIS3_EESaIS6_EERS2_I5GraphS4_ISA_EER10MSTFactoryRS2_I4TreeS4_ISG_EEEUlvE2_E9_M_createIRSK_EEvRSt9_Any_dataOT_St17integral_constantIbLb0EE
FN:158,_ZNSt14_Function_base13_Base_managerIZ14handleCommandsiRSt6vectorISt10unique_ptrI12ActiveObjectSt14default_deleteIS3_EESaIS6_EERS2_I5GraphS4_ISA_EER10MSTFactoryRS2_I4TreeS4_ISG_EEEUlvE0_E9_M_createIRSK_EEvRSt9_Any_dataOT_St17integral_constantIbLb0EE
FNDA:10,_ZNSt14_Function_base13_Base_managerIZ14handleCommandsiRSt6vectorISt10unique_ptrI12ActiveObjectSt14default_deleteIS3_EESaIS6_EERS2_I5GraphS4_ISA_EER10MSTFactoryRS2_I4TreeS4_ISG_EEEUlvE0_E9_M_createIRSK_EEvRSt9_Any_dataOT_St17integral_constantIbLb0EE
FN:158,_ZNSt14_Function_base13_Base_managerIZ14handleCommandsiRSt6vectorISt10unique_ptrI12ActiveObjectSt14default_deleteIS3_EESaIS6_EERS2_I5GraphS4_ISA_EER10MSTFactoryRS2_I4TreeS4_ISG_EEEUlvE3_E9_M_createIRSK_EEvRSt9_Any_dataOT_St17integral_constantIbLb0EE
FNDA:2,_ZNSt14_Function_base13_Base_managerIZ14handleCommandsiRSt6vectorISt10unique_ptrI12ActiveObjectSt14default_deleteIS3_EESaIS6_EERS2_I5GraphS4_ISA_EER10MSTFactoryRS2_I4TreeS4_ISG_EEEUlvE3_E9_M_createIRSK_EEvRSt9_Any_dataOT_St17integral_constantIbLb0EE
FN:158,_ZNSt14_Function_base13_Base_managerIZ14handleCommandsiRSt6vectorISt10unique_ptrI12ActiveObjectSt14default_deleteIS3_EESaIS6_EERS2_I5GraphS4_ISA_EER10MSTFactoryRS2_I4TreeS4_ISG_EEEUlvE8_E9_M_createIRSK_EEvRSt9_Any_dataOT_St17integral_constantIbLb0EE
FNDA:3,_ZNSt14_Function_base13_Base_managerIZ14handleCommandsiRSt6vectorISt10unique_ptrI12ActiveObjectSt14default_deleteIS3_EESaIS6_EERS2_I5GraphS4_ISA_EER10MSTFactoryRS2_I4TreeS4_ISG_EEEUlvE8_E9_M_createIRSK_EEvRSt9_Any_dataOT_St17integral_constantIbLb0EE
FN:158,_ZNSt14_Function_base13_Base_managerIZ4mainEUliE_E9_M_createIRKS1_EEvRSt9_Any_dataOT_St17integral_constantIbLb0EE
FNDA:0,_ZNSt14_Function_base13_Base_managerIZ4mainEUliE_E9_M_createIRKS1_EEvRSt9_Any_dataOT_St17integral_constantIbLb0EE
FN:158,_ZNSt14_Function_base13_Base_managerIZ14handleCommandsiRSt6vectorISt10unique_ptrI12ActiveObjectSt14default_deleteIS3_EESaIS6_EERS2_I5GraphS4_ISA_EER10MSTFactoryRS2_I4TreeS4_ISG_EEEUlvE4_E9_M_createIRSK_EEvRSt9_Any_dataOT_St17integral_constantIbLb0EE
FNDA:2,_ZNSt14_Function_base13_Base_managerIZ14handleCommandsiRSt6vectorISt10unique_ptrI12ActiveObjectSt14default_deleteIS3_EESaIS6_EERS2_I5GraphS4_ISA_EER10MSTFactoryRS2_I4TreeS4_ISG_EEEUlvE4_E9_M_createIRSK_EEvRSt9_Any_dataOT_St17integral_constantIbLb0EE
FN:158,_ZNSt14_Function_base13_Base_managerIZ14handleCommandsiRSt6vectorISt10unique_ptrI12ActiveObjectSt14default_deleteIS3_EESaIS6_EERS2_I5GraphS4_ISA_EER10MSTFactoryRS2_I4TreeS4_ISG_EEEUlvE6_E9_M_createIRSK_EEvRSt9_Any_dataOT_St17integral_constantIbLb0EE
FNDA:5,_ZNSt14_Function_base13_Base_managerIZ14handleCommandsiRSt6vectorISt10unique_ptrI12ActiveObjectSt14default_deleteIS3_EESaIS6_EERS2_I5GraphS4_ISA_EER10MSTFactoryRS2_I4TreeS4_ISG_EEEUlvE6_E9_M_createIRSK_EEvRSt9_Any_dataOT_St17integral_constantIbLb0EE
FN:158,_ZNSt14_Function_base13_Base_managerIZ14handleCommandsiRSt6vectorISt10unique_ptrI12ActiveObjectSt14default_deleteIS3_EESaIS6_EERS2_I5GraphS4_ISA_EER10MSTFactoryRS2_I4TreeS4_ISG_EEEUlvE10_E9_M_createIRKSK_EEvRSt9_Any_dataOT_St17integral_constantIbLb0EE
FNDA:0,_ZNSt14_Function_base13_Base_managerIZ14handleCommandsiRSt6vectorISt10unique_ptrI12ActiveObjectSt14default_deleteIS3_EESaIS6_EERS2_I5GraphS4_ISA_EER10MSTFactoryRS2_I4TreeS4_ISG_EEEUlvE10_E9_M_createIRKSK_EEvRSt9_Any_dataOT_St17integral_constantIbLb0EE
FN:158,_ZNSt14_Function_base13_Base_managerIZ14handleCommandsiRSt6vectorISt10unique_ptrI12ActiveObjectSt14default_deleteIS3_EESaIS6_EERS2_I5GraphS4_ISA_EER10MSTFactoryRS2_I4TreeS4_ISG_EEEUlvE1_E9_M_createIRSK_EEvRSt9_Any_dataOT_St17integral_constantIbLb0EE
FNDA:2,_ZNSt14_Function_base13_Base_managerIZ14handleCommandsiRSt6vectorISt10unique_ptrI12ActiveObjectSt14default_deleteIS3_EESaIS6_EERS2_I5GraphS4_ISA_EER10MSTFactoryRS2_I4TreeS4_ISG_EEEUlvE1_E9_M_createIRSK_EEvRSt9_Any_dataOT_St17integral_constantIbLb0EE
FN:158,_ZNSt14_Function_base13_Base_managerIZ14handleCommandsiRSt6vectorISt10unique_ptrI12ActiveObjectSt14default_deleteIS3_EESaIS6_EERS2_I5GraphS4_ISA_EER10MSTFactoryRS2_I4TreeS4_ISG_EEEUlvE5_E9_M_createIRSK_EEvRSt9_Any_dataOT_St17integral_constantIbLb0EE
FNDA:2,_ZNSt14_Function_base13_Base_managerIZ14handleCommandsiRSt6vectorISt10unique_ptrI12ActiveObjectSt14default_deleteIS3_EESaIS6_EERS2_I5GraphS4_ISA_EER10MSTFactoryRS2_I4TreeS4_ISG_EEEUlvE5_E9_M_createIRSK_EEvRSt9_Any_dataOT_St17integral_constantIbLb0EE
FN:158,_ZNSt14_Function_base13_Base_managerIZ14handleCommandsiRSt6vectorISt10unique_ptrI12ActiveObjectSt14default_deleteIS3_EESaIS6_EERS2_I5GraphS4_ISA_EER10MSTFactoryRS2_I4TreeS4_ISG_EEEUlvE3_E9_M_createIRKSK_EEvRSt9_Any_dataOT_St17integral_constantIbLb0EE
FNDA:0,_ZNSt14_Function_base13_Base_managerIZ14handleCommandsiRSt6vectorISt10unique_ptrI12ActiveObjectSt14default_deleteIS3_EESaIS6_EERS2_I5GraphS4_ISA_EER10MSTFactoryRS2_I4TreeS4_ISG_EEEUlvE3_E9_M_createIRKSK_EEvRSt9_Any_dataOT_St17integral_constantIbLb0EE
FN:158,_ZNSt14_Function_base13_Base_managerIZ14handleCommandsiRSt6vectorISt10unique_ptrI12ActiveObjectSt14default_deleteIS3_EESaIS6_EERS2_I5GraphS4_ISA_EER10MSTFactoryRS2_I4TreeS4_ISG_EEEUlvE0_E9_M_createIRKSK_EEvRSt9_Any_dataOT_St17integral_constantIbLb0EE
FNDA:0,_ZNSt14_Function_base13_Base_managerIZ14handleCommandsiRSt6vectorISt10unique_ptrI12ActiveObjectSt14default_deleteIS3_EESaIS6_EERS2_I5GraphS4_ISA_EER10MSTFactoryRS2_I4TreeS4_ISG_EEEUlvE0_E9_M_createIRKSK_EEvRSt9_Any_dataOT_St17integral_constantIbLb0EE
FN:158,_ZNSt14_Function_base13_Base_managerIZ14handleCommandsiRSt6vectorISt10unique_ptrI12ActiveObjectSt14default_deleteIS3_EESaIS6_EERS2_I5GraphS4_ISA_EER10MSTFactoryRS2_I4TreeS4_ISG_EEEUlvE1_E9_M_createIRKSK_EEvRSt9_Any_dataOT_St17integral_constantIbLb0EE
FNDA:0,_ZNSt14_Function_base13_Base_managerIZ14handleCommandsiRSt6vectorISt10unique_ptrI12ActiveObjectSt14default_deleteIS3_EESaIS6_EERS2_I5GraphS4_ISA_EER10MSTFactoryRS2_I4TreeS4_ISG_EEEUlvE1_E9_M_createIRKSK_EEvRSt9_Any_dataOT_St17integral_constantIbLb0EE
FN:158,_ZNSt14_Function_base13_Base_managerIZ14handleCommandsiRSt6vectorISt10unique_ptrI12ActiveObjectSt14default_deleteIS3_EESaIS6_EERS2_I5GraphS4_ISA_EER10MSTFactoryRS2_I4TreeS4_ISG_EEEUlvE_E9_M_createIRKSK_EEvRSt9_Any_dataOT_St17integral_constantIbLb0EE
FNDA:0,_ZNSt14_Function_base13_Base_managerIZ14handleCommandsiRSt6vectorISt10unique_ptrI12ActiveObjectSt14default_deleteIS3_EESaIS6_EERS2_I5GraphS4_ISA_EER10MSTFactoryRS2_I4TreeS4_ISG_EEEUlvE_E9_M_createIRKSK_EEvRSt9_Any_dataOT_St17integral_constantIbLb0EE
FN:158,_ZNSt14_Function_base13_Base_managerIZ14handleCommandsiRSt6vectorISt10unique_ptrI12ActiveObjectSt14default_deleteIS3_EESaIS6_EERS2_I5GraphS4_ISA_EER10MSTFactoryRS2_I4TreeS4_ISG_EEEUlvE2_E9_M_createIRKSK_EEvRSt9_Any_dataOT_St17integral_constantIbLb0EE
FNDA:0,_ZNSt14_Function_base13_Base_managerIZ14handleCommandsiRSt6vectorISt10unique_ptrI12ActiveObjectSt14default_deleteIS3_EESaIS6_EERS2_I5GraphS4_ISA_EER10MSTFactoryRS2_I4TreeS4_ISG_EEEUlvE2_E9_M_createIRKSK_EEvRSt9_Any_dataOT_St17integral_constantIbLb0EE
FN:158,_ZNSt14_Function_base13_Base_managerIZ14handleCommandsiRSt6vectorISt10unique_ptrI12ActiveObjectSt14default_deleteIS3_EESaIS6_EERS2_I5GraphS4_ISA_EER10MSTFactoryRS2_I4TreeS4_ISG_EEEUlvE4_E9_M_createIRKSK_EEvRSt9_Any_dataOT_St17integral_constantIbLb0EE
FNDA:0,_ZNSt14_Function_base13_Base_managerIZ14handleCommandsiRSt6vectorISt10unique_ptrI12ActiveObjectSt14default_deleteIS3_EESaIS6_EERS2_I5GraphS4_ISA_EER10MSTFactoryRS2_I4TreeS4_ISG_EEEUlvE4_E9_M_createIRKSK_EEvRSt9_Any_dataOT_St17integral_constantIbLb0EE
FN:158,_ZNSt14_Function_base13_Base_managerIZ14handleCommandsiRSt6vectorISt10unique_ptrI12ActiveObjectSt14default_deleteIS3_EESaIS6_EERS2_I5GraphS4_ISA_EER10MSTFactoryRS2_I4TreeS4_ISG_EEEUlvE5_E9_M_createIRKSK_EEvRSt9_Any_dataOT_St17integral_constantIbLb0EE
FNDA:0,_ZNSt14_Function_base13_Base_managerIZ14handleCommandsiRSt6vectorISt10unique_ptrI12ActiveObjectSt14default_deleteIS3_EESaIS6_EERS2_I5GraphS4_ISA_EER10MSTFactoryRS2_I4TreeS4_ISG_EEEUlvE5_E9_M_createIRKSK_EEvRSt9_Any_dataOT_St17integral_constantIbLb0EE
FN:158,_ZNSt14_Function_base13_Base_managerIZ14handleCommandsiRSt6vectorISt10unique_ptrI12ActiveObjectSt14default_deleteIS3_EESaIS6_EERS2_I5GraphS4_ISA_EER10MSTFactoryRS2_I4TreeS4_ISG_EEEUlvE6_E9_M_createIRKSK_EEvRSt9_Any_dataOT_St17integral_constantIbLb0EE
FNDA:0,_ZNSt14_Function_base13_Base_managerIZ14handleCommandsiRSt6vectorISt10unique_ptrI12ActiveObjectSt14default_deleteIS3_EESaIS6_EERS2_I5GraphS4_ISA_EER10MSTFactoryRS2_I4TreeS4_ISG_EEEUlvE6_E9_M_createIRKSK_EEvRSt9_Any_dataOT_St17integral_constantIbLb0EE
FN:158,_ZNSt14_Function_base13_Base_managerIZ14handleCommandsiRSt6vectorISt10unique_ptrI12ActiveObjectSt14default_deleteIS3_EESaIS6_EERS2_I5GraphS4_ISA_EER10MSTFactoryRS2_I4TreeS4_ISG_EEEUlvE8_E9_M_createIRKSK_EEvRSt9_Any_dataOT_St17integral_constantIbLb0EE
FNDA:0,_ZNSt14_Function_base13_Base_managerIZ14handleCommandsiRSt6vectorISt10unique_ptrI12ActiveObjectSt14default_deleteIS3_EESaIS6_EERS2_I5GraphS4_ISA_EER10MSTFactoryRS2_I4TreeS4_ISG_EEEUlvE8_E9_M_createIRKSK_EEvRSt9_Any_dataOT_St17integral_constantIbLb0EE
FN:158,_ZNSt14_Function_base13_Base_managerIZ14handleCommandsiRSt6vectorISt10unique_ptrI12ActiveObjectSt14default_deleteIS3_EESaIS6_EERS2_I5GraphS4_ISA_EER10MSTFactoryRS2_I4TreeS4_ISG_EEEUlvE10_E9_M_createIRSK_EEvRSt9_Any_dataOT_St17integral_constantIbLb0EE
FNDA:2,_ZNSt14_Function_base13_Base_managerIZ14handleCommandsiRSt6vectorISt10unique_ptrI12ActiveObjectSt14default_deleteIS3_EESaIS6_EERS2_I5GraphS4_ISA_EER10MSTFactoryRS2_I4TreeS4_ISG_EEEUlvE10_E9_M_createIRSK_EEvRSt9_Any_dataOT_St17integral_constantIbLb0EE
FN:158,_ZNSt14_Function_base13_Base_managerIZ14handleCommandsiRSt6vectorISt10unique_ptrI12ActiveObjectSt14default_deleteIS3_EESaIS6_EERS2_I5GraphS4_ISA_EER10MSTFactoryRS2_I4TreeS4_ISG_EEEUlvE9_E9_M_createIRKSK_EEvRSt9_Any_dataOT_St17integral_constantIbLb0EE
FNDA:0,_ZNSt14_Function_base13_Base_managerIZ14handleCommandsiRSt6vectorISt10unique_ptrI12ActiveObjectSt14default_deleteIS3_EESaIS6_EERS2_I5GraphS4_ISA_EER10MSTFactoryRS2_I4TreeS4_ISG_EEEUlvE9_E9_M_createIRKSK_EEvRSt9_Any_dataOT_St17integral_constantIbLb0EE
FN:158,_ZNSt14_Function_base13_Base_managerIZ14handleCommandsiRSt6vectorISt10unique_ptrI12ActiveObjectSt14default_deleteIS3_EESaIS6_EERS2_I5GraphS4_ISA_EER10MSTFactoryRS2_I4TreeS4_ISG_EEEUlvE9_E9_M_createIRSK_EEvRSt9_Any_dataOT_St17integral_constantIbLb0EE
FNDA:2,_ZNSt14_Function_base13_Base_managerIZ14handleCommandsiRSt6vectorISt10unique_ptrI12ActiveObjectSt14default_deleteIS3_EESaIS6_EERS2_I5GraphS4_ISA_EER10MSTFactoryRS2_I4TreeS4_ISG_EEEUlvE9_E9_M_createIRSK_EEvRSt9_Any_dataOT_St17integral_constantIbLb0EE
FN:173,_ZNSt14_Function_base13_Base_managerIZ14handleCommandsiRSt6vectorISt10unique_ptrI12ActiveObjectSt14default_deleteIS3_EESaIS6_EERS2_I5GraphS4_ISA_EER10MSTFactoryRS2_I4TreeS4_ISG_EEEUlvE6_E10_M_destroyERSt9_Any_dataSt17integral_constantIbLb0EE
FNDA:5,_ZNSt14_Function_base13_Base_managerIZ14handleCommandsiRSt6vectorISt10unique_ptrI12ActiveObjectSt14default_deleteIS3_EESaIS6_EERS2_I5GraphS4_ISA_EER10MSTFactoryRS2_I4TreeS4_ISG_EEEUlvE6_E10_M_destroyERSt9_Any_dataSt17integral_constantIbLb0EE
FN:173,_ZNSt14_Function_base13_Base_managerIZ14handleCommandsiRSt6vectorISt10unique_ptrI12ActiveObjectSt14default_deleteIS3_EESaIS6_EERS2_I5GraphS4_ISA_EER10MSTFactoryRS2_I4TreeS4_ISG_EEEUlvE8_E10_M_destroyERSt9_Any_dataSt17integral_constantIbLb0EE
FNDA:3,_ZNSt14_Function_base13_Base_managerIZ14handleCommandsiRSt6vectorISt10unique_ptrI12ActiveObjectSt14default_deleteIS3_EESaIS6_EERS2_I5GraphS4_ISA_EER10MSTFactoryRS2_I4TreeS4_ISG_EEEUlvE8_E10_M_destroyERSt9_Any_dataSt17integral_constantIbLb0EE
FN:173,_ZNSt14_Function_base13_Base_managerIZ14handleCommandsiRSt6vectorISt10unique_ptrI12ActiveObjectSt14default_deleteIS3_EESaIS6_EERS2_I5GraphS4_ISA_EER10MSTFactoryRS2_I4TreeS4_ISG_EEEUlvE9_E10_M_destroyERSt9_Any_dataSt17integral_constantIbLb0EE
FNDA:2,_ZNSt14_Function_base13_Base_managerIZ14handleCommandsiRSt6vectorISt10unique_ptrI12ActiveObjectSt14default_deleteIS3_EESaIS6_EERS2_I5GraphS4_ISA_EER10MSTFactoryRS2_I4TreeS4_ISG_EEEUlvE9_E10_M_destroyERSt9_Any_dataSt17integral_constantIbLb0EE
FN:173,_ZNSt14_Function_base13_Base_managerIZ14handleCommandsiRSt6vectorISt10unique_ptrI12ActiveObjectSt14default_deleteIS3_EESaIS6_EERS2_I5GraphS4_ISA_EER10MSTFactoryRS2_I4TreeS4_ISG_EEEUlvE5_E10_M_destroyERSt9_Any_dataSt17integral_constantIbLb0EE
FNDA:2,_ZNSt14_Function_base13_Base_managerIZ14handleCommandsiRSt6vectorISt10unique_ptrI12ActiveObjectSt14default_deleteIS3_EESaIS6_EERS2_I5GraphS4_ISA_EER10MSTFactoryRS2_I4TreeS4_ISG_EEEUlvE5_E10_M_destroyERSt9_Any_dataSt17integral_constantIbLb0EE
FN:173,_ZNSt14_Function_base13_Base_managerIZ14handleCommandsiRSt6vectorISt10unique_ptrI12ActiveObjectSt14default_deleteIS3_EESaIS6_EERS2_I5GraphS4_ISA_EER10MSTFactoryRS2_I4TreeS4_ISG_EEEUlvE10_E10_M_destroyERSt9_Any_dataSt17integral_constantIbLb0EE
FNDA:2,_ZNSt14_Function_base13_Base_managerIZ14handleCommandsiRSt6vectorISt10unique_ptrI12ActiveObjectSt14default_deleteIS3_EESaIS6_EERS2_I5GraphS4_ISA_EER10MSTFactoryRS2_I4TreeS4_ISG_EEEUlvE10_E10_M_destroyERSt9_Any_dataSt17integral_constantIbLb0EE
FN:173,_ZNSt14_Function_base13_Base_managerIZ14handleCommandsiRSt6vectorISt10unique_ptrI12ActiveObjectSt14default_deleteIS3_EESaIS6_EERS2_I5GraphS4_ISA_EER10MSTFactoryRS2_I4TreeS4_ISG_EEEUlvE4_E10_M_destroyERSt9_Any_dataSt17integral_constantIbLb0EE
FNDA:2,_ZNSt14_Function_base13_Base_managerIZ14handleCommandsiRSt6vectorISt10unique_ptrI12ActiveObjectSt14default_deleteIS3_EESaIS6_EERS2_I5GraphS4_ISA_EER10MSTFactoryRS2_I4TreeS4_ISG_EEEUlvE4_E10_M_destroyERSt9_Any_dataSt17integral_constantIbLb0EE
FN:173,_ZNSt14_Function_base13_Base_managerIZ14handleCommandsiRSt6vectorISt10unique_ptrI12ActiveObjectSt14default_deleteIS3_EESaIS6_EERS2_I5GraphS4_ISA_EER10MSTFactoryRS2_I4TreeS4_ISG_EEEUlvE3_E10_M_destroyERSt9_Any_dataSt17integral_constantIbLb0EE
FNDA:2,_ZNSt14_Function_base13_Base_managerIZ14handleCommandsiRSt6vectorISt10unique_ptrI12ActiveObjectSt14default_deleteIS3_EESaIS6_EERS2_I5GraphS4_ISA_EER10MSTFactoryRS2_I4TreeS4_ISG_EEEUlvE3_E10_M_destroyERSt9_Any_dataSt17integral_constantIbLb0EE
FN:173,_ZNSt14_Function_base13_Base_managerIZ14handleCommandsiRSt6vectorISt10unique_ptrI12ActiveObjectSt14default_deleteIS3_EESaIS6_EERS2_I5GraphS4_ISA_EER10MSTFactoryRS2_I4TreeS4_ISG_EEEUlvE2_E10_M_destroyERSt9_Any_dataSt17integral_constantIbLb0EE
FNDA:2,_ZNSt14_Function_base13_Base_managerIZ14handleCommandsiRSt6vectorISt10unique_ptrI12ActiveObjectSt14default_deleteIS3_EESaIS6_EERS2_I5GraphS4_ISA_EER10MSTFactoryRS2_I4TreeS4_ISG_EEEUlvE2_E10_M_destroyERSt9_Any_dataSt17integral_constantIbLb0EE
FN:173,_ZNSt14_Function_base13_Base_managerIZ4mainEUliE_E10_M_destroyERSt9_Any_dataSt17integral_constantIbLb0EE
FNDA:1,_ZNSt14_Function_base13_Base_managerIZ4mainEUliE_E10_M_destroyERSt9_Any_dataSt17integral_constantIbLb0EE
FN:173,_ZNSt14_Function_base13_Base_managerIZ14handleCommandsiRSt6vectorISt10unique_ptrI12ActiveObjectSt14default_deleteIS3_EESaIS6_EERS2_I5GraphS4_ISA_EER10MSTFactoryRS2_I4TreeS4_ISG_EEEUlvE1_E10_M_destroyERSt9_Any_dataSt17integral_constantIbLb0EE
FNDA:2,_ZNSt14_Function_base13_Base_managerIZ14handleCommandsiRSt6vectorISt10unique_ptrI12ActiveObjectSt14default_deleteIS3_EESaIS6_EERS2_I5GraphS4_ISA_EER10MSTFactoryRS2_I4TreeS4_ISG_EEEUlvE1_E10_M_destroyERSt9_Any_dataSt17integral_constantIbLb0EE
FN:173,_ZNSt14_Function_base13_Base_managerIZ14handleCommandsiRSt6vectorISt10unique_ptrI12ActiveObjectSt14default_deleteIS3_EESaIS6_EERS2_I5GraphS4_ISA_EER10MSTFactoryRS2_I4TreeS4_ISG_EEEUlvE0_E10_M_destroyERSt9_Any_dataSt17integral_constantIbLb0EE
FNDA:10,_ZNSt14_Function_base13_Base_managerIZ14handleCommandsiRSt6vectorISt10unique_ptrI12ActiveObjectSt14default_deleteIS3_EESaIS6_EERS2_I5GraphS4_ISA_EER10MSTFactoryRS2_I4TreeS4_ISG_EEEUlvE0_E10_M_destroyERSt9_Any_dataSt17integral_constantIbLb0EE
FN:173,_ZNSt14_Function_base13_Base_managerIZ14handleCommandsiRSt6vectorISt10unique_ptrI12ActiveObjectSt14default_deleteIS3_EESaIS6_EERS2_I5GraphS4_ISA_EER10MSTFactoryRS2_I4TreeS4_ISG_EEEUlvE_E10_M_destroyERSt9_Any_dataSt17integral_constantIbLb0EE
FNDA:4,_ZNSt14_Function_base13_Base_managerIZ14handleCommandsiRSt6vectorISt10unique_ptrI12ActiveObjectSt14default_deleteIS3_EESaIS6_EERS2_I5GraphS4_ISA_EER10MSTFactoryRS2_I4TreeS4_ISG_EEEUlvE_E10_M_destroyERSt9_Any_dataSt17integral_constantIbLb0EE
FN:180,_ZNSt14_Function_base13_Base_managerIZ14handleCommandsiRSt6vectorISt10unique_ptrI12ActiveObjectSt14default_deleteIS3_EESaIS6_EERS2_I5GraphS4_ISA_EER10MSTFactoryRS2_I4TreeS4_ISG_EEEUlvE_E10_M_managerERSt9_Any_dataRKSM_St18_Manager_operation
FNDA:4,_ZNSt14_Function_base13_Base_managerIZ14handleCommandsiRSt6vectorISt10unique_ptrI12ActiveObjectSt14default_deleteIS3_EESaIS6_EERS2_I5GraphS4_ISA_EER10MSTFactoryRS2_I4TreeS4_ISG_EEEUlvE_E10_M_managerERSt9_Any_dataRKSM_St18_Manager_operation
FN:180,_ZNSt14_Function_base13_Base_managerIZ4mainEUliE_E10_M_managerERSt9_Any_dataRKS3_St18_Manager_operation
FNDA:1,_ZNSt14_Function_base13_Base_managerIZ4mainEUliE_E10_M_managerERSt9_Any_dataRKS3_St18_Manager_operation
FN:180,_ZNSt14_Function_base13_Base_managerIZ14handleCommandsiRSt6vectorISt10unique_ptrI12ActiveObjectSt14default_deleteIS3_EESaIS6_EERS2_I5GraphS4_ISA_EER10MSTFactoryRS2_I4TreeS4_ISG_EEEUlvE0_E10_M_managerERSt9_Any_dataRKSM_St18_Manager_operation
FNDA:10,_ZNSt14_Function_base13_Base_managerIZ14handleCommandsiRSt6vectorISt10unique_ptrI12ActiveObjectSt14default_deleteIS3_EESaIS6_EERS2_I5GraphS4_ISA_EER10MSTFactoryRS2_I4TreeS4_ISG_EEEUlvE0_E10_M_managerERSt9_Any_dataRKSM_St18_Manager_operation
FN:180,_ZNSt14_Function_base13_Base_managerIZ14handleCommandsiRSt6vectorISt10unique_ptrI12ActiveObjectSt14default_deleteIS3_EESaIS6_EERS2_I5GraphS4_ISA_EER10MSTFactoryRS2_I4TreeS4_ISG_EEEUlvE8_E10_M_managerERSt9_Any_dataRKSM_St18_Manager_operation
FNDA:3,_ZNSt14_Function_base13_Base_managerIZ14handleCommandsiRSt6vectorISt10unique_ptrI12ActiveObjectSt14default_deleteIS3_EESaIS6_EERS2_I5GraphS4_ISA_EER10MSTFactoryRS2_I4TreeS4_ISG_EEEUlvE8_E10_M_managerERSt9_Any_dataRKSM_St18_Manager_operation
FN:180,_ZNSt14_Function_base13_Base_managerIZ14handleCommandsiRSt6vectorISt10unique_ptrI12ActiveObjectSt14default_deleteIS3_EESaIS6_EERS2_I5GraphS4_ISA_EER10MSTFactoryRS2_I4TreeS4_ISG_EEEUlvE1_E10_M_managerERSt9_Any_dataRKSM_St18_Manager_operation
FNDA:2,_ZNSt14_Function_base13_Base_managerIZ14handleCommandsiRSt6vectorISt10unique_ptrI12ActiveObjectSt14default_deleteIS3_EESaIS6_EERS2_I5GraphS4_ISA_EER10MSTFactoryRS2_I4TreeS4_ISG_EEEUlvE1_E10_M_managerERSt9_Any_dataRKSM_St18_Manager_operation
FN:180,_ZNSt14_Function_base13_Base_managerIZ14handleCommandsiRSt6vectorISt10unique_ptrI12ActiveObjectSt14default_deleteIS3_EESaIS6_EERS2_I5GraphS4_ISA_EER10MSTFactoryRS2_I4TreeS4_ISG_EEEUlvE9_E10_M_managerERSt9_Any_dataRKSM_St18_Manager_operation
FNDA:2,_ZNSt14_Function_base13_Base_managerIZ14handleCommandsiRSt6vectorISt10unique_ptrI12ActiveObjectSt14default_deleteIS3_EESaIS6_EERS2_I5GraphS4_ISA_EER10MSTFactoryRS2_I4TreeS4_ISG_EEEUlvE9_E10_M_managerERSt9_Any_dataRKSM_St18_Manager_operation
FN:180,_ZNSt14_Function_base13_Base_managerIZ14handleCommandsiRSt6vectorISt10unique_ptrI12ActiveObjectSt14default_deleteIS3_EESaIS6_EERS2_I5GraphS4_ISA_EER10MSTFactoryRS2_I4TreeS4_ISG_EEEUlvE10_E10_M_managerERSt9_Any_dataRKSM_St18_Manager_operation
FNDA:2,_ZNSt14_Function_base13_Base_managerIZ14handleCommandsiRSt6vectorISt10unique_ptrI12ActiveObjectSt14default_deleteIS3_EESaIS6_EERS2_I5GraphS4_ISA_EER10MSTFactoryRS2_I4TreeS4_ISG_EEEUlvE10_E10_M_managerERSt9_Any_dataRKSM_St18_Manager_operation
FN:180,_ZNSt14_Function_base13_Base_managerIZ14handleCommandsiRSt6vectorISt10unique_ptrI12ActiveObjectSt14default_deleteIS3_EESaIS6_EERS2_I5GraphS4_ISA_EER10MSTFactoryRS2_I4TreeS4_ISG_EEEUlvE6_E10_M_managerERSt9_Any_dataRKSM_St18_Manager_operation
FNDA:5,_ZNSt14_Function_base13_Base_managerIZ14handleCommandsiRSt6vectorISt10unique_ptrI12ActiveObjectSt14default_deleteIS3_EESaIS6_EERS2_I5GraphS4_ISA_EER10MSTFactoryRS2_I4TreeS4_ISG_EEEUlvE6_E10_M_managerERSt9_Any_dataRKSM_St18_Manager_operation
FN:180,_ZNSt14_Function_base13_Base_managerIZ14handleCommandsiRSt6vectorISt10unique_ptrI12ActiveObjectSt14default_deleteIS3_EESaIS6_EERS2_I5GraphS4_ISA_EER10MSTFactoryRS2_I4TreeS4_ISG_EEEUlvE5_E10_M_managerERSt9_Any_dataRKSM_St18_Manager_operation
FNDA:2,_ZNSt14_Function_base13_Base_managerIZ14handleCommandsiRSt6vectorISt10unique_ptrI12ActiveObjectSt14default_deleteIS3_EESaIS6_EERS2_I5GraphS4_ISA_EER10MSTFactoryRS2_I4TreeS4_ISG_EEEUlvE5_E10_M_managerERSt9_Any_dataRKSM_St18_Manager_operation
FN:180,_ZNSt14_Function_base13_Base_managerIZ14handleCommandsiRSt6vectorISt10unique_ptrI12ActiveObjectSt14default_deleteIS3_EESaIS6_EERS2_I5GraphS4_ISA_EER10MSTFactoryRS2_I4TreeS4_ISG_EEEUlvE4_E10_M_managerERSt9_Any_dataRKSM_St18_Manager_operation
FNDA:2,_ZNSt14_Function_base13_Base_managerIZ14handleCommandsiRSt6vectorISt10unique_ptrI12ActiveObjectSt14default_deleteIS3_EESaIS6_EERS2_I5GraphS4_ISA_EER10MSTFactoryRS2_I4TreeS4_ISG_EEEUlvE4_E10_M_managerERSt9_Any_dataRKSM_St18_Manager_operation
FN:180,_ZNSt14_Function_base13_Base_managerIZ14handleCommandsiRSt6vectorISt10unique_ptrI12ActiveObjectSt14default_deleteIS3_EESaIS6_EERS2_I5GraphS4_ISA_EER10MSTFactoryRS2_I4TreeS4_ISG_EEEUlvE3_E10_M_managerERSt9_Any_dataRKSM_St18_Manager_operation
FNDA:2,_ZNSt14_Function_base13_Base_managerIZ14handleCommandsiRSt6vectorISt10unique_ptrI12ActiveObjectSt14default_deleteIS3_EESaIS6_EERS2_I5GraphS4_ISA_EER10MSTFactoryRS2_I4TreeS4_ISG_EEEUlvE3_E10_M_managerERSt9_Any_dataRKSM_St18_Manager_operation
FN:180,_ZNSt14_Function_base13_Base_managerIZ14handleCommandsiRSt6vectorISt10unique_ptrI12ActiveObjectSt14default_deleteIS3_EESaIS6_EERS2_I5GraphS4_ISA_EER10MSTFactoryRS2_I4TreeS4_ISG_EEEUlvE2_E10_M_managerERSt9_Any_dataRKSM_St18_Manager_operation
FNDA:2,_ZNSt14_Function_base13_Base_managerIZ14handleCommandsiRSt6vectorISt10unique_ptrI12ActiveObjectSt14default_deleteIS3_EESaIS6_EERS2_I5GraphS4_ISA_EER10MSTFactoryRS2_I4TreeS4_ISG_EEEUlvE2_E10_M_managerERSt9_Any_dataRKSM_St18_Manager_operation
FN:211,_ZNSt14_Function_base13_Base_managerIZ14handleCommandsiRSt6vectorISt10unique_ptrI12ActiveObjectSt14default_deleteIS3_EESaIS6_EERS2_I5GraphS4_ISA_EER10MSTFactoryRS2_I4TreeS4_ISG_EEEUlvE5_E15_M_init_functorIRSK_EEvRSt9_Any_dataOT_
FNDA:2,_ZNSt14_Function_base13_Base_managerIZ14handleCommandsiRSt6vectorISt10unique_ptrI12ActiveObjectSt14default_deleteIS3_EESaIS6_EERS2_I5GraphS4_ISA_EER10MSTFactoryRS2_I4TreeS4_ISG_EEEUlvE5_E15_M_init_functorIRSK_EEvRSt9_Any_dataOT_
FN:211,_ZNSt14_Function_base13_Base_managerIZ14handleCommandsiRSt6vectorISt10unique_ptrI12ActiveObjectSt14default_deleteIS3_EESaIS6_EERS2_I5GraphS4_ISA_EER10MSTFactoryRS2_I4TreeS4_ISG_EEEUlvE8_E15_M_init_functorIRKSK_EEvRSt9_Any_dataOT_
FNDA:0,_ZNSt14_Function_base13_Base_managerIZ14handleCommandsiRSt6vectorISt10unique_ptrI12ActiveObjectSt14default_deleteIS3_EESaIS6_EERS2_I5GraphS4_ISA_EER10MSTFactoryRS2_I4TreeS4_ISG_EEEUlvE8_E15_M_init_functorIRKSK_EEvRSt9_Any_dataOT_
FN:211,_ZNSt14_Function_base13_Base_managerIZ14handleCommandsiRSt6vectorISt10unique_ptrI12ActiveObjectSt14default_deleteIS3_EESaIS6_EERS2_I5GraphS4_ISA_EER10MSTFactoryRS2_I4TreeS4_ISG_EEEUlvE4_E15_M_init_functorIRSK_EEvRSt9_Any_dataOT_
FNDA:2,_ZNSt14_Function_base13_Base_managerIZ14handleCommandsiRSt6vectorISt10unique_ptrI12ActiveObjectSt14default_deleteIS3_EESaIS6_EERS2_I5GraphS4_ISA_EER10MSTFactoryRS2_I4TreeS4_ISG_EEEUlvE4_E15_M_init_functorIRSK_EEvRSt9_Any_dataOT_
FN:211,_ZNSt14_Function_base13_Base_managerIZ14handleCommandsiRSt6vectorISt10unique_ptrI12ActiveObjectSt14default_deleteIS3_EESaIS6_EERS2_I5GraphS4_ISA_EER10MSTFactoryRS2_I4TreeS4_ISG_EEEUlvE3_E15_M_init_functorIRSK_EEvRSt9_Any_dataOT_
FNDA:2,_ZNSt14_Function_base13_Base_managerIZ14handleCommandsiRSt6vectorISt10unique_ptrI12ActiveObjectSt14default_deleteIS3_EESaIS6_EERS2_I5GraphS4_ISA_EER10MSTFactoryRS2_I4TreeS4_ISG_EEEUlvE3_E15_M_init_functorIRSK_EEvRSt9_Any_dataOT_
FN:211,_ZNSt14_Function_base13_Base_managerIZ14handleCommandsiRSt6vectorISt10unique_ptrI12ActiveObjectSt14default_deleteIS3_EESaIS6_EERS2_I5GraphS4_ISA_EER10MSTFactoryRS2_I4TreeS4_ISG_EEEUlvE2_E15_M_init_functorIRSK_EEvRSt9_Any_dataOT_
FNDA:2,_ZNSt14_Function_base13_Base_managerIZ14handleCommandsiRSt6vectorISt10unique_ptrI12ActiveObjectSt14default_deleteIS3_EESaIS6_EERS2_I5GraphS4_ISA_EER10MSTFactoryRS2_I4TreeS4_ISG_EEEUlvE2_E15_M_init_functorIRSK_EEvRSt9_Any_dataOT_
FN:211,_ZNSt14_Function_base13_Base_managerIZ14handleCommandsiRSt6vectorISt10unique_ptrI12ActiveObjectSt14default_deleteIS3_EESaIS6_EERS2_I5GraphS4_ISA_EER10MSTFactoryRS2_I4TreeS4_ISG_EEEUlvE1_E15_M_init_functorIRSK_EEvRSt9_Any_dataOT_
FNDA:2,_ZNSt14_Function_base13_Base_managerIZ14handleCommandsiRSt6vectorISt10unique_ptrI12ActiveObjectSt14default_deleteIS3_EESaIS6_EERS2_I5GraphS4_ISA_EER10MSTFactoryRS2_I4TreeS4_ISG_EEEUlvE1_E15_M_init_functorIRSK_EEvRSt9_Any_dataOT_
FN:211,_ZNSt14_Function_base13_Base_managerIZ14handleCommandsiRSt6vectorISt10unique_ptrI12ActiveObjectSt14default_deleteIS3_EESaIS6_EERS2_I5GraphS4_ISA_EER10MSTFactoryRS2_I4TreeS4_ISG_EEEUlvE0_E15_M_init_functorIRSK_EEvRSt9_Any_dataOT_
FNDA:10,_ZNSt14_Function_base13_Base_managerIZ14handleCommandsiRSt6vectorISt10unique_ptrI12ActiveObjectSt14default_deleteIS3_EESaIS6_EERS2_I5GraphS4_ISA_EER10MSTFactoryRS2_I4TreeS4_ISG_EEEUlvE0_E15_M_init_functorIRSK_EEvRSt9_Any_dataOT_
FN:211,_ZNSt14_Function_base13_Base_managerIZ14handleCommandsiRSt6vectorISt10unique_ptrI12ActiveObjectSt14default_deleteIS3_EESaIS6_EERS2_I5GraphS4_ISA_EER10MSTFactoryRS2_I4TreeS4_ISG_EEEUlvE_E15_M_init_functorIRSK_EEvRSt9_Any_dataOT_
FNDA:4,_ZNSt14_Function_base13_Base_managerIZ14handleCommandsiRSt6vectorISt10unique_ptrI12ActiveObjectSt14default_deleteIS3_EESaIS6_EERS2_I5GraphS4_ISA_EER10MSTFactoryRS2_I4TreeS4_ISG_EEEUlvE_E15_M_init_functorIRSK_EEvRSt9_Any_dataOT_
FN:211,_ZNSt14_Function_base13_Base_managerIZ14handleCommandsiRSt6vectorISt10unique_ptrI12ActiveObjectSt14default_deleteIS3_EESaIS6_EERS2_I5GraphS4_ISA_EER10MSTFactoryRS2_I4TreeS4_ISG_EEEUlvE2_E15_M_init_functorIRKSK_EEvRSt9_Any_dataOT_
FNDA:0,_ZNSt14_Function_base13_Base_managerIZ14handleCommandsiRSt6vectorISt10unique_ptrI12ActiveObjectSt14default_deleteIS3_EESaIS6_EERS2_I5GraphS4_ISA_EER10MSTFactoryRS2_I4TreeS4_ISG_EEEUlvE2_E15_M_init_functorIRKSK_EEvRSt9_Any_dataOT_
FN:211,_ZNSt14_Function_base13_Base_managerIZ4mainEUliE_E15_M_init_functorIRKS1_EEvRSt9_Any_dataOT_
FNDA:0,_ZNSt14_Function_base13_Base_managerIZ4mainEUliE_E15_M_init_functorIRKS1_EEvRSt9_Any_dataOT_
FN:211,_ZNSt14_Function_base13_Base_managerIZ14handleCommandsiRSt6vectorISt10unique_ptrI12ActiveObjectSt14default_deleteIS3_EESaIS6_EERS2_I5GraphS4_ISA_EER10MSTFactoryRS2_I4TreeS4_ISG_EEEUlvE5_E15_M_init_functorIRKSK_EEvRSt9_Any_dataOT_
FNDA:0,_ZNSt14_Function_base13_Base_managerIZ14handleCommandsiRSt6vectorISt10unique_ptrI12ActiveObjectSt14default_deleteIS3_EESaIS6_EERS2_I5GraphS4_ISA_EER10MSTFactoryRS2_I4TreeS4_ISG_EEEUlvE5_E15_M_init_functorIRKSK_EEvRSt9_Any_dataOT_
FN:211,_ZNSt14_Function_base13_Base_managerIZ14handleCommandsiRSt6vectorISt10unique_ptrI12ActiveObjectSt14default_deleteIS3_EESaIS6_EERS2_I5GraphS4_ISA_EER10MSTFactoryRS2_I4TreeS4_ISG_EEEUlvE1_E15_M_init_functorIRKSK_EEvRSt9_Any_dataOT_
FNDA:0,_ZNSt14_Function_base13_Base_managerIZ14handleCommandsiRSt6vectorISt10unique_ptrI12ActiveObjectSt14default_deleteIS3_EESaIS6_EERS2_I5GraphS4_ISA_EER10MSTFactoryRS2_I4TreeS4_ISG_EEEUlvE1_E15_M_init_functorIRKSK_EEvRSt9_Any_dataOT_
FN:211,_ZNSt14_Function_base13_Base_managerIZ14handleCommandsiRSt6vectorISt10unique_ptrI12ActiveObjectSt14default_deleteIS3_EESaIS6_EERS2_I5GraphS4_ISA_EER10MSTFactoryRS2_I4TreeS4_ISG_EEEUlvE10_E15_M_init_functorIRKSK_EEvRSt9_Any_dataOT_
FNDA:0,_ZNSt14_Function_base13_Base_managerIZ14handleCommandsiRSt6vectorISt10unique_ptrI12ActiveObjectSt14default_deleteIS3_EESaIS6_EERS2_I5GraphS4_ISA_EER10MSTFactoryRS2_I4TreeS4_ISG_EEEUlvE10_E15_M_init_functorIRKSK_EEvRSt9_Any_dataOT_
FN:211,_ZNSt14_Function_base13_Base_managerIZ14handleCommandsiRSt6vectorISt10unique_ptrI12ActiveObjectSt14default_deleteIS3_EESaIS6_EERS2_I5GraphS4_ISA_EER10MSTFactoryRS2_I4TreeS4_ISG_EEEUlvE0_E15_M_init_functorIRKSK_EEvRSt9_Any_dataOT_
FNDA:0,_ZNSt14_Function_base13_Base_managerIZ14handleCommandsiRSt6vectorISt10unique_ptrI12ActiveObjectSt14default_deleteIS3_EESaIS6_EERS2_I5GraphS4_ISA_EER10MSTFactoryRS2_I4TreeS4_ISG_EEEUlvE0_E15_M_init_functorIRKSK_EEvRSt9_Any_dataOT_
FN:211,_ZNSt14_Function_base13_Base_managerIZ14handleCommandsiRSt6vectorISt10unique_ptrI12ActiveObjectSt14default_deleteIS3_EESaIS6_EERS2_I5GraphS4_ISA_EER10MSTFactoryRS2_I4TreeS4_ISG_EEEUlvE_E15_M_init_functorIRKSK_EEvRSt9_Any_dataOT_
FNDA:0,_ZNSt14_Function_base13_Base_managerIZ14handleCommandsiRSt6vectorISt10unique_ptrI12ActiveObjectSt14default_deleteIS3_EESaIS6_EERS2_I5GraphS4_ISA_EER10MSTFactoryRS2_I4TreeS4_ISG_EEEUlvE_E15_M_init_functorIRKSK_EEvRSt9_Any_dataOT_
FN:211,_ZNSt14_Function_base13_Base_managerIZ4mainEUliE_E15_M_init_functorIS1_EEvRSt9_Any_dataOT_
FNDA:1,_ZNSt14_Function_base13_Base_managerIZ4mainEUliE_E15_M_init_functorIS1_EEvRSt9_Any_dataOT_
FN:211,_ZNSt14_Function_base13_Base_managerIZ14handleCommandsiRSt6vectorISt10unique_ptrI12ActiveObjectSt14default_deleteIS3_EESaIS6_EERS2_I5GraphS4_ISA_EER10MSTFactoryRS2_I4TreeS4_ISG_EEEUlvE6_E15_M_init_functorIRKSK_EEvRSt9_Any_dataOT_
FNDA:0,_ZNSt14_Function_base13_Base_managerIZ14handleCommandsiRSt6vectorISt10unique_ptrI12ActiveObjectSt14default_deleteIS3_EESaIS6_EERS2_I5GraphS4_ISA_EER10MSTFactoryRS2_I4TreeS4_ISG_EEEUlvE6_E15_M_init_functorIRKSK_EEvRSt9_Any_dataOT_
FN:211,_ZNSt14_Function_base13_Base_managerIZ14handleCommandsiRSt6vectorISt10unique_ptrI12ActiveObjectSt14default_deleteIS3_EESaIS6_EERS2_I5GraphS4_ISA_EER10MSTFactoryRS2_I4TreeS4_ISG_EEEUlvE9_E15_M_init_functorIRKSK_EEvRSt9_Any_dataOT_
FNDA:0,_ZNSt14_Function_base13_Base_managerIZ14handleCommandsiRSt6vectorISt10unique_ptrI12ActiveObjectSt14default_deleteIS3_EESaIS6_EERS2_I5GraphS4_ISA_EER10MSTFactoryRS2_I4TreeS4_ISG_EEEUlvE9_E15_M_init_functorIRKSK_EEvRSt9_Any_dataOT_
FN:211,_ZNSt14_Function_base13_Base_managerIZ14handleCommandsiRSt6vectorISt10unique_ptrI12ActiveObjectSt14default_deleteIS3_EESaIS6_EERS2_I5GraphS4_ISA_EER10MSTFactoryRS2_I4TreeS4_ISG_EEEUlvE4_E15_M_init_functorIRKSK_EEvRSt9_Any_dataOT_
FNDA:0,_ZNSt14_Function_base13_Base_managerIZ14handleCommandsiRSt6vectorISt10unique_ptrI12ActiveObjectSt14default_deleteIS3_EESaIS6_EERS2_I5GraphS4_ISA_EER10MSTFactoryRS2_I4TreeS4_ISG_EEEUlvE4_E15_M_init_functorIRKSK_EEvRSt9_Any_dataOT_
FN:211,_ZNSt14_Function_base13_Base_managerIZ14handleCommandsiRSt6vectorISt10unique_ptrI12ActiveObjectSt14default_deleteIS3_EESaIS6_EERS2_I5GraphS4_ISA_EER10MSTFactoryRS2_I4TreeS4_ISG_EEEUlvE10_E15_M_init_functorIRSK_EEvRSt9_Any_dataOT_
FNDA:2,_ZNSt14_Function_base13_Base_managerIZ14handleCommandsiRSt6vectorISt10unique_ptrI12ActiveObjectSt14default_deleteIS3_EESaIS6_EERS2_I5GraphS4_ISA_EER10MSTFactoryRS2_I4TreeS4_ISG_EEEUlvE10_E15_M_init_functorIRSK_EEvRSt9_Any_dataOT_
FN:211,_ZNSt14_Function_base13_Base_managerIZ14handleCommandsiRSt6vectorISt10unique_ptrI12ActiveObjectSt14default_deleteIS3_EESaIS6_EERS2_I5GraphS4_ISA_EER10MSTFactoryRS2_I4TreeS4_ISG_EEEUlvE8_E15_M_init_functorIRSK_EEvRSt9_Any_dataOT_
FNDA:3,_ZNSt14_Function_base13_Base_managerIZ14handleCommandsiRSt6vectorISt10unique_ptrI12ActiveObjectSt14default_deleteIS3_EESaIS6_EERS2_I5GraphS4_ISA_EER10MSTFactoryRS2_I4TreeS4_ISG_EEEUlvE8_E15_M_init_functorIRSK_EEvRSt9_Any_dataOT_
FN:211,_ZNSt14_Function_base13_Base_managerIZ14handleCommandsiRSt6vectorISt10unique_ptrI12ActiveObjectSt14default_deleteIS3_EESaIS6_EERS2_I5GraphS4_ISA_EER10MSTFactoryRS2_I4TreeS4_ISG_EEEUlvE9_E15_M_init_functorIRSK_EEvRSt9_Any_dataOT_
FNDA:2,_ZNSt14_Function_base13_Base_managerIZ14handleCommandsiRSt6vectorISt10unique_ptrI12ActiveObjectSt14default_deleteIS3_EESaIS6_EERS2_I5GraphS4_ISA_EER10MSTFactoryRS2_I4TreeS4_ISG_EEEUlvE9_E15_M_init_functorIRSK_EEvRSt9_Any_dataOT_
FN:211,_ZNSt14_Function_base13_Base_managerIZ14handleCommandsiRSt6vectorISt10unique_ptrI12ActiveObjectSt14default_deleteIS3_EESaIS6_EERS2_I5GraphS4_ISA_EER10MSTFactoryRS2_I4TreeS4_ISG_EEEUlvE6_E15_M_init_functorIRSK_EEvRSt9_Any_dataOT_
FNDA:5,_ZNSt14_Function_base13_Base_managerIZ14handleCommandsiRSt6vectorISt10unique_ptrI12ActiveObjectSt14default_deleteIS3_EESaIS6_EERS2_I5GraphS4_ISA_EER10MSTFactoryRS2_I4TreeS4_ISG_EEEUlvE6_E15_M_init_functorIRSK_EEvRSt9_Any_dataOT_
FN:211,_ZNSt14_Function_base13_Base_managerIZ14handleCommandsiRSt6vectorISt10unique_ptrI12ActiveObjectSt14default_deleteIS3_EESaIS6_EERS2_I5GraphS4_ISA_EER10MSTFactoryRS2_I4TreeS4_ISG_EEEUlvE3_E15_M_init_functorIRKSK_EEvRSt9_Any_dataOT_
FNDA:0,_ZNSt14_Function_base13_Base_managerIZ14handleCommandsiRSt6vectorISt10unique_ptrI12ActiveObjectSt14default_deleteIS3_EESaIS6_EERS2_I5GraphS4_ISA_EER10MSTFactoryRS2_I4TreeS4_ISG_EEEUlvE3_E15_M_init_functorIRKSK_EEvRSt9_Any_dataOT_
FN:235,_ZNSt14_Function_base13_Base_managerIZ14handleCommandsiRSt6vectorISt10unique_ptrI12ActiveObjectSt14default_deleteIS3_EESaIS6_EERS2_I5GraphS4_ISA_EER10MSTFactoryRS2_I4TreeS4_ISG_EEEUlvE2_E21_M_not_empty_functionISK_EEbRKT_
FNDA:2,_ZNSt14_Function_base13_Base_managerIZ14handleCommandsiRSt6vectorISt10unique_ptrI12ActiveObjectSt14default_deleteIS3_EESaIS6_EERS2_I5GraphS4_ISA_EER10MSTFactoryRS2_I4TreeS4_ISG_EEEUlvE2_E21_M_not_empty_functionISK_EEbRKT_
FN:235,_ZNSt14_Function_base13_Base_managerIZ14handleCommandsiRSt6vectorISt10unique_ptrI12ActiveObjectSt14default_deleteIS3_EESaIS6_EERS2_I5GraphS4_ISA_EER10MSTFactoryRS2_I4TreeS4_ISG_EEEUlvE_E21_M_not_empty_functionISK_EEbRKT_
FNDA:4,_ZNSt14_Function_base13_Base_managerIZ14handleCommandsiRSt6vectorISt10unique_ptrI12ActiveObjectSt14default_deleteIS3_EESaIS6_EERS2_I5GraphS4_ISA_EER10MSTFactoryRS2_I4TreeS4_ISG_EEEUlvE_E21_M_not_empty_functionISK_EEbRKT_
FN:235,_ZNSt14_Function_base13_Base_managerIZ14handleCommandsiRSt6vectorISt10unique_ptrI12ActiveObjectSt14default_deleteIS3_EESaIS6_EERS2_I5GraphS4_ISA_EER10MSTFactoryRS2_I4TreeS4_ISG_EEEUlvE0_E21_M_not_empty_functionISK_EEbRKT_
FNDA:10,_ZNSt14_Function_base13_Base_managerIZ14handleCommandsiRSt6vectorISt10unique_ptrI12ActiveObjectSt14default_deleteIS3_EESaIS6_EERS2_I5GraphS4_ISA_EER10MSTFactoryRS2_I4TreeS4_ISG_EEEUlvE0_E21_M_not_empty_functionISK_EEbRKT_
FN:235,_ZNSt14_Function_base13_Base_managerIZ14handleCommandsiRSt6vectorISt10unique_ptrI12ActiveObjectSt14default_deleteIS3_EESaIS6_EERS2_I5GraphS4_ISA_EER10MSTFactoryRS2_I4TreeS4_ISG_EEEUlvE8_E21_M_not_empty_functionISK_EEbRKT_
FNDA:3,_ZNSt14_Function_base13_Base_managerIZ14handleCommandsiRSt6vectorISt10unique_ptrI12ActiveObjectSt14default_deleteIS3_EESaIS6_EERS2_I5GraphS4_ISA_EER10MSTFactoryRS2_I4TreeS4_ISG_EEEUlvE8_E21_M_not_empty_functionISK_EEbRKT_
FN:235,_ZNSt14_Function_base13_Base_managerIZ14handleCommandsiRSt6vectorISt10unique_ptrI12ActiveObjectSt14default_deleteIS3_EESaIS6_EERS2_I5GraphS4_ISA_EER10MSTFactoryRS2_I4TreeS4_ISG_EEEUlvE9_E21_M_not_empty_functionISK_EEbRKT_
FNDA:2,_ZNSt14_Function_base13_Base_managerIZ14handleCommandsiRSt6vectorISt10unique_ptrI12ActiveObjectSt14default_deleteIS3_EESaIS6_EERS2_I5GraphS4_ISA_EER10MSTFactoryRS2_I4TreeS4_ISG_EEEUlvE9_E21_M_not_empty_functionISK_EEbRKT_
FN:235,_ZNSt14_Function_base13_Base_managerIZ14handleCommandsiRSt6vectorISt10unique_ptrI12ActiveObjectSt14default_deleteIS3_EESaIS6_EERS2_I5GraphS4_ISA_EER10MSTFactoryRS2_I4TreeS4_ISG_EEEUlvE1_E21_M_not_empty_functionISK_EEbRKT_
FNDA:2,_ZNSt14_Function_base13_Base_managerIZ14handleCommandsiRSt6vectorISt10unique_ptrI12ActiveObjectSt14default_deleteIS3_EESaIS6_EERS2_I5GraphS4_ISA_EER10MSTFactoryRS2_I4TreeS4_ISG_EEEUlvE1_E21_M_not_empty_functionISK_EEbRKT_
FN:235,_ZNSt14_Function_base13_Base_managerIZ14handleCommandsiRSt6vectorISt10unique_ptrI12ActiveObjectSt14default_deleteIS3_EESaIS6_EERS2_I5GraphS4_ISA_EER10MSTFactoryRS2_I4TreeS4_ISG_EEEUlvE5_E21_M_not_empty_functionISK_EEbRKT_
FNDA:2,_ZNSt14_Function_base13_Base_managerIZ14handleCommandsiRSt6vectorISt10unique_ptrI12ActiveObjectSt14default_deleteIS3_EESaIS6_EERS2_I5GraphS4_ISA_EER10MSTFactoryRS2_I4TreeS4_ISG_EEEUlvE5_E21_M_not_empty_functionISK_EEbRKT_
FN:235,_ZNSt14_Function_base13_Base_managerIZ14handleCommandsiRSt6vectorISt10unique_ptrI12ActiveObjectSt14default_deleteIS3_EESaIS6_EERS2_I5GraphS4_ISA_EER10MSTFactoryRS2_I4TreeS4_ISG_EEEUlvE10_E21_M_not_empty_functionISK_EEbRKT_
FNDA:2,_ZNSt14_Function_base13_Base_managerIZ14handleCommandsiRSt6vectorISt10unique_ptrI12ActiveObjectSt14default_deleteIS3_EESaIS6_EERS2_I5GraphS4_ISA_EER10MSTFactoryRS2_I4TreeS4_ISG_EEEUlvE10_E21_M_not_empty_functionISK_EEbRKT_
FN:235,_ZNSt14_Function_base13_Base_managerIZ4mainEUliE_E21_M_not_empty_functionIS1_EEbRKT_
FNDA:1,_ZNSt14_Function_base13_Base_managerIZ4mainEUliE_E21_M_not_empty_functionIS1_EEbRKT_
FN:235,_ZNSt14_Function_base13_Base_managerIZ14handleCommandsiRSt6vectorISt10unique_ptrI12ActiveObjectSt14default_deleteIS3_EESaIS6_EERS2_I5GraphS4_ISA_EER10MSTFactoryRS2_I4TreeS4_ISG_EEEUlvE3_E21_M_not_empty_functionISK_EEbRKT_
FNDA:2,_ZNSt14_Function_base13_Base_managerIZ14handleCommandsiRSt6vectorISt10unique_ptrI12ActiveObjectSt14default_deleteIS3_EESaIS6_EERS2_I5GraphS4_ISA_EER10MSTFactoryRS2_I4TreeS4_ISG_EEEUlvE3_E21_M_not_empty_functionISK_EEbRKT_
FN:235,_ZNSt14_Function_base13_Base_managerIZ14handleCommandsiRSt6vectorISt10unique_ptrI12ActiveObjectSt14default_deleteIS3_EESaIS6_EERS2_I5GraphS4_ISA_EER10MSTFactoryRS2_I4TreeS4_ISG_EEEUlvE4_E21_M_not_empty_functionISK_EEbRKT_
FNDA:2,_ZNSt14_Function_base13_Base_managerIZ14handleCommandsiRSt6vectorISt10unique_ptrI12ActiveObjectSt14default_deleteIS3_EESaIS6_EERS2_I5GraphS4_ISA_EER10MSTFactoryRS2_I4TreeS4_ISG_EEEUlvE4_E21_M_not_empty_functionISK_EEbRKT_
FN:235,_ZNSt14_Function_base13_Base_managerIZ14handleCommandsiRSt6vectorISt10unique_ptrI12ActiveObjectSt14default_deleteIS3_EESaIS6_EERS2_I5GraphS4_ISA_EER10MSTFactoryRS2_I4TreeS4_ISG_EEEUlvE6_E21_M_not_empty_functionISK_EEbRKT_
FNDA:5,_ZNSt14_Function_base13_Base_managerIZ14handleCommandsiRSt6vectorISt10unique_ptrI12ActiveObjectSt14default_deleteIS3_EESaIS6_EERS2_I5GraphS4_ISA_EER10MSTFactoryRS2_I4TreeS4_ISG_EEEUlvE6_E21_M_not_empty_functionISK_EEbRKT_
FN:239,_ZNSt14_Function_baseC2Ev
FNDA:117,_ZNSt14_Function_baseC2Ev
FN:241,_ZNSt14_Function_baseD2Ev
FNDA:117,_ZNSt14_Function_baseD2Ev
FN:247,_ZNKSt14_Function_base8_M_emptyEv
FNDA:73,_ZNKSt14_Function_base8_M_emptyEv
FN:267,_ZNSt17_Function_handlerIFviEZ4mainEUliE_E10_M_managerERSt9_Any_dataRKS3_St18_Manager_operation
FNDA:1,_ZNSt17_Function_handlerIFviEZ4mainEUliE_E10_M_managerERSt9_Any_dataRKS3_St18_Manager_operation
FN:267,_ZNSt17_Function_handlerIFvvEZ14handleCommandsiRSt6vectorISt10unique_ptrI12ActiveObjectSt14default_deleteIS3_EESaIS6_EERS2_I5GraphS4_ISA_EER10MSTFactoryRS2_I4TreeS4_ISG_EEEUlvE5_E10_M_managerERSt9_Any_dataRKSM_St18_Manager_operation
FNDA:2,_ZNSt17_Function_handlerIFvvEZ14handleCommandsiRSt6vectorISt10unique_ptrI12ActiveObjectSt14default_deleteIS3_EESaIS6_EERS2_I5GraphS4_ISA_EER10MSTFactoryRS2_I4TreeS4_ISG_EEEUlvE5_E10_M_managerERSt9_Any_dataRKSM_St18_Manager_operation
FN:267,_ZNSt17_Function_handlerIFvvEZ14handleCommandsiRSt6vectorISt10unique_ptrI12ActiveObjectSt14default_deleteIS3_EESaIS6_EERS2_I5GraphS4_ISA_EER10MSTFactoryRS2_I4TreeS4_ISG_EEEUlvE9_E10_M_managerERSt9_Any_dataRKSM_St18_Manager_operation
FNDA:2,_ZNSt17_Function_handlerIFvvEZ14handleCommandsiRSt6vectorISt10unique_ptrI12ActiveObjectSt14default_deleteIS3_EESaIS6_EERS2_I5GraphS4_ISA_EER10MSTFactoryRS2_I4TreeS4_ISG_EEEUlvE9_E10_M_managerERSt9_Any_dataRKSM_St18_Manager_operation
FN:267,_ZNSt17_Function_handlerIFvvEZ14handleCommandsiRSt6vectorISt10unique_ptrI12ActiveObjectSt14default_deleteIS3_EESaIS6_EERS2_I5GraphS4_ISA_EER10MSTFactoryRS2_I4TreeS4_ISG_EEEUlvE10_E10_M_managerERSt9_Any_dataRKSM_St18_Manager_operation
FNDA:2,_ZNSt17_Function_handlerIFvvEZ14handleCommandsiRSt6vectorISt10unique_ptrI12ActiveObjectSt14default_deleteIS3_EESaIS6_EERS2_I5GraphS4_ISA_EER10MSTFactoryRS2_I4TreeS4_ISG_EEEUlvE10_E10_M_managerERSt9_Any_dataRKSM_St18_Manager_operation
FN:267,_ZNSt17_Function_handlerIFvvEZ14handleCommandsiRSt6vectorISt10unique_ptrI12ActiveObjectSt14default_deleteIS3_EESaIS6_EERS2_I5GraphS4_ISA_EER10MSTFactoryRS2_I4TreeS4_ISG_EEEUlvE8_E10_M_managerERSt9_Any_dataRKSM_St18_Manager_operation
FNDA:3,_ZNSt17_Function_handlerIFvvEZ14handleCommandsiRSt6vectorISt10unique_ptrI12ActiveObjectSt14default_deleteIS3_EESaIS6_EERS2_I5GraphS4_ISA_EER10MSTFactoryRS2_I4TreeS4_ISG_EEEUlvE8_E10_M_managerERSt9_Any_dataRKSM_St18_Manager_operation
FN:267,_ZNSt17_Function_handlerIFvvEZ14handleCommandsiRSt6vectorISt10unique_ptrI12ActiveObjectSt14default_deleteIS3_EESaIS6_EERS2_I5GraphS4_ISA_EER10MSTFactoryRS2_I4TreeS4_ISG_EEEUlvE_E10_M_managerERSt9_Any_dataRKSM_St18_Manager_operation
FNDA:4,_ZNSt17_Function_handlerIFvvEZ14handleCommandsiRSt6vectorISt10unique_ptrI12ActiveObjectSt14default_deleteIS3_EESaIS6_EERS2_I5GraphS4_ISA_EER10MSTFactoryRS2_I4TreeS4_ISG_EEEUlvE_E10_M_managerERSt9_Any_dataRKSM_St18_Manager_operation
FN:267,_ZNSt17_Function_handlerIFvvEZ14handleCommandsiRSt6vectorISt10unique_ptrI12ActiveObjectSt14default_deleteIS3_EESaIS6_EERS2_I5GraphS4_ISA_EER10MSTFactoryRS2_I4TreeS4_ISG_EEEUlvE6_E10_M_managerERSt9_Any_dataRKSM_St18_Manager_operation
FNDA:5,_ZNSt17_Function_handlerIFvvEZ14handleCommandsiRSt6vectorISt10unique_ptrI12ActiveObjectSt14default_deleteIS3_EESaIS6_EERS2_I5GraphS4_ISA_EER10MSTFactoryRS2_I4TreeS4_ISG_EEEUlvE6_E10_M_managerERSt9_Any_dataRKSM_St18_Manager_operation
FN:267,_ZNSt17_Function_handlerIFvvEZ14handleCommandsiRSt6vectorISt10unique_ptrI12ActiveObjectSt14default_deleteIS3_EESaIS6_EERS2_I5GraphS4_ISA_EER10MSTFactoryRS2_I4TreeS4_ISG_EEEUlvE1_E10_M_managerERSt9_Any_dataRKSM_St18_Manager_operation
FNDA:2,_ZNSt17_Function_handlerIFvvEZ14handleCommandsiRSt6vectorISt10unique_ptrI12ActiveObjectSt14default_deleteIS3_EESaIS6_EERS2_I5GraphS4_ISA_EER10MSTFactoryRS2_I4TreeS4_ISG_EEEUlvE1_E10_M_managerERSt9_Any_dataRKSM_St18_Manager_operation
FN:267,_ZNSt17_Function_handlerIFvvEZ14handleCommandsiRSt6vectorISt10unique_ptrI12ActiveObjectSt14default_deleteIS3_EESaIS6_EERS2_I5GraphS4_ISA_EER10MSTFactoryRS2_I4TreeS4_ISG_EEEUlvE2_E10_M_managerERSt9_Any_dataRKSM_St18_Manager_operation
FNDA:2,_ZNSt17_Function_handlerIFvvEZ14handleCommandsiRSt6vectorISt10unique_ptrI12ActiveObjectSt14default_deleteIS3_EESaIS6_EERS2_I5GraphS4_ISA_EER10MSTFactoryRS2_I4TreeS4_ISG_EEEUlvE2_E10_M_managerERSt9_Any_dataRKSM_St18_Manager_operation
FN:267,_ZNSt17_Function_handlerIFvvEZ14handleCommandsiRSt6vectorISt10unique_ptrI12ActiveObjectSt14default_deleteIS3_EESaIS6_EERS2_I5GraphS4_ISA_EER10MSTFactoryRS2_I4TreeS4_ISG_EEEUlvE3_E10_M_managerERSt9_Any_dataRKSM_St18_Manager_operation
FNDA:2,_ZNSt17_Function_handlerIFvvEZ14handleCommandsiRSt6vectorISt10unique_ptrI12ActiveObjectSt14default_deleteIS3_EESaIS6_EERS2_I5GraphS4_ISA_EER10MSTFactoryRS2_I4TreeS4_ISG_EEEUlvE3_E10_M_managerERSt9_Any_dataRKSM_St18_Manager_operation
FN:267,_ZNSt17_Function_handlerIFvvEZ14handleCommandsiRSt6vectorISt10unique_ptrI12ActiveObjectSt14default_deleteIS3_EESaIS6_EERS2_I5GraphS4_ISA_EER10MSTFactoryRS2_I4TreeS4_ISG_EEEUlvE0_E10_M_managerERSt9_Any_dataRKSM_St18_Manager_operation
FNDA:10,_ZNSt17_Function_handlerIFvvEZ14handleCommandsiRSt6vectorISt10unique_ptrI12ActiveObjectSt14default_deleteIS3_EESaIS6_EERS2_I5GraphS4_ISA_EER10MSTFactoryRS2_I4TreeS4_ISG_EEEUlvE0_E10_M_managerERSt9_Any_dataRKSM_St18_Manager_operation
FN:267,_ZNSt17_Function_handlerIFvvEZ14handleCommandsiRSt6vectorISt10unique_ptrI12ActiveObjectSt14default_deleteIS3_EESaIS6_EERS2_I5GraphS4_ISA_EER10MSTFactoryRS2_I4TreeS4_ISG_EEEUlvE4_E10_M_managerERSt9_Any_dataRKSM_St18_Manager_operation
FNDA:2,_ZNSt17_Function_handlerIFvvEZ14handleCommandsiRSt6vectorISt10unique_ptrI12ActiveObjectSt14default_deleteIS3_EESaIS6_EERS2_I5GraphS4_ISA_EER10MSTFactoryRS2_I4TreeS4_ISG_EEEUlvE4_E10_M_managerERSt9_Any_dataRKSM_St18_Manager_operation
FN:288,_ZNSt17_Function_handlerIFvvEZ14handleCommandsiRSt6vectorISt10unique_ptrI12ActiveObjectSt14default_deleteIS3_EESaIS6_EERS2_I5GraphS4_ISA_EER10MSTFactoryRS2_I4TreeS4_ISG_EEEUlvE4_E9_M_invokeERKSt9_Any_data
FNDA:2,_ZNSt17_Function_handlerIFvvEZ14handleCommandsiRSt6vectorISt10unique_ptrI12ActiveObjectSt14default_deleteIS3_EESaIS6_EERS2_I5GraphS4_ISA_EER10MSTFactoryRS2_I4TreeS4_ISG_EEEUlvE4_E9_M_invokeERKSt9_Any_data
FN:288,_ZNSt17_Function_handlerIFvvEZ14handleCommandsiRSt6vectorISt10unique_ptrI12ActiveObjectSt14default_deleteIS3_EESaIS6_EERS2_I5GraphS4_ISA_EER10MSTFactoryRS2_I4TreeS4_ISG_EEEUlvE3_E9_M_invokeERKSt9_Any_data
FNDA:2,_ZNSt17_Function_handlerIFvvEZ14handleCommandsiRSt6vectorISt10unique_ptrI12ActiveObjectSt14default_deleteIS3_EESaIS6_EERS2_I5GraphS4_ISA_EER10MSTFactoryRS2_I4TreeS4_ISG_EEEUlvE3_E9_M_invokeERKSt9_Any_data
FN:288,_ZNSt17_Function_handlerIFvvEZ14handleCommandsiRSt6vectorISt10unique_ptrI12ActiveObjectSt14default_deleteIS3_EESaIS6_EERS2_I5GraphS4_ISA_EER10MSTFactoryRS2_I4TreeS4_ISG_EEEUlvE10_E9_M_invokeERKSt9_Any_data
FNDA:2,_ZNSt17_Function_handlerIFvvEZ14handleCommandsiRSt6vectorISt10unique_ptrI12ActiveObjectSt14default_deleteIS3_EESaIS6_EERS2_I5GraphS4_ISA_EER10MSTFactoryRS2_I4TreeS4_ISG_EEEUlvE10_E9_M_invokeERKSt9_Any_data
FN:288,_ZNSt17_Function_handlerIFvvEZ14handleCommandsiRSt6vectorISt10unique_ptrI12ActiveObjectSt14default_deleteIS3_EESaIS6_EERS2_I5GraphS4_ISA_EER10MSTFactoryRS2_I4TreeS4_ISG_EEEUlvE2_E9_M_invokeERKSt9_Any_data
FNDA:2,_ZNSt17_Function_handlerIFvvEZ14handleCommandsiRSt6vectorISt10unique_ptrI12ActiveObjectSt14default_deleteIS3_EESaIS6_EERS2_I5GraphS4_ISA_EER10MSTFactoryRS2_I4TreeS4_ISG_EEEUlvE2_E9_M_invokeERKSt9_Any_data
FN:288,_ZNSt17_Function_handlerIFviEZ4mainEUliE_E9_M_invokeERKSt9_Any_dataOi
FNDA:1,_ZNSt17_Function_handlerIFviEZ4mainEUliE_E9_M_invokeERKSt9_Any_dataOi
FN:288,_ZNSt17_Function_handlerIFvvEZ14handleCommandsiRSt6vectorISt10unique_ptrI12ActiveObjectSt14default_deleteIS3_EESaIS6_EERS2_I5GraphS4_ISA_EER10MSTFactoryRS2_I4TreeS4_ISG_EEEUlvE6_E9_M_invokeERKSt9_Any_data
FNDA:5,_ZNSt17_Function_handlerIFvvEZ14handleCommandsiRSt6vectorISt10unique_ptrI12ActiveObjectSt14default_deleteIS3_EESaIS6_EERS2_I5GraphS4_ISA_EER10MSTFactoryRS2_I4TreeS4_ISG_EEEUlvE6_E9_M_invokeERKSt9_Any_data
FN:288,_ZNSt17_Function_handlerIFvvEZ14handleCommandsiRSt6vectorISt10unique_ptrI12ActiveObjectSt14default_deleteIS3_EESaIS6_EERS2_I5GraphS4_ISA_EER10MSTFactoryRS2_I4TreeS4_ISG_EEEUlvE_E9_M_invokeERKSt9_Any_data
FNDA:4,_ZNSt17_Function_handlerIFvvEZ14handleCommandsiRSt6vectorISt10unique_ptrI12ActiveObjectSt14default_deleteIS3_EESaIS6_EERS2_I5GraphS4_ISA_EER10MSTFactoryRS2_I4TreeS4_ISG_EEEUlvE_E9_M_invokeERKSt9_Any_data
FN:288,_ZNSt17_Function_handlerIFvvEZ14handleCommandsiRSt6vectorISt10unique_ptrI12ActiveObjectSt14default_deleteIS3_EESaIS6_EERS2_I5GraphS4_ISA_EER10MSTFactoryRS2_I4TreeS4_ISG_EEEUlvE1_E9_M_invokeERKSt9_Any_data
FNDA:2,_ZNSt17_Function_handlerIFvvEZ14handleCommandsiRSt6vectorISt10unique_ptrI12ActiveObjectSt14default_deleteIS3_EESaIS6_EERS2_I5GraphS4_ISA_EER10MSTFactoryRS2_I4TreeS4_ISG_EEEUlvE1_E9_M_invokeERKSt9_Any_data
FN:288,_ZNSt17_Function_handlerIFvvEZ14handleCommandsiRSt6vectorISt10unique_ptrI12ActiveObjectSt14default_deleteIS3_EESaIS6_EERS2_I5GraphS4_ISA_EER10MSTFactoryRS2_I4TreeS4_ISG_EEEUlvE9_E9_M_invokeERKSt9_Any_data
FNDA:2,_ZNSt17_Function_handlerIFvvEZ14handleCommandsiRSt6vectorISt10unique_ptrI12ActiveObjectSt14default_deleteIS3_EESaIS6_EERS2_I5GraphS4_ISA_EER10MSTFactoryRS2_I4TreeS4_ISG_EEEUlvE9_E9_M_invokeERKSt9_Any_data
FN:288,_ZNSt17_Function_handlerIFvvEZ14handleCommandsiRSt6vectorISt10unique_ptrI12ActiveObjectSt14default_deleteIS3_EESaIS6_EERS2_I5GraphS4_ISA_EER10MSTFactoryRS2_I4TreeS4_ISG_EEEUlvE5_E9_M_invokeERKSt9_Any_data
FNDA:2,_ZNSt17_Function_handlerIFvvEZ14handleCommandsiRSt6vectorISt10unique_ptrI12ActiveObjectSt14default_deleteIS3_EESaIS6_EERS2_I5GraphS4_ISA_EER10MSTFactoryRS2_I4TreeS4_ISG_EEEUlvE5_E9_M_invokeERKSt9_Any_data
FN:288,_ZNSt17_Function_handlerIFvvEZ14handleCommandsiRSt6vectorISt10unique_ptrI12ActiveObjectSt14default_deleteIS3_EESaIS6_EERS2_I5GraphS4_ISA_EER10MSTFactoryRS2_I4TreeS4_ISG_EEEUlvE8_E9_M_invokeERKSt9_Any_data
FNDA:3,_ZNSt17_Function_handlerIFvvEZ14handleCommandsiRSt6vectorISt10unique_ptrI12ActiveObjectSt14default_deleteIS3_EESaIS6_EERS2_I5GraphS4_ISA_EER10MSTFactoryRS2_I4TreeS4_ISG_EEEUlvE8_E9_M_invokeERKSt9_Any_data
FN:288,_ZNSt17_Function_handlerIFvvEZ14handleCommandsiRSt6vectorISt10unique_ptrI12ActiveObjectSt14default_deleteIS3_EESaIS6_EERS2_I5GraphS4_ISA_EER10MSTFactoryRS2_I4TreeS4_ISG_EEEUlvE0_E9_M_invokeERKSt9_Any_data
FNDA:10,_ZNSt17_Function_handlerIFvvEZ14handleCommandsiRSt6vectorISt10unique_ptrI12ActiveObjectSt14default_deleteIS3_EESaIS6_EERS2_I5GraphS4_ISA_EER10MSTFactoryRS2_I4TreeS4_ISG_EEEUlvE0_E9_M_invokeERKSt9_Any_data
FN:368,_ZNSt8functionIFviEEC2Ev
FNDA:1,_ZNSt8functionIFviEEC2Ev
FN:435,_ZNSt8functionIFviEEC2IZ4mainEUliE_vEEOT_
FNDA:1,_ZNSt8functionIFviEEC2IZ4mainEUliE_vEEOT_
FN:435,_ZNSt8functionIFvvEEC2IRZ14handleCommandsiRSt6vectorISt10unique_ptrI12ActiveObjectSt14default_deleteIS5_EESaIS8_EERS4_I5GraphS6_ISC_EER10MSTFactoryRS4_I4TreeS6_ISI_EEEUlvE10_vEEOT_
FNDA:2,_ZNSt8functionIFvvEEC2IRZ14handleCommandsiRSt6vectorISt10unique_ptrI12ActiveObjectSt14default_deleteIS5_EESaIS8_EERS4_I5GraphS6_ISC_EER10MSTFactoryRS4_I4TreeS6_ISI_EEEUlvE10_vEEOT_
FN:435,_ZNSt8functionIFvvEEC2IRZ14handleCommandsiRSt6vectorISt10unique_ptrI12ActiveObjectSt14default_deleteIS5_EESaIS8_EERS4_I5GraphS6_ISC_EER10MSTFactoryRS4_I4TreeS6_ISI_EEEUlvE9_vEEOT_
FNDA:2,_ZNSt8functionIFvvEEC2IRZ14handleCommandsiRSt6vectorISt10unique_ptrI12ActiveObjectSt14default_deleteIS5_EESaIS8_EERS4_I5GraphS6_ISC_EER10MSTFactoryRS4_I4TreeS6_ISI_EEEUlvE9_vEEOT_
FN:435,_ZNSt8functionIFvvEEC2IRZ14handleCommandsiRSt6vectorISt10unique_ptrI12ActiveObjectSt14default_deleteIS5_EESaIS8_EERS4_I5GraphS6_ISC_EER10MSTFactoryRS4_I4TreeS6_ISI_EEEUlvE8_vEEOT_
FNDA:3,_ZNSt8functionIFvvEEC2IRZ14handleCommandsiRSt6vectorISt10unique_ptrI12ActiveObjectSt14default_deleteIS5_EESaIS8_EERS4_I5GraphS6_ISC_EER10MSTFactoryRS4_I4TreeS6_ISI_EEEUlvE8_vEEOT_
FN:435,_ZNSt8functionIFvvEEC2IRZ14handleCommandsiRSt6vectorISt10unique_ptrI12ActiveObjectSt14default_deleteIS5_EESaIS8_EERS4_I5GraphS6_ISC_EER10MSTFactoryRS4_I4TreeS6_ISI_EEEUlvE_vEEOT_
FNDA:4,_ZNSt8functionIFvvEEC2IRZ14handleCommandsiRSt6vectorISt10unique_ptrI12ActiveObjectSt14default_deleteIS5_EESaIS8_EERS4_I5GraphS6_ISC_EER10MSTFactoryRS4_I4TreeS6_ISI_EEEUlvE_vEEOT_
FN:435,_ZNSt8functionIFvvEEC2IRZ14handleCommandsiRSt6vectorISt10unique_ptrI12ActiveObjectSt14default_deleteIS5_EESaIS8_EERS4_I5GraphS6_ISC_EER10MSTFactoryRS4_I4TreeS6_ISI_EEEUlvE6_vEEOT_
FNDA:5,_ZNSt8functionIFvvEEC2IRZ14handleCommandsiRSt6vectorISt10unique_ptrI12ActiveObjectSt14default_deleteIS5_EESaIS8_EERS4_I5GraphS6_ISC_EER10MSTFactoryRS4_I4TreeS6_ISI_EEEUlvE6_vEEOT_
FN:435,_ZNSt8functionIFvvEEC2IRZ14handleCommandsiRSt6vectorISt10unique_ptrI12ActiveObjectSt14default_deleteIS5_EESaIS8_EERS4_I5GraphS6_ISC_EER10MSTFactoryRS4_I4TreeS6_ISI_EEEUlvE5_vEEOT_
FNDA:2,_ZNSt8functionIFvvEEC2IRZ14handleCommandsiRSt6vectorISt10unique_ptrI12ActiveObjectSt14default_deleteIS5_EESaIS8_EERS4_I5GraphS6_ISC_EER10MSTFactoryRS4_I4TreeS6_ISI_EEEUlvE5_vEEOT_
FN:435,_ZNSt8functionIFvvEEC2IRZ14handleCommandsiRSt6vectorISt10unique_ptrI12ActiveObjectSt14default_deleteIS5_EESaIS8_EERS4_I5GraphS6_ISC_EER10MSTFactoryRS4_I4TreeS6_ISI_EEEUlvE4_vEEOT_
FNDA:2,_ZNSt8functionIFvvEEC2IRZ14handleCommandsiRSt6vectorISt10unique_ptrI12ActiveObjectSt14default_deleteIS5_EESaIS8_EERS4_I5GraphS6_ISC_EER10MSTFactoryRS4_I4TreeS6_ISI_EEEUlvE4_vEEOT_
FN:435,_ZNSt8functionIFvvEEC2IRZ14handleCommandsiRSt6vectorISt10unique_ptrI12ActiveObjectSt14default_deleteIS5_EESaIS8_EERS4_I5GraphS6_ISC_EER10MSTFactoryRS4_I4TreeS6_ISI_EEEUlvE3_vEEOT_
FNDA:2,_ZNSt8functionIFvvEEC2IRZ14handleCommandsiRSt6vectorISt10unique_ptrI12ActiveObjectSt14default_deleteIS5_EESaIS8_EERS4_I5GraphS6_ISC_EER10MSTFactoryRS4_I4TreeS6_ISI_EEEUlvE3_vEEOT_
FN:435,_ZNSt8functionIFvvEEC2IRZ14handleCommandsiRSt6vectorISt10unique_ptrI12ActiveObjectSt14default_deleteIS5_EESaIS8_EERS4_I5GraphS6_ISC_EER10MSTFactoryRS4_I4TreeS6_ISI_EEEUlvE2_vEEOT_
FNDA:2,_ZNSt8functionIFvvEEC2IRZ14handleCommandsiRSt6vectorISt10unique_ptrI12ActiveObjectSt14default_deleteIS5_EESaIS8_EERS4_I5GraphS6_ISC_EER10MSTFactoryRS4_I4TreeS6_ISI_EEEUlvE2_vEEOT_
FN:435,_ZNSt8functionIFvvEEC2IRZ14handleCommandsiRSt6vectorISt10unique_ptrI12ActiveObjectSt14default_deleteIS5_EESaIS8_EERS4_I5GraphS6_ISC_EER10MSTFactoryRS4_I4TreeS6_ISI_EEEUlvE1_vEEOT_
FNDA:2,_ZNSt8functionIFvvEEC2IRZ14handleCommandsiRSt6vectorISt10unique_ptrI12ActiveObjectSt14default_deleteIS5_EESaIS8_EERS4_I5GraphS6_ISC_EER10MSTFactoryRS4_I4TreeS6_ISI_EEEUlvE1_vEEOT_
FN:435,_ZNSt8functionIFvvEEC2IRZ14handleCommandsiRSt6vectorISt10unique_ptrI12ActiveObjectSt14default_deleteIS5_EESaIS8_EERS4_I5GraphS6_ISC_EER10MSTFactoryRS4_I4TreeS6_ISI_EEEUlvE0_vEEOT_
FNDA:10,_ZNSt8functionIFvvEEC2IRZ14handleCommandsiRSt6vectorISt10unique_ptrI12ActiveObjectSt14default_deleteIS5_EESaIS8_EERS4_I5GraphS6_ISC_EER10MSTFactoryRS4_I4TreeS6_ISI_EEEUlvE0_vEEOT_
FN:530,_ZNSt8functionIFviEEaSIZ4mainEUliE_EENSt9enable_ifIXsrNS1_9_CallableIT_NS4_IXntsrSt7is_sameINSt9remove_cvINSt16remove_referenceIS6_E4typeEE4typeES1_E5valueESt5decayIS6_EE4type4typeESt15__invoke_resultIRSJ_JiEEEE5valueERS1_E4typeEOS6_
FNDA:1,_ZNSt8functionIFviEEaSIZ4mainEUliE_EENSt9enable_ifIXsrNS1_9_CallableIT_NS4_IXntsrSt7is_sameINSt9remove_cvINSt16remove_referenceIS6_E4typeEE4typeES1_E5valueESt5decayIS6_EE4type4typeESt15__invoke_resultIRSJ_JiEEEE5valueERS1_E4typeEOS6_
FN:555,_ZNSt8functionIFviEE4swapERS1_
FNDA:1,_ZNSt8functionIFviEE4swapERS1_
FN:586,_ZNKSt8functionIFviEEclEi
FNDA:1,_ZNKSt8functionIFviEEclEi
DA:85,74
DA:86,37
DA:90,4
DA:91,4
DA:90,4
DA:91,4
DA:90,6
DA:91,6
DA:90,10
DA:91,10
DA:90,4
DA:91,4
DA:90,4
DA:91,4
DA:90,4
DA:91,4
DA:90,4
DA:91,4
DA:90,4
DA:91,4
DA:90,20
DA:91,20
DA:90,8
DA:91,8
DA:90,2
DA:91,2
DA:90,0
DA:91,0
DA:95,2
DA:96,2
DA:95,2
DA:96,2
DA:95,3
DA:96,3
DA:95,5
DA:96,5
DA:95,2
DA:96,2
DA:95,2
DA:96,2
DA:95,2
DA:96,2
DA:95,2
DA:96,2
DA:95,2
DA:96,2
DA:95,10
DA:96,10
DA:95,4
DA:96,4
DA:95,1
DA:96,1
DA:134,2
DA:142,2
DA:134,2
DA:142,2
DA:134,3
DA:142,3
DA:134,5
DA:142,5
DA:134,2
DA:142,2
DA:134,2
DA:142,2
DA:134,2
DA:142,2
DA:134,2
DA:142,2
DA:134,2
DA:142,2
DA:134,10
DA:142,10
DA:134,4
DA:142,4
DA:134,1
DA:142,1
DA:158,2
DA:160,2
DA:161,2
DA:162,2
DA:158,1
DA:160,1
DA:161,1
DA:162,1
DA:158,0
DA:160,0
DA:161,0
DA:162,0
DA:158,4
DA:160,4
DA:161,4
DA:162,4
DA:158,10
DA:160,10
DA:161,10
DA:162,10
DA:158,2
DA:160,2
DA:161,2
DA:162,2
DA:158,2
DA:160,2
DA:161,2
DA:162,2
DA:158,2
DA:160,2
DA:161,2
DA:162,2
DA:158,2
DA:160,2
DA:161,2
DA:162,2
DA:158,2
DA:160,2
DA:161,2
DA:162,2
DA:158,5
DA:160,5
DA:161,5
DA:162,5
DA:158,3
DA:160,3
DA:161,3
DA:162,3
DA:158,0
DA:160,0
DA:161,0
DA:162,0
DA:158,2
DA:160,2
DA:161,2
DA:162,2
DA:158,0
DA:160,0
DA:161,0
DA:162,0
DA:158,0
DA:160,0
DA:161,0
DA:162,0
DA:158,0
DA:160,0
DA:161,0
DA:162,0
DA:158,0
DA:160,0
DA:161,0
DA:162,0
DA:158,0
DA:160,0
DA:161,0
DA:162,0
DA:158,0
DA:160,0
DA:161,0
DA:162,0
DA:158,0
DA:160,0
DA:161,0
DA:162,0
DA:158,0
DA:160,0
DA:161,0
DA:162,0
DA:158,0
DA:160,0
DA:161,0
DA:162,0
DA:158,0
DA:160,0
DA:161,0
DA:162,0
DA:173,2
DA:175,2
DA:176,2
DA:173,2
DA:175,2
DA:176,2
DA:173,3
DA:175,3
DA:176,3
DA:173,5
DA:175,5
DA:176,5
DA:173,2
DA:175,2
DA:176,2
DA:173,2
DA:175,2
DA:176,2
DA:173,2
DA:175,2
DA:176,2
DA:173,2
DA:175,2
DA:176,2
DA:173,2
DA:175,2
DA:176,2
DA:173,10
DA:175,10
DA:176,10
DA:173,4
DA:175,4
DA:176,4
DA:173,1
DA:175,1
DA:176,1
DA:180,2
DA:183,2
DA:185,0
DA:187,0
DA:191,0
DA:193,0
DA:194,0
DA:195,0
DA:197,0
DA:198,0
DA:199,0
DA:200,0
DA:202,2
DA:203,2
DA:204,2
DA:206,2
DA:180,2
DA:183,2
DA:185,0
DA:187,0
DA:191,0
DA:193,0
DA:194,0
DA:195,0
DA:197,0
DA:198,0
DA:199,0
DA:200,0
DA:202,2
DA:203,2
DA:204,2
DA:206,2
DA:180,3
DA:183,3
DA:185,0
DA:187,0
DA:191,0
DA:193,0
DA:194,0
DA:195,0
DA:197,0
DA:198,0
DA:199,0
DA:200,0
DA:202,3
DA:203,3
DA:204,3
DA:206,3
DA:180,5
DA:183,5
DA:185,0
DA:187,0
DA:191,0
DA:193,0
DA:194,0
DA:195,0
DA:197,0
DA:198,0
DA:199,0
DA:200,0
DA:202,5
DA:203,5
DA:204,5
DA:206,5
DA:180,2
DA:183,2
DA:185,0
DA:187,0
DA:191,0
DA:193,0
DA:194,0
DA:195,0
DA:197,0
DA:198,0
DA:199,0
DA:200,0
DA:202,2
DA:203,2
DA:204,2
DA:206,2
DA:180,2
DA:183,2
DA:185,0
DA:187,0
DA:191,0
DA:193,0
DA:194,0
DA:195,0
DA:197,0
DA:198,0
DA:199,0
DA:200,0
DA:202,2
DA:203,2
DA:204,2
DA:206,2
DA:180,2
DA:183,2
DA:185,0
DA:187,0
DA:191,0
DA:193,0
DA:194,0
DA:195,0
DA:197,0
DA:198,0
DA:199,0
DA:200,0
DA:202,2
DA:203,2
DA:204,2
DA:206,2
DA:180,2
DA:183,2
DA:185,0
DA:187,0
DA:191,0
DA:193,0
DA:194,0
DA:195,0
DA:197,0
DA:198,0
DA:199,0
DA:200,0
DA:202,2
DA:203,2
DA:204,2
DA:206,2
DA:180,2
DA:183,2
DA:185,0
DA:187,0
DA:191,0
DA:193,0
DA:194,0
DA:195,0
DA:197,0
DA:198,0
DA:199,0
DA:200,0
DA:202,2
DA:203,2
DA:204,2
DA:206,2
DA:180,10
DA:183,10
DA:185,0
DA:187,0
DA:191,0
DA:193,0
DA:194,0
DA:195,0
DA:197,0
DA:198,0
DA:199,0
DA:200,0
DA:202,10
DA:203,10
DA:204,10
DA:206,10
DA:180,4
DA:183,4
DA:185,0
DA:187,0
DA:191,0
DA:193,0
DA:194,0
DA:195,0
DA:197,0
DA:198,0
DA:199,0
DA:200,0
DA:202,4
DA:203,4
DA:204,4
DA:206,4
DA:180,1
DA:183,1
DA:185,0
DA:187,0
DA:191,0
DA:193,0
DA:194,0
DA:195,0
DA:197,0
DA:198,0
DA:199,0
DA:200,0
DA:202,1
DA:203,1
DA:204,1
DA:206,1
DA:211,2
DA:215,2
DA:216,2
DA:211,1
DA:215,1
DA:216,1
DA:211,0
DA:215,0
DA:216,0
DA:211,4
DA:215,4
DA:216,4
DA:211,10
DA:215,10
DA:216,10
DA:211,2
DA:215,2
DA:216,2
DA:211,2
DA:215,2
DA:216,2
DA:211,2
DA:215,2
DA:216,2
DA:211,2
DA:215,2
DA:216,2
DA:211,2
DA:215,2
DA:216,2
DA:211,5
DA:215,5
DA:216,5
DA:211,3
DA:215,3
DA:216,3
DA:211,0
DA:215,0
DA:216,0
DA:211,2
DA:215,2
DA:216,2
DA:211,0
DA:215,0
DA:216,0
DA:211,0
DA:215,0
DA:216,0
DA:211,0
DA:215,0
DA:216,0
DA:211,0
DA:215,0
DA:216,0
DA:211,0
DA:215,0
DA:216,0
DA:211,0
DA:215,0
DA:216,0
DA:211,0
DA:215,0
DA:216,0
DA:211,0
DA:215,0
DA:216,0
DA:211,0
DA:215,0
DA:216,0
DA:211,0
DA:215,0
DA:216,0
DA:235,2
DA:236,2
DA:235,2
DA:236,2
DA:235,3
DA:236,3
DA:235,5
DA:236,5
DA:235,2
DA:236,2
DA:235,2
DA:236,2
DA:235,2
DA:236,2
DA:235,2
DA:236,2
DA:235,2
DA:236,2
DA:235,10
DA:236,10
DA:235,4
DA:236,4
DA:235,1
DA:236,1
DA:239,117
DA:241,117
DA:243,117
DA:244,37
DA:245,117
DA:247,73
DA:267,2
DA:270,2
DA:273,0
DA:274,0
DA:275,0
DA:277,0
DA:278,0
DA:279,0
DA:281,2
DA:282,2
DA:284,2
DA:267,2
DA:270,2
DA:273,0
DA:274,0
DA:275,0
DA:277,0
DA:278,0
DA:279,0
DA:281,2
DA:282,2
DA:284,2
DA:267,3
DA:270,3
DA:273,0
DA:274,0
DA:275,0
DA:277,0
DA:278,0
DA:279,0
DA:281,3
DA:282,3
DA:284,3
DA:267,5
DA:270,5
DA:273,0
DA:274,0
DA:275,0
DA:277,0
DA:278,0
DA:279,0
DA:281,5
DA:282,5
DA:284,5
DA:267,2
DA:270,2
DA:273,0
DA:274,0
DA:275,0
DA:277,0
DA:278,0
DA:279,0
DA:281,2
DA:282,2
DA:284,2
DA:267,2
DA:270,2
DA:273,0
DA:274,0
DA:275,0
DA:277,0
DA:278,0
DA:279,0
DA:281,2
DA:282,2
DA:284,2
DA:267,2
DA:270,2
DA:273,0
DA:274,0
DA:275,0
DA:277,0
DA:278,0
DA:279,0
DA:281,2
DA:282,2
DA:284,2
DA:267,2
DA:270,2
DA:273,0
DA:274,0
DA:275,0
DA:277,0
DA:278,0
DA:279,0
DA:281,2
DA:282,2
DA:284,2
DA:267,2
DA:270,2
DA:273,0
DA:274,0
DA:275,0
DA:277,0
DA:278,0
DA:279,0
DA:281,2
DA:282,2
DA:284,2
DA:267,10
DA:270,10
DA:273,0
DA:274,0
DA:275,0
DA:277,0
DA:278,0
DA:279,0
DA:281,10
DA:282,10
DA:284,10
DA:267,4
DA:270,4
DA:273,0
DA:274,0
DA:275,0
DA:277,0
DA:278,0
DA:279,0
DA:281,4
DA:282,4
DA:284,4
DA:267,1
DA:270,1
DA:273,0
DA:274,0
DA:275,0
DA:277,0
DA:278,0
DA:279,0
DA:281,1
DA:282,1
DA:284,1
DA:288,2
DA:290,2
DA:291,2
DA:288,2
DA:290,2
DA:291,2
DA:288,3
DA:290,3
DA:291,3
DA:288,5
DA:290,5
DA:291,5
DA:288,2
DA:290,2
DA:291,2
DA:288,2
DA:290,2
DA:291,2
DA:288,2
DA:290,2
DA:291,2
DA:288,2
DA:290,2
DA:291,2
DA:288,2
DA:290,2
DA:291,2
DA:288,10
DA:290,10
DA:291,10
DA:288,4
DA:290,4
DA:291,4
DA:288,1
DA:290,1
DA:291,1
DA:368,1
DA:369,1
DA:435,2
DA:437,2
DA:447,2
DA:449,2
DA:451,2
DA:452,2
DA:454,2
DA:435,2
DA:437,2
DA:447,2
DA:449,2
DA:451,2
DA:452,2
DA:454,2
DA:435,3
DA:437,3
DA:447,3
DA:449,3
DA:451,3
DA:452,3
DA:454,3
DA:435,5
DA:437,5
DA:447,5
DA:449,5
DA:451,5
DA:452,5
DA:454,5
DA:435,2
DA:437,2
DA:447,2
DA:449,2
DA:451,2
DA:452,2
DA:454,2
DA:435,2
DA:437,2
DA:447,2
DA:449,2
DA:451,2
DA:452,2
DA:454,2
DA:435,2
DA:437,2
DA:447,2
DA:449,2
DA:451,2
DA:452,2
DA:454,2
DA:435,2
DA:437,2
DA:447,2
DA:449,2
DA:451,2
DA:452,2
DA:454,2
DA:435,2
DA:437,2
DA:447,2
DA:449,2
DA:451,2
DA:452,2
DA:454,2
DA:435,10
DA:437,10
DA:447,10
DA:449,10
DA:451,10
DA:452,10
DA:454,10
DA:435,4
DA:437,4
DA:447,4
DA:449,4
DA:451,4
DA:452,4
DA:454,4
DA:435,1
DA:437,1
DA:447,1
DA:449,1
DA:451,1
DA:452,1
DA:454,1
DA:530,1
DA:533,1
DA:534,1
DA:555,1
DA:557,1
DA:558,1
DA:559,1
DA:560,1
DA:586,1
DA:588,1
DA:589,0
DA:590,1
end_of_record
SF:/home/eladubuntu/Git Projects/OS_2024-FINAL_PROJECT_MST/MSTFactory.hpp
FN:25,_ZN10MSTFactory15destroyStrategyEv
FNDA:1,_ZN10MSTFactory15destroyStrategyEv
DA:25,1
end_of_record
SF:/usr/include/c++/11/bits/basic_string.tcc
FN:206,_ZNSt7__cxx1112basic_stringIcSt11char_traitsIcESaIcEE12_M_constructIPcEEvT_S7_St20forward_iterator_tag
FNDA:19,_ZNSt7__cxx1112basic_stringIcSt11char_traitsIcESaIcEE12_M_constructIPcEEvT_S7_St20forward_iterator_tag
FN:206,_ZNSt7__cxx1112basic_stringIcSt11char_traitsIcESaIcEE12_M_constructIPKcEEvT_S8_St20forward_iterator_tag
FNDA:58,_ZNSt7__cxx1112basic_stringIcSt11char_traitsIcESaIcEE12_M_constructIPKcEEvT_S8_St20forward_iterator_tag
FN:1169,_ZStplIcSt11char_traitsIcESaIcEENSt7__cxx1112basic_stringIT_T0_T1_EEPKS5_RKS8_
FNDA:2,_ZStplIcSt11char_traitsIcESaIcEENSt7__cxx1112basic_stringIT_T0_T1_EEPKS5_RKS8_
DA:206,19
DA:211,19
DA:212,0
DA:215,19
DA:217,19
DA:219,3
DA:220,3
DA:225,19
DA:226,0
DA:228,0
DA:229,0
DA:232,19
DA:233,19
DA:206,58
DA:211,58
DA:212,0
DA:215,58
DA:217,58
DA:219,20
DA:220,20
DA:225,58
DA:226,0
DA:228,0
DA:229,0
DA:232,58
DA:233,58
DA:1169,2
DA:1178,2
DA:1179,4
DA:1181,2
DA:1182,2
DA:1183,2
DA:1184,2
DA:1185,0
end_of_record
SF:/usr/include/c++/11/bits/stl_algobase.h
FN:230,_ZSt3minImERKT_S2_S2_
FNDA:222,_ZSt3minImERKT_S2_S2_
FN:254,_ZSt3maxImERKT_S2_S2_
FNDA:99,_ZSt3maxImERKT_S2_S2_
FN:313,_ZSt12__niter_baseIPSt6vectorI4EdgeSaIS1_EEET_S5_
FNDA:21,_ZSt12__niter_baseIPSt6vectorI4EdgeSaIS1_EEET_S5_
FN:313,_ZSt12__niter_baseIPmET_S1_
FNDA:40,_ZSt12__niter_baseIPmET_S1_
FN:313,_ZSt12__niter_baseIPSt10unique_ptrI12ActiveObjectSt14default_deleteIS1_EEET_S6_
FNDA:24,_ZSt12__niter_baseIPSt10unique_ptrI12ActiveObjectSt14default_deleteIS1_EEET_S6_
FN:313,_ZSt12__niter_baseIPPSt8functionIFvvEEET_S5_
FNDA:0,_ZSt12__niter_baseIPPSt8functionIFvvEEET_S5_
FN:335,_ZSt12__niter_wrapIPPSt8functionIFvvEEET_RKS5_S5_
FNDA:0,_ZSt12__niter_wrapIPPSt8functionIFvvEEET_RKS5_S5_
FN:335,_ZSt12__niter_wrapIPmET_RKS1_S1_
FNDA:8,_ZSt12__niter_wrapIPmET_RKS1_S1_
FN:420,_ZNSt11__copy_moveILb1ELb1ESt26random_access_iterator_tagE8__copy_mImEEPT_PKS3_S6_S4_
FNDA:1,_ZNSt11__copy_moveILb1ELb1ESt26random_access_iterator_tagE8__copy_mImEEPT_PKS3_S6_S4_
FN:420,_ZNSt11__copy_moveILb0ELb1ESt26random_access_iterator_tagE8__copy_mIPSt8functionIFvvEEEEPT_PKS7_SA_S8_
FNDA:0,_ZNSt11__copy_moveILb0ELb1ESt26random_access_iterator_tagE8__copy_mIPSt8functionIFvvEEEEPT_PKS7_SA_S8_
FN:486,_ZSt14__copy_move_a2ILb0EPPSt8functionIFvvEES4_ET1_T0_S6_S5_
FNDA:0,_ZSt14__copy_move_a2ILb0EPPSt8functionIFvvEES4_ET1_T0_S6_S5_
FN:486,_ZSt14__copy_move_a2ILb1EPmS0_ET1_T0_S2_S1_
FNDA:1,_ZSt14__copy_move_a2ILb1EPmS0_ET1_T0_S2_S1_
FN:521,_ZSt14__copy_move_a1ILb0EPPSt8functionIFvvEES4_ET1_T0_S6_S5_
FNDA:0,_ZSt14__copy_move_a1ILb0EPPSt8functionIFvvEES4_ET1_T0_S6_S5_
FN:521,_ZSt14__copy_move_a1ILb1EPmS0_ET1_T0_S2_S1_
FNDA:1,_ZSt14__copy_move_a1ILb1EPmS0_ET1_T0_S2_S1_
FN:527,_ZSt13__copy_move_aILb0EPPSt8functionIFvvEES4_ET1_T0_S6_S5_
FNDA:0,_ZSt13__copy_move_aILb0EPPSt8functionIFvvEES4_ET1_T0_S6_S5_
FN:527,_ZSt13__copy_move_aILb1EN9__gnu_cxx17__normal_iteratorIPmSt6vectorImSaImEEEES2_ET1_T0_S8_S7_
FNDA:1,_ZSt13__copy_move_aILb1EN9__gnu_cxx17__normal_iteratorIPmSt6vectorImSaImEEEES2_ET1_T0_S8_S7_
FN:611,_ZSt4copyISt13move_iteratorIN9__gnu_cxx17__normal_iteratorIPmSt6vectorImSaImEEEEES3_ET0_T_SA_S9_
FNDA:1,_ZSt4copyISt13move_iteratorIN9__gnu_cxx17__normal_iteratorIPmSt6vectorImSaImEEEEES3_ET0_T_SA_S9_
FN:611,_ZSt4copyIPPSt8functionIFvvEES4_ET0_T_S6_S5_
FNDA:0,_ZSt4copyIPPSt8functionIFvvEES4_ET0_T_S6_S5_
FN:731,_ZNSt20__copy_move_backwardILb0ELb1ESt26random_access_iterator_tagE13__copy_move_bIPSt8functionIFvvEEEEPT_PKS7_SA_S8_
FNDA:0,_ZNSt20__copy_move_backwardILb0ELb1ESt26random_access_iterator_tagE13__copy_move_bIPSt8functionIFvvEEEEPT_PKS7_SA_S8_
FN:750,_ZSt23__copy_move_backward_a2ILb0EPPSt8functionIFvvEES4_ET1_T0_S6_S5_
FNDA:0,_ZSt23__copy_move_backward_a2ILb0EPPSt8functionIFvvEES4_ET1_T0_S6_S5_
FN:768,_ZSt23__copy_move_backward_a1ILb0EPPSt8functionIFvvEES4_ET1_T0_S6_S5_
FNDA:0,_ZSt23__copy_move_backward_a1ILb0EPPSt8functionIFvvEES4_ET1_T0_S6_S5_
FN:796,_ZSt22__copy_move_backward_aILb0EPPSt8functionIFvvEES4_ET1_T0_S6_S5_
FNDA:0,_ZSt22__copy_move_backward_aILb0EPPSt8functionIFvvEES4_ET1_T0_S6_S5_
FN:848,_ZSt13copy_backwardIPPSt8functionIFvvEES4_ET0_T_S6_S5_
FNDA:0,_ZSt13copy_backwardIPPSt8functionIFvvEES4_ET0_T_S6_S5_
DA:230,222
DA:235,222
DA:236,0
DA:237,222
DA:254,99
DA:259,99
DA:260,50
DA:261,49
DA:313,0
DA:315,0
DA:313,24
DA:315,24
DA:313,40
DA:315,40
DA:313,21
DA:315,21
DA:335,8
DA:336,8
DA:335,0
DA:336,0
DA:420,1
DA:429,1
DA:430,1
DA:431,0
DA:432,1
DA:420,0
DA:429,0
DA:430,0
DA:431,0
DA:432,0
DA:486,1
DA:495,1
DA:486,0
DA:495,0
DA:521,1
DA:522,1
DA:521,0
DA:522,0
DA:527,1
DA:529,1
DA:532,1
DA:527,0
DA:529,0
DA:532,0
DA:611,1
DA:620,1
DA:611,0
DA:620,0
DA:731,0
DA:740,0
DA:741,0
DA:742,0
DA:743,0
DA:750,0
DA:760,0
DA:762,0
DA:768,0
DA:769,0
DA:796,0
DA:798,0
DA:801,0
DA:848,0
DA:859,0
end_of_record
SF:/usr/include/c++/11/bits/stl_queue.h
FN:166,_ZNSt5queueISt8functionIFvvEESt5dequeIS2_SaIS2_EEEC2IS5_vEEv
FNDA:7,_ZNSt5queueISt8functionIFvvEESt5dequeIS2_SaIS2_EEEC2IS5_vEEv
FN:276,_ZNSt5queueISt8functionIFvvEESt5dequeIS2_SaIS2_EEE7emplaceIJRZ14handleCommandsiRSt6vectorISt10unique_ptrI12ActiveObjectSt14default_deleteISA_EESaISD_EERS9_I5GraphSB_ISH_EER10MSTFactoryRS9_I4TreeSB_ISN_EEEUlvE10_EEEDcDpOT_
FNDA:2,_ZNSt5queueISt8functionIFvvEESt5dequeIS2_SaIS2_EEE7emplaceIJRZ14handleCommandsiRSt6vectorISt10unique_ptrI12ActiveObjectSt14default_deleteISA_EESaISD_EERS9_I5GraphSB_ISH_EER10MSTFactoryRS9_I4TreeSB_ISN_EEEUlvE10_EEEDcDpOT_
FN:276,_ZNSt5queueISt8functionIFvvEESt5dequeIS2_SaIS2_EEE7emplaceIJRZ14handleCommandsiRSt6vectorISt10unique_ptrI12ActiveObjectSt14default_deleteISA_EESaISD_EERS9_I5GraphSB_ISH_EER10MSTFactoryRS9_I4TreeSB_ISN_EEEUlvE9_EEEDcDpOT_
FNDA:2,_ZNSt5queueISt8functionIFvvEESt5dequeIS2_SaIS2_EEE7emplaceIJRZ14handleCommandsiRSt6vectorISt10unique_ptrI12ActiveObjectSt14default_deleteISA_EESaISD_EERS9_I5GraphSB_ISH_EER10MSTFactoryRS9_I4TreeSB_ISN_EEEUlvE9_EEEDcDpOT_
FN:276,_ZNSt5queueISt8functionIFvvEESt5dequeIS2_SaIS2_EEE7emplaceIJRZ14handleCommandsiRSt6vectorISt10unique_ptrI12ActiveObjectSt14default_deleteISA_EESaISD_EERS9_I5GraphSB_ISH_EER10MSTFactoryRS9_I4TreeSB_ISN_EEEUlvE8_EEEDcDpOT_
FNDA:3,_ZNSt5queueISt8functionIFvvEESt5dequeIS2_SaIS2_EEE7emplaceIJRZ14handleCommandsiRSt6vectorISt10unique_ptrI12ActiveObjectSt14default_deleteISA_EESaISD_EERS9_I5GraphSB_ISH_EER10MSTFactoryRS9_I4TreeSB_ISN_EEEUlvE8_EEEDcDpOT_
FN:276,_ZNSt5queueISt8functionIFvvEESt5dequeIS2_SaIS2_EEE7emplaceIJRZ14handleCommandsiRSt6vectorISt10unique_ptrI12ActiveObjectSt14default_deleteISA_EESaISD_EERS9_I5GraphSB_ISH_EER10MSTFactoryRS9_I4TreeSB_ISN_EEEUlvE6_EEEDcDpOT_
FNDA:5,_ZNSt5queueISt8functionIFvvEESt5dequeIS2_SaIS2_EEE7emplaceIJRZ14handleCommandsiRSt6vectorISt10unique_ptrI12ActiveObjectSt14default_deleteISA_EESaISD_EERS9_I5GraphSB_ISH_EER10MSTFactoryRS9_I4TreeSB_ISN_EEEUlvE6_EEEDcDpOT_
FN:276,_ZNSt5queueISt8functionIFvvEESt5dequeIS2_SaIS2_EEE7emplaceIJRZ14handleCommandsiRSt6vectorISt10unique_ptrI12ActiveObjectSt14default_deleteISA_EESaISD_EERS9_I5GraphSB_ISH_EER10MSTFactoryRS9_I4TreeSB_ISN_EEEUlvE5_EEEDcDpOT_
FNDA:2,_ZNSt5queueISt8functionIFvvEESt5dequeIS2_SaIS2_EEE7emplaceIJRZ14handleCommandsiRSt6vectorISt10unique_ptrI12ActiveObjectSt14default_deleteISA_EESaISD_EERS9_I5GraphSB_ISH_EER10MSTFactoryRS9_I4TreeSB_ISN_EEEUlvE5_EEEDcDpOT_
FN:276,_ZNSt5queueISt8functionIFvvEESt5dequeIS2_SaIS2_EEE7emplaceIJRZ14handleCommandsiRSt6vectorISt10unique_ptrI12ActiveObjectSt14default_deleteISA_EESaISD_EERS9_I5GraphSB_ISH_EER10MSTFactoryRS9_I4TreeSB_ISN_EEEUlvE4_EEEDcDpOT_
FNDA:2,_ZNSt5queueISt8functionIFvvEESt5dequeIS2_SaIS2_EEE7emplaceIJRZ14handleCommandsiRSt6vectorISt10unique_ptrI12ActiveObjectSt14default_deleteISA_EESaISD_EERS9_I5GraphSB_ISH_EER10MSTFactoryRS9_I4TreeSB_ISN_EEEUlvE4_EEEDcDpOT_
FN:276,_ZNSt5queueISt8functionIFvvEESt5dequeIS2_SaIS2_EEE7emplaceIJRZ14handleCommandsiRSt6vectorISt10unique_ptrI12ActiveObjectSt14default_deleteISA_EESaISD_EERS9_I5GraphSB_ISH_EER10MSTFactoryRS9_I4TreeSB_ISN_EEEUlvE3_EEEDcDpOT_
FNDA:2,_ZNSt5queueISt8functionIFvvEESt5dequeIS2_SaIS2_EEE7emplaceIJRZ14handleCommandsiRSt6vectorISt10unique_ptrI12ActiveObjectSt14default_deleteISA_EESaISD_EERS9_I5GraphSB_ISH_EER10MSTFactoryRS9_I4TreeSB_ISN_EEEUlvE3_EEEDcDpOT_
FN:276,_ZNSt5queueISt8functionIFvvEESt5dequeIS2_SaIS2_EEE7emplaceIJRZ14handleCommandsiRSt6vectorISt10unique_ptrI12ActiveObjectSt14default_deleteISA_EESaISD_EERS9_I5GraphSB_ISH_EER10MSTFactoryRS9_I4TreeSB_ISN_EEEUlvE2_EEEDcDpOT_
FNDA:2,_ZNSt5queueISt8functionIFvvEESt5dequeIS2_SaIS2_EEE7emplaceIJRZ14handleCommandsiRSt6vectorISt10unique_ptrI12ActiveObjectSt14default_deleteISA_EESaISD_EERS9_I5GraphSB_ISH_EER10MSTFactoryRS9_I4TreeSB_ISN_EEEUlvE2_EEEDcDpOT_
FN:276,_ZNSt5queueISt8functionIFvvEESt5dequeIS2_SaIS2_EEE7emplaceIJRZ14handleCommandsiRSt6vectorISt10unique_ptrI12ActiveObjectSt14default_deleteISA_EESaISD_EERS9_I5GraphSB_ISH_EER10MSTFactoryRS9_I4TreeSB_ISN_EEEUlvE1_EEEDcDpOT_
FNDA:2,_ZNSt5queueISt8functionIFvvEESt5dequeIS2_SaIS2_EEE7emplaceIJRZ14handleCommandsiRSt6vectorISt10unique_ptrI12ActiveObjectSt14default_deleteISA_EESaISD_EERS9_I5GraphSB_ISH_EER10MSTFactoryRS9_I4TreeSB_ISN_EEEUlvE1_EEEDcDpOT_
FN:276,_ZNSt5queueISt8functionIFvvEESt5dequeIS2_SaIS2_EEE7emplaceIJRZ14handleCommandsiRSt6vectorISt10unique_ptrI12ActiveObjectSt14default_deleteISA_EESaISD_EERS9_I5GraphSB_ISH_EER10MSTFactoryRS9_I4TreeSB_ISN_EEEUlvE0_EEEDcDpOT_
FNDA:10,_ZNSt5queueISt8functionIFvvEESt5dequeIS2_SaIS2_EEE7emplaceIJRZ14handleCommandsiRSt6vectorISt10unique_ptrI12ActiveObjectSt14default_deleteISA_EESaISD_EERS9_I5GraphSB_ISH_EER10MSTFactoryRS9_I4TreeSB_ISN_EEEUlvE0_EEEDcDpOT_
FN:276,_ZNSt5queueISt8functionIFvvEESt5dequeIS2_SaIS2_EEE7emplaceIJRZ14handleCommandsiRSt6vectorISt10unique_ptrI12ActiveObjectSt14default_deleteISA_EESaISD_EERS9_I5GraphSB_ISH_EER10MSTFactoryRS9_I4TreeSB_ISN_EEEUlvE_EEEDcDpOT_
FNDA:4,_ZNSt5queueISt8functionIFvvEESt5dequeIS2_SaIS2_EEE7emplaceIJRZ14handleCommandsiRSt6vectorISt10unique_ptrI12ActiveObjectSt14default_deleteISA_EESaISD_EERS9_I5GraphSB_ISH_EER10MSTFactoryRS9_I4TreeSB_ISN_EEEUlvE_EEEDcDpOT_
DA:166,7
DA:167,7
DA:276,2
DA:277,2
DA:276,2
DA:277,2
DA:276,3
DA:277,3
DA:276,5
DA:277,5
DA:276,2
DA:277,2
DA:276,2
DA:277,2
DA:276,2
DA:277,2
DA:276,2
DA:277,2
DA:276,2
DA:277,2
DA:276,10
DA:277,10
DA:276,4
DA:277,4
end_of_record
TN:
SF:/usr/include/c++/11/new
FN:174,_ZnwmPv
FNDA:0,_ZnwmPv
DA:174,0
DA:175,0
end_of_record
SF:/usr/include/c++/11/ext/alloc_traits.h
FN:97,_ZN9__gnu_cxx14__alloc_traitsISaImEmE17_S_select_on_copyERKS1_
FNDA:7,_ZN9__gnu_cxx14__alloc_traitsISaImEmE17_S_select_on_copyERKS1_
FN:97,_ZN9__gnu_cxx14__alloc_traitsISaIiEiE17_S_select_on_copyERKS1_
FNDA:0,_ZN9__gnu_cxx14__alloc_traitsISaIiEiE17_S_select_on_copyERKS1_
DA:97,7
DA:98,7
DA:97,0
DA:98,0
end_of_record
SF:/home/eladubuntu/Git Projects/OS_2024-FINAL_PROJECT_MST/MSTStrategy.hpp
FN:56,_ZN3DSUC2Ei
FNDA:2,_ZN3DSUC2Ei
DA:56,2
end_of_record
SF:/usr/include/c++/11/bits/stl_uninitialized.h
FN:108,_ZNSt20__uninitialized_copyILb1EE13__uninit_copyIN9__gnu_cxx17__normal_iteratorIPKiSt6vectorIiSaIiEEEEPiEET0_T_SC_SB_
FNDA:0,_ZNSt20__uninitialized_copyILb1EE13__uninit_copyIN9__gnu_cxx17__normal_iteratorIPKiSt6vectorIiSaIiEEEEPiEET0_T_SC_SB_
FN:126,_ZSt18uninitialized_copyIN9__gnu_cxx17__normal_iteratorIPKiSt6vectorIiSaIiEEEEPiET0_T_SA_S9_
FNDA:0,_ZSt18uninitialized_copyIN9__gnu_cxx17__normal_iteratorIPKiSt6vectorIiSaIiEEEEPiET0_T_SA_S9_
FN:253,_ZNSt22__uninitialized_fill_nILb1EE15__uninit_fill_nIPimiEET_S3_T0_RKT1_
FNDA:0,_ZNSt22__uninitialized_fill_nILb1EE15__uninit_fill_nIPimiEET_S3_T0_RKT1_
FN:273,_ZSt20uninitialized_fill_nIPimiET_S1_T0_RKT1_
FNDA:0,_ZSt20uninitialized_fill_nIPimiET_S1_T0_RKT1_
FN:331,_ZSt22__uninitialized_copy_aIN9__gnu_cxx17__normal_iteratorIPKiSt6vectorIiSaIiEEEEPiiET0_T_SA_S9_RSaIT1_E
FNDA:0,_ZSt22__uninitialized_copy_aIN9__gnu_cxx17__normal_iteratorIPKiSt6vectorIiSaIiEEEEPiiET0_T_SA_S9_RSaIT1_E
FN:408,_ZSt24__uninitialized_fill_n_aIPimiiET_S1_T0_RKT1_RSaIT2_E
FNDA:0,_ZSt24__uninitialized_fill_n_aIPimiiET_S1_T0_RKT1_RSaIT2_E
FN:1006,_ZSt14__relocate_a_1I4EdgeS0_ENSt9enable_ifIXsrSt24__is_bitwise_relocatableIT_vE5valueEPS3_E4typeES5_S5_S5_RSaIT0_E
FNDA:0,_ZSt14__relocate_a_1I4EdgeS0_ENSt9enable_ifIXsrSt24__is_bitwise_relocatableIT_vE5valueEPS3_E4typeES5_S5_S5_RSaIT0_E
FN:1040,_ZSt12__relocate_aIP4EdgeS1_SaIS0_EET0_T_S4_S3_RT1_
FNDA:0,_ZSt12__relocate_aIP4EdgeS1_SaIS0_EET0_T_S4_S3_RT1_
DA:108,0
DA:110,0
DA:126,0
DA:145,0
DA:151,0
DA:253,0
DA:255,0
DA:273,0
DA:293,0
DA:297,0
DA:331,0
DA:333,0
DA:408,0
DA:410,0
DA:1006,0
DA:1009,0
DA:1010,0
DA:1011,0
DA:1012,0
DA:1040,0
DA:1046,0
DA:1048,0
end_of_record
SF:/usr/include/c++/11/bits/stl_iterator.h
FN:1027,_ZN9__gnu_cxx17__normal_iteratorIPK4EdgeSt6vectorIS1_SaIS1_EEEC2ERKS3_
FNDA:48,_ZN9__gnu_cxx17__normal_iteratorIPK4EdgeSt6vectorIS1_SaIS1_EEEC2ERKS3_
FN:1027,_ZN9__gnu_cxx17__normal_iteratorIPKiSt6vectorIiSaIiEEEC2ERKS2_
FNDA:0,_ZN9__gnu_cxx17__normal_iteratorIPKiSt6vectorIiSaIiEEEC2ERKS2_
FN:1027,_ZN9__gnu_cxx17__normal_iteratorIP4EdgeSt6vectorIS1_SaIS1_EEEC2ERKS2_
FNDA:0,_ZN9__gnu_cxx17__normal_iteratorIP4EdgeSt6vectorIS1_SaIS1_EEEC2ERKS2_
FN:1042,_ZNK9__gnu_cxx17__normal_iteratorIPK4EdgeSt6vectorIS1_SaIS1_EEEdeEv
FNDA:32,_ZNK9__gnu_cxx17__normal_iteratorIPK4EdgeSt6vectorIS1_SaIS1_EEEdeEv
FN:1042,_ZNK9__gnu_cxx17__normal_iteratorIP4EdgeSt6vectorIS1_SaIS1_EEEdeEv
FNDA:0,_ZNK9__gnu_cxx17__normal_iteratorIP4EdgeSt6vectorIS1_SaIS1_EEEdeEv
FN:1052,_ZN9__gnu_cxx17__normal_iteratorIPK4EdgeSt6vectorIS1_SaIS1_EEEppEv
FNDA:32,_ZN9__gnu_cxx17__normal_iteratorIPK4EdgeSt6vectorIS1_SaIS1_EEEppEv
FN:1052,_ZN9__gnu_cxx17__normal_iteratorIP4EdgeSt6vectorIS1_SaIS1_EEEppEv
FNDA:0,_ZN9__gnu_cxx17__normal_iteratorIP4EdgeSt6vectorIS1_SaIS1_EEEppEv
FN:1066,_ZN9__gnu_cxx17__normal_iteratorIP4EdgeSt6vectorIS1_SaIS1_EEEmmEv
FNDA:9,_ZN9__gnu_cxx17__normal_iteratorIP4EdgeSt6vectorIS1_SaIS1_EEEmmEv
FN:1090,_ZNK9__gnu_cxx17__normal_iteratorIP4EdgeSt6vectorIS1_SaIS1_EEEplEl
FNDA:8,_ZNK9__gnu_cxx17__normal_iteratorIP4EdgeSt6vectorIS1_SaIS1_EEEplEl
FN:1100,_ZNK9__gnu_cxx17__normal_iteratorIP4EdgeSt6vectorIS1_SaIS1_EEEmiEl
FNDA:0,_ZNK9__gnu_cxx17__normal_iteratorIP4EdgeSt6vectorIS1_SaIS1_EEEmiEl
FN:1105,_ZNK9__gnu_cxx17__normal_iteratorIPKiSt6vectorIiSaIiEEE4baseEv
FNDA:0,_ZNK9__gnu_cxx17__normal_iteratorIPKiSt6vectorIiSaIiEEE4baseEv
FN:1105,_ZNK9__gnu_cxx17__normal_iteratorIP4EdgeSt6vectorIS1_SaIS1_EEE4baseEv
FNDA:0,_ZNK9__gnu_cxx17__normal_iteratorIP4EdgeSt6vectorIS1_SaIS1_EEE4baseEv
FN:1105,_ZNK9__gnu_cxx17__normal_iteratorIPK4EdgeSt6vectorIS1_SaIS1_EEE4baseEv
FNDA:112,_ZNK9__gnu_cxx17__normal_iteratorIPK4EdgeSt6vectorIS1_SaIS1_EEE4baseEv
FN:1163,_ZN9__gnu_cxxeqIP4EdgeSt6vectorIS1_SaIS1_EEEEbRKNS_17__normal_iteratorIT_T0_EESB_
FNDA:2,_ZN9__gnu_cxxeqIP4EdgeSt6vectorIS1_SaIS1_EEEEbRKNS_17__normal_iteratorIT_T0_EESB_
FN:1179,_ZN9__gnu_cxxneIP4EdgeSt6vectorIS1_SaIS1_EEEEbRKNS_17__normal_iteratorIT_T0_EESB_
FNDA:0,_ZN9__gnu_cxxneIP4EdgeSt6vectorIS1_SaIS1_EEEEbRKNS_17__normal_iteratorIT_T0_EESB_
FN:1179,_ZN9__gnu_cxxneIPK4EdgeSt6vectorIS1_SaIS1_EEEEbRKNS_17__normal_iteratorIT_T0_EESC_
FNDA:48,_ZN9__gnu_cxxneIPK4EdgeSt6vectorIS1_SaIS1_EEEEbRKNS_17__normal_iteratorIT_T0_EESC_
FN:1195,_ZN9__gnu_cxxltIP4EdgeSt6vectorIS1_SaIS1_EEEEbRKNS_17__normal_iteratorIT_T0_EESB_
FNDA:0,_ZN9__gnu_cxxltIP4EdgeSt6vectorIS1_SaIS1_EEEEbRKNS_17__normal_iteratorIT_T0_EESB_
FN:1268,_ZN9__gnu_cxxmiIP4EdgeSt6vectorIS1_SaIS1_EEEENS_17__normal_iteratorIT_T0_E15difference_typeERKS9_SC_
FNDA:0,_ZN9__gnu_cxxmiIP4EdgeSt6vectorIS1_SaIS1_EEEENS_17__normal_iteratorIT_T0_E15difference_typeERKS9_SC_
FN:1291,_ZSt12__niter_baseIPKiSt6vectorIiSaIiEEET_N9__gnu_cxx17__normal_iteratorIS5_T0_EE
FNDA:0,_ZSt12__niter_baseIPKiSt6vectorIiSaIiEEET_N9__gnu_cxx17__normal_iteratorIS5_T0_EE
FN:1291,_ZSt12__niter_baseIP4EdgeSt6vectorIS0_SaIS0_EEET_N9__gnu_cxx17__normal_iteratorIS5_T0_EE
FNDA:12,_ZSt12__niter_baseIP4EdgeSt6vectorIS0_SaIS0_EEET_N9__gnu_cxx17__normal_iteratorIS5_T0_EE
DA:1027,0
DA:1028,0
DA:1027,0
DA:1028,0
DA:1027,48
DA:1028,48
DA:1042,0
DA:1043,0
DA:1042,32
DA:1043,32
DA:1052,0
DA:1054,0
DA:1055,0
DA:1052,32
DA:1054,32
DA:1055,32
DA:1066,9
DA:1068,9
DA:1069,9
DA:1090,8
DA:1091,8
DA:1100,0
DA:1101,0
DA:1105,0
DA:1106,0
DA:1105,0
DA:1106,0
DA:1105,112
DA:1106,112
DA:1163,2
DA:1166,2
DA:1179,0
DA:1182,0
DA:1179,48
DA:1182,48
DA:1195,0
DA:1198,0
DA:1268,0
DA:1271,0
DA:1291,12
DA:1293,12
DA:1291,0
DA:1293,0
end_of_record
SF:/usr/include/c++/11/bits/stl_heap.h
FN:134,_ZSt11__push_heapIN9__gnu_cxx17__normal_iteratorIP4EdgeSt6vectorIS2_SaIS2_EEEElS2_NS0_5__ops14_Iter_comp_valIZN15KruskalStrategy7findMSTERK5GraphEUlS2_S2_E_EEEvT_T0_SH_T1_RT2_
FNDA:0,_ZSt11__push_heapIN9__gnu_cxx17__normal_iteratorIP4EdgeSt6vectorIS2_SaIS2_EEEElS2_NS0_5__ops14_Iter_comp_valIZN15KruskalStrategy7findMSTERK5GraphEUlS2_S2_E_EEEvT_T0_SH_T1_RT2_
FN:223,_ZSt13__adjust_heapIN9__gnu_cxx17__normal_iteratorIP4EdgeSt6vectorIS2_SaIS2_EEEElS2_NS0_5__ops15_Iter_comp_iterIZN15KruskalStrategy7findMSTERK5GraphEUlS2_S2_E_EEEvT_T0_SH_T1_T2_
FNDA:0,_ZSt13__adjust_heapIN9__gnu_cxx17__normal_iteratorIP4EdgeSt6vectorIS2_SaIS2_EEEElS2_NS0_5__ops15_Iter_comp_iterIZN15KruskalStrategy7findMSTERK5GraphEUlS2_S2_E_EEEvT_T0_SH_T1_T2_
FN:253,_ZSt10__pop_heapIN9__gnu_cxx17__normal_iteratorIP4EdgeSt6vectorIS2_SaIS2_EEEENS0_5__ops15_Iter_comp_iterIZN15KruskalStrategy7findMSTERK5GraphEUlS2_S2_E_EEEvT_SG_SG_RT0_
FNDA:0,_ZSt10__pop_heapIN9__gnu_cxx17__normal_iteratorIP4EdgeSt6vectorIS2_SaIS2_EEEENS0_5__ops15_Iter_comp_iterIZN15KruskalStrategy7findMSTERK5GraphEUlS2_S2_E_EEEvT_SG_SG_RT0_
FN:339,_ZSt11__make_heapIN9__gnu_cxx17__normal_iteratorIP4EdgeSt6vectorIS2_SaIS2_EEEENS0_5__ops15_Iter_comp_iterIZN15KruskalStrategy7findMSTERK5GraphEUlS2_S2_E_EEEvT_SG_RT0_
FNDA:0,_ZSt11__make_heapIN9__gnu_cxx17__normal_iteratorIP4EdgeSt6vectorIS2_SaIS2_EEEENS0_5__ops15_Iter_comp_iterIZN15KruskalStrategy7findMSTERK5GraphEUlS2_S2_E_EEEvT_SG_RT0_
FN:418,_ZSt11__sort_heapIN9__gnu_cxx17__normal_iteratorIP4EdgeSt6vectorIS2_SaIS2_EEEENS0_5__ops15_Iter_comp_iterIZN15KruskalStrategy7findMSTERK5GraphEUlS2_S2_E_EEEvT_SG_RT0_
FNDA:0,_ZSt11__sort_heapIN9__gnu_cxx17__normal_iteratorIP4EdgeSt6vectorIS2_SaIS2_EEEENS0_5__ops15_Iter_comp_iterIZN15KruskalStrategy7findMSTERK5GraphEUlS2_S2_E_EEEvT_SG_RT0_
DA:134,0
DA:138,0
DA:139,0
DA:141,0
DA:142,0
DA:143,0
DA:145,0
DA:146,0
DA:223,0
DA:226,0
DA:227,0
DA:228,0
DA:230,0
DA:231,0
DA:233,0
DA:234,0
DA:235,0
DA:237,0
DA:239,0
DA:240,0
DA:242,0
DA:245,0
DA:246,0
DA:247,0
DA:248,0
DA:253,0
DA:261,0
DA:262,0
DA:263,0
DA:264,0
DA:265,0
DA:266,0
DA:339,0
DA:347,0
DA:348,0
DA:350,0
DA:351,0
DA:352,0
DA:354,0
DA:355,0
DA:357,0
DA:358,0
DA:359,0
DA:418,0
DA:421,0
DA:423,0
DA:424,0
DA:426,0
end_of_record
SF:/usr/include/c++/11/bits/alloc_traits.h
FN:463,_ZNSt16allocator_traitsISaIiEE8allocateERS0_m
FNDA:0,_ZNSt16allocator_traitsISaIiEE8allocateERS0_m
FN:463,_ZNSt16allocator_traitsISaI4EdgeEE8allocateERS1_m
FNDA:0,_ZNSt16allocator_traitsISaI4EdgeEE8allocateERS1_m
FN:463,_ZNSt16allocator_traitsISaImEE8allocateERS0_m
FNDA:0,_ZNSt16allocator_traitsISaImEE8allocateERS0_m
FN:495,_ZNSt16allocator_traitsISaImEE10deallocateERS0_Pmm
FNDA:0,_ZNSt16allocator_traitsISaImEE10deallocateERS0_Pmm
FN:495,_ZNSt16allocator_traitsISaIiEE10deallocateERS0_Pim
FNDA:0,_ZNSt16allocator_traitsISaIiEE10deallocateERS0_Pim
FN:495,_ZNSt16allocator_traitsISaI4EdgeEE10deallocateERS1_PS0_m
FNDA:0,_ZNSt16allocator_traitsISaI4EdgeEE10deallocateERS1_PS0_m
FN:511,_ZNSt16allocator_traitsISaI4EdgeEE9constructIS0_JS0_EEEvRS1_PT_DpOT0_
FNDA:0,_ZNSt16allocator_traitsISaI4EdgeEE9constructIS0_JS0_EEEvRS1_PT_DpOT0_
FN:511,_ZNSt16allocator_traitsISaI4EdgeEE9constructIS0_JRKS0_EEEvRS1_PT_DpOT0_
FNDA:16,_ZNSt16allocator_traitsISaI4EdgeEE9constructIS0_JRKS0_EEEvRS1_PT_DpOT0_
FN:547,_ZNSt16allocator_traitsISaI4EdgeEE8max_sizeERKS1_
FNDA:0,_ZNSt16allocator_traitsISaI4EdgeEE8max_sizeERKS1_
FN:547,_ZNSt16allocator_traitsISaIiEE8max_sizeERKS0_
FNDA:0,_ZNSt16allocator_traitsISaIiEE8max_sizeERKS0_
FN:562,_ZNSt16allocator_traitsISaImEE37select_on_container_copy_constructionERKS0_
FNDA:7,_ZNSt16allocator_traitsISaImEE37select_on_container_copy_constructionERKS0_
FN:562,_ZNSt16allocator_traitsISaIiEE37select_on_container_copy_constructionERKS0_
FNDA:0,_ZNSt16allocator_traitsISaIiEE37select_on_container_copy_constructionERKS0_
FN:845,_ZSt8_DestroyIPiiEvT_S1_RSaIT0_E
FNDA:0,_ZSt8_DestroyIPiiEvT_S1_RSaIT0_E
FN:845,_ZSt8_DestroyIP4EdgeS0_EvT_S2_RSaIT0_E
FNDA:0,_ZSt8_DestroyIP4EdgeS0_EvT_S2_RSaIT0_E
DA:463,0
DA:464,0
DA:463,0
DA:464,0
DA:463,0
DA:464,0
DA:495,0
DA:496,0
DA:495,0
DA:496,0
DA:495,0
DA:496,0
DA:511,0
DA:516,0
DA:520,0
DA:511,16
DA:516,16
DA:520,16
DA:547,0
DA:550,0
DA:547,0
DA:550,0
DA:562,7
DA:563,7
DA:562,0
DA:563,0
DA:845,0
DA:848,0
DA:849,0
DA:845,0
DA:848,0
DA:849,0
end_of_record
SF:/usr/include/c++/11/bits/stl_iterator_base_types.h
FN:238,_ZSt19__iterator_categoryIPiENSt15iterator_traitsIT_E17iterator_categoryERKS2_
FNDA:0,_ZSt19__iterator_categoryIPiENSt15iterator_traitsIT_E17iterator_categoryERKS2_
DA:238,0
DA:239,0
end_of_record
SF:/usr/include/c++/11/iostream
end_of_record
SF:/usr/include/c++/11/bits/stl_bvector.h
FN:77,_ZNSt14_Bit_referenceC2EPmm
FNDA:0,_ZNSt14_Bit_referenceC2EPmm
FN:86,_ZNKSt14_Bit_referencecvbEv
FNDA:0,_ZNKSt14_Bit_referencecvbEv
FN:90,_ZNSt14_Bit_referenceaSEb
FNDA:0,_ZNSt14_Bit_referenceaSEb
FN:148,_ZNSt18_Bit_iterator_baseC2EPmj
FNDA:0,_ZNSt18_Bit_iterator_baseC2EPmj
FN:152,_ZNSt18_Bit_iterator_base10_M_bump_upEv
FNDA:64,_ZNSt18_Bit_iterator_base10_M_bump_upEv
FN:172,_ZNSt18_Bit_iterator_base7_M_incrEl
FNDA:0,_ZNSt18_Bit_iterator_base7_M_incrEl
FN:224,_ZStmiRKSt18_Bit_iterator_baseS1_
FNDA:14,_ZStmiRKSt18_Bit_iterator_baseS1_
FN:241,_ZNSt13_Bit_iteratorC2Ev
FNDA:0,_ZNSt13_Bit_iteratorC2Ev
FN:243,_ZNSt13_Bit_iteratorC2EPmj
FNDA:0,_ZNSt13_Bit_iteratorC2EPmj
FN:251,_ZNKSt13_Bit_iteratordeEv
FNDA:0,_ZNKSt13_Bit_iteratordeEv
FN:255,_ZNSt13_Bit_iteratorppEv
FNDA:32,_ZNSt13_Bit_iteratorppEv
FN:285,_ZNSt13_Bit_iteratorpLEl
FNDA:0,_ZNSt13_Bit_iteratorpLEl
FN:299,_ZNKSt13_Bit_iteratorixEl
FNDA:0,_ZNKSt13_Bit_iteratorixEl
FN:303,_ZStplRKSt13_Bit_iteratorl
FNDA:0,_ZStplRKSt13_Bit_iteratorl
FN:336,_ZNSt19_Bit_const_iteratorC2EPmj
FNDA:21,_ZNSt19_Bit_const_iteratorC2EPmj
FN:339,_ZNSt19_Bit_const_iteratorC2ERKSt13_Bit_iterator
FNDA:14,_ZNSt19_Bit_const_iteratorC2ERKSt13_Bit_iterator
FN:347,_ZNKSt19_Bit_const_iteratordeEv
FNDA:32,_ZNKSt19_Bit_const_iteratordeEv
FN:351,_ZNSt19_Bit_const_iteratorppEv
FNDA:32,_ZNSt19_Bit_const_iteratorppEv
FN:443,_ZNSt13_Bvector_baseISaIbEE18_Bvector_impl_dataC2Ev
FNDA:0,_ZNSt13_Bvector_baseISaIbEE18_Bvector_impl_dataC2Ev
FN:465,_ZNSt13_Bvector_baseISaIbEE18_Bvector_impl_data8_M_resetEv
FNDA:0,_ZNSt13_Bvector_baseISaIbEE18_Bvector_impl_data8_M_resetEv
FN:485,_ZNSt13_Bvector_baseISaIbEE13_Bvector_implC2ERKSaImE
FNDA:0,_ZNSt13_Bvector_baseISaIbEE13_Bvector_implC2ERKSaImE
FN:502,_ZNKSt13_Bvector_baseISaIbEE13_Bvector_impl11_M_end_addrEv
FNDA:0,_ZNKSt13_Bvector_baseISaIbEE13_Bvector_impl11_M_end_addrEv
FN:518,_ZNKSt13_Bvector_baseISaIbEE20_M_get_Bit_allocatorEv
FNDA:7,_ZNKSt13_Bvector_baseISaIbEE20_M_get_Bit_allocatorEv
FN:531,_ZNSt13_Bvector_baseISaIbEEC2ERKS0_
FNDA:0,_ZNSt13_Bvector_baseISaIbEEC2ERKS0_
FN:542,_ZNSt13_Bvector_baseISaIbEED2Ev
FNDA:0,_ZNSt13_Bvector_baseISaIbEED2Ev
FN:549,_ZNSt13_Bvector_baseISaIbEE11_M_allocateEm
FNDA:0,_ZNSt13_Bvector_baseISaIbEE11_M_allocateEm
FN:553,_ZNSt13_Bvector_baseISaIbEE13_M_deallocateEv
FNDA:0,_ZNSt13_Bvector_baseISaIbEE13_M_deallocateEv
FN:572,_ZNSt13_Bvector_baseISaIbEE8_S_nwordEm
FNDA:0,_ZNSt13_Bvector_baseISaIbEE8_S_nwordEm
FN:647,_ZNSt6vectorIbSaIbEEC2EmRKbRKS0_
FNDA:0,_ZNSt6vectorIbSaIbEEC2EmRKbRKS0_
FN:660,_ZNSt6vectorIbSaIbEEC2ERKS1_
FNDA:7,_ZNSt6vectorIbSaIbEEC2ERKS1_
FN:733,_ZNSt6vectorIbSaIbEED2Ev
FNDA:0,_ZNSt6vectorIbSaIbEED2Ev
FN:831,_ZNSt6vectorIbSaIbEE5beginEv
FNDA:0,_ZNSt6vectorIbSaIbEE5beginEv
FN:835,_ZNKSt6vectorIbSaIbEE5beginEv
FNDA:14,_ZNKSt6vectorIbSaIbEE5beginEv
FN:843,_ZNKSt6vectorIbSaIbEE3endEv
FNDA:14,_ZNKSt6vectorIbSaIbEE3endEv
FN:881,_ZNKSt6vectorIbSaIbEE4sizeEv
FNDA:7,_ZNKSt6vectorIbSaIbEE4sizeEv
FN:906,_ZNSt6vectorIbSaIbEEixEm
FNDA:0,_ZNSt6vectorIbSaIbEEixEm
FN:1128,_ZNSt6vectorIbSaIbEE15_M_copy_alignedESt19_Bit_const_iteratorS2_St13_Bit_iterator
FNDA:7,_ZNSt6vectorIbSaIbEE15_M_copy_alignedESt19_Bit_const_iteratorS2_St13_Bit_iterator
FN:1137,_ZNSt6vectorIbSaIbEE13_M_initializeEm
FNDA:0,_ZNSt6vectorIbSaIbEE13_M_initializeEm
FN:1150,_ZNSt6vectorIbSaIbEE19_M_initialize_valueEb
FNDA:0,_ZNSt6vectorIbSaIbEE19_M_initialize_valueEb
DA:77,0
DA:78,0
DA:86,0
DA:87,0
DA:90,0
DA:92,0
DA:93,0
DA:95,0
DA:96,0
DA:148,0
DA:149,0
DA:152,64
DA:154,64
DA:156,0
DA:157,0
DA:159,64
DA:172,0
DA:174,0
DA:175,0
DA:176,0
DA:177,0
DA:179,0
DA:180,0
DA:182,0
DA:183,0
DA:224,14
DA:226,14
DA:227,14
DA:241,0
DA:243,0
DA:244,0
DA:251,0
DA:252,0
DA:255,32
DA:257,32
DA:258,32
DA:285,0
DA:287,0
DA:288,0
DA:299,0
DA:300,0
DA:303,0
DA:305,0
DA:306,0
DA:307,0
DA:336,21
DA:337,21
DA:339,14
DA:340,14
DA:347,32
DA:348,32
DA:351,32
DA:353,32
DA:354,32
DA:443,0
DA:444,0
DA:445,0
DA:465,0
DA:466,0
DA:485,0
DA:486,0
DA:487,0
DA:502,0
DA:504,0
DA:505,0
DA:506,0
DA:518,7
DA:519,7
DA:531,0
DA:532,0
DA:542,0
DA:543,0
DA:549,0
DA:550,0
DA:553,0
DA:555,0
DA:557,0
DA:558,0
DA:559,0
DA:561,0
DA:563,0
DA:572,0
DA:573,0
DA:647,0
DA:654,0
DA:656,0
DA:657,0
DA:658,0
DA:660,7
DA:661,7
DA:663,7
DA:664,7
DA:665,7
DA:733,0
DA:831,0
DA:832,0
DA:835,14
DA:836,14
DA:843,14
DA:844,14
DA:881,7
DA:882,7
DA:906,0
DA:907,0
DA:1128,7
DA:1131,7
DA:1132,14
DA:1133,14
DA:1137,0
DA:1139,0
DA:1141,0
DA:1142,0
DA:1143,0
DA:1144,0
DA:1145,0
DA:1147,0
DA:1150,0
DA:1152,0
DA:1153,0
DA:1154,0
DA:1156,0
end_of_record
SF:/usr/include/c++/11/bits/stl_algobase.h
FN:152,_ZSt9iter_swapIN9__gnu_cxx17__normal_iteratorIP4EdgeSt6vectorIS2_SaIS2_EEEES7_EvT_T0_
FNDA:0,_ZSt9iter_swapIN9__gnu_cxx17__normal_iteratorIP4EdgeSt6vectorIS2_SaIS2_EEEES7_EvT_T0_
FN:230,_ZSt3minImERKT_S2_S2_
FNDA:0,_ZSt3minImERKT_S2_S2_
FN:254,_ZSt3maxImERKT_S2_S2_
FNDA:0,_ZSt3maxImERKT_S2_S2_
FN:313,_ZSt12__niter_baseISt13_Bit_iteratorET_S1_
FNDA:7,_ZSt12__niter_baseISt13_Bit_iteratorET_S1_
FN:313,_ZSt12__niter_baseISt19_Bit_const_iteratorET_S1_
FNDA:14,_ZSt12__niter_baseISt19_Bit_const_iteratorET_S1_
FN:313,_ZSt12__niter_baseIP4EdgeET_S2_
FNDA:0,_ZSt12__niter_baseIP4EdgeET_S2_
FN:313,_ZSt12__niter_baseIPiET_S1_
FNDA:0,_ZSt12__niter_baseIPiET_S1_
FN:313,_ZSt12__niter_baseIPmET_S1_
FNDA:0,_ZSt12__niter_baseIPmET_S1_
FN:328,_ZSt12__niter_wrapIN9__gnu_cxx17__normal_iteratorIP4EdgeSt6vectorIS2_SaIS2_EEEES3_ET_S8_T0_
FNDA:3,_ZSt12__niter_wrapIN9__gnu_cxx17__normal_iteratorIP4EdgeSt6vectorIS2_SaIS2_EEEES3_ET_S8_T0_
FN:335,_ZSt12__niter_wrapISt13_Bit_iteratorET_RKS1_S1_
FNDA:7,_ZSt12__niter_wrapISt13_Bit_iteratorET_RKS1_S1_
FN:335,_ZSt12__niter_wrapIPmET_RKS1_S1_
FNDA:0,_ZSt12__niter_wrapIPmET_RKS1_S1_
FN:335,_ZSt12__niter_wrapIPiET_RKS1_S1_
FNDA:0,_ZSt12__niter_wrapIPiET_RKS1_S1_
FN:380,_ZNSt11__copy_moveILb0ELb0ESt26random_access_iterator_tagE8__copy_mISt19_Bit_const_iteratorSt13_Bit_iteratorEET0_T_S6_S5_
FNDA:7,_ZNSt11__copy_moveILb0ELb0ESt26random_access_iterator_tagE8__copy_mISt19_Bit_const_iteratorSt13_Bit_iteratorEET0_T_S6_S5_
FN:420,_ZNSt11__copy_moveILb0ELb1ESt26random_access_iterator_tagE8__copy_mIiEEPT_PKS3_S6_S4_
FNDA:0,_ZNSt11__copy_moveILb0ELb1ESt26random_access_iterator_tagE8__copy_mIiEEPT_PKS3_S6_S4_
FN:420,_ZNSt11__copy_moveILb0ELb1ESt26random_access_iterator_tagE8__copy_mImEEPT_PKS3_S6_S4_
FNDA:7,_ZNSt11__copy_moveILb0ELb1ESt26random_access_iterator_tagE8__copy_mImEEPT_PKS3_S6_S4_
FN:486,_ZSt14__copy_move_a2ILb0ESt19_Bit_const_iteratorSt13_Bit_iteratorET1_T0_S3_S2_
FNDA:7,_ZSt14__copy_move_a2ILb0ESt19_Bit_const_iteratorSt13_Bit_iteratorET1_T0_S3_S2_
FN:486,_ZSt14__copy_move_a2ILb0EPmS0_ET1_T0_S2_S1_
FNDA:7,_ZSt14__copy_move_a2ILb0EPmS0_ET1_T0_S2_S1_
FN:486,_ZSt14__copy_move_a2ILb0EPKiPiET1_T0_S4_S3_
FNDA:0,_ZSt14__copy_move_a2ILb0EPKiPiET1_T0_S4_S3_
FN:521,_ZSt14__copy_move_a1ILb0EPmS0_ET1_T0_S2_S1_
FNDA:7,_ZSt14__copy_move_a1ILb0EPmS0_ET1_T0_S2_S1_
FN:521,_ZSt14__copy_move_a1ILb0EPKiPiET1_T0_S4_S3_
FNDA:0,_ZSt14__copy_move_a1ILb0EPKiPiET1_T0_S4_S3_
FN:521,_ZSt14__copy_move_a1ILb0ESt19_Bit_const_iteratorSt13_Bit_iteratorET1_T0_S3_S2_
FNDA:7,_ZSt14__copy_move_a1ILb0ESt19_Bit_const_iteratorSt13_Bit_iteratorET1_T0_S3_S2_
FN:527,_ZSt13__copy_move_aILb0ESt19_Bit_const_iteratorSt13_Bit_iteratorET1_T0_S3_S2_
FNDA:7,_ZSt13__copy_move_aILb0ESt19_Bit_const_iteratorSt13_Bit_iteratorET1_T0_S3_S2_
FN:527,_ZSt13__copy_move_aILb0EPmS0_ET1_T0_S2_S1_
FNDA:7,_ZSt13__copy_move_aILb0EPmS0_ET1_T0_S2_S1_
FN:527,_ZSt13__copy_move_aILb0EN9__gnu_cxx17__normal_iteratorIPKiSt6vectorIiSaIiEEEEPiET1_T0_SA_S9_
FNDA:0,_ZSt13__copy_move_aILb0EN9__gnu_cxx17__normal_iteratorIPKiSt6vectorIiSaIiEEEEPiET1_T0_SA_S9_
FN:611,_ZSt4copyIN9__gnu_cxx17__normal_iteratorIPKiSt6vectorIiSaIiEEEEPiET0_T_SA_S9_
FNDA:0,_ZSt4copyIN9__gnu_cxx17__normal_iteratorIPKiSt6vectorIiSaIiEEEEPiET0_T_SA_S9_
FN:611,_ZSt4copyISt19_Bit_const_iteratorSt13_Bit_iteratorET0_T_S3_S2_
FNDA:7,_ZSt4copyISt19_Bit_const_iteratorSt13_Bit_iteratorET0_T_S3_S2_
FN:611,_ZSt4copyIPmS0_ET0_T_S2_S1_
FNDA:7,_ZSt4copyIPmS0_ET0_T_S2_S1_
FN:731,_ZNSt20__copy_move_backwardILb1ELb1ESt26random_access_iterator_tagE13__copy_move_bI4EdgeEEPT_PKS4_S7_S5_
FNDA:3,_ZNSt20__copy_move_backwardILb1ELb1ESt26random_access_iterator_tagE13__copy_move_bI4EdgeEEPT_PKS4_S7_S5_
FN:750,_ZSt23__copy_move_backward_a2ILb1EP4EdgeS1_ET1_T0_S3_S2_
FNDA:3,_ZSt23__copy_move_backward_a2ILb1EP4EdgeS1_ET1_T0_S3_S2_
FN:768,_ZSt23__copy_move_backward_a1ILb1EP4EdgeS1_ET1_T0_S3_S2_
FNDA:3,_ZSt23__copy_move_backward_a1ILb1EP4EdgeS1_ET1_T0_S3_S2_
FN:796,_ZSt22__copy_move_backward_aILb1EN9__gnu_cxx17__normal_iteratorIP4EdgeSt6vectorIS2_SaIS2_EEEES7_ET1_T0_S9_S8_
FNDA:3,_ZSt22__copy_move_backward_aILb1EN9__gnu_cxx17__normal_iteratorIP4EdgeSt6vectorIS2_SaIS2_EEEES7_ET1_T0_S9_S8_
FN:884,_ZSt13move_backwardIN9__gnu_cxx17__normal_iteratorIP4EdgeSt6vectorIS2_SaIS2_EEEES7_ET0_T_S9_S8_
FNDA:3,_ZSt13move_backwardIN9__gnu_cxx17__normal_iteratorIP4EdgeSt6vectorIS2_SaIS2_EEEES7_ET0_T_S9_S8_
FN:919,_ZSt9__fill_a1IPiiEN9__gnu_cxx11__enable_ifIXsrSt11__is_scalarIT0_E7__valueEvE6__typeET_S8_RKS4_
FNDA:0,_ZSt9__fill_a1IPiiEN9__gnu_cxx11__enable_ifIXsrSt11__is_scalarIT0_E7__valueEvE6__typeET_S8_RKS4_
FN:968,_ZSt8__fill_aIPiiEvT_S1_RKT0_
FNDA:0,_ZSt8__fill_aIPiiEvT_S1_RKT0_
FN:1010,_ZSt17__size_to_integerm
FNDA:0,_ZSt17__size_to_integerm
FN:1109,_ZSt10__fill_n_aIPimiET_S1_T0_RKT1_St26random_access_iterator_tag
FNDA:0,_ZSt10__fill_n_aIPimiET_S1_T0_RKT1_St26random_access_iterator_tag
FN:1144,_ZSt6fill_nIPimiET_S1_T0_RKT1_
FNDA:0,_ZSt6fill_nIPimiET_S1_T0_RKT1_
FN:1514,_ZSt4__lgl
FNDA:2,_ZSt4__lgl
DA:152,0
DA:182,0
DA:184,0
DA:230,0
DA:235,0
DA:236,0
DA:237,0
DA:254,0
DA:259,0
DA:260,0
DA:261,0
DA:313,0
DA:315,0
DA:313,0
DA:315,0
DA:313,7
DA:315,7
DA:313,14
DA:315,14
DA:313,0
DA:315,0
DA:328,3
DA:329,3
DA:335,0
DA:336,0
DA:335,7
DA:336,7
DA:335,0
DA:336,0
DA:380,7
DA:383,39
DA:385,32
DA:386,32
DA:387,32
DA:389,7
DA:420,0
DA:429,0
DA:430,0
DA:431,0
DA:432,0
DA:420,7
DA:429,7
DA:430,7
DA:431,0
DA:432,7
DA:486,0
DA:495,0
DA:486,7
DA:495,7
DA:486,7
DA:495,7
DA:521,0
DA:522,0
DA:521,7
DA:522,7
DA:521,7
DA:522,7
DA:527,0
DA:529,0
DA:532,0
DA:527,7
DA:529,7
DA:532,7
DA:527,7
DA:529,7
DA:532,7
DA:611,0
DA:620,0
DA:611,7
DA:620,7
DA:611,7
DA:620,7
DA:731,3
DA:740,3
DA:741,3
DA:742,3
DA:743,3
DA:750,3
DA:760,3
DA:762,3
DA:768,3
DA:769,3
DA:796,3
DA:798,3
DA:801,3
DA:884,3
DA:894,3
DA:896,3
DA:919,0
DA:922,0
DA:923,0
DA:924,0
DA:925,0
DA:968,0
DA:969,0
DA:1010,0
DA:1109,0
DA:1115,0
DA:1116,0
DA:1120,0
DA:1121,0
DA:1144,0
DA:1149,0
DA:1150,0
DA:1514,2
DA:1515,2
end_of_record
SF:/usr/include/c++/11/bits/allocator.h
FN:156,_ZNSaI4EdgeEC2Ev
FNDA:0,_ZNSaI4EdgeEC2Ev
FN:156,_ZNSaIbEC2Ev
FNDA:0,_ZNSaIbEC2Ev
FN:156,_ZNSaIiEC2Ev
FNDA:0,_ZNSaIiEC2Ev
FN:159,_ZNSaImEC2ERKS_
FNDA:0,_ZNSaImEC2ERKS_
FN:159,_ZNSaIiEC2ERKS_
FNDA:0,_ZNSaIiEC2ERKS_
FN:169,_ZNSaImEC2IbEERKSaIT_E
FNDA:0,_ZNSaImEC2IbEERKSaIT_E
FN:169,_ZNSaIbEC2ImEERKSaIT_E
FNDA:7,_ZNSaIbEC2ImEERKSaIT_E
FN:174,_ZNSaImED2Ev
FNDA:0,_ZNSaImED2Ev
FN:174,_ZNSaIbED2Ev
FNDA:0,_ZNSaIbED2Ev
FN:174,_ZNSaI4EdgeED2Ev
FNDA:0,_ZNSaI4EdgeED2Ev
FN:174,_ZNSaIiED2Ev
FNDA:0,_ZNSaIiED2Ev
DA:156,0
DA:156,0
DA:156,0
DA:159,0
DA:160,0
DA:159,0
DA:160,0
DA:169,0
DA:169,7
DA:174,0
DA:174,0
DA:174,0
DA:174,0
end_of_record
SF:/usr/include/c++/11/bits/cpp_type_traits.h
FN:560,_ZSt12__miter_baseIN9__gnu_cxx17__normal_iteratorIP4EdgeSt6vectorIS2_SaIS2_EEEEET_S8_
FNDA:6,_ZSt12__miter_baseIN9__gnu_cxx17__normal_iteratorIP4EdgeSt6vectorIS2_SaIS2_EEEEET_S8_
FN:560,_ZSt12__miter_baseIN9__gnu_cxx17__normal_iteratorIPKiSt6vectorIiSaIiEEEEET_S8_
FNDA:0,_ZSt12__miter_baseIN9__gnu_cxx17__normal_iteratorIPKiSt6vectorIiSaIiEEEEET_S8_
FN:560,_ZSt12__miter_baseISt19_Bit_const_iteratorET_S1_
FNDA:14,_ZSt12__miter_baseISt19_Bit_const_iteratorET_S1_
FN:560,_ZSt12__miter_baseIPmET_S1_
FNDA:14,_ZSt12__miter_baseIPmET_S1_
DA:560,6
DA:561,6
DA:560,0
DA:561,0
DA:560,14
DA:561,14
DA:560,14
DA:561,14
end_of_record
SF:/home/eladubuntu/Git Projects/OS_2024-FINAL_PROJECT_MST/Graph.hpp
FN:28,_ZNK5Graph17getVerticesNumberEv
FNDA:4,_ZNK5Graph17getVerticesNumberEv
FN:29,_ZNK5Graph6getAdjEv
FNDA:0,_ZNK5Graph6getAdjEv
DA:28,4
DA:29,0
end_of_record
SF:/usr/include/c++/11/bits/stl_vector.h
FN:97,_ZNSt12_Vector_baseIiSaIiEE17_Vector_impl_dataC2Ev
FNDA:0,_ZNSt12_Vector_baseIiSaIiEE17_Vector_impl_dataC2Ev
FN:97,_ZNSt12_Vector_baseI4EdgeSaIS0_EE17_Vector_impl_dataC2Ev
FNDA:0,_ZNSt12_Vector_baseI4EdgeSaIS0_EE17_Vector_impl_dataC2Ev
FN:131,_ZNSt12_Vector_baseI4EdgeSaIS0_EE12_Vector_implC2Ev
FNDA:0,_ZNSt12_Vector_baseI4EdgeSaIS0_EE12_Vector_implC2Ev
FN:136,_ZNSt12_Vector_baseIiSaIiEE12_Vector_implC2ERKS0_
FNDA:0,_ZNSt12_Vector_baseIiSaIiEE12_Vector_implC2ERKS0_
FN:276,_ZNSt12_Vector_baseI4EdgeSaIS0_EE19_M_get_Tp_allocatorEv
FNDA:0,_ZNSt12_Vector_baseI4EdgeSaIS0_EE19_M_get_Tp_allocatorEv
FN:276,_ZNSt12_Vector_baseIiSaIiEE19_M_get_Tp_allocatorEv
FNDA:0,_ZNSt12_Vector_baseIiSaIiEE19_M_get_Tp_allocatorEv
FN:280,_ZNKSt12_Vector_baseI4EdgeSaIS0_EE19_M_get_Tp_allocatorEv
FNDA:0,_ZNKSt12_Vector_baseI4EdgeSaIS0_EE19_M_get_Tp_allocatorEv
FN:280,_ZNKSt12_Vector_baseIiSaIiEE19_M_get_Tp_allocatorEv
FNDA:0,_ZNKSt12_Vector_baseIiSaIiEE19_M_get_Tp_allocatorEv
FN:288,_ZNSt12_Vector_baseI4EdgeSaIS0_EEC2Ev
FNDA:0,_ZNSt12_Vector_baseI4EdgeSaIS0_EEC2Ev
FN:303,_ZNSt12_Vector_baseIiSaIiEEC2EmRKS0_
FNDA:0,_ZNSt12_Vector_baseIiSaIiEEC2EmRKS0_
FN:333,_ZNSt12_Vector_baseI4EdgeSaIS0_EED2Ev
FNDA:0,_ZNSt12_Vector_baseI4EdgeSaIS0_EED2Ev
FN:333,_ZNSt12_Vector_baseIiSaIiEED2Ev
FNDA:0,_ZNSt12_Vector_baseIiSaIiEED2Ev
FN:343,_ZNSt12_Vector_baseIiSaIiEE11_M_allocateEm
FNDA:0,_ZNSt12_Vector_baseIiSaIiEE11_M_allocateEm
FN:343,_ZNSt12_Vector_baseI4EdgeSaIS0_EE11_M_allocateEm
FNDA:0,_ZNSt12_Vector_baseI4EdgeSaIS0_EE11_M_allocateEm
FN:350,_ZNSt12_Vector_baseIiSaIiEE13_M_deallocateEPim
FNDA:0,_ZNSt12_Vector_baseIiSaIiEE13_M_deallocateEPim
FN:350,_ZNSt12_Vector_baseI4EdgeSaIS0_EE13_M_deallocateEPS0_m
FNDA:0,_ZNSt12_Vector_baseI4EdgeSaIS0_EE13_M_deallocateEPS0_m
FN:359,_ZNSt12_Vector_baseIiSaIiEE17_M_create_storageEm
FNDA:0,_ZNSt12_Vector_baseIiSaIiEE17_M_create_storageEm
FN:453,_ZNSt6vectorI4EdgeSaIS0_EE14_S_do_relocateEPS0_S3_S3_RS1_St17integral_constantIbLb1EE
FNDA:0,_ZNSt6vectorI4EdgeSaIS0_EE14_S_do_relocateEPS0_S3_S3_RS1_St17integral_constantIbLb1EE
FN:465,_ZNSt6vectorI4EdgeSaIS0_EE11_S_relocateEPS0_S3_S3_RS1_
FNDA:0,_ZNSt6vectorI4EdgeSaIS0_EE11_S_relocateEPS0_S3_S3_RS1_
FN:487,_ZNSt6vectorI4EdgeSaIS0_EEC2Ev
FNDA:0,_ZNSt6vectorI4EdgeSaIS0_EEC2Ev
FN:522,_ZNSt6vectorIiSaIiEEC2EmRKiRKS0_
FNDA:0,_ZNSt6vectorIiSaIiEEC2EmRKiRKS0_
FN:553,_ZNSt6vectorIiSaIiEEC2ERKS1_
FNDA:0,_ZNSt6vectorIiSaIiEEC2ERKS1_
FN:678,_ZNSt6vectorI4EdgeSaIS0_EED2Ev
FNDA:0,_ZNSt6vectorI4EdgeSaIS0_EED2Ev
FN:678,_ZNSt6vectorIiSaIiEED2Ev
FNDA:0,_ZNSt6vectorIiSaIiEED2Ev
FN:811,_ZNSt6vectorI4EdgeSaIS0_EE5beginEv
FNDA:0,_ZNSt6vectorI4EdgeSaIS0_EE5beginEv
FN:820,_ZNKSt6vectorIiSaIiEE5beginEv
FNDA:0,_ZNKSt6vectorIiSaIiEE5beginEv
FN:820,_ZNKSt6vectorI4EdgeSaIS0_EE5beginEv
FNDA:24,_ZNKSt6vectorI4EdgeSaIS0_EE5beginEv
FN:829,_ZNSt6vectorI4EdgeSaIS0_EE3endEv
FNDA:0,_ZNSt6vectorI4EdgeSaIS0_EE3endEv
FN:838,_ZNKSt6vectorIiSaIiEE3endEv
FNDA:0,_ZNKSt6vectorIiSaIiEE3endEv
FN:838,_ZNKSt6vectorI4EdgeSaIS0_EE3endEv
FNDA:24,_ZNKSt6vectorI4EdgeSaIS0_EE3endEv
FN:918,_ZNKSt6vectorIiSaIiEE4sizeEv
FNDA:0,_ZNKSt6vectorIiSaIiEE4sizeEv
FN:918,_ZNKSt6vectorI4EdgeSaIS0_EE4sizeEv
FNDA:0,_ZNKSt6vectorI4EdgeSaIS0_EE4sizeEv
FN:923,_ZNKSt6vectorI4EdgeSaIS0_EE8max_sizeEv
FNDA:0,_ZNKSt6vectorI4EdgeSaIS0_EE8max_sizeEv
FN:1043,_ZNSt6vectorI4EdgeSaIS0_EEixEm
FNDA:7,_ZNSt6vectorI4EdgeSaIS0_EEixEm
FN:1043,_ZNSt6vectorIiSaIiEEixEm
FNDA:0,_ZNSt6vectorIiSaIiEEixEm
FN:1061,_ZNKSt6vectorIS_I4EdgeSaIS0_EESaIS2_EEixEm
FNDA:16,_ZNKSt6vectorIS_I4EdgeSaIS0_EESaIS2_EEixEm
FN:1143,_ZNSt6vectorI4EdgeSaIS0_EE4backEv
FNDA:0,_ZNSt6vectorI4EdgeSaIS0_EE4backEv
FN:1187,_ZNSt6vectorI4EdgeSaIS0_EE9push_backERKS0_
FNDA:16,_ZNSt6vectorI4EdgeSaIS0_EE9push_backERKS0_
FN:1203,_ZNSt6vectorI4EdgeSaIS0_EE9push_backEOS0_
FNDA:0,_ZNSt6vectorI4EdgeSaIS0_EE9push_backEOS0_
FN:1593,_ZNSt6vectorIiSaIiEE18_M_fill_initializeEmRKi
FNDA:0,_ZNSt6vectorIiSaIiEE18_M_fill_initializeEmRKi
FN:1756,_ZNKSt6vectorI4EdgeSaIS0_EE12_M_check_lenEmPKc
FNDA:0,_ZNKSt6vectorI4EdgeSaIS0_EE12_M_check_lenEmPKc
FN:1767,_ZNSt6vectorIiSaIiEE17_S_check_init_lenEmRKS0_
FNDA:0,_ZNSt6vectorIiSaIiEE17_S_check_init_lenEmRKS0_
FN:1776,_ZNSt6vectorI4EdgeSaIS0_EE11_S_max_sizeERKS1_
FNDA:0,_ZNSt6vectorI4EdgeSaIS0_EE11_S_max_sizeERKS1_
FN:1776,_ZNSt6vectorIiSaIiEE11_S_max_sizeERKS0_
FNDA:0,_ZNSt6vectorIiSaIiEE11_S_max_sizeERKS0_
DA:97,0
DA:98,0
DA:99,0
DA:97,0
DA:98,0
DA:99,0
DA:131,0
DA:133,0
DA:134,0
DA:136,0
DA:137,0
DA:138,0
DA:276,0
DA:277,0
DA:276,0
DA:277,0
DA:280,0
DA:281,0
DA:280,0
DA:281,0
DA:288,0
DA:303,0
DA:304,0
DA:305,0
DA:333,0
DA:335,0
DA:336,0
DA:337,0
DA:333,0
DA:335,0
DA:336,0
DA:337,0
DA:343,0
DA:346,0
DA:343,0
DA:346,0
DA:350,0
DA:353,0
DA:354,0
DA:355,0
DA:350,0
DA:353,0
DA:354,0
DA:355,0
DA:359,0
DA:361,0
DA:362,0
DA:363,0
DA:364,0
DA:453,0
DA:456,0
DA:465,0
DA:469,0
DA:487,0
DA:522,0
DA:524,0
DA:525,0
DA:553,0
DA:555,0
DA:557,0
DA:558,0
DA:560,0
DA:561,0
DA:678,0
DA:680,0
DA:681,0
DA:683,0
DA:678,0
DA:680,0
DA:681,0
DA:683,0
DA:811,0
DA:812,0
DA:820,0
DA:821,0
DA:820,24
DA:821,24
DA:829,0
DA:830,0
DA:838,0
DA:839,0
DA:838,24
DA:839,24
DA:918,0
DA:919,0
DA:918,0
DA:919,0
DA:923,0
DA:924,0
DA:1043,7
DA:1046,7
DA:1043,0
DA:1046,0
DA:1061,16
DA:1064,16
DA:1143,0
DA:1146,0
DA:1187,16
DA:1189,16
DA:1192,3
DA:1194,3
DA:1198,13
DA:1199,16
DA:1203,0
DA:1204,0
DA:1593,0
DA:1595,0
DA:1596,0
DA:1597,0
DA:1598,0
DA:1756,0
DA:1758,0
DA:1759,0
DA:1761,0
DA:1762,0
DA:1767,0
DA:1769,0
DA:1770,0
DA:1772,0
DA:1776,0
DA:1781,0
DA:1783,0
DA:1784,0
DA:1776,0
DA:1781,0
DA:1783,0
DA:1784,0
end_of_record
SF:/usr/include/c++/11/bits/predefined_ops.h
FN:150,_ZN9__gnu_cxx5__ops15_Iter_comp_iterIZN15KruskalStrategy7findMSTERK5GraphEUl4EdgeS6_E_EC2ES7_
FNDA:2,_ZN9__gnu_cxx5__ops15_Iter_comp_iterIZN15KruskalStrategy7findMSTERK5GraphEUl4EdgeS6_E_EC2ES7_
FN:157,_ZN9__gnu_cxx5__ops15_Iter_comp_iterIZN15KruskalStrategy7findMSTERK5GraphEUl4EdgeS6_E_EclINS_17__normal_iteratorIPS6_St6vectorIS6_SaIS6_EEEESF_EEbT_T0_
FNDA:7,_ZN9__gnu_cxx5__ops15_Iter_comp_iterIZN15KruskalStrategy7findMSTERK5GraphEUl4EdgeS6_E_EclINS_17__normal_iteratorIPS6_St6vectorIS6_SaIS6_EEEESF_EEbT_T0_
FN:164,_ZN9__gnu_cxx5__ops16__iter_comp_iterIZN15KruskalStrategy7findMSTERK5GraphEUl4EdgeS6_E_EENS0_15_Iter_comp_iterIT_EES9_
FNDA:2,_ZN9__gnu_cxx5__ops16__iter_comp_iterIZN15KruskalStrategy7findMSTERK5GraphEUl4EdgeS6_E_EENS0_15_Iter_comp_iterIT_EES9_
FN:187,_ZN9__gnu_cxx5__ops14_Iter_comp_valIZN15KruskalStrategy7findMSTERK5GraphEUl4EdgeS6_E_EC2EONS0_15_Iter_comp_iterIS7_EE
FNDA:0,_ZN9__gnu_cxx5__ops14_Iter_comp_valIZN15KruskalStrategy7findMSTERK5GraphEUl4EdgeS6_E_EC2EONS0_15_Iter_comp_iterIS7_EE
FN:195,_ZN9__gnu_cxx5__ops14_Iter_comp_valIZN15KruskalStrategy7findMSTERK5GraphEUl4EdgeS6_E_EclINS_17__normal_iteratorIPS6_St6vectorIS6_SaIS6_EEEES6_EEbT_RT0_
FNDA:0,_ZN9__gnu_cxx5__ops14_Iter_comp_valIZN15KruskalStrategy7findMSTERK5GraphEUl4EdgeS6_E_EclINS_17__normal_iteratorIPS6_St6vectorIS6_SaIS6_EEEES6_EEbT_RT0_
FN:231,_ZN9__gnu_cxx5__ops14_Val_comp_iterIZN15KruskalStrategy7findMSTERK5GraphEUl4EdgeS6_E_EC2EONS0_15_Iter_comp_iterIS7_EE
FNDA:4,_ZN9__gnu_cxx5__ops14_Val_comp_iterIZN15KruskalStrategy7findMSTERK5GraphEUl4EdgeS6_E_EC2EONS0_15_Iter_comp_iterIS7_EE
FN:239,_ZN9__gnu_cxx5__ops14_Val_comp_iterIZN15KruskalStrategy7findMSTERK5GraphEUl4EdgeS6_E_EclIS6_NS_17__normal_iteratorIPS6_St6vectorIS6_SaIS6_EEEEEEbRT_T0_
FNDA:9,_ZN9__gnu_cxx5__ops14_Val_comp_iterIZN15KruskalStrategy7findMSTERK5GraphEUl4EdgeS6_E_EclIS6_NS_17__normal_iteratorIPS6_St6vectorIS6_SaIS6_EEEEEEbRT_T0_
FN:252,_ZN9__gnu_cxx5__ops15__val_comp_iterIZN15KruskalStrategy7findMSTERK5GraphEUl4EdgeS6_E_EENS0_14_Val_comp_iterIT_EENS0_15_Iter_comp_iterIS9_EE
FNDA:4,_ZN9__gnu_cxx5__ops15__val_comp_iterIZN15KruskalStrategy7findMSTERK5GraphEUl4EdgeS6_E_EENS0_14_Val_comp_iterIT_EENS0_15_Iter_comp_iterIS9_EE
DA:150,2
DA:151,2
DA:152,2
DA:157,7
DA:158,7
DA:164,2
DA:165,2
DA:187,0
DA:188,0
DA:189,0
DA:195,0
DA:196,0
DA:231,4
DA:232,4
DA:233,4
DA:239,9
DA:240,9
DA:252,4
DA:253,4
end_of_record
SF:/usr/include/c++/11/bits/vector.tcc
FN:109,_ZNSt6vectorI4EdgeSaIS0_EE12emplace_backIJS0_EEERS0_DpOT_
FNDA:0,_ZNSt6vectorI4EdgeSaIS0_EE12emplace_backIJS0_EEERS0_DpOT_
FN:426,_ZNSt6vectorI4EdgeSaIS0_EE17_M_realloc_insertIJS0_EEEvN9__gnu_cxx17__normal_iteratorIPS0_S2_EEDpOT_
FNDA:0,_ZNSt6vectorI4EdgeSaIS0_EE17_M_realloc_insertIJS0_EEEvN9__gnu_cxx17__normal_iteratorIPS0_S2_EEDpOT_
FN:426,_ZNSt6vectorI4EdgeSaIS0_EE17_M_realloc_insertIJRKS0_EEEvN9__gnu_cxx17__normal_iteratorIPS0_S2_EEDpOT_
FNDA:13,_ZNSt6vectorI4EdgeSaIS0_EE17_M_realloc_insertIJRKS0_EEEvN9__gnu_cxx17__normal_iteratorIPS0_S2_EEDpOT_
DA:109,0
DA:112,0
DA:115,0
DA:117,0
DA:121,0
DA:123,0
DA:426,0
DA:436,0
DA:437,0
DA:438,0
DA:439,0
DA:440,0
DA:441,0
DA:449,0
DA:450,0
DA:456,0
DA:461,0
DA:462,0
DA:464,0
DA:466,0
DA:467,0
DA:500,0
DA:501,0
DA:502,0
DA:503,0
DA:504,0
DA:505,0
DA:426,13
DA:436,13
DA:437,13
DA:438,13
DA:439,13
DA:440,13
DA:441,13
DA:449,13
DA:450,13
DA:456,13
DA:461,13
DA:462,13
DA:464,13
DA:466,13
DA:467,13
DA:500,13
DA:501,13
DA:502,13
DA:503,13
DA:504,13
DA:505,13
end_of_record
SF:/usr/include/c++/11/bits/move.h
FN:49,_ZSt11__addressofImEPT_RS0_
FNDA:0,_ZSt11__addressofImEPT_RS0_
FN:77,_ZSt7forwardIRK4EdgeEOT_RNSt16remove_referenceIS3_E4typeE
FNDA:45,_ZSt7forwardIRK4EdgeEOT_RNSt16remove_referenceIS3_E4typeE
FN:77,_ZSt7forwardI4EdgeEOT_RNSt16remove_referenceIS1_E4typeE
FNDA:0,_ZSt7forwardI4EdgeEOT_RNSt16remove_referenceIS1_E4typeE
FN:104,_ZSt4moveIRN9__gnu_cxx5__ops15_Iter_comp_iterIZN15KruskalStrategy7findMSTERK5GraphEUl4EdgeS7_E_EEEONSt16remove_referenceIT_E4typeEOSC_
FNDA:4,_ZSt4moveIRN9__gnu_cxx5__ops15_Iter_comp_iterIZN15KruskalStrategy7findMSTERK5GraphEUl4EdgeS7_E_EEEONSt16remove_referenceIT_E4typeEOSC_
FN:104,_ZSt4moveIRZN15KruskalStrategy7findMSTERK5GraphEUl4EdgeS4_E_EONSt16remove_referenceIT_E4typeEOS8_
FNDA:8,_ZSt4moveIRZN15KruskalStrategy7findMSTERK5GraphEUl4EdgeS4_E_EONSt16remove_referenceIT_E4typeEOS8_
FN:104,_ZSt4moveIR4EdgeEONSt16remove_referenceIT_E4typeEOS3_
FNDA:0,_ZSt4moveIR4EdgeEONSt16remove_referenceIT_E4typeEOS3_
FN:196,_ZSt4swapI4EdgeENSt9enable_ifIXsrSt6__and_IJSt6__not_ISt15__is_tuple_likeIT_EESt21is_move_constructibleIS5_ESt18is_move_assignableIS5_EEE5valueEvE4typeERS5_SF_
FNDA:0,_ZSt4swapI4EdgeENSt9enable_ifIXsrSt6__and_IJSt6__not_ISt15__is_tuple_likeIT_EESt21is_move_constructibleIS5_ESt18is_move_assignableIS5_EEE5valueEvE4typeERS5_SF_
DA:49,0
DA:50,0
DA:77,45
DA:78,45
DA:77,0
DA:78,0
DA:104,4
DA:105,4
DA:104,8
DA:105,8
DA:104,0
DA:105,0
DA:196,0
DA:204,0
DA:205,0
DA:206,0
DA:207,0
end_of_record
SF:/usr/include/c++/11/ext/new_allocator.h
FN:79,_ZN9__gnu_cxx13new_allocatorIiEC2Ev
FNDA:0,_ZN9__gnu_cxx13new_allocatorIiEC2Ev
FN:79,_ZN9__gnu_cxx13new_allocatorIbEC2Ev
FNDA:0,_ZN9__gnu_cxx13new_allocatorIbEC2Ev
FN:79,_ZN9__gnu_cxx13new_allocatorI4EdgeEC2Ev
FNDA:0,_ZN9__gnu_cxx13new_allocatorI4EdgeEC2Ev
FN:79,_ZN9__gnu_cxx13new_allocatorImEC2Ev
FNDA:0,_ZN9__gnu_cxx13new_allocatorImEC2Ev
FN:82,_ZN9__gnu_cxx13new_allocatorImEC2ERKS1_
FNDA:0,_ZN9__gnu_cxx13new_allocatorImEC2ERKS1_
FN:82,_ZN9__gnu_cxx13new_allocatorIiEC2ERKS1_
FNDA:0,_ZN9__gnu_cxx13new_allocatorIiEC2ERKS1_
FN:89,_ZN9__gnu_cxx13new_allocatorIiED2Ev
FNDA:0,_ZN9__gnu_cxx13new_allocatorIiED2Ev
FN:89,_ZN9__gnu_cxx13new_allocatorI4EdgeED2Ev
FNDA:0,_ZN9__gnu_cxx13new_allocatorI4EdgeED2Ev
FN:89,_ZN9__gnu_cxx13new_allocatorIbED2Ev
FNDA:0,_ZN9__gnu_cxx13new_allocatorIbED2Ev
FN:89,_ZN9__gnu_cxx13new_allocatorImED2Ev
FNDA:0,_ZN9__gnu_cxx13new_allocatorImED2Ev
FN:103,_ZN9__gnu_cxx13new_allocatorIiE8allocateEmPKv
FNDA:0,_ZN9__gnu_cxx13new_allocatorIiE8allocateEmPKv
FN:103,_ZN9__gnu_cxx13new_allocatorImE8allocateEmPKv
FNDA:0,_ZN9__gnu_cxx13new_allocatorImE8allocateEmPKv
FN:103,_ZN9__gnu_cxx13new_allocatorI4EdgeE8allocateEmPKv
FNDA:0,_ZN9__gnu_cxx13new_allocatorI4EdgeE8allocateEmPKv
FN:132,_ZN9__gnu_cxx13new_allocatorI4EdgeE10deallocateEPS1_m
FNDA:0,_ZN9__gnu_cxx13new_allocatorI4EdgeE10deallocateEPS1_m
FN:132,_ZN9__gnu_cxx13new_allocatorIiE10deallocateEPim
FNDA:0,_ZN9__gnu_cxx13new_allocatorIiE10deallocateEPim
FN:132,_ZN9__gnu_cxx13new_allocatorImE10deallocateEPmm
FNDA:0,_ZN9__gnu_cxx13new_allocatorImE10deallocateEPmm
FN:154,_ZNK9__gnu_cxx13new_allocatorIiE8max_sizeEv
FNDA:0,_ZNK9__gnu_cxx13new_allocatorIiE8max_sizeEv
FN:154,_ZNK9__gnu_cxx13new_allocatorI4EdgeE8max_sizeEv
FNDA:0,_ZNK9__gnu_cxx13new_allocatorI4EdgeE8max_sizeEv
FN:160,_ZN9__gnu_cxx13new_allocatorI4EdgeE9constructIS1_JS1_EEEvPT_DpOT0_
FNDA:0,_ZN9__gnu_cxx13new_allocatorI4EdgeE9constructIS1_JS1_EEEvPT_DpOT0_
FN:160,_ZN9__gnu_cxx13new_allocatorI4EdgeE9constructIS1_JRKS1_EEEvPT_DpOT0_
FNDA:16,_ZN9__gnu_cxx13new_allocatorI4EdgeE9constructIS1_JRKS1_EEEvPT_DpOT0_
FN:197,_ZNK9__gnu_cxx13new_allocatorImE11_M_max_sizeEv
FNDA:0,_ZNK9__gnu_cxx13new_allocatorImE11_M_max_sizeEv
FN:197,_ZNK9__gnu_cxx13new_allocatorI4EdgeE11_M_max_sizeEv
FNDA:0,_ZNK9__gnu_cxx13new_allocatorI4EdgeE11_M_max_sizeEv
FN:197,_ZNK9__gnu_cxx13new_allocatorIiE11_M_max_sizeEv
FNDA:0,_ZNK9__gnu_cxx13new_allocatorIiE11_M_max_sizeEv
DA:79,0
DA:79,0
DA:79,0
DA:79,0
DA:82,0
DA:82,0
DA:89,0
DA:89,0
DA:89,0
DA:89,0
DA:103,0
DA:111,0
DA:115,0
DA:116,0
DA:117,0
DA:127,0
DA:103,0
DA:111,0
DA:115,0
DA:116,0
DA:117,0
DA:127,0
DA:103,0
DA:111,0
DA:115,0
DA:116,0
DA:117,0
DA:127,0
DA:132,0
DA:145,0
DA:132,0
DA:145,0
DA:132,0
DA:145,0
DA:154,0
DA:155,0
DA:154,0
DA:155,0
DA:160,0
DA:162,0
DA:160,16
DA:162,16
DA:197,0
DA:200,0
DA:197,0
DA:200,0
DA:197,0
DA:200,0
end_of_record
SF:/home/eladubuntu/Git Projects/OS_2024-FINAL_PROJECT_MST/MSTStrategy.cpp
FN:3,_ZN12PrimStrategy6minKeyESt6vectorIiSaIiEES0_IbSaIbEEi
FNDA:7,_ZN12PrimStrategy6minKeyESt6vectorIiSaIiEES0_IbSaIbEEi
FN:17,_ZN12PrimStrategy7findMSTERK5Graph
FNDA:2,_ZN12PrimStrategy7findMSTERK5Graph
FN:64,_ZN3DSU4findEi
FNDA:32,_ZN3DSU4findEi
FN:73,_ZN3DSU5uniteEii
FNDA:7,_ZN3DSU5uniteEii
FN:97,_ZN15KruskalStrategy7findMSTERK5Graph
FNDA:2,_ZN15KruskalStrategy7findMSTERK5Graph
FN:114,_ZZN15KruskalStrategy7findMSTERK5GraphENKUl4EdgeS3_E_clES3_S3_
FNDA:16,_ZZN15KruskalStrategy7findMSTERK5GraphENKUl4EdgeS3_E_clES3_S3_
DA:3,7
DA:5,7
DA:6,39
DA:8,32
DA:10,12
DA:11,12
DA:14,7
DA:17,2
DA:19,2
DA:20,2
DA:22,2
DA:24,2
DA:26,2
DA:29,2
DA:31,2
DA:34,9
DA:37,7
DA:40,7
DA:44,21
DA:46,14
DA:47,14
DA:48,14
DA:50,8
DA:51,8
DA:56,9
DA:58,7
DA:61,4
DA:62,2
DA:64,32
DA:66,32
DA:68,28
DA:70,4
DA:73,7
DA:75,7
DA:76,7
DA:78,7
DA:80,7
DA:82,2
DA:84,5
DA:86,1
DA:90,4
DA:91,4
DA:94,7
DA:97,2
DA:98,2
DA:99,2
DA:100,2
DA:101,2
DA:104,2
DA:105,11
DA:106,27
DA:107,18
DA:108,9
DA:114,2
DA:115,16
DA:118,2
DA:121,9
DA:122,7
DA:124,7
DA:125,7
DA:127,7
DA:128,7
DA:129,7
DA:130,7
DA:139,4
DA:140,2
end_of_record
SF:/usr/include/c++/11/bits/stl_construct.h
FN:172,_ZNSt12_Destroy_auxILb1EE9__destroyIPiEEvT_S3_
FNDA:0,_ZNSt12_Destroy_auxILb1EE9__destroyIPiEEvT_S3_
FN:172,_ZNSt12_Destroy_auxILb1EE9__destroyIP4EdgeEEvT_S4_
FNDA:0,_ZNSt12_Destroy_auxILb1EE9__destroyIP4EdgeEEvT_S4_
FN:182,_ZSt8_DestroyIPiEvT_S1_
FNDA:0,_ZSt8_DestroyIPiEvT_S1_
FN:182,_ZSt8_DestroyIP4EdgeEvT_S2_
FNDA:0,_ZSt8_DestroyIP4EdgeEvT_S2_
DA:172,0
DA:172,0
DA:182,0
DA:196,0
DA:197,0
DA:182,0
DA:196,0
DA:197,0
end_of_record
SF:/usr/include/c++/11/bits/stl_algo.h
FN:79,_ZSt22__move_median_to_firstIN9__gnu_cxx17__normal_iteratorIP4EdgeSt6vectorIS2_SaIS2_EEEENS0_5__ops15_Iter_comp_iterIZN15KruskalStrategy7findMSTERK5GraphEUlS2_S2_E_EEEvT_SG_SG_SG_T0_
FNDA:0,_ZSt22__move_median_to_firstIN9__gnu_cxx17__normal_iteratorIP4EdgeSt6vectorIS2_SaIS2_EEEENS0_5__ops15_Iter_comp_iterIZN15KruskalStrategy7findMSTERK5GraphEUlS2_S2_E_EEEvT_SG_SG_SG_T0_
FN:1642,_ZSt13__heap_selectIN9__gnu_cxx17__normal_iteratorIP4EdgeSt6vectorIS2_SaIS2_EEEENS0_5__ops15_Iter_comp_iterIZN15KruskalStrategy7findMSTERK5GraphEUlS2_S2_E_EEEvT_SG_SG_T0_
FNDA:0,_ZSt13__heap_selectIN9__gnu_cxx17__normal_iteratorIP4EdgeSt6vectorIS2_SaIS2_EEEENS0_5__ops15_Iter_comp_iterIZN15KruskalStrategy7findMSTERK5GraphEUlS2_S2_E_EEEvT_SG_SG_T0_
FN:1799,_ZSt25__unguarded_linear_insertIN9__gnu_cxx17__normal_iteratorIP4EdgeSt6vectorIS2_SaIS2_EEEENS0_5__ops14_Val_comp_iterIZN15KruskalStrategy7findMSTERK5GraphEUlS2_S2_E_EEEvT_T0_
FNDA:4,_ZSt25__unguarded_linear_insertIN9__gnu_cxx17__normal_iteratorIP4EdgeSt6vectorIS2_SaIS2_EEEENS0_5__ops14_Val_comp_iterIZN15KruskalStrategy7findMSTERK5GraphEUlS2_S2_E_EEEvT_T0_
FN:1819,_ZSt16__insertion_sortIN9__gnu_cxx17__normal_iteratorIP4EdgeSt6vectorIS2_SaIS2_EEEENS0_5__ops15_Iter_comp_iterIZN15KruskalStrategy7findMSTERK5GraphEUlS2_S2_E_EEEvT_SG_T0_
FNDA:2,_ZSt16__insertion_sortIN9__gnu_cxx17__normal_iteratorIP4EdgeSt6vectorIS2_SaIS2_EEEENS0_5__ops15_Iter_comp_iterIZN15KruskalStrategy7findMSTERK5GraphEUlS2_S2_E_EEEvT_SG_T0_
FN:1843,_ZSt26__unguarded_insertion_sortIN9__gnu_cxx17__normal_iteratorIP4EdgeSt6vectorIS2_SaIS2_EEEENS0_5__ops15_Iter_comp_iterIZN15KruskalStrategy7findMSTERK5GraphEUlS2_S2_E_EEEvT_SG_T0_
FNDA:0,_ZSt26__unguarded_insertion_sortIN9__gnu_cxx17__normal_iteratorIP4EdgeSt6vectorIS2_SaIS2_EEEENS0_5__ops15_Iter_comp_iterIZN15KruskalStrategy7findMSTERK5GraphEUlS2_S2_E_EEEvT_SG_T0_
FN:1861,_ZSt22__final_insertion_sortIN9__gnu_cxx17__normal_iteratorIP4EdgeSt6vectorIS2_SaIS2_EEEENS0_5__ops15_Iter_comp_iterIZN15KruskalStrategy7findMSTERK5GraphEUlS2_S2_E_EEEvT_SG_T0_
FNDA:2,_ZSt22__final_insertion_sortIN9__gnu_cxx17__normal_iteratorIP4EdgeSt6vectorIS2_SaIS2_EEEENS0_5__ops15_Iter_comp_iterIZN15KruskalStrategy7findMSTERK5GraphEUlS2_S2_E_EEEvT_SG_T0_
FN:1878,_ZSt21__unguarded_partitionIN9__gnu_cxx17__normal_iteratorIP4EdgeSt6vectorIS2_SaIS2_EEEENS0_5__ops15_Iter_comp_iterIZN15KruskalStrategy7findMSTERK5GraphEUlS2_S2_E_EEET_SG_SG_SG_T0_
FNDA:0,_ZSt21__unguarded_partitionIN9__gnu_cxx17__normal_iteratorIP4EdgeSt6vectorIS2_SaIS2_EEEENS0_5__ops15_Iter_comp_iterIZN15KruskalStrategy7findMSTERK5GraphEUlS2_S2_E_EEET_SG_SG_SG_T0_
FN:1900,_ZSt27__unguarded_partition_pivotIN9__gnu_cxx17__normal_iteratorIP4EdgeSt6vectorIS2_SaIS2_EEEENS0_5__ops15_Iter_comp_iterIZN15KruskalStrategy7findMSTERK5GraphEUlS2_S2_E_EEET_SG_SG_T0_
FNDA:0,_ZSt27__unguarded_partition_pivotIN9__gnu_cxx17__normal_iteratorIP4EdgeSt6vectorIS2_SaIS2_EEEENS0_5__ops15_Iter_comp_iterIZN15KruskalStrategy7findMSTERK5GraphEUlS2_S2_E_EEET_SG_SG_T0_
FN:1912,_ZSt14__partial_sortIN9__gnu_cxx17__normal_iteratorIP4EdgeSt6vectorIS2_SaIS2_EEEENS0_5__ops15_Iter_comp_iterIZN15KruskalStrategy7findMSTERK5GraphEUlS2_S2_E_EEEvT_SG_SG_T0_
FNDA:0,_ZSt14__partial_sortIN9__gnu_cxx17__normal_iteratorIP4EdgeSt6vectorIS2_SaIS2_EEEENS0_5__ops15_Iter_comp_iterIZN15KruskalStrategy7findMSTERK5GraphEUlS2_S2_E_EEEvT_SG_SG_T0_
FN:1925,_ZSt16__introsort_loopIN9__gnu_cxx17__normal_iteratorIP4EdgeSt6vectorIS2_SaIS2_EEEElNS0_5__ops15_Iter_comp_iterIZN15KruskalStrategy7findMSTERK5GraphEUlS2_S2_E_EEEvT_SG_T0_T1_
FNDA:2,_ZSt16__introsort_loopIN9__gnu_cxx17__normal_iteratorIP4EdgeSt6vectorIS2_SaIS2_EEEElNS0_5__ops15_Iter_comp_iterIZN15KruskalStrategy7findMSTERK5GraphEUlS2_S2_E_EEEvT_SG_T0_T1_
FN:1949,_ZSt6__sortIN9__gnu_cxx17__normal_iteratorIP4EdgeSt6vectorIS2_SaIS2_EEEENS0_5__ops15_Iter_comp_iterIZN15KruskalStrategy7findMSTERK5GraphEUlS2_S2_E_EEEvT_SG_T0_
FNDA:2,_ZSt6__sortIN9__gnu_cxx17__normal_iteratorIP4EdgeSt6vectorIS2_SaIS2_EEEENS0_5__ops15_Iter_comp_iterIZN15KruskalStrategy7findMSTERK5GraphEUlS2_S2_E_EEEvT_SG_T0_
FN:4863,_ZSt4sortIN9__gnu_cxx17__normal_iteratorIP4EdgeSt6vectorIS2_SaIS2_EEEEZN15KruskalStrategy7findMSTERK5GraphEUlS2_S2_E_EvT_SD_T0_
FNDA:2,_ZSt4sortIN9__gnu_cxx17__normal_iteratorIP4EdgeSt6vectorIS2_SaIS2_EEEEZN15KruskalStrategy7findMSTERK5GraphEUlS2_S2_E_EvT_SD_T0_
DA:79,0
DA:82,0
DA:84,0
DA:85,0
DA:86,0
DA:87,0
DA:89,0
DA:91,0
DA:92,0
DA:93,0
DA:94,0
DA:96,0
DA:97,0
DA:1642,0
DA:1646,0
DA:1647,0
DA:1648,0
DA:1649,0
DA:1650,0
DA:1799,4
DA:1803,4
DA:1804,4
DA:1805,4
DA:1806,9
DA:1808,5
DA:1809,5
DA:1810,5
DA:1812,4
DA:1813,4
DA:1819,2
DA:1822,2
DA:1824,9
DA:1826,7
DA:1829,3
DA:1830,3
DA:1831,3
DA:1834,4
DA:1843,0
DA:1846,0
DA:1847,0
DA:1849,0
DA:1861,2
DA:1864,2
DA:1866,0
DA:1867,0
DA:1871,2
DA:1872,2
DA:1878,0
DA:1884,0
DA:1885,0
DA:1886,0
DA:1887,0
DA:1888,0
DA:1889,0
DA:1890,0
DA:1891,0
DA:1892,0
DA:1900,0
DA:1903,0
DA:1904,0
DA:1906,0
DA:1912,0
DA:1917,0
DA:1918,0
DA:1919,0
DA:1925,2
DA:1929,2
DA:1931,0
DA:1933,0
DA:1934,0
DA:1936,0
DA:1938,0
DA:1939,0
DA:1940,0
DA:1949,2
DA:1952,2
DA:1954,2
DA:1955,2
DA:1957,2
DA:1959,2
DA:4863,2
DA:4875,2
DA:4876,2
end_of_record
TN:
SF:/usr/include/c++/11/bits/predefined_ops.h
FN:157,_ZN9__gnu_cxx5__ops15_Iter_comp_iterISt7greaterISt4pairIiiEEEclINS_17__normal_iteratorIPS4_St6vectorIS4_SaIS4_EEEESD_EEbT_T0_
FNDA:0,_ZN9__gnu_cxx5__ops15_Iter_comp_iterISt7greaterISt4pairIiiEEEclINS_17__normal_iteratorIPS4_St6vectorIS4_SaIS4_EEEESD_EEbT_T0_
FN:174,_ZN9__gnu_cxx5__ops14_Iter_comp_valISt7greaterISt4pairIiiEEEC2ES5_
FNDA:9,_ZN9__gnu_cxx5__ops14_Iter_comp_valISt7greaterISt4pairIiiEEEC2ES5_
FN:187,_ZN9__gnu_cxx5__ops14_Iter_comp_valISt7greaterISt4pairIiiEEEC2EONS0_15_Iter_comp_iterIS5_EE
FNDA:0,_ZN9__gnu_cxx5__ops14_Iter_comp_valISt7greaterISt4pairIiiEEEC2EONS0_15_Iter_comp_iterIS5_EE
FN:195,_ZN9__gnu_cxx5__ops14_Iter_comp_valISt7greaterISt4pairIiiEEEclINS_17__normal_iteratorIPS4_St6vectorIS4_SaIS4_EEEES4_EEbT_RT0_
FNDA:0,_ZN9__gnu_cxx5__ops14_Iter_comp_valISt7greaterISt4pairIiiEEEclINS_17__normal_iteratorIPS4_St6vectorIS4_SaIS4_EEEES4_EEbT_RT0_
DA:157,0
DA:158,0
DA:174,9
DA:175,9
DA:176,9
DA:187,0
DA:188,0
DA:189,0
DA:195,0
DA:196,0
end_of_record
SF:/home/eladubuntu/Git Projects/OS_2024-FINAL_PROJECT_MST/Graph.hpp
FN:24,_ZN5GraphD0Ev
FNDA:0,_ZN5GraphD0Ev
FN:24,_ZN5GraphD2Ev
FNDA:0,_ZN5GraphD2Ev
DA:24,0
DA:24,0
end_of_record
SF:/usr/include/c++/11/bits/stl_vector.h
FN:97,_ZNSt12_Vector_baseI4EdgeSaIS0_EE17_Vector_impl_dataC2Ev
FNDA:0,_ZNSt12_Vector_baseI4EdgeSaIS0_EE17_Vector_impl_dataC2Ev
FN:97,_ZNSt12_Vector_baseISt4pairIiiESaIS1_EE17_Vector_impl_dataC2Ev
FNDA:2,_ZNSt12_Vector_baseISt4pairIiiESaIS1_EE17_Vector_impl_dataC2Ev
FN:97,_ZNSt12_Vector_baseIiSaIiEE17_Vector_impl_dataC2Ev
FNDA:40,_ZNSt12_Vector_baseIiSaIiEE17_Vector_impl_dataC2Ev
FN:102,_ZNSt12_Vector_baseI4EdgeSaIS0_EE17_Vector_impl_dataC2EOS3_
FNDA:0,_ZNSt12_Vector_baseI4EdgeSaIS0_EE17_Vector_impl_dataC2EOS3_
FN:102,_ZNSt12_Vector_baseIiSaIiEE17_Vector_impl_dataC2EOS2_
FNDA:0,_ZNSt12_Vector_baseIiSaIiEE17_Vector_impl_dataC2EOS2_
FN:109,_ZNSt12_Vector_baseIiSaIiEE17_Vector_impl_data12_M_copy_dataERKS2_
FNDA:0,_ZNSt12_Vector_baseIiSaIiEE17_Vector_impl_data12_M_copy_dataERKS2_
FN:117,_ZNSt12_Vector_baseIiSaIiEE17_Vector_impl_data12_M_swap_dataERS2_
FNDA:0,_ZNSt12_Vector_baseIiSaIiEE17_Vector_impl_data12_M_swap_dataERS2_
FN:131,_ZNSt12_Vector_baseIiSaIiEE12_Vector_implC2Ev
FNDA:2,_ZNSt12_Vector_baseIiSaIiEE12_Vector_implC2Ev
FN:131,_ZNSt12_Vector_baseI4EdgeSaIS0_EE12_Vector_implC2Ev
FNDA:0,_ZNSt12_Vector_baseI4EdgeSaIS0_EE12_Vector_implC2Ev
FN:131,_ZNSt12_Vector_baseISt4pairIiiESaIS1_EE12_Vector_implC2Ev
FNDA:2,_ZNSt12_Vector_baseISt4pairIiiESaIS1_EE12_Vector_implC2Ev
FN:136,_ZNSt12_Vector_baseIiSaIiEE12_Vector_implC2ERKS0_
FNDA:38,_ZNSt12_Vector_baseIiSaIiEE12_Vector_implC2ERKS0_
FN:143,_ZNSt12_Vector_baseIiSaIiEE12_Vector_implC2EOS2_
FNDA:0,_ZNSt12_Vector_baseIiSaIiEE12_Vector_implC2EOS2_
FN:143,_ZNSt12_Vector_baseI4EdgeSaIS0_EE12_Vector_implC2EOS3_
FNDA:0,_ZNSt12_Vector_baseI4EdgeSaIS0_EE12_Vector_implC2EOS3_
FN:276,_ZNSt12_Vector_baseISt6vectorI4EdgeSaIS1_EESaIS3_EE19_M_get_Tp_allocatorEv
FNDA:0,_ZNSt12_Vector_baseISt6vectorI4EdgeSaIS1_EESaIS3_EE19_M_get_Tp_allocatorEv
FN:276,_ZNSt12_Vector_baseISt6vectorIiSaIiEESaIS2_EE19_M_get_Tp_allocatorEv
FNDA:12,_ZNSt12_Vector_baseISt6vectorIiSaIiEESaIS2_EE19_M_get_Tp_allocatorEv
FN:276,_ZNSt12_Vector_baseI4EdgeSaIS0_EE19_M_get_Tp_allocatorEv
FNDA:0,_ZNSt12_Vector_baseI4EdgeSaIS0_EE19_M_get_Tp_allocatorEv
FN:276,_ZNSt12_Vector_baseISt4pairIiiESaIS1_EE19_M_get_Tp_allocatorEv
FNDA:6,_ZNSt12_Vector_baseISt4pairIiiESaIS1_EE19_M_get_Tp_allocatorEv
FN:276,_ZNSt12_Vector_baseIiSaIiEE19_M_get_Tp_allocatorEv
FNDA:92,_ZNSt12_Vector_baseIiSaIiEE19_M_get_Tp_allocatorEv
FN:280,_ZNKSt12_Vector_baseISt6vectorIiSaIiEESaIS2_EE19_M_get_Tp_allocatorEv
FNDA:4,_ZNKSt12_Vector_baseISt6vectorIiSaIiEESaIS2_EE19_M_get_Tp_allocatorEv
FN:280,_ZNKSt12_Vector_baseIiSaIiEE19_M_get_Tp_allocatorEv
FNDA:30,_ZNKSt12_Vector_baseIiSaIiEE19_M_get_Tp_allocatorEv
FN:280,_ZNKSt12_Vector_baseISt6vectorI4EdgeSaIS1_EESaIS3_EE19_M_get_Tp_allocatorEv
FNDA:0,_ZNKSt12_Vector_baseISt6vectorI4EdgeSaIS1_EESaIS3_EE19_M_get_Tp_allocatorEv
FN:280,_ZNKSt12_Vector_baseISt4pairIiiESaIS1_EE19_M_get_Tp_allocatorEv
FNDA:4,_ZNKSt12_Vector_baseISt4pairIiiESaIS1_EE19_M_get_Tp_allocatorEv
FN:280,_ZNKSt12_Vector_baseI4EdgeSaIS0_EE19_M_get_Tp_allocatorEv
FNDA:0,_ZNKSt12_Vector_baseI4EdgeSaIS0_EE19_M_get_Tp_allocatorEv
FN:284,_ZNKSt12_Vector_baseIiSaIiEE13get_allocatorEv
FNDA:0,_ZNKSt12_Vector_baseIiSaIiEE13get_allocatorEv
FN:288,_ZNSt12_Vector_baseISt4pairIiiESaIS1_EEC2Ev
FNDA:2,_ZNSt12_Vector_baseISt4pairIiiESaIS1_EEC2Ev
FN:288,_ZNSt12_Vector_baseIiSaIiEEC2Ev
FNDA:2,_ZNSt12_Vector_baseIiSaIiEEC2Ev
FN:288,_ZNSt12_Vector_baseI4EdgeSaIS0_EEC2Ev
FNDA:0,_ZNSt12_Vector_baseI4EdgeSaIS0_EEC2Ev
FN:293,_ZNSt12_Vector_baseIiSaIiEEC2ERKS0_
FNDA:0,_ZNSt12_Vector_baseIiSaIiEEC2ERKS0_
FN:303,_ZNSt12_Vector_baseIiSaIiEEC2EmRKS0_
FNDA:38,_ZNSt12_Vector_baseIiSaIiEEC2EmRKS0_
FN:308,_ZNSt12_Vector_baseIiSaIiEEC2EOS1_
FNDA:0,_ZNSt12_Vector_baseIiSaIiEEC2EOS1_
FN:308,_ZNSt12_Vector_baseI4EdgeSaIS0_EEC2EOS2_
FNDA:0,_ZNSt12_Vector_baseI4EdgeSaIS0_EEC2EOS2_
FN:333,_ZNSt12_Vector_baseISt4pairIiiESaIS1_EED2Ev
FNDA:2,_ZNSt12_Vector_baseISt4pairIiiESaIS1_EED2Ev
FN:333,_ZNSt12_Vector_baseI4EdgeSaIS0_EED2Ev
FNDA:0,_ZNSt12_Vector_baseI4EdgeSaIS0_EED2Ev
FN:333,_ZNSt12_Vector_baseISt6vectorI4EdgeSaIS1_EESaIS3_EED2Ev
FNDA:0,_ZNSt12_Vector_baseISt6vectorI4EdgeSaIS1_EESaIS3_EED2Ev
FN:333,_ZNSt12_Vector_baseISt6vectorIiSaIiEESaIS2_EED2Ev
FNDA:4,_ZNSt12_Vector_baseISt6vectorIiSaIiEESaIS2_EED2Ev
FN:333,_ZNSt12_Vector_baseIiSaIiEED2Ev
FNDA:40,_ZNSt12_Vector_baseIiSaIiEED2Ev
FN:343,_ZNSt12_Vector_baseISt6vectorIiSaIiEESaIS2_EE11_M_allocateEm
FNDA:2,_ZNSt12_Vector_baseISt6vectorIiSaIiEESaIS2_EE11_M_allocateEm
FN:343,_ZNSt12_Vector_baseISt6vectorI4EdgeSaIS1_EESaIS3_EE11_M_allocateEm
FNDA:0,_ZNSt12_Vector_baseISt6vectorI4EdgeSaIS1_EESaIS3_EE11_M_allocateEm
FN:343,_ZNSt12_Vector_baseISt4pairIiiESaIS1_EE11_M_allocateEm
FNDA:2,_ZNSt12_Vector_baseISt4pairIiiESaIS1_EE11_M_allocateEm
FN:343,_ZNSt12_Vector_baseI4EdgeSaIS0_EE11_M_allocateEm
FNDA:0,_ZNSt12_Vector_baseI4EdgeSaIS0_EE11_M_allocateEm
FN:343,_ZNSt12_Vector_baseIiSaIiEE11_M_allocateEm
FNDA:45,_ZNSt12_Vector_baseIiSaIiEE11_M_allocateEm
FN:350,_ZNSt12_Vector_baseISt4pairIiiESaIS1_EE13_M_deallocateEPS1_m
FNDA:4,_ZNSt12_Vector_baseISt4pairIiiESaIS1_EE13_M_deallocateEPS1_m
FN:350,_ZNSt12_Vector_baseISt6vectorI4EdgeSaIS1_EESaIS3_EE13_M_deallocateEPS3_m
FNDA:0,_ZNSt12_Vector_baseISt6vectorI4EdgeSaIS1_EESaIS3_EE13_M_deallocateEPS3_m
FN:350,_ZNSt12_Vector_baseISt6vectorIiSaIiEESaIS2_EE13_M_deallocateEPS2_m
FNDA:6,_ZNSt12_Vector_baseISt6vectorIiSaIiEESaIS2_EE13_M_deallocateEPS2_m
FN:350,_ZNSt12_Vector_baseI4EdgeSaIS0_EE13_M_deallocateEPS0_m
FNDA:0,_ZNSt12_Vector_baseI4EdgeSaIS0_EE13_M_deallocateEPS0_m
FN:350,_ZNSt12_Vector_baseIiSaIiEE13_M_deallocateEPim
FNDA:47,_ZNSt12_Vector_baseIiSaIiEE13_M_deallocateEPim
FN:359,_ZNSt12_Vector_baseIiSaIiEE17_M_create_storageEm
FNDA:38,_ZNSt12_Vector_baseIiSaIiEE17_M_create_storageEm
FN:453,_ZNSt6vectorISt4pairIiiESaIS1_EE14_S_do_relocateEPS1_S4_S4_RS2_St17integral_constantIbLb1EE
FNDA:4,_ZNSt6vectorISt4pairIiiESaIS1_EE14_S_do_relocateEPS1_S4_S4_RS2_St17integral_constantIbLb1EE
FN:453,_ZNSt6vectorIiSaIiEE14_S_do_relocateEPiS2_S2_RS0_St17integral_constantIbLb1EE
FNDA:14,_ZNSt6vectorIiSaIiEE14_S_do_relocateEPiS2_S2_RS0_St17integral_constantIbLb1EE
FN:453,_ZNSt6vectorIS_I4EdgeSaIS0_EESaIS2_EE14_S_do_relocateEPS2_S5_S5_RS3_St17integral_constantIbLb1EE
FNDA:0,_ZNSt6vectorIS_I4EdgeSaIS0_EESaIS2_EE14_S_do_relocateEPS2_S5_S5_RS3_St17integral_constantIbLb1EE
FN:453,_ZNSt6vectorI4EdgeSaIS0_EE14_S_do_relocateEPS0_S3_S3_RS1_St17integral_constantIbLb1EE
FNDA:0,_ZNSt6vectorI4EdgeSaIS0_EE14_S_do_relocateEPS0_S3_S3_RS1_St17integral_constantIbLb1EE
FN:465,_ZNSt6vectorISt4pairIiiESaIS1_EE11_S_relocateEPS1_S4_S4_RS2_
FNDA:4,_ZNSt6vectorISt4pairIiiESaIS1_EE11_S_relocateEPS1_S4_S4_RS2_
FN:465,_ZNSt6vectorIS_I4EdgeSaIS0_EESaIS2_EE11_S_relocateEPS2_S5_S5_RS3_
FNDA:0,_ZNSt6vectorIS_I4EdgeSaIS0_EESaIS2_EE11_S_relocateEPS2_S5_S5_RS3_
FN:465,_ZNSt6vectorI4EdgeSaIS0_EE11_S_relocateEPS0_S3_S3_RS1_
FNDA:0,_ZNSt6vectorI4EdgeSaIS0_EE11_S_relocateEPS0_S3_S3_RS1_
FN:465,_ZNSt6vectorIiSaIiEE11_S_relocateEPiS2_S2_RS0_
FNDA:14,_ZNSt6vectorIiSaIiEE11_S_relocateEPiS2_S2_RS0_
FN:487,_ZNSt6vectorI4EdgeSaIS0_EEC2Ev
FNDA:0,_ZNSt6vectorI4EdgeSaIS0_EEC2Ev
FN:487,_ZNSt6vectorISt4pairIiiESaIS1_EEC2Ev
FNDA:2,_ZNSt6vectorISt4pairIiiESaIS1_EEC2Ev
FN:487,_ZNSt6vectorIiSaIiEEC2Ev
FNDA:2,_ZNSt6vectorIiSaIiEEC2Ev
FN:497,_ZNSt6vectorIiSaIiEEC2ERKS0_
FNDA:0,_ZNSt6vectorIiSaIiEEC2ERKS0_
FN:522,_ZNSt6vectorIiSaIiEEC2EmRKiRKS0_
FNDA:22,_ZNSt6vectorIiSaIiEEC2EmRKiRKS0_
FN:553,_ZNSt6vectorIiSaIiEEC2ERKS1_
FNDA:16,_ZNSt6vectorIiSaIiEEC2ERKS1_
FN:572,_ZNSt6vectorIiSaIiEEC2EOS1_
FNDA:0,_ZNSt6vectorIiSaIiEEC2EOS1_
FN:572,_ZNSt6vectorI4EdgeSaIS0_EEC2EOS2_
FNDA:0,_ZNSt6vectorI4EdgeSaIS0_EEC2EOS2_
FN:678,_ZNSt6vectorIS_I4EdgeSaIS0_EESaIS2_EED2Ev
FNDA:0,_ZNSt6vectorIS_I4EdgeSaIS0_EESaIS2_EED2Ev
FN:678,_ZNSt6vectorIS_IiSaIiEESaIS1_EED2Ev
FNDA:4,_ZNSt6vectorIS_IiSaIiEESaIS1_EED2Ev
FN:678,_ZNSt6vectorI4EdgeSaIS0_EED2Ev
FNDA:0,_ZNSt6vectorI4EdgeSaIS0_EED2Ev
FN:678,_ZNSt6vectorIiSaIiEED2Ev
FNDA:40,_ZNSt6vectorIiSaIiEED2Ev
FN:678,_ZNSt6vectorISt4pairIiiESaIS1_EED2Ev
FNDA:2,_ZNSt6vectorISt4pairIiiESaIS1_EED2Ev
FN:709,_ZNSt6vectorIiSaIiEEaSEOS1_
FNDA:0,_ZNSt6vectorIiSaIiEEaSEOS1_
FN:811,_ZNSt6vectorISt4pairIiiESaIS1_EE5beginEv
FNDA:20,_ZNSt6vectorISt4pairIiiESaIS1_EE5beginEv
FN:811,_ZNSt6vectorIiSaIiEE5beginEv
FNDA:9,_ZNSt6vectorIiSaIiEE5beginEv
FN:811,_ZNSt6vectorI4EdgeSaIS0_EE5beginEv
FNDA:0,_ZNSt6vectorI4EdgeSaIS0_EE5beginEv
FN:811,_ZNSt6vectorIS_IiSaIiEESaIS1_EE5beginEv
FNDA:2,_ZNSt6vectorIS_IiSaIiEESaIS1_EE5beginEv
FN:820,_ZNKSt6vectorISt4pairIiiESaIS1_EE5beginEv
FNDA:20,_ZNKSt6vectorISt4pairIiiESaIS1_EE5beginEv
FN:820,_ZNKSt6vectorIiSaIiEE5beginEv
FNDA:16,_ZNKSt6vectorIiSaIiEE5beginEv
FN:829,_ZNSt6vectorIS_IiSaIiEESaIS1_EE3endEv
FNDA:2,_ZNSt6vectorIS_IiSaIiEESaIS1_EE3endEv
FN:829,_ZNSt6vectorI4EdgeSaIS0_EE3endEv
FNDA:0,_ZNSt6vectorI4EdgeSaIS0_EE3endEv
FN:829,_ZNSt6vectorISt4pairIiiESaIS1_EE3endEv
FNDA:29,_ZNSt6vectorISt4pairIiiESaIS1_EE3endEv
FN:829,_ZNSt6vectorIiSaIiEE3endEv
FNDA:20,_ZNSt6vectorIiSaIiEE3endEv
FN:838,_ZNKSt6vectorISt4pairIiiESaIS1_EE3endEv
FNDA:11,_ZNKSt6vectorISt4pairIiiESaIS1_EE3endEv
FN:838,_ZNKSt6vectorIiSaIiEE3endEv
FNDA:16,_ZNKSt6vectorIiSaIiEE3endEv
FN:918,_ZNKSt6vectorIiSaIiEE4sizeEv
FNDA:64,_ZNKSt6vectorIiSaIiEE4sizeEv
FN:918,_ZNKSt6vectorI4EdgeSaIS0_EE4sizeEv
FNDA:0,_ZNKSt6vectorI4EdgeSaIS0_EE4sizeEv
FN:918,_ZNKSt6vectorIS_IiSaIiEESaIS1_EE4sizeEv
FNDA:12,_ZNKSt6vectorIS_IiSaIiEESaIS1_EE4sizeEv
FN:918,_ZNKSt6vectorIS_I4EdgeSaIS0_EESaIS2_EE4sizeEv
FNDA:0,_ZNKSt6vectorIS_I4EdgeSaIS0_EESaIS2_EE4sizeEv
FN:918,_ZNKSt6vectorISt4pairIiiESaIS1_EE4sizeEv
FNDA:8,_ZNKSt6vectorISt4pairIiiESaIS1_EE4sizeEv
FN:923,_ZNKSt6vectorIS_I4EdgeSaIS0_EESaIS2_EE8max_sizeEv
FNDA:0,_ZNKSt6vectorIS_I4EdgeSaIS0_EESaIS2_EE8max_sizeEv
FN:923,_ZNKSt6vectorI4EdgeSaIS0_EE8max_sizeEv
FNDA:0,_ZNKSt6vectorI4EdgeSaIS0_EE8max_sizeEv
FN:923,_ZNKSt6vectorIS_IiSaIiEESaIS1_EE8max_sizeEv
FNDA:4,_ZNKSt6vectorIS_IiSaIiEESaIS1_EE8max_sizeEv
FN:923,_ZNKSt6vectorISt4pairIiiESaIS1_EE8max_sizeEv
FNDA:4,_ZNKSt6vectorISt4pairIiiESaIS1_EE8max_sizeEv
FN:923,_ZNKSt6vectorIiSaIiEE8max_sizeEv
FNDA:14,_ZNKSt6vectorIiSaIiEE8max_sizeEv
FN:937,_ZNSt6vectorIS_I4EdgeSaIS0_EESaIS2_EE6resizeEm
FNDA:0,_ZNSt6vectorIS_I4EdgeSaIS0_EESaIS2_EE6resizeEm
FN:957,_ZNSt6vectorIS_IiSaIiEESaIS1_EE6resizeEmRKS1_
FNDA:2,_ZNSt6vectorIS_IiSaIiEESaIS1_EE6resizeEmRKS1_
FN:998,_ZNKSt6vectorIiSaIiEE8capacityEv
FNDA:0,_ZNKSt6vectorIiSaIiEE8capacityEv
FN:1007,_ZNKSt6vectorISt4pairIiiESaIS1_EE5emptyEv
FNDA:11,_ZNKSt6vectorISt4pairIiiESaIS1_EE5emptyEv
FN:1043,_ZNSt6vectorIiSaIiEEixEm
FNDA:982,_ZNSt6vectorIiSaIiEEixEm
FN:1043,_ZNSt6vectorIS_IiSaIiEESaIS1_EEixEm
FNDA:689,_ZNSt6vectorIS_IiSaIiEESaIS1_EEixEm
FN:1043,_ZNSt6vectorIS_I4EdgeSaIS0_EESaIS2_EEixEm
FNDA:0,_ZNSt6vectorIS_I4EdgeSaIS0_EESaIS2_EEixEm
FN:1061,_ZNKSt6vectorIiSaIiEEixEm
FNDA:9,_ZNKSt6vectorIiSaIiEEixEm
FN:1132,_ZNKSt6vectorISt4pairIiiESaIS1_EE5frontEv
FNDA:9,_ZNKSt6vectorISt4pairIiiESaIS1_EE5frontEv
FN:1143,_ZNSt6vectorI4EdgeSaIS0_EE4backEv
FNDA:0,_ZNSt6vectorI4EdgeSaIS0_EE4backEv
FN:1143,_ZNSt6vectorIiSaIiEE4backEv
FNDA:11,_ZNSt6vectorIiSaIiEE4backEv
FN:1143,_ZNSt6vectorISt4pairIiiESaIS1_EE4backEv
FNDA:9,_ZNSt6vectorISt4pairIiiESaIS1_EE4backEv
FN:1203,_ZNSt6vectorIiSaIiEE9push_backEOi
FNDA:9,_ZNSt6vectorIiSaIiEE9push_backEOi
FN:1203,_ZNSt6vectorI4EdgeSaIS0_EE9push_backEOS0_
FNDA:0,_ZNSt6vectorI4EdgeSaIS0_EE9push_backEOS0_
FN:1203,_ZNSt6vectorISt4pairIiiESaIS1_EE9push_backEOS1_
FNDA:9,_ZNSt6vectorISt4pairIiiESaIS1_EE9push_backEOS1_
FN:1225,_ZNSt6vectorISt4pairIiiESaIS1_EE8pop_backEv
FNDA:9,_ZNSt6vectorISt4pairIiiESaIS1_EE8pop_backEv
FN:1498,_ZNSt6vectorIiSaIiEE5clearEv
FNDA:0,_ZNSt6vectorIiSaIiEE5clearEv
FN:1508,_ZNSt6vectorIiSaIiEE20_M_allocate_and_copyIN9__gnu_cxx17__normal_iteratorIPKiS1_EEEEPimT_S9_
FNDA:0,_ZNSt6vectorIiSaIiEE20_M_allocate_and_copyIN9__gnu_cxx17__normal_iteratorIPKiS1_EEEEPimT_S9_
FN:1593,_ZNSt6vectorIiSaIiEE18_M_fill_initializeEmRKi
FNDA:22,_ZNSt6vectorIiSaIiEE18_M_fill_initializeEmRKi
FN:1709,_ZNSt6vectorIS_IiSaIiEESaIS1_EE16_Temporary_valueC2IJRKS1_EEEPS3_DpOT_
FNDA:0,_ZNSt6vectorIS_IiSaIiEESaIS1_EE16_Temporary_valueC2IJRKS1_EEEPS3_DpOT_
FN:1715,_ZNSt6vectorIS_IiSaIiEESaIS1_EE16_Temporary_valueD2Ev
FNDA:0,_ZNSt6vectorIS_IiSaIiEESaIS1_EE16_Temporary_valueD2Ev
FN:1719,_ZNSt6vectorIS_IiSaIiEESaIS1_EE16_Temporary_value6_M_valEv
FNDA:0,_ZNSt6vectorIS_IiSaIiEESaIS1_EE16_Temporary_value6_M_valEv
FN:1723,_ZNSt6vectorIS_IiSaIiEESaIS1_EE16_Temporary_value6_M_ptrEv
FNDA:0,_ZNSt6vectorIS_IiSaIiEESaIS1_EE16_Temporary_value6_M_ptrEv
FN:1756,_ZNKSt6vectorIS_IiSaIiEESaIS1_EE12_M_check_lenEmPKc
FNDA:2,_ZNKSt6vectorIS_IiSaIiEESaIS1_EE12_M_check_lenEmPKc
FN:1756,_ZNKSt6vectorIS_I4EdgeSaIS0_EESaIS2_EE12_M_check_lenEmPKc
FNDA:0,_ZNKSt6vectorIS_I4EdgeSaIS0_EESaIS2_EE12_M_check_lenEmPKc
FN:1756,_ZNKSt6vectorISt4pairIiiESaIS1_EE12_M_check_lenEmPKc
FNDA:2,_ZNKSt6vectorISt4pairIiiESaIS1_EE12_M_check_lenEmPKc
FN:1756,_ZNKSt6vectorI4EdgeSaIS0_EE12_M_check_lenEmPKc
FNDA:0,_ZNKSt6vectorI4EdgeSaIS0_EE12_M_check_lenEmPKc
FN:1756,_ZNKSt6vectorIiSaIiEE12_M_check_lenEmPKc
FNDA:7,_ZNKSt6vectorIiSaIiEE12_M_check_lenEmPKc
FN:1767,_ZNSt6vectorIiSaIiEE17_S_check_init_lenEmRKS0_
FNDA:22,_ZNSt6vectorIiSaIiEE17_S_check_init_lenEmRKS0_
FN:1776,_ZNSt6vectorIS_I4EdgeSaIS0_EESaIS2_EE11_S_max_sizeERKS3_
FNDA:0,_ZNSt6vectorIS_I4EdgeSaIS0_EESaIS2_EE11_S_max_sizeERKS3_
FN:1776,_ZNSt6vectorI4EdgeSaIS0_EE11_S_max_sizeERKS1_
FNDA:0,_ZNSt6vectorI4EdgeSaIS0_EE11_S_max_sizeERKS1_
FN:1776,_ZNSt6vectorIiSaIiEE11_S_max_sizeERKS0_
FNDA:36,_ZNSt6vectorIiSaIiEE11_S_max_sizeERKS0_
FN:1776,_ZNSt6vectorISt4pairIiiESaIS1_EE11_S_max_sizeERKS2_
FNDA:4,_ZNSt6vectorISt4pairIiiESaIS1_EE11_S_max_sizeERKS2_
FN:1776,_ZNSt6vectorIS_IiSaIiEESaIS1_EE11_S_max_sizeERKS2_
FNDA:4,_ZNSt6vectorIS_IiSaIiEESaIS1_EE11_S_max_sizeERKS2_
FN:1792,_ZNSt6vectorIS_IiSaIiEESaIS1_EE15_M_erase_at_endEPS1_
FNDA:0,_ZNSt6vectorIS_IiSaIiEESaIS1_EE15_M_erase_at_endEPS1_
FN:1792,_ZNSt6vectorIiSaIiEE15_M_erase_at_endEPi
FNDA:0,_ZNSt6vectorIiSaIiEE15_M_erase_at_endEPi
FN:1792,_ZNSt6vectorIS_I4EdgeSaIS0_EESaIS2_EE15_M_erase_at_endEPS2_
FNDA:0,_ZNSt6vectorIS_I4EdgeSaIS0_EESaIS2_EE15_M_erase_at_endEPS2_
FN:1815,_ZNSt6vectorIiSaIiEE14_M_move_assignEOS1_St17integral_constantIbLb1EE
FNDA:0,_ZNSt6vectorIiSaIiEE14_M_move_assignEOS1_St17integral_constantIbLb1EE
DA:97,0
DA:98,0
DA:99,0
DA:97,2
DA:98,2
DA:99,2
DA:97,40
DA:98,40
DA:99,40
DA:102,0
DA:103,0
DA:104,0
DA:105,0
DA:102,0
DA:103,0
DA:104,0
DA:105,0
DA:109,0
DA:111,0
DA:112,0
DA:113,0
DA:114,0
DA:117,0
DA:121,0
DA:122,0
DA:123,0
DA:124,0
DA:125,0
DA:131,0
DA:133,0
DA:134,0
DA:131,2
DA:133,2
DA:134,2
DA:131,2
DA:133,2
DA:134,2
DA:136,38
DA:137,38
DA:138,38
DA:143,0
DA:144,0
DA:145,0
DA:143,0
DA:144,0
DA:145,0
DA:276,92
DA:277,92
DA:276,6
DA:277,6
DA:276,0
DA:277,0
DA:276,12
DA:277,12
DA:276,0
DA:277,0
DA:280,4
DA:281,4
DA:280,30
DA:281,30
DA:280,4
DA:281,4
DA:280,0
DA:281,0
DA:280,0
DA:281,0
DA:284,0
DA:285,0
DA:288,0
DA:288,2
DA:288,2
DA:293,0
DA:294,0
DA:303,38
DA:304,38
DA:305,38
DA:308,0
DA:308,0
DA:333,2
DA:335,2
DA:336,2
DA:337,2
DA:333,0
DA:335,0
DA:336,0
DA:337,0
DA:333,40
DA:335,40
DA:336,40
DA:337,40
DA:333,4
DA:335,4
DA:336,4
DA:337,4
DA:333,0
DA:335,0
DA:336,0
DA:337,0
DA:343,2
DA:346,2
DA:343,45
DA:346,45
DA:343,0
DA:346,0
DA:343,2
DA:346,2
DA:343,0
DA:346,0
DA:350,4
DA:353,4
DA:354,2
DA:355,4
DA:350,0
DA:353,0
DA:354,0
DA:355,0
DA:350,47
DA:353,47
DA:354,45
DA:355,47
DA:350,6
DA:353,6
DA:354,2
DA:355,6
DA:350,0
DA:353,0
DA:354,0
DA:355,0
DA:359,38
DA:361,38
DA:362,38
DA:363,38
DA:364,38
DA:453,4
DA:456,4
DA:453,0
DA:456,0
DA:453,14
DA:456,14
DA:453,0
DA:456,0
DA:465,4
DA:469,4
DA:465,0
DA:469,0
DA:465,14
DA:469,14
DA:465,0
DA:469,0
DA:487,0
DA:487,2
DA:487,2
DA:497,0
DA:498,0
DA:522,22
DA:524,22
DA:525,22
DA:553,16
DA:555,16
DA:557,16
DA:558,16
DA:560,16
DA:561,16
DA:572,0
DA:572,0
DA:678,40
DA:680,40
DA:681,40
DA:683,40
DA:678,2
DA:680,2
DA:681,2
DA:683,2
DA:678,0
DA:680,0
DA:681,0
DA:683,0
DA:678,4
DA:680,4
DA:681,4
DA:683,4
DA:678,0
DA:680,0
DA:681,0
DA:683,0
DA:709,0
DA:711,0
DA:714,0
DA:715,0
DA:811,2
DA:812,2
DA:811,20
DA:812,20
DA:811,9
DA:812,9
DA:811,0
DA:812,0
DA:820,16
DA:821,16
DA:820,20
DA:821,20
DA:829,2
DA:830,2
DA:829,29
DA:830,29
DA:829,20
DA:830,20
DA:829,0
DA:830,0
DA:838,16
DA:839,16
DA:838,11
DA:839,11
DA:918,8
DA:919,8
DA:918,12
DA:919,12
DA:918,0
DA:919,0
DA:918,64
DA:919,64
DA:918,0
DA:919,0
DA:923,4
DA:924,4
DA:923,0
DA:924,0
DA:923,14
DA:924,14
DA:923,4
DA:924,4
DA:923,0
DA:924,0
DA:937,0
DA:939,0
DA:940,0
DA:941,0
DA:942,0
DA:943,0
DA:957,2
DA:959,2
DA:960,2
DA:961,0
DA:962,0
DA:963,2
DA:998,0
DA:999,0
DA:1000,0
DA:1007,11
DA:1008,11
DA:1043,689
DA:1046,689
DA:1043,982
DA:1046,982
DA:1043,0
DA:1046,0
DA:1061,9
DA:1064,9
DA:1132,9
DA:1135,9
DA:1143,9
DA:1146,9
DA:1143,0
DA:1146,0
DA:1143,11
DA:1146,11
DA:1203,9
DA:1204,9
DA:1203,0
DA:1204,0
DA:1203,9
DA:1204,9
DA:1225,9
DA:1228,9
DA:1229,9
DA:1231,9
DA:1498,0
DA:1499,0
DA:1508,0
DA:1511,0
DA:1514,0
DA:1515,0
DA:1516,0
DA:1518,0
DA:1520,0
DA:1521,0
DA:1593,22
DA:1595,22
DA:1596,22
DA:1597,22
DA:1598,22
DA:1709,0
DA:1711,0
DA:1713,0
DA:1715,0
DA:1716,0
DA:1719,0
DA:1723,0
DA:1756,2
DA:1758,2
DA:1759,0
DA:1761,2
DA:1762,2
DA:1756,0
DA:1758,0
DA:1759,0
DA:1761,0
DA:1762,0
DA:1756,7
DA:1758,7
DA:1759,0
DA:1761,7
DA:1762,7
DA:1756,2
DA:1758,2
DA:1759,0
DA:1761,2
DA:1762,2
DA:1756,0
DA:1758,0
DA:1759,0
DA:1761,0
DA:1762,0
DA:1767,22
DA:1769,22
DA:1770,0
DA:1772,22
DA:1776,4
DA:1781,4
DA:1783,4
DA:1784,4
DA:1776,0
DA:1781,0
DA:1783,0
DA:1784,0
DA:1776,4
DA:1781,4
DA:1783,4
DA:1784,4
DA:1776,0
DA:1781,0
DA:1783,0
DA:1784,0
DA:1776,36
DA:1781,36
DA:1783,36
DA:1784,36
DA:1792,0
DA:1794,0
DA:1796,0
DA:1797,0
DA:1798,0
DA:1801,0
DA:1792,0
DA:1794,0
DA:1796,0
DA:1797,0
DA:1798,0
DA:1801,0
DA:1792,0
DA:1794,0
DA:1796,0
DA:1797,0
DA:1798,0
DA:1801,0
DA:1815,0
DA:1817,0
DA:1818,0
DA:1819,0
DA:1820,0
DA:1821,0
end_of_record
SF:/usr/include/c++/11/bits/stl_pair.h
FN:352,_ZNSt4pairIiiEC2IRiS2_Lb1EEEOT_OT0_
FNDA:4,_ZNSt4pairIiiEC2IRiS2_Lb1EEEOT_OT0_
FN:352,_ZNSt4pairIiiEC2IRiiLb1EEEOT_OT0_
FNDA:7,_ZNSt4pairIiiEC2IRiiLb1EEEOT_OT0_
FN:352,_ZNSt4pairIiiEC2IiRiLb1EEEOT_OT0_
FNDA:2,_ZNSt4pairIiiEC2IiRiLb1EEEOT_OT0_
FN:401,_ZNSt4pairIiiEaSEOS0_
FNDA:9,_ZNSt4pairIiiEaSEOS0_
FN:489,_ZStltIiiEbRKSt4pairIT_T0_ES5_
FNDA:0,_ZStltIiiEbRKSt4pairIT_T0_ES5_
FN:502,_ZStgtIiiEbRKSt4pairIT_T0_ES5_
FNDA:0,_ZStgtIiiEbRKSt4pairIT_T0_ES5_
DA:352,4
DA:353,4
DA:352,7
DA:353,7
DA:352,2
DA:353,2
DA:401,9
DA:408,9
DA:409,9
DA:410,9
DA:489,0
DA:490,0
DA:491,0
DA:502,0
DA:503,0
end_of_record
SF:/usr/include/c++/11/bits/basic_string.h
FN:251,_ZNSt7__cxx1112basic_stringIcSt11char_traitsIcESaIcEE16_M_construct_auxIPcEEvT_S7_St12__false_type
FNDA:0,_ZNSt7__cxx1112basic_stringIcSt11char_traitsIcESaIcEE16_M_construct_auxIPcEEvT_S7_St12__false_type
FN:271,_ZNSt7__cxx1112basic_stringIcSt11char_traitsIcESaIcEE12_M_constructIPcEEvT_S7_
FNDA:0,_ZNSt7__cxx1112basic_stringIcSt11char_traitsIcESaIcEE12_M_constructIPcEEvT_S7_
FN:533,_ZNSt7__cxx1112basic_stringIcSt11char_traitsIcESaIcEEC2IS3_EEPKcRKS3_
FNDA:0,_ZNSt7__cxx1112basic_stringIcSt11char_traitsIcESaIcEEC2IS3_EEPKcRKS3_
FN:553,_ZNSt7__cxx1112basic_stringIcSt11char_traitsIcESaIcEEC2IS3_EEmcRKS3_
FNDA:0,_ZNSt7__cxx1112basic_stringIcSt11char_traitsIcESaIcEEC2IS3_EEmcRKS3_
FN:6132,_ZStplIcSt11char_traitsIcESaIcEENSt7__cxx1112basic_stringIT_T0_T1_EERKS8_PKS5_
FNDA:0,_ZStplIcSt11char_traitsIcESaIcEENSt7__cxx1112basic_stringIT_T0_T1_EERKS8_PKS5_
FN:6172,_ZStplIcSt11char_traitsIcESaIcEENSt7__cxx1112basic_stringIT_T0_T1_EEOS8_S9_
FNDA:0,_ZStplIcSt11char_traitsIcESaIcEENSt7__cxx1112basic_stringIT_T0_T1_EEOS8_S9_
FN:6194,_ZStplIcSt11char_traitsIcESaIcEENSt7__cxx1112basic_stringIT_T0_T1_EEPKS5_OS8_
FNDA:0,_ZStplIcSt11char_traitsIcESaIcEENSt7__cxx1112basic_stringIT_T0_T1_EEPKS5_OS8_
FN:6206,_ZStplIcSt11char_traitsIcESaIcEENSt7__cxx1112basic_stringIT_T0_T1_EEOS8_PKS5_
FNDA:0,_ZStplIcSt11char_traitsIcESaIcEENSt7__cxx1112basic_stringIT_T0_T1_EEOS8_PKS5_
FN:6660,_ZNSt7__cxx119to_stringEi
FNDA:0,_ZNSt7__cxx119to_stringEi
DA:251,0
DA:255,0
DA:256,0
DA:271,0
DA:274,0
DA:275,0
DA:533,0
DA:534,0
DA:536,0
DA:539,0
DA:540,0
DA:553,0
DA:554,0
DA:555,0
DA:6132,0
DA:6135,0
DA:6136,0
DA:6137,0
DA:6138,0
DA:6172,0
DA:6177,0
DA:6179,0
DA:6182,0
DA:6185,0
DA:6186,0
DA:6187,0
DA:6189,0
DA:6194,0
DA:6196,0
DA:6206,0
DA:6208,0
DA:6660,0
DA:6662,0
DA:6663,0
DA:6664,0
DA:6665,0
DA:6666,0
DA:6667,0
DA:6668,0
end_of_record
SF:/usr/include/c++/11/bits/vector.tcc
FN:109,_ZNSt6vectorISt4pairIiiESaIS1_EE12emplace_backIJS1_EEERS1_DpOT_
FNDA:9,_ZNSt6vectorISt4pairIiiESaIS1_EE12emplace_backIJS1_EEERS1_DpOT_
FN:109,_ZNSt6vectorI4EdgeSaIS0_EE12emplace_backIJS0_EEERS0_DpOT_
FNDA:0,_ZNSt6vectorI4EdgeSaIS0_EE12emplace_backIJS0_EEERS0_DpOT_
FN:109,_ZNSt6vectorIiSaIiEE12emplace_backIJiEEERiDpOT_
FNDA:9,_ZNSt6vectorIiSaIiEE12emplace_backIJiEEERiDpOT_
FN:198,_ZNSt6vectorIiSaIiEEaSERKS1_
FNDA:0,_ZNSt6vectorIiSaIiEEaSERKS1_
FN:426,_ZNSt6vectorISt4pairIiiESaIS1_EE17_M_realloc_insertIJS1_EEEvN9__gnu_cxx17__normal_iteratorIPS1_S3_EEDpOT_
FNDA:2,_ZNSt6vectorISt4pairIiiESaIS1_EE17_M_realloc_insertIJS1_EEEvN9__gnu_cxx17__normal_iteratorIPS1_S3_EEDpOT_
FN:426,_ZNSt6vectorI4EdgeSaIS0_EE17_M_realloc_insertIJS0_EEEvN9__gnu_cxx17__normal_iteratorIPS0_S2_EEDpOT_
FNDA:0,_ZNSt6vectorI4EdgeSaIS0_EE17_M_realloc_insertIJS0_EEEvN9__gnu_cxx17__normal_iteratorIPS0_S2_EEDpOT_
FN:426,_ZNSt6vectorIiSaIiEE17_M_realloc_insertIJiEEEvN9__gnu_cxx17__normal_iteratorIPiS1_EEDpOT_
FNDA:7,_ZNSt6vectorIiSaIiEE17_M_realloc_insertIJiEEEvN9__gnu_cxx17__normal_iteratorIPiS1_EEDpOT_
FN:509,_ZNSt6vectorIS_IiSaIiEESaIS1_EE14_M_fill_insertEN9__gnu_cxx17__normal_iteratorIPS1_S3_EEmRKS1_
FNDA:2,_ZNSt6vectorIS_IiSaIiEESaIS1_EE14_M_fill_insertEN9__gnu_cxx17__normal_iteratorIPS1_S3_EEmRKS1_
FN:611,_ZNSt6vectorIS_I4EdgeSaIS0_EESaIS2_EE17_M_default_appendEm
FNDA:0,_ZNSt6vectorIS_I4EdgeSaIS0_EESaIS2_EE17_M_default_appendEm
DA:109,9
DA:112,9
DA:115,7
DA:117,7
DA:121,2
DA:123,9
DA:109,0
DA:112,0
DA:115,0
DA:117,0
DA:121,0
DA:123,0
DA:109,9
DA:112,9
DA:115,2
DA:117,2
DA:121,7
DA:123,9
DA:198,0
DA:201,0
DA:205,0
DA:207,0
DA:208,0
DA:211,0
DA:212,0
DA:213,0
DA:214,0
DA:215,0
DA:216,0
DA:217,0
DA:219,0
DA:220,0
DA:223,0
DA:224,0
DA:226,0
DA:228,0
DA:229,0
DA:230,0
DA:231,0
DA:232,0
DA:233,0
DA:234,0
DA:236,0
DA:238,0
DA:239,0
DA:243,0
DA:245,0
DA:246,0
DA:248,0
DA:250,0
DA:252,0
DA:426,2
DA:436,2
DA:437,2
DA:438,2
DA:439,2
DA:440,2
DA:441,2
DA:449,2
DA:450,2
DA:456,2
DA:461,2
DA:462,2
DA:464,2
DA:466,2
DA:467,2
DA:500,2
DA:501,2
DA:502,2
DA:503,2
DA:504,2
DA:505,2
DA:426,0
DA:436,0
DA:437,0
DA:438,0
DA:439,0
DA:440,0
DA:441,0
DA:449,0
DA:450,0
DA:456,0
DA:461,0
DA:462,0
DA:464,0
DA:466,0
DA:467,0
DA:500,0
DA:501,0
DA:502,0
DA:503,0
DA:504,0
DA:505,0
DA:426,7
DA:436,7
DA:437,7
DA:438,7
DA:439,7
DA:440,7
DA:441,7
DA:449,7
DA:450,7
DA:456,7
DA:461,7
DA:462,7
DA:464,7
DA:466,7
DA:467,7
DA:500,7
DA:501,7
DA:502,7
DA:503,7
DA:504,7
DA:505,7
DA:509,2
DA:512,2
DA:514,2
DA:515,2
DA:520,0
DA:521,0
DA:523,0
DA:524,0
DA:525,0
DA:528,0
DA:531,0
DA:532,0
DA:534,0
DA:536,0
DA:542,0
DA:543,0
DA:546,0
DA:548,0
DA:550,0
DA:551,0
DA:553,0
DA:555,0
DA:559,2
DA:560,2
DA:561,2
DA:562,2
DA:566,2
DA:568,2
DA:569,2
DA:573,2
DA:574,2
DA:576,2
DA:580,2
DA:581,2
DA:583,0
DA:585,0
DA:586,0
DA:587,0
DA:588,0
DA:590,0
DA:591,0
DA:592,0
DA:593,0
DA:595,2
DA:596,2
DA:598,2
DA:599,2
DA:600,2
DA:601,2
DA:602,2
DA:603,2
DA:606,2
DA:611,0
DA:614,0
DA:616,0
DA:617,0
DA:618,0
DA:620,0
DA:621,0
DA:623,0
DA:626,0
DA:627,0
DA:628,0
DA:634,0
DA:635,0
DA:640,0
DA:641,0
DA:643,0
DA:645,0
DA:646,0
DA:648,0
DA:649,0
DA:675,0
DA:676,0
DA:677,0
DA:678,0
DA:679,0
DA:680,0
DA:683,0
end_of_record
SF:/usr/include/c++/11/bits/move.h
FN:49,_ZSt11__addressofISt4pairIiiEEPT_RS2_
FNDA:0,_ZSt11__addressofISt4pairIiiEEPT_RS2_
FN:49,_ZSt11__addressofImEPT_RS0_
FNDA:32,_ZSt11__addressofImEPT_RS0_
FN:49,_ZSt11__addressofISt6vectorIiSaIiEEEPT_RS3_
FNDA:18,_ZSt11__addressofISt6vectorIiSaIiEEEPT_RS3_
FN:49,_ZSt11__addressofISt6vectorI4EdgeSaIS1_EEEPT_RS4_
FNDA:0,_ZSt11__addressofISt6vectorI4EdgeSaIS1_EEEPT_RS4_
FN:77,_ZSt7forwardISt6vectorI4EdgeSaIS1_EEEOT_RNSt16remove_referenceIS4_E4typeE
FNDA:0,_ZSt7forwardISt6vectorI4EdgeSaIS1_EEEOT_RNSt16remove_referenceIS4_E4typeE
FN:77,_ZSt7forwardIiEOT_RNSt16remove_referenceIS0_E4typeE
FNDA:0,_ZSt7forwardIiEOT_RNSt16remove_referenceIS0_E4typeE
FN:77,_ZSt7forwardISt6vectorIiSaIiEEEOT_RNSt16remove_referenceIS3_E4typeE
FNDA:0,_ZSt7forwardISt6vectorIiSaIiEEEOT_RNSt16remove_referenceIS3_E4typeE
FN:77,_ZSt7forwardI4EdgeEOT_RNSt16remove_referenceIS1_E4typeE
FNDA:0,_ZSt7forwardI4EdgeEOT_RNSt16remove_referenceIS1_E4typeE
FN:77,_ZSt7forwardIRiEOT_RNSt16remove_referenceIS1_E4typeE
FNDA:0,_ZSt7forwardIRiEOT_RNSt16remove_referenceIS1_E4typeE
FN:77,_ZSt7forwardIRKSt6vectorIiSaIiEEEOT_RNSt16remove_referenceIS5_E4typeE
FNDA:9,_ZSt7forwardIRKSt6vectorIiSaIiEEEOT_RNSt16remove_referenceIS5_E4typeE
FN:77,_ZSt7forwardISt4pairIiiEEOT_RNSt16remove_referenceIS2_E4typeE
FNDA:29,_ZSt7forwardISt4pairIiiEEOT_RNSt16remove_referenceIS2_E4typeE
FN:104,_ZSt4moveIRNSt12_Vector_baseIiSaIiEE12_Vector_implEEONSt16remove_referenceIT_E4typeEOS6_
FNDA:0,_ZSt4moveIRNSt12_Vector_baseIiSaIiEE12_Vector_implEEONSt16remove_referenceIT_E4typeEOS6_
FN:104,_ZSt4moveIRNSt12_Vector_baseI4EdgeSaIS1_EE12_Vector_implEEONSt16remove_referenceIT_E4typeEOS7_
FNDA:0,_ZSt4moveIRNSt12_Vector_baseI4EdgeSaIS1_EE12_Vector_implEEONSt16remove_referenceIT_E4typeEOS7_
FN:104,_ZSt4moveIRSt7greaterISt4pairIiiEEEONSt16remove_referenceIT_E4typeEOS6_
FNDA:18,_ZSt4moveIRSt7greaterISt4pairIiiEEEONSt16remove_referenceIT_E4typeEOS6_
FN:104,_ZSt4moveIRNSt7__cxx1112basic_stringIcSt11char_traitsIcESaIcEEEEONSt16remove_referenceIT_E4typeEOS8_
FNDA:0,_ZSt4moveIRNSt7__cxx1112basic_stringIcSt11char_traitsIcESaIcEEEEONSt16remove_referenceIT_E4typeEOS8_
FN:104,_ZSt4moveIRSaIcEEONSt16remove_referenceIT_E4typeEOS3_
FNDA:0,_ZSt4moveIRSaIcEEONSt16remove_referenceIT_E4typeEOS3_
FN:104,_ZSt4moveIRSt4pairIiiEEONSt16remove_referenceIT_E4typeEOS4_
FNDA:53,_ZSt4moveIRSt4pairIiiEEONSt16remove_referenceIT_E4typeEOS4_
FN:104,_ZSt4moveIRiEONSt16remove_referenceIT_E4typeEOS2_
FNDA:21,_ZSt4moveIRiEONSt16remove_referenceIT_E4typeEOS2_
FN:104,_ZSt4moveIR4EdgeEONSt16remove_referenceIT_E4typeEOS3_
FNDA:0,_ZSt4moveIR4EdgeEONSt16remove_referenceIT_E4typeEOS3_
FN:104,_ZSt4moveIRN9__gnu_cxx5__ops15_Iter_comp_iterISt7greaterISt4pairIiiEEEEEONSt16remove_referenceIT_E4typeEOSA_
FNDA:0,_ZSt4moveIRN9__gnu_cxx5__ops15_Iter_comp_iterISt7greaterISt4pairIiiEEEEEONSt16remove_referenceIT_E4typeEOSA_
FN:104,_ZSt4moveIRPSt6vectorIiSaIiEEEONSt16remove_referenceIT_E4typeEOS6_
FNDA:8,_ZSt4moveIRPSt6vectorIiSaIiEEEONSt16remove_referenceIT_E4typeEOS6_
FN:104,_ZSt4moveIRSt6vectorI4EdgeSaIS1_EEEONSt16remove_referenceIT_E4typeEOS6_
FNDA:0,_ZSt4moveIRSt6vectorI4EdgeSaIS1_EEEONSt16remove_referenceIT_E4typeEOS6_
FN:104,_ZSt4moveIRSt6vectorIiSaIiEEEONSt16remove_referenceIT_E4typeEOS5_
FNDA:0,_ZSt4moveIRSt6vectorIiSaIiEEEONSt16remove_referenceIT_E4typeEOS5_
FN:104,_ZSt4moveIRSaIiEEONSt16remove_referenceIT_E4typeEOS3_
FNDA:0,_ZSt4moveIRSaIiEEONSt16remove_referenceIT_E4typeEOS3_
FN:196,_ZSt4swapIiENSt9enable_ifIXsrSt6__and_IJSt6__not_ISt15__is_tuple_likeIT_EESt21is_move_constructibleIS4_ESt18is_move_assignableIS4_EEE5valueEvE4typeERS4_SE_
FNDA:4,_ZSt4swapIiENSt9enable_ifIXsrSt6__and_IJSt6__not_ISt15__is_tuple_likeIT_EESt21is_move_constructibleIS4_ESt18is_move_assignableIS4_EEE5valueEvE4typeERS4_SE_
DA:49,0
DA:50,0
DA:49,18
DA:50,18
DA:49,0
DA:50,0
DA:49,32
DA:50,32
DA:77,0
DA:78,0
DA:77,0
DA:78,0
DA:77,9
DA:78,9
DA:77,29
DA:78,29
DA:77,0
DA:78,0
DA:77,0
DA:78,0
DA:77,0
DA:78,0
DA:104,0
DA:105,0
DA:104,0
DA:105,0
DA:104,0
DA:105,0
DA:104,0
DA:105,0
DA:104,8
DA:105,8
DA:104,0
DA:105,0
DA:104,0
DA:105,0
DA:104,21
DA:105,21
DA:104,0
DA:105,0
DA:104,18
DA:105,18
DA:104,0
DA:105,0
DA:104,0
DA:105,0
DA:104,53
DA:105,53
DA:196,4
DA:204,4
DA:205,4
DA:206,4
DA:207,4
end_of_record
SF:/usr/include/c++/11/ext/new_allocator.h
FN:79,_ZN9__gnu_cxx13new_allocatorIcEC2Ev
FNDA:0,_ZN9__gnu_cxx13new_allocatorIcEC2Ev
FN:79,_ZN9__gnu_cxx13new_allocatorI4EdgeEC2Ev
FNDA:0,_ZN9__gnu_cxx13new_allocatorI4EdgeEC2Ev
FN:79,_ZN9__gnu_cxx13new_allocatorImEC2Ev
FNDA:0,_ZN9__gnu_cxx13new_allocatorImEC2Ev
FN:79,_ZN9__gnu_cxx13new_allocatorISt4pairIiiEEC2Ev
FNDA:2,_ZN9__gnu_cxx13new_allocatorISt4pairIiiEEC2Ev
FN:79,_ZN9__gnu_cxx13new_allocatorIiEC2Ev
FNDA:24,_ZN9__gnu_cxx13new_allocatorIiEC2Ev
FN:79,_ZN9__gnu_cxx13new_allocatorIbEC2Ev
FNDA:13,_ZN9__gnu_cxx13new_allocatorIbEC2Ev
FN:82,_ZN9__gnu_cxx13new_allocatorI4EdgeEC2ERKS2_
FNDA:0,_ZN9__gnu_cxx13new_allocatorI4EdgeEC2ERKS2_
FN:82,_ZN9__gnu_cxx13new_allocatorIcEC2ERKS1_
FNDA:0,_ZN9__gnu_cxx13new_allocatorIcEC2ERKS1_
FN:82,_ZN9__gnu_cxx13new_allocatorIiEC2ERKS1_
FNDA:76,_ZN9__gnu_cxx13new_allocatorIiEC2ERKS1_
FN:82,_ZN9__gnu_cxx13new_allocatorImEC2ERKS1_
FNDA:0,_ZN9__gnu_cxx13new_allocatorImEC2ERKS1_
FN:89,_ZN9__gnu_cxx13new_allocatorImED2Ev
FNDA:0,_ZN9__gnu_cxx13new_allocatorImED2Ev
FN:89,_ZN9__gnu_cxx13new_allocatorISt4pairIiiEED2Ev
FNDA:2,_ZN9__gnu_cxx13new_allocatorISt4pairIiiEED2Ev
FN:89,_ZN9__gnu_cxx13new_allocatorI4EdgeED2Ev
FNDA:0,_ZN9__gnu_cxx13new_allocatorI4EdgeED2Ev
FN:89,_ZN9__gnu_cxx13new_allocatorIbED2Ev
FNDA:13,_ZN9__gnu_cxx13new_allocatorIbED2Ev
FN:89,_ZN9__gnu_cxx13new_allocatorIiED2Ev
FNDA:100,_ZN9__gnu_cxx13new_allocatorIiED2Ev
FN:89,_ZN9__gnu_cxx13new_allocatorISt6vectorIiSaIiEEED2Ev
FNDA:4,_ZN9__gnu_cxx13new_allocatorISt6vectorIiSaIiEEED2Ev
FN:89,_ZN9__gnu_cxx13new_allocatorISt6vectorI4EdgeSaIS2_EEED2Ev
FNDA:0,_ZN9__gnu_cxx13new_allocatorISt6vectorI4EdgeSaIS2_EEED2Ev
FN:89,_ZN9__gnu_cxx13new_allocatorIcED2Ev
FNDA:0,_ZN9__gnu_cxx13new_allocatorIcED2Ev
FN:103,_ZN9__gnu_cxx13new_allocatorImE8allocateEmPKv
FNDA:0,_ZN9__gnu_cxx13new_allocatorImE8allocateEmPKv
FN:103,_ZN9__gnu_cxx13new_allocatorI4EdgeE8allocateEmPKv
FNDA:0,_ZN9__gnu_cxx13new_allocatorI4EdgeE8allocateEmPKv
FN:103,_ZN9__gnu_cxx13new_allocatorISt6vectorIiSaIiEEE8allocateEmPKv
FNDA:2,_ZN9__gnu_cxx13new_allocatorISt6vectorIiSaIiEEE8allocateEmPKv
FN:103,_ZN9__gnu_cxx13new_allocatorIiE8allocateEmPKv
FNDA:45,_ZN9__gnu_cxx13new_allocatorIiE8allocateEmPKv
FN:103,_ZN9__gnu_cxx13new_allocatorISt4pairIiiEE8allocateEmPKv
FNDA:2,_ZN9__gnu_cxx13new_allocatorISt4pairIiiEE8allocateEmPKv
FN:103,_ZN9__gnu_cxx13new_allocatorISt6vectorI4EdgeSaIS2_EEE8allocateEmPKv
FNDA:0,_ZN9__gnu_cxx13new_allocatorISt6vectorI4EdgeSaIS2_EEE8allocateEmPKv
FN:132,_ZN9__gnu_cxx13new_allocatorISt6vectorI4EdgeSaIS2_EEE10deallocateEPS4_m
FNDA:0,_ZN9__gnu_cxx13new_allocatorISt6vectorI4EdgeSaIS2_EEE10deallocateEPS4_m
FN:132,_ZN9__gnu_cxx13new_allocatorISt6vectorIiSaIiEEE10deallocateEPS3_m
FNDA:2,_ZN9__gnu_cxx13new_allocatorISt6vectorIiSaIiEEE10deallocateEPS3_m
FN:132,_ZN9__gnu_cxx13new_allocatorIiE10deallocateEPim
FNDA:45,_ZN9__gnu_cxx13new_allocatorIiE10deallocateEPim
FN:132,_ZN9__gnu_cxx13new_allocatorI4EdgeE10deallocateEPS1_m
FNDA:0,_ZN9__gnu_cxx13new_allocatorI4EdgeE10deallocateEPS1_m
FN:132,_ZN9__gnu_cxx13new_allocatorISt4pairIiiEE10deallocateEPS2_m
FNDA:2,_ZN9__gnu_cxx13new_allocatorISt4pairIiiEE10deallocateEPS2_m
FN:132,_ZN9__gnu_cxx13new_allocatorImE10deallocateEPmm
FNDA:0,_ZN9__gnu_cxx13new_allocatorImE10deallocateEPmm
FN:154,_ZNK9__gnu_cxx13new_allocatorISt4pairIiiEE8max_sizeEv
FNDA:4,_ZNK9__gnu_cxx13new_allocatorISt4pairIiiEE8max_sizeEv
FN:154,_ZNK9__gnu_cxx13new_allocatorIiE8max_sizeEv
FNDA:36,_ZNK9__gnu_cxx13new_allocatorIiE8max_sizeEv
FN:154,_ZNK9__gnu_cxx13new_allocatorI4EdgeE8max_sizeEv
FNDA:0,_ZNK9__gnu_cxx13new_allocatorI4EdgeE8max_sizeEv
FN:154,_ZNK9__gnu_cxx13new_allocatorISt6vectorIiSaIiEEE8max_sizeEv
FNDA:4,_ZNK9__gnu_cxx13new_allocatorISt6vectorIiSaIiEEE8max_sizeEv
FN:154,_ZNK9__gnu_cxx13new_allocatorISt6vectorI4EdgeSaIS2_EEE8max_sizeEv
FNDA:0,_ZNK9__gnu_cxx13new_allocatorISt6vectorI4EdgeSaIS2_EEE8max_sizeEv
FN:160,_ZN9__gnu_cxx13new_allocatorI4EdgeE9constructIS1_JS1_EEEvPT_DpOT0_
FNDA:0,_ZN9__gnu_cxx13new_allocatorI4EdgeE9constructIS1_JS1_EEEvPT_DpOT0_
FN:160,_ZN9__gnu_cxx13new_allocatorIiE9constructIiJiEEEvPT_DpOT0_
FNDA:9,_ZN9__gnu_cxx13new_allocatorIiE9constructIiJiEEEvPT_DpOT0_
FN:160,_ZN9__gnu_cxx13new_allocatorISt6vectorI4EdgeSaIS2_EEE9constructIS4_JS4_EEEvPT_DpOT0_
FNDA:0,_ZN9__gnu_cxx13new_allocatorISt6vectorI4EdgeSaIS2_EEE9constructIS4_JS4_EEEvPT_DpOT0_
FN:160,_ZN9__gnu_cxx13new_allocatorISt4pairIiiEE9constructIS2_JS2_EEEvPT_DpOT0_
FNDA:9,_ZN9__gnu_cxx13new_allocatorISt4pairIiiEE9constructIS2_JS2_EEEvPT_DpOT0_
FN:160,_ZN9__gnu_cxx13new_allocatorISt6vectorIiSaIiEEE9constructIS3_JRKS3_EEEvPT_DpOT0_
FNDA:0,_ZN9__gnu_cxx13new_allocatorISt6vectorIiSaIiEEE9constructIS3_JRKS3_EEEvPT_DpOT0_
FN:166,_ZN9__gnu_cxx13new_allocatorISt6vectorI4EdgeSaIS2_EEE7destroyIS4_EEvPT_
FNDA:0,_ZN9__gnu_cxx13new_allocatorISt6vectorI4EdgeSaIS2_EEE7destroyIS4_EEvPT_
FN:166,_ZN9__gnu_cxx13new_allocatorISt6vectorIiSaIiEEE7destroyIS3_EEvPT_
FNDA:0,_ZN9__gnu_cxx13new_allocatorISt6vectorIiSaIiEEE7destroyIS3_EEvPT_
FN:166,_ZN9__gnu_cxx13new_allocatorISt4pairIiiEE7destroyIS2_EEvPT_
FNDA:9,_ZN9__gnu_cxx13new_allocatorISt4pairIiiEE7destroyIS2_EEvPT_
FN:197,_ZNK9__gnu_cxx13new_allocatorImE11_M_max_sizeEv
FNDA:0,_ZNK9__gnu_cxx13new_allocatorImE11_M_max_sizeEv
FN:197,_ZNK9__gnu_cxx13new_allocatorI4EdgeE11_M_max_sizeEv
FNDA:0,_ZNK9__gnu_cxx13new_allocatorI4EdgeE11_M_max_sizeEv
FN:197,_ZNK9__gnu_cxx13new_allocatorIiE11_M_max_sizeEv
FNDA:81,_ZNK9__gnu_cxx13new_allocatorIiE11_M_max_sizeEv
FN:197,_ZNK9__gnu_cxx13new_allocatorISt4pairIiiEE11_M_max_sizeEv
FNDA:6,_ZNK9__gnu_cxx13new_allocatorISt4pairIiiEE11_M_max_sizeEv
FN:197,_ZNK9__gnu_cxx13new_allocatorISt6vectorIiSaIiEEE11_M_max_sizeEv
FNDA:6,_ZNK9__gnu_cxx13new_allocatorISt6vectorIiSaIiEEE11_M_max_sizeEv
FN:197,_ZNK9__gnu_cxx13new_allocatorISt6vectorI4EdgeSaIS2_EEE11_M_max_sizeEv
FNDA:0,_ZNK9__gnu_cxx13new_allocatorISt6vectorI4EdgeSaIS2_EEE11_M_max_sizeEv
DA:79,0
DA:79,0
DA:79,2
DA:79,13
DA:79,24
DA:79,0
DA:82,0
DA:82,0
DA:82,0
DA:82,76
DA:89,0
DA:89,2
DA:89,0
DA:89,13
DA:89,100
DA:89,4
DA:89,0
DA:89,0
DA:103,2
DA:111,2
DA:115,0
DA:116,0
DA:117,0
DA:127,2
DA:103,45
DA:111,45
DA:115,0
DA:116,0
DA:117,0
DA:127,45
DA:103,0
DA:111,0
DA:115,0
DA:116,0
DA:117,0
DA:127,0
DA:103,0
DA:111,0
DA:115,0
DA:116,0
DA:117,0
DA:127,0
DA:103,2
DA:111,2
DA:115,0
DA:116,0
DA:117,0
DA:127,2
DA:103,0
DA:111,0
DA:115,0
DA:116,0
DA:117,0
DA:127,0
DA:132,0
DA:145,0
DA:132,2
DA:145,2
DA:132,0
DA:145,0
DA:132,45
DA:145,45
DA:132,2
DA:145,2
DA:132,0
DA:145,0
DA:154,4
DA:155,4
DA:154,0
DA:155,0
DA:154,4
DA:155,4
DA:154,0
DA:155,0
DA:154,36
DA:155,36
DA:160,0
DA:162,0
DA:160,0
DA:162,0
DA:160,9
DA:162,9
DA:160,0
DA:162,0
DA:160,9
DA:162,9
DA:166,0
DA:168,0
DA:166,0
DA:168,0
DA:166,9
DA:168,9
DA:197,6
DA:200,6
DA:197,81
DA:200,81
DA:197,0
DA:200,0
DA:197,0
DA:200,0
DA:197,6
DA:200,6
DA:197,0
DA:200,0
end_of_record
SF:/usr/include/c++/11/bits/charconv.h
FN:47,_ZNSt8__detail14__to_chars_lenIjEEjT_i
FNDA:0,_ZNSt8__detail14__to_chars_lenIjEEjT_i
FN:72,_ZNSt8__detail18__to_chars_10_implIjEEvPcjT_
FNDA:0,_ZNSt8__detail18__to_chars_10_implIjEEvPcjT_
DA:47,0
DA:52,0
DA:53,0
DA:54,0
DA:55,0
DA:58,0
DA:59,0
DA:60,0
DA:61,0
DA:62,0
DA:63,0
DA:72,0
DA:83,0
DA:84,0
DA:86,0
DA:87,0
DA:88,0
DA:89,0
DA:90,0
DA:92,0
DA:94,0
DA:95,0
DA:96,0
DA:99,0
DA:100,0
end_of_record
SF:/usr/include/c++/11/bits/stl_algo.h
FN:1116,_ZSt9__reverseIN9__gnu_cxx17__normal_iteratorIPiSt6vectorIiSaIiEEEEEvT_S7_St26random_access_iterator_tag
FNDA:2,_ZSt9__reverseIN9__gnu_cxx17__normal_iteratorIPiSt6vectorIiSaIiEEEEEvT_S7_St26random_access_iterator_tag
FN:1145,_ZSt7reverseIN9__gnu_cxx17__normal_iteratorIPiSt6vectorIiSaIiEEEEEvT_S7_
FNDA:2,_ZSt7reverseIN9__gnu_cxx17__normal_iteratorIPiSt6vectorIiSaIiEEEEEvT_S7_
DA:1116,2
DA:1119,2
DA:1120,0
DA:1121,2
DA:1122,6
DA:1124,4
DA:1125,4
DA:1126,4
DA:1145,2
DA:1151,2
DA:1152,2
end_of_record
SF:/usr/include/c++/11/utility
FN:183,_ZNSt10__pair_getILm0EE10__move_getIiiEEOT_OSt4pairIS2_T0_E
FNDA:4,_ZNSt10__pair_getILm0EE10__move_getIiiEEOT_OSt4pairIS2_T0_E
FN:207,_ZNSt10__pair_getILm1EE10__move_getIiiEEOT0_OSt4pairIT_S2_E
FNDA:4,_ZNSt10__pair_getILm1EE10__move_getIiiEEOT0_OSt4pairIT_S2_E
FN:228,_ZSt3getILm1EiiEONSt13tuple_elementIXT_ESt4pairIT0_T1_EE4typeEOS4_
FNDA:4,_ZSt3getILm1EiiEONSt13tuple_elementIXT_ESt4pairIT0_T1_EE4typeEOS4_
FN:228,_ZSt3getILm0EiiEONSt13tuple_elementIXT_ESt4pairIT0_T1_EE4typeEOS4_
FNDA:4,_ZSt3getILm0EiiEONSt13tuple_elementIXT_ESt4pairIT0_T1_EE4typeEOS4_
DA:183,4
DA:184,4
DA:207,4
DA:208,4
DA:228,4
DA:229,4
DA:228,4
DA:229,4
end_of_record
SF:/home/eladubuntu/Git Projects/OS_2024-FINAL_PROJECT_MST/Tree.cpp
FN:11,_ZN4Tree4initESt6vectorI4EdgeSaIS1_EE
FNDA:4,_ZN4Tree4initESt6vectorI4EdgeSaIS1_EE
FN:23,_ZN4Tree11totalWeightEv
FNDA:2,_ZN4Tree11totalWeightEv
FN:36,_ZN4Tree8dijkstraEiRSt6vectorIiSaIiEE
FNDA:2,_ZN4Tree8dijkstraEiRSt6vectorIiSaIiEE
FN:72,_ZN4Tree3dfsEiiRSt6vectorIiSaIiEES3_
FNDA:18,_ZN4Tree3dfsEiiRSt6vectorIiSaIiEES3_
FN:85,_ZN4Tree12shortestPathB5cxx11Eii
FNDA:3,_ZN4Tree12shortestPathB5cxx11Eii
FN:107,_ZN4Tree15reconstructPathB5cxx11EiiRKSt6vectorIiSaIiEEi
FNDA:2,_ZN4Tree15reconstructPathB5cxx11EiiRKSt6vectorIiSaIiEEi
FN:143,_ZN4Tree13floydWarshallEv
FNDA:2,_ZN4Tree13floydWarshallEv
FN:171,_ZN4Tree20averageDistanceEdgesEv
FNDA:2,_ZN4Tree20averageDistanceEdgesEv
FN:192,_ZN4Tree12farthestNodeEi
FNDA:4,_ZN4Tree12farthestNodeEi
FN:214,_ZN4Tree8diameterEv
FNDA:2,_ZN4Tree8diameterEv
FN:225,_ZN4Tree7addEdgeEiii
FNDA:14,_ZN4Tree7addEdgeEiii
FN:250,_ZN4Tree10removeEdgeEii
FNDA:0,_ZN4Tree10removeEdgeEii
FN:255,_ZN4Tree8printMSTB5cxx11Ev
FNDA:4,_ZN4Tree8printMSTB5cxx11Ev
FN:261,_ZN4Tree8printMSTB5cxx11EiiiRSt6vectorIbSaIbEE
FNDA:18,_ZN4Tree8printMSTB5cxx11EiiiRSt6vectorIbSaIbEE
DA:11,4
DA:13,4
DA:14,4
DA:15,4
DA:17,18
DA:19,14
DA:21,4
DA:23,2
DA:25,2
DA:26,11
DA:28,23
DA:30,14
DA:33,2
DA:36,2
DA:39,2
DA:41,2
DA:43,2
DA:44,2
DA:45,2
DA:48,11
DA:51,9
DA:52,9
DA:55,23
DA:57,14
DA:58,14
DA:60,14
DA:63,7
DA:64,7
DA:65,7
DA:69,4
DA:70,2
DA:72,18
DA:74,46
DA:76,28
DA:78,14
DA:79,14
DA:80,14
DA:83,18
DA:85,3
DA:87,3
DA:89,0
DA:91,3
DA:93,1
DA:96,2
DA:97,2
DA:99,2
DA:101,0
DA:104,2
DA:105,2
DA:107,2
DA:109,2
DA:110,2
DA:112,0
DA:115,2
DA:116,9
DA:118,9
DA:119,9
DA:122,2
DA:124,0
DA:127,2
DA:128,2
DA:130,11
DA:132,9
DA:133,9
DA:135,7
DA:138,2
DA:139,2
DA:140,2
DA:143,2
DA:145,2
DA:146,11
DA:148,9
DA:149,23
DA:151,14
DA:155,11
DA:157,50
DA:159,230
DA:161,278
DA:162,89
DA:164,18
DA:169,2
DA:171,2
DA:173,2
DA:174,2
DA:175,2
DA:176,11
DA:178,25
DA:180,16
DA:182,16
DA:183,16
DA:188,2
DA:192,4
DA:194,4
DA:195,4
DA:196,4
DA:198,4
DA:200,4
DA:201,4
DA:202,22
DA:204,18
DA:206,7
DA:207,7
DA:211,8
DA:212,4
DA:214,2
DA:217,2
DA:220,2
DA:222,2
DA:225,14
DA:227,14
DA:229,0
DA:230,0
DA:233,14
DA:235,0
DA:236,0
DA:239,14
DA:241,0
DA:242,0
DA:245,14
DA:246,14
DA:247,14
DA:248,14
DA:250,0
DA:252,0
DA:255,4
DA:257,4
DA:258,12
DA:259,4
DA:261,18
DA:263,18
DA:264,18
DA:265,4
DA:268,18
DA:270,46
DA:272,28
DA:275,14
DA:278,14
DA:281,14
DA:284,14
DA:285,14
DA:288,18
DA:289,4
DA:292,18
DA:293,0
end_of_record
SF:/usr/include/c++/11/bits/char_traits.h
FN:106,_ZN9__gnu_cxx11char_traitsIcE2eqERKcS3_
FNDA:0,_ZN9__gnu_cxx11char_traitsIcE2eqERKcS3_
FN:167,_ZN9__gnu_cxx11char_traitsIcE6lengthEPKc
FNDA:0,_ZN9__gnu_cxx11char_traitsIcE6lengthEPKc
FN:393,_ZNSt11char_traitsIcE6lengthEPKc
FNDA:0,_ZNSt11char_traitsIcE6lengthEPKc
FN:429,_ZNSt11char_traitsIcE4copyEPcPKcm
FNDA:0,_ZNSt11char_traitsIcE4copyEPcPKcm
DA:106,0
DA:107,0
DA:167,0
DA:170,0
DA:171,0
DA:172,0
DA:173,0
DA:290,0
DA:393,0
DA:396,0
DA:397,0
DA:399,0
DA:429,0
DA:431,0
DA:432,0
DA:437,0
end_of_record
SF:/usr/include/c++/11/bits/stl_construct.h
FN:109,_ZSt10_ConstructISt6vectorIiSaIiEEJS2_EEvPT_DpOT0_
FNDA:0,_ZSt10_ConstructISt6vectorIiSaIiEEJS2_EEvPT_DpOT0_
FN:109,_ZSt10_ConstructISt6vectorIiSaIiEEJRKS2_EEvPT_DpOT0_
FNDA:9,_ZSt10_ConstructISt6vectorIiSaIiEEJRKS2_EEvPT_DpOT0_
FN:109,_ZSt10_ConstructISt6vectorI4EdgeSaIS1_EEJEEvPT_DpOT0_
FNDA:0,_ZSt10_ConstructISt6vectorI4EdgeSaIS1_EEJEEvPT_DpOT0_
FN:146,_ZSt8_DestroyISt6vectorIiSaIiEEEvPT_
FNDA:9,_ZSt8_DestroyISt6vectorIiSaIiEEEvPT_
FN:146,_ZSt8_DestroyISt6vectorI4EdgeSaIS1_EEEvPT_
FNDA:0,_ZSt8_DestroyISt6vectorI4EdgeSaIS1_EEEvPT_
FN:160,_ZNSt12_Destroy_auxILb0EE9__destroyIPSt6vectorIiSaIiEEEEvT_S6_
FNDA:6,_ZNSt12_Destroy_auxILb0EE9__destroyIPSt6vectorIiSaIiEEEEvT_S6_
FN:160,_ZNSt12_Destroy_auxILb0EE9__destroyIPSt6vectorI4EdgeSaIS3_EEEEvT_S7_
FNDA:0,_ZNSt12_Destroy_auxILb0EE9__destroyIPSt6vectorI4EdgeSaIS3_EEEEvT_S7_
FN:172,_ZNSt12_Destroy_auxILb1EE9__destroyIN9__gnu_cxx17__normal_iteratorIPiSt6vectorIiSaIiEEEEEEvT_S9_
FNDA:0,_ZNSt12_Destroy_auxILb1EE9__destroyIN9__gnu_cxx17__normal_iteratorIPiSt6vectorIiSaIiEEEEEEvT_S9_
FN:172,_ZNSt12_Destroy_auxILb1EE9__destroyIPiEEvT_S3_
FNDA:40,_ZNSt12_Destroy_auxILb1EE9__destroyIPiEEvT_S3_
FN:172,_ZNSt12_Destroy_auxILb1EE9__destroyIPSt4pairIiiEEEvT_S5_
FNDA:2,_ZNSt12_Destroy_auxILb1EE9__destroyIPSt4pairIiiEEEvT_S5_
FN:172,_ZNSt12_Destroy_auxILb1EE9__destroyIP4EdgeEEvT_S4_
FNDA:0,_ZNSt12_Destroy_auxILb1EE9__destroyIP4EdgeEEvT_S4_
FN:182,_ZSt8_DestroyIPSt6vectorI4EdgeSaIS1_EEEvT_S5_
FNDA:0,_ZSt8_DestroyIPSt6vectorI4EdgeSaIS1_EEEvT_S5_
FN:182,_ZSt8_DestroyIPSt6vectorIiSaIiEEEvT_S4_
FNDA:6,_ZSt8_DestroyIPSt6vectorIiSaIiEEEvT_S4_
FN:182,_ZSt8_DestroyIP4EdgeEvT_S2_
FNDA:0,_ZSt8_DestroyIP4EdgeEvT_S2_
FN:182,_ZSt8_DestroyIPSt4pairIiiEEvT_S3_
FNDA:2,_ZSt8_DestroyIPSt4pairIiiEEvT_S3_
FN:182,_ZSt8_DestroyIPiEvT_S1_
FNDA:40,_ZSt8_DestroyIPiEvT_S1_
FN:182,_ZSt8_DestroyIN9__gnu_cxx17__normal_iteratorIPiSt6vectorIiSaIiEEEEEvT_S7_
FNDA:0,_ZSt8_DestroyIN9__gnu_cxx17__normal_iteratorIPiSt6vectorIiSaIiEEEEEvT_S7_
DA:109,0
DA:119,0
DA:120,0
DA:109,9
DA:119,9
DA:120,9
DA:109,0
DA:119,0
DA:120,0
DA:146,9
DA:151,9
DA:153,9
DA:146,0
DA:151,0
DA:153,0
DA:160,6
DA:162,15
DA:163,9
DA:164,6
DA:160,0
DA:162,0
DA:163,0
DA:164,0
DA:172,0
DA:172,40
DA:172,2
DA:172,0
DA:182,0
DA:196,0
DA:197,0
DA:182,40
DA:196,40
DA:197,40
DA:182,2
DA:196,2
DA:197,2
DA:182,0
DA:196,0
DA:197,0
DA:182,6
DA:196,6
DA:197,6
DA:182,0
DA:196,0
DA:197,0
end_of_record
SF:/usr/include/c++/11/ext/type_traits.h
FN:152,_ZN9__gnu_cxx17__is_null_pointerIcEEbPT_
FNDA:0,_ZN9__gnu_cxx17__is_null_pointerIcEEbPT_
FN:152,_ZN9__gnu_cxx17__is_null_pointerIKcEEbPT_
FNDA:0,_ZN9__gnu_cxx17__is_null_pointerIKcEEbPT_
DA:152,0
DA:153,0
DA:152,0
DA:153,0
end_of_record
SF:/usr/include/c++/11/bits/stl_uninitialized.h
FN:85,_ZNSt20__uninitialized_copyILb0EE13__uninit_copyISt13move_iteratorIPSt6vectorIiSaIiEEES6_EET0_T_S9_S8_
FNDA:4,_ZNSt20__uninitialized_copyILb0EE13__uninit_copyISt13move_iteratorIPSt6vectorIiSaIiEEES6_EET0_T_S9_S8_
FN:108,_ZNSt20__uninitialized_copyILb1EE13__uninit_copyIN9__gnu_cxx17__normal_iteratorIPKiSt6vectorIiSaIiEEEEPiEET0_T_SC_SB_
FNDA:16,_ZNSt20__uninitialized_copyILb1EE13__uninit_copyIN9__gnu_cxx17__normal_iteratorIPKiSt6vectorIiSaIiEEEEPiEET0_T_SC_SB_
FN:108,_ZNSt20__uninitialized_copyILb1EE13__uninit_copyIPiS2_EET0_T_S4_S3_
FNDA:0,_ZNSt20__uninitialized_copyILb1EE13__uninit_copyIPiS2_EET0_T_S4_S3_
FN:126,_ZSt18uninitialized_copyIPiS0_ET0_T_S2_S1_
FNDA:0,_ZSt18uninitialized_copyIPiS0_ET0_T_S2_S1_
FN:126,_ZSt18uninitialized_copyIN9__gnu_cxx17__normal_iteratorIPKiSt6vectorIiSaIiEEEEPiET0_T_SA_S9_
FNDA:16,_ZSt18uninitialized_copyIN9__gnu_cxx17__normal_iteratorIPKiSt6vectorIiSaIiEEEEPiET0_T_SA_S9_
FN:126,_ZSt18uninitialized_copyISt13move_iteratorIPSt6vectorIiSaIiEEES4_ET0_T_S7_S6_
FNDA:4,_ZSt18uninitialized_copyISt13move_iteratorIPSt6vectorIiSaIiEEES4_ET0_T_S7_S6_
FN:230,_ZNSt22__uninitialized_fill_nILb0EE15__uninit_fill_nIPSt6vectorIiSaIiEEmS4_EET_S6_T0_RKT1_
FNDA:2,_ZNSt22__uninitialized_fill_nILb0EE15__uninit_fill_nIPSt6vectorIiSaIiEEmS4_EET_S6_T0_RKT1_
FN:253,_ZNSt22__uninitialized_fill_nILb1EE15__uninit_fill_nIPimiEET_S3_T0_RKT1_
FNDA:22,_ZNSt22__uninitialized_fill_nILb1EE15__uninit_fill_nIPimiEET_S3_T0_RKT1_
FN:273,_ZSt20uninitialized_fill_nIPSt6vectorIiSaIiEEmS2_ET_S4_T0_RKT1_
FNDA:2,_ZSt20uninitialized_fill_nIPSt6vectorIiSaIiEEmS2_ET_S4_T0_RKT1_
FN:273,_ZSt20uninitialized_fill_nIPimiET_S1_T0_RKT1_
FNDA:22,_ZSt20uninitialized_fill_nIPimiET_S1_T0_RKT1_
FN:331,_ZSt22__uninitialized_copy_aIPiS0_iET0_T_S2_S1_RSaIT1_E
FNDA:0,_ZSt22__uninitialized_copy_aIPiS0_iET0_T_S2_S1_RSaIT1_E
FN:331,_ZSt22__uninitialized_copy_aIN9__gnu_cxx17__normal_iteratorIPKiSt6vectorIiSaIiEEEEPiiET0_T_SA_S9_RSaIT1_E
FNDA:16,_ZSt22__uninitialized_copy_aIN9__gnu_cxx17__normal_iteratorIPKiSt6vectorIiSaIiEEEEPiiET0_T_SA_S9_RSaIT1_E
FN:331,_ZSt22__uninitialized_copy_aISt13move_iteratorIPSt6vectorIiSaIiEEES4_S3_ET0_T_S7_S6_RSaIT1_E
FNDA:4,_ZSt22__uninitialized_copy_aISt13move_iteratorIPSt6vectorIiSaIiEEES4_S3_ET0_T_S7_S6_RSaIT1_E
FN:338,_ZSt22__uninitialized_move_aIPSt6vectorIiSaIiEES3_SaIS2_EET0_T_S6_S5_RT1_
FNDA:0,_ZSt22__uninitialized_move_aIPSt6vectorIiSaIiEES3_SaIS2_EET0_T_S6_S5_RT1_
FN:349,_ZSt34__uninitialized_move_if_noexcept_aIPSt6vectorIiSaIiEES3_SaIS2_EET0_T_S6_S5_RT1_
FNDA:4,_ZSt34__uninitialized_move_if_noexcept_aIPSt6vectorIiSaIiEES3_SaIS2_EET0_T_S6_S5_RT1_
FN:408,_ZSt24__uninitialized_fill_n_aIPSt6vectorIiSaIiEEmS2_S2_ET_S4_T0_RKT1_RSaIT2_E
FNDA:2,_ZSt24__uninitialized_fill_n_aIPSt6vectorIiSaIiEEmS2_S2_ET_S4_T0_RKT1_RSaIT2_E
FN:408,_ZSt24__uninitialized_fill_n_aIPimiiET_S1_T0_RKT1_RSaIT2_E
FNDA:22,_ZSt24__uninitialized_fill_n_aIPimiiET_S1_T0_RKT1_RSaIT2_E
FN:573,_ZNSt27__uninitialized_default_n_1ILb0EE18__uninit_default_nIPSt6vectorI4EdgeSaIS3_EEmEET_S7_T0_
FNDA:0,_ZNSt27__uninitialized_default_n_1ILb0EE18__uninit_default_nIPSt6vectorI4EdgeSaIS3_EEmEET_S7_T0_
FN:630,_ZSt25__uninitialized_default_nIPSt6vectorI4EdgeSaIS1_EEmET_S5_T0_
FNDA:0,_ZSt25__uninitialized_default_nIPSt6vectorI4EdgeSaIS1_EEmET_S5_T0_
FN:702,_ZSt27__uninitialized_default_n_aIPSt6vectorI4EdgeSaIS1_EEmS3_ET_S5_T0_RSaIT1_E
FNDA:0,_ZSt27__uninitialized_default_n_aIPSt6vectorI4EdgeSaIS1_EEmS3_ET_S5_T0_RSaIT1_E
FN:986,_ZSt19__relocate_object_aISt6vectorI4EdgeSaIS1_EES3_SaIS3_EEvPT_PT0_RT1_
FNDA:0,_ZSt19__relocate_object_aISt6vectorI4EdgeSaIS1_EES3_SaIS3_EEvPT_PT0_RT1_
FN:986,_ZSt19__relocate_object_aISt4pairIiiES1_SaIS1_EEvPT_PT0_RT1_
FNDA:0,_ZSt19__relocate_object_aISt4pairIiiES1_SaIS1_EEvPT_PT0_RT1_
FN:1006,_ZSt14__relocate_a_1IiiENSt9enable_ifIXsrSt24__is_bitwise_relocatableIT_vE5valueEPS2_E4typeES4_S4_S4_RSaIT0_E
FNDA:14,_ZSt14__relocate_a_1IiiENSt9enable_ifIXsrSt24__is_bitwise_relocatableIT_vE5valueEPS2_E4typeES4_S4_S4_RSaIT0_E
FN:1006,_ZSt14__relocate_a_1I4EdgeS0_ENSt9enable_ifIXsrSt24__is_bitwise_relocatableIT_vE5valueEPS3_E4typeES5_S5_S5_RSaIT0_E
FNDA:0,_ZSt14__relocate_a_1I4EdgeS0_ENSt9enable_ifIXsrSt24__is_bitwise_relocatableIT_vE5valueEPS3_E4typeES5_S5_S5_RSaIT0_E
FN:1018,_ZSt14__relocate_a_1IPSt6vectorI4EdgeSaIS1_EES4_SaIS3_EET0_T_S7_S6_RT1_
FNDA:0,_ZSt14__relocate_a_1IPSt6vectorI4EdgeSaIS1_EES4_SaIS3_EET0_T_S7_S6_RT1_
FN:1018,_ZSt14__relocate_a_1IPSt4pairIiiES2_SaIS1_EET0_T_S5_S4_RT1_
FNDA:4,_ZSt14__relocate_a_1IPSt4pairIiiES2_SaIS1_EET0_T_S5_S4_RT1_
FN:1040,_ZSt12__relocate_aIPSt6vectorI4EdgeSaIS1_EES4_SaIS3_EET0_T_S7_S6_RT1_
FNDA:0,_ZSt12__relocate_aIPSt6vectorI4EdgeSaIS1_EES4_SaIS3_EET0_T_S7_S6_RT1_
FN:1040,_ZSt12__relocate_aIPiS0_SaIiEET0_T_S3_S2_RT1_
FNDA:14,_ZSt12__relocate_aIPiS0_SaIiEET0_T_S3_S2_RT1_
FN:1040,_ZSt12__relocate_aIP4EdgeS1_SaIS0_EET0_T_S4_S3_RT1_
FNDA:0,_ZSt12__relocate_aIP4EdgeS1_SaIS0_EET0_T_S4_S3_RT1_
FN:1040,_ZSt12__relocate_aIPSt4pairIiiES2_SaIS1_EET0_T_S5_S4_RT1_
FNDA:4,_ZSt12__relocate_aIPSt4pairIiiES2_SaIS1_EET0_T_S5_S4_RT1_
DA:85,4
DA:88,4
DA:91,4
DA:92,0
DA:93,4
DA:95,0
DA:97,0
DA:98,0
DA:108,0
DA:110,0
DA:108,16
DA:110,16
DA:126,0
DA:145,0
DA:151,0
DA:126,16
DA:145,16
DA:151,16
DA:126,4
DA:145,4
DA:151,4
DA:230,2
DA:233,2
DA:236,11
DA:237,9
DA:238,2
DA:240,0
DA:242,0
DA:243,0
DA:253,22
DA:255,22
DA:273,2
DA:293,2
DA:297,2
DA:273,22
DA:293,22
DA:297,22
DA:331,0
DA:333,0
DA:331,16
DA:333,16
DA:331,4
DA:333,4
DA:338,0
DA:341,0
DA:343,0
DA:349,4
DA:355,4
DA:356,4
DA:408,2
DA:410,2
DA:408,22
DA:410,22
DA:573,0
DA:575,0
DA:578,0
DA:579,0
DA:580,0
DA:630,0
DA:635,0
DA:640,0
DA:702,0
DA:704,0
DA:986,0
DA:994,0
DA:995,0
DA:996,0
DA:986,0
DA:994,0
DA:995,0
DA:996,0
DA:1006,0
DA:1009,0
DA:1010,0
DA:1011,0
DA:1012,0
DA:1006,14
DA:1009,14
DA:1010,14
DA:1011,5
DA:1012,14
DA:1018,4
DA:1030,4
DA:1031,4
DA:1032,0
DA:1034,4
DA:1018,0
DA:1030,0
DA:1031,0
DA:1032,0
DA:1034,0
DA:1040,4
DA:1046,4
DA:1048,4
DA:1040,0
DA:1046,0
DA:1048,0
DA:1040,14
DA:1046,14
DA:1048,14
DA:1040,0
DA:1046,0
DA:1048,0
end_of_record
SF:/home/eladubuntu/Git Projects/OS_2024-FINAL_PROJECT_MST/Tree.hpp
end_of_record
SF:/usr/include/c++/11/ext/alloc_traits.h
FN:97,_ZN9__gnu_cxx14__alloc_traitsISaIiEiE17_S_select_on_copyERKS1_
FNDA:16,_ZN9__gnu_cxx14__alloc_traitsISaIiEiE17_S_select_on_copyERKS1_
FN:97,_ZN9__gnu_cxx14__alloc_traitsISaIcEcE17_S_select_on_copyERKS1_
FNDA:0,_ZN9__gnu_cxx14__alloc_traitsISaIcEcE17_S_select_on_copyERKS1_
FN:103,_ZN9__gnu_cxx14__alloc_traitsISaIiEiE27_S_propagate_on_copy_assignEv
FNDA:0,_ZN9__gnu_cxx14__alloc_traitsISaIiEiE27_S_propagate_on_copy_assignEv
FN:112,_ZN9__gnu_cxx14__alloc_traitsISaIiEiE15_S_always_equalEv
FNDA:0,_ZN9__gnu_cxx14__alloc_traitsISaIiEiE15_S_always_equalEv
DA:97,16
DA:98,16
DA:97,0
DA:98,0
DA:103,0
DA:104,0
DA:112,0
DA:113,0
end_of_record
SF:/usr/include/c++/11/new
FN:174,_ZnwmPv
FNDA:0,_ZnwmPv
FN:180,_ZdlPvS_
FNDA:0,_ZdlPvS_
DA:174,0
DA:175,0
DA:180,0
end_of_record
SF:/usr/include/c++/11/bits/stl_iterator.h
FN:1027,_ZN9__gnu_cxx17__normal_iteratorIPSt6vectorIiSaIiEES1_IS3_SaIS3_EEEC2ERKS4_
FNDA:4,_ZN9__gnu_cxx17__normal_iteratorIPSt6vectorIiSaIiEES1_IS3_SaIS3_EEEC2ERKS4_
FN:1027,_ZN9__gnu_cxx17__normal_iteratorIP4EdgeSt6vectorIS1_SaIS1_EEEC2ERKS2_
FNDA:0,_ZN9__gnu_cxx17__normal_iteratorIP4EdgeSt6vectorIS1_SaIS1_EEEC2ERKS2_
FN:1027,_ZN9__gnu_cxx17__normal_iteratorIPKiSt6vectorIiSaIiEEEC2ERKS2_
FNDA:32,_ZN9__gnu_cxx17__normal_iteratorIPKiSt6vectorIiSaIiEEEC2ERKS2_
FN:1027,_ZN9__gnu_cxx17__normal_iteratorIPKSt4pairIiiESt6vectorIS2_SaIS2_EEEC2ERKS4_
FNDA:31,_ZN9__gnu_cxx17__normal_iteratorIPKSt4pairIiiESt6vectorIS2_SaIS2_EEEC2ERKS4_
FN:1027,_ZN9__gnu_cxx17__normal_iteratorIPiSt6vectorIiSaIiEEEC2ERKS1_
FNDA:40,_ZN9__gnu_cxx17__normal_iteratorIPiSt6vectorIiSaIiEEEC2ERKS1_
FN:1027,_ZN9__gnu_cxx17__normal_iteratorIPSt4pairIiiESt6vectorIS2_SaIS2_EEEC2ERKS3_
FNDA:76,_ZN9__gnu_cxx17__normal_iteratorIPSt4pairIiiESt6vectorIS2_SaIS2_EEEC2ERKS3_
FN:1042,_ZNK9__gnu_cxx17__normal_iteratorIP4EdgeSt6vectorIS1_SaIS1_EEEdeEv
FNDA:0,_ZNK9__gnu_cxx17__normal_iteratorIP4EdgeSt6vectorIS1_SaIS1_EEEdeEv
FN:1042,_ZNK9__gnu_cxx17__normal_iteratorIPiSt6vectorIiSaIiEEEdeEv
FNDA:19,_ZNK9__gnu_cxx17__normal_iteratorIPiSt6vectorIiSaIiEEEdeEv
FN:1042,_ZNK9__gnu_cxx17__normal_iteratorIPSt4pairIiiESt6vectorIS2_SaIS2_EEEdeEv
FNDA:27,_ZNK9__gnu_cxx17__normal_iteratorIPSt4pairIiiESt6vectorIS2_SaIS2_EEEdeEv
FN:1042,_ZNK9__gnu_cxx17__normal_iteratorIPKSt4pairIiiESt6vectorIS2_SaIS2_EEEdeEv
FNDA:9,_ZNK9__gnu_cxx17__normal_iteratorIPKSt4pairIiiESt6vectorIS2_SaIS2_EEEdeEv
FN:1052,_ZN9__gnu_cxx17__normal_iteratorIP4EdgeSt6vectorIS1_SaIS1_EEEppEv
FNDA:119,_ZN9__gnu_cxx17__normal_iteratorIP4EdgeSt6vectorIS1_SaIS1_EEEppEv
FN:1052,_ZN9__gnu_cxx17__normal_iteratorIPiSt6vectorIiSaIiEEEppEv
FNDA:4,_ZN9__gnu_cxx17__normal_iteratorIPiSt6vectorIiSaIiEEEppEv
FN:1066,_ZN9__gnu_cxx17__normal_iteratorIPiSt6vectorIiSaIiEEEmmEv
FNDA:6,_ZN9__gnu_cxx17__normal_iteratorIPiSt6vectorIiSaIiEEEmmEv
FN:1066,_ZN9__gnu_cxx17__normal_iteratorIPSt4pairIiiESt6vectorIS2_SaIS2_EEEmmEv
FNDA:0,_ZN9__gnu_cxx17__normal_iteratorIPSt4pairIiiESt6vectorIS2_SaIS2_EEEmmEv
FN:1090,_ZNK9__gnu_cxx17__normal_iteratorIPiSt6vectorIiSaIiEEEplEl
FNDA:0,_ZNK9__gnu_cxx17__normal_iteratorIPiSt6vectorIiSaIiEEEplEl
FN:1090,_ZNK9__gnu_cxx17__normal_iteratorIPSt4pairIiiESt6vectorIS2_SaIS2_EEEplEl
FNDA:9,_ZNK9__gnu_cxx17__normal_iteratorIPSt4pairIiiESt6vectorIS2_SaIS2_EEEplEl
FN:1100,_ZNK9__gnu_cxx17__normal_iteratorIPSt4pairIiiESt6vectorIS2_SaIS2_EEEmiEl
FNDA:18,_ZNK9__gnu_cxx17__normal_iteratorIPSt4pairIiiESt6vectorIS2_SaIS2_EEEmiEl
FN:1100,_ZNK9__gnu_cxx17__normal_iteratorIP4EdgeSt6vectorIS1_SaIS1_EEEmiEl
FNDA:0,_ZNK9__gnu_cxx17__normal_iteratorIP4EdgeSt6vectorIS1_SaIS1_EEEmiEl
FN:1100,_ZNK9__gnu_cxx17__normal_iteratorIPiSt6vectorIiSaIiEEEmiEl
FNDA:11,_ZNK9__gnu_cxx17__normal_iteratorIPiSt6vectorIiSaIiEEEmiEl
FN:1105,_ZNK9__gnu_cxx17__normal_iteratorIP4EdgeSt6vectorIS1_SaIS1_EEE4baseEv
FNDA:0,_ZNK9__gnu_cxx17__normal_iteratorIP4EdgeSt6vectorIS1_SaIS1_EEE4baseEv
FN:1105,_ZNK9__gnu_cxx17__normal_iteratorIPSt6vectorIiSaIiEES1_IS3_SaIS3_EEE4baseEv
FNDA:8,_ZNK9__gnu_cxx17__normal_iteratorIPSt6vectorIiSaIiEES1_IS3_SaIS3_EEE4baseEv
FN:1105,_ZNK9__gnu_cxx17__normal_iteratorIPKiSt6vectorIiSaIiEEE4baseEv
FNDA:32,_ZNK9__gnu_cxx17__normal_iteratorIPKiSt6vectorIiSaIiEEE4baseEv
FN:1105,_ZNK9__gnu_cxx17__normal_iteratorIPSt4pairIiiESt6vectorIS2_SaIS2_EEE4baseEv
FNDA:44,_ZNK9__gnu_cxx17__normal_iteratorIPSt4pairIiiESt6vectorIS2_SaIS2_EEE4baseEv
FN:1105,_ZNK9__gnu_cxx17__normal_iteratorIPKSt4pairIiiESt6vectorIS2_SaIS2_EEE4baseEv
FNDA:22,_ZNK9__gnu_cxx17__normal_iteratorIPKSt4pairIiiESt6vectorIS2_SaIS2_EEE4baseEv
FN:1105,_ZNK9__gnu_cxx17__normal_iteratorIPiSt6vectorIiSaIiEEE4baseEv
FNDA:44,_ZNK9__gnu_cxx17__normal_iteratorIPiSt6vectorIiSaIiEEE4baseEv
FN:1163,_ZN9__gnu_cxxeqIPiSt6vectorIiSaIiEEEEbRKNS_17__normal_iteratorIT_T0_EESA_
FNDA:2,_ZN9__gnu_cxxeqIPiSt6vectorIiSaIiEEEEbRKNS_17__normal_iteratorIT_T0_EESA_
FN:1163,_ZN9__gnu_cxxeqIPKSt4pairIiiESt6vectorIS2_SaIS2_EEEEbRKNS_17__normal_iteratorIT_T0_EESD_
FNDA:11,_ZN9__gnu_cxxeqIPKSt4pairIiiESt6vectorIS2_SaIS2_EEEEbRKNS_17__normal_iteratorIT_T0_EESD_
FN:1179,_ZN9__gnu_cxxneIP4EdgeSt6vectorIS1_SaIS1_EEEEbRKNS_17__normal_iteratorIT_T0_EESB_
FNDA:190,_ZN9__gnu_cxxneIP4EdgeSt6vectorIS1_SaIS1_EEEEbRKNS_17__normal_iteratorIT_T0_EESB_
FN:1195,_ZN9__gnu_cxxltIPiSt6vectorIiSaIiEEEEbRKNS_17__normal_iteratorIT_T0_EESA_
FNDA:6,_ZN9__gnu_cxxltIPiSt6vectorIiSaIiEEEEbRKNS_17__normal_iteratorIT_T0_EESA_
FN:1268,_ZN9__gnu_cxxmiIPSt6vectorIiSaIiEES1_IS3_SaIS3_EEEENS_17__normal_iteratorIT_T0_E15difference_typeERKSA_SD_
FNDA:2,_ZN9__gnu_cxxmiIPSt6vectorIiSaIiEES1_IS3_SaIS3_EEEENS_17__normal_iteratorIT_T0_E15difference_typeERKSA_SD_
FN:1268,_ZN9__gnu_cxxmiIP4EdgeSt6vectorIS1_SaIS1_EEEENS_17__normal_iteratorIT_T0_E15difference_typeERKS9_SC_
FNDA:0,_ZN9__gnu_cxxmiIP4EdgeSt6vectorIS1_SaIS1_EEEENS_17__normal_iteratorIT_T0_E15difference_typeERKS9_SC_
FN:1268,_ZN9__gnu_cxxmiIPSt4pairIiiESt6vectorIS2_SaIS2_EEEENS_17__normal_iteratorIT_T0_E15difference_typeERKSA_SD_
FNDA:20,_ZN9__gnu_cxxmiIPSt4pairIiiESt6vectorIS2_SaIS2_EEEENS_17__normal_iteratorIT_T0_E15difference_typeERKSA_SD_
FN:1268,_ZN9__gnu_cxxmiIPiSt6vectorIiSaIiEEEENS_17__normal_iteratorIT_T0_E15difference_typeERKS8_SB_
FNDA:7,_ZN9__gnu_cxxmiIPiSt6vectorIiSaIiEEEENS_17__normal_iteratorIT_T0_E15difference_typeERKS8_SB_
FN:1291,_ZSt12__niter_baseIPKiSt6vectorIiSaIiEEET_N9__gnu_cxx17__normal_iteratorIS5_T0_EE
FNDA:32,_ZSt12__niter_baseIPKiSt6vectorIiSaIiEEET_N9__gnu_cxx17__normal_iteratorIS5_T0_EE
FN:1291,_ZSt12__niter_baseIPiSt6vectorIiSaIiEEET_N9__gnu_cxx17__normal_iteratorIS4_T0_EE
FNDA:0,_ZSt12__niter_baseIPiSt6vectorIiSaIiEEET_N9__gnu_cxx17__normal_iteratorIS4_T0_EE
FN:1439,_ZNSt13move_iteratorIPSt6vectorIiSaIiEEEC2ES3_
FNDA:8,_ZNSt13move_iteratorIPSt6vectorIiSaIiEEEC2ES3_
FN:1464,_ZNKSt13move_iteratorIPSt6vectorIiSaIiEEE4baseEv
FNDA:8,_ZNKSt13move_iteratorIPSt6vectorIiSaIiEEE4baseEv
FN:1477,_ZNKSt13move_iteratorIPSt6vectorIiSaIiEEEdeEv
FNDA:0,_ZNKSt13move_iteratorIPSt6vectorIiSaIiEEEdeEv
FN:1489,_ZNSt13move_iteratorIPSt6vectorIiSaIiEEEppEv
FNDA:0,_ZNSt13move_iteratorIPSt6vectorIiSaIiEEEppEv
FN:1648,_ZSteqIPSt6vectorIiSaIiEEEbRKSt13move_iteratorIT_ES8_
FNDA:4,_ZSteqIPSt6vectorIiSaIiEEEbRKSt13move_iteratorIT_ES8_
FN:1661,_ZStneIPSt6vectorIiSaIiEEEbRKSt13move_iteratorIT_ES8_
FNDA:4,_ZStneIPSt6vectorIiSaIiEEEbRKSt13move_iteratorIT_ES8_
FN:1706,_ZSt18make_move_iteratorIPSt6vectorIiSaIiEEESt13move_iteratorIT_ES5_
FNDA:0,_ZSt18make_move_iteratorIPSt6vectorIiSaIiEEESt13move_iteratorIT_ES5_
FN:1723,_ZSt32__make_move_if_noexcept_iteratorISt6vectorIiSaIiEESt13move_iteratorIPS2_EET0_PT_
FNDA:8,_ZSt32__make_move_if_noexcept_iteratorISt6vectorIiSaIiEESt13move_iteratorIPS2_EET0_PT_
DA:1027,32
DA:1028,32
DA:1027,31
DA:1028,31
DA:1027,4
DA:1028,4
DA:1027,76
DA:1028,76
DA:1027,40
DA:1028,40
DA:1027,0
DA:1028,0
DA:1042,9
DA:1043,9
DA:1042,27
DA:1043,27
DA:1042,19
DA:1043,19
DA:1042,0
DA:1043,0
DA:1052,4
DA:1054,4
DA:1055,4
DA:1052,119
DA:1054,119
DA:1055,119
DA:1066,6
DA:1068,6
DA:1069,6
DA:1066,0
DA:1068,0
DA:1069,0
DA:1090,0
DA:1091,0
DA:1090,9
DA:1091,9
DA:1100,0
DA:1101,0
DA:1100,18
DA:1101,18
DA:1100,11
DA:1101,11
DA:1105,32
DA:1106,32
DA:1105,44
DA:1106,44
DA:1105,22
DA:1106,22
DA:1105,44
DA:1106,44
DA:1105,8
DA:1106,8
DA:1105,0
DA:1106,0
DA:1163,2
DA:1166,2
DA:1163,11
DA:1166,11
DA:1179,190
DA:1182,190
DA:1195,6
DA:1198,6
DA:1268,0
DA:1271,0
DA:1268,7
DA:1271,7
DA:1268,2
DA:1271,2
DA:1268,20
DA:1271,20
DA:1291,0
DA:1293,0
DA:1291,32
DA:1293,32
DA:1439,8
DA:1440,8
DA:1464,8
DA:1465,8
DA:1477,0
DA:1481,0
DA:1489,0
DA:1491,0
DA:1492,0
DA:1648,4
DA:1650,4
DA:1661,4
DA:1663,4
DA:1706,0
DA:1707,0
DA:1723,8
DA:1724,8
end_of_record
SF:/usr/include/c++/11/bits/stl_iterator_base_funcs.h
FN:98,_ZSt10__distanceIPcENSt15iterator_traitsIT_E15difference_typeES2_S2_St26random_access_iterator_tag
FNDA:0,_ZSt10__distanceIPcENSt15iterator_traitsIT_E15difference_typeES2_S2_St26random_access_iterator_tag
FN:98,_ZSt10__distanceIPKcENSt15iterator_traitsIT_E15difference_typeES3_S3_St26random_access_iterator_tag
FNDA:0,_ZSt10__distanceIPKcENSt15iterator_traitsIT_E15difference_typeES3_S3_St26random_access_iterator_tag
FN:138,_ZSt8distanceIPcENSt15iterator_traitsIT_E15difference_typeES2_S2_
FNDA:0,_ZSt8distanceIPcENSt15iterator_traitsIT_E15difference_typeES2_S2_
FN:138,_ZSt8distanceIPKcENSt15iterator_traitsIT_E15difference_typeES3_S3_
FNDA:0,_ZSt8distanceIPKcENSt15iterator_traitsIT_E15difference_typeES3_S3_
DA:98,0
DA:104,0
DA:98,0
DA:104,0
DA:138,0
DA:141,0
DA:142,0
DA:138,0
DA:141,0
DA:142,0
end_of_record
SF:/usr/include/c++/11/bits/stl_iterator_base_types.h
FN:238,_ZSt19__iterator_categoryIPiENSt15iterator_traitsIT_E17iterator_categoryERKS2_
FNDA:22,_ZSt19__iterator_categoryIPiENSt15iterator_traitsIT_E17iterator_categoryERKS2_
FN:238,_ZSt19__iterator_categoryIPcENSt15iterator_traitsIT_E17iterator_categoryERKS2_
FNDA:0,_ZSt19__iterator_categoryIPcENSt15iterator_traitsIT_E17iterator_categoryERKS2_
FN:238,_ZSt19__iterator_categoryIPKcENSt15iterator_traitsIT_E17iterator_categoryERKS3_
FNDA:0,_ZSt19__iterator_categoryIPKcENSt15iterator_traitsIT_E17iterator_categoryERKS3_
FN:238,_ZSt19__iterator_categoryIN9__gnu_cxx17__normal_iteratorIPiSt6vectorIiSaIiEEEEENSt15iterator_traitsIT_E17iterator_categoryERKS8_
FNDA:2,_ZSt19__iterator_categoryIN9__gnu_cxx17__normal_iteratorIPiSt6vectorIiSaIiEEEEENSt15iterator_traitsIT_E17iterator_categoryERKS8_
DA:238,22
DA:239,22
DA:238,0
DA:239,0
DA:238,0
DA:239,0
DA:238,2
DA:239,2
end_of_record
SF:/usr/include/c++/11/iostream
end_of_record
SF:/usr/include/c++/11/bits/stl_heap.h
FN:134,_ZSt11__push_heapIN9__gnu_cxx17__normal_iteratorIPSt4pairIiiESt6vectorIS3_SaIS3_EEEElS3_NS0_5__ops14_Iter_comp_valISt7greaterIS3_EEEEvT_T0_SF_T1_RT2_
FNDA:9,_ZSt11__push_heapIN9__gnu_cxx17__normal_iteratorIPSt4pairIiiESt6vectorIS3_SaIS3_EEEElS3_NS0_5__ops14_Iter_comp_valISt7greaterIS3_EEEEvT_T0_SF_T1_RT2_
FN:197,_ZSt9push_heapIN9__gnu_cxx17__normal_iteratorIPSt4pairIiiESt6vectorIS3_SaIS3_EEEESt7greaterIS3_EEvT_SB_T0_
FNDA:9,_ZSt9push_heapIN9__gnu_cxx17__normal_iteratorIPSt4pairIiiESt6vectorIS3_SaIS3_EEEESt7greaterIS3_EEvT_SB_T0_
FN:223,_ZSt13__adjust_heapIN9__gnu_cxx17__normal_iteratorIPSt4pairIiiESt6vectorIS3_SaIS3_EEEElS3_NS0_5__ops15_Iter_comp_iterISt7greaterIS3_EEEEvT_T0_SF_T1_T2_
FNDA:0,_ZSt13__adjust_heapIN9__gnu_cxx17__normal_iteratorIPSt4pairIiiESt6vectorIS3_SaIS3_EEEElS3_NS0_5__ops15_Iter_comp_iterISt7greaterIS3_EEEEvT_T0_SF_T1_T2_
FN:253,_ZSt10__pop_heapIN9__gnu_cxx17__normal_iteratorIPSt4pairIiiESt6vectorIS3_SaIS3_EEEENS0_5__ops15_Iter_comp_iterISt7greaterIS3_EEEEvT_SE_SE_RT0_
FNDA:0,_ZSt10__pop_heapIN9__gnu_cxx17__normal_iteratorIPSt4pairIiiESt6vectorIS3_SaIS3_EEEENS0_5__ops15_Iter_comp_iterISt7greaterIS3_EEEEvT_SE_SE_RT0_
FN:316,_ZSt8pop_heapIN9__gnu_cxx17__normal_iteratorIPSt4pairIiiESt6vectorIS3_SaIS3_EEEESt7greaterIS3_EEvT_SB_T0_
FNDA:9,_ZSt8pop_heapIN9__gnu_cxx17__normal_iteratorIPSt4pairIiiESt6vectorIS3_SaIS3_EEEESt7greaterIS3_EEvT_SB_T0_
DA:134,9
DA:138,9
DA:139,9
DA:141,0
DA:142,0
DA:143,0
DA:145,9
DA:146,9
DA:197,9
DA:213,9
DA:214,9
DA:215,9
DA:216,9
DA:217,9
DA:223,0
DA:226,0
DA:227,0
DA:228,0
DA:230,0
DA:231,0
DA:233,0
DA:234,0
DA:235,0
DA:237,0
DA:239,0
DA:240,0
DA:242,0
DA:245,0
DA:246,0
DA:247,0
DA:248,0
DA:253,0
DA:261,0
DA:262,0
DA:263,0
DA:264,0
DA:265,0
DA:266,0
DA:316,9
DA:327,9
DA:331,0
DA:332,0
DA:334,9
end_of_record
SF:/usr/include/c++/11/bits/alloc_traits.h
FN:463,_ZNSt16allocator_traitsISaISt6vectorI4EdgeSaIS1_EEEE8allocateERS4_m
FNDA:0,_ZNSt16allocator_traitsISaISt6vectorI4EdgeSaIS1_EEEE8allocateERS4_m
FN:463,_ZNSt16allocator_traitsISaISt6vectorIiSaIiEEEE8allocateERS3_m
FNDA:2,_ZNSt16allocator_traitsISaISt6vectorIiSaIiEEEE8allocateERS3_m
FN:463,_ZNSt16allocator_traitsISaImEE8allocateERS0_m
FNDA:0,_ZNSt16allocator_traitsISaImEE8allocateERS0_m
FN:463,_ZNSt16allocator_traitsISaI4EdgeEE8allocateERS1_m
FNDA:0,_ZNSt16allocator_traitsISaI4EdgeEE8allocateERS1_m
FN:463,_ZNSt16allocator_traitsISaISt4pairIiiEEE8allocateERS2_m
FNDA:2,_ZNSt16allocator_traitsISaISt4pairIiiEEE8allocateERS2_m
FN:463,_ZNSt16allocator_traitsISaIiEE8allocateERS0_m
FNDA:45,_ZNSt16allocator_traitsISaIiEE8allocateERS0_m
FN:495,_ZNSt16allocator_traitsISaISt6vectorI4EdgeSaIS1_EEEE10deallocateERS4_PS3_m
FNDA:0,_ZNSt16allocator_traitsISaISt6vectorI4EdgeSaIS1_EEEE10deallocateERS4_PS3_m
FN:495,_ZNSt16allocator_traitsISaIiEE10deallocateERS0_Pim
FNDA:45,_ZNSt16allocator_traitsISaIiEE10deallocateERS0_Pim
FN:495,_ZNSt16allocator_traitsISaI4EdgeEE10deallocateERS1_PS0_m
FNDA:0,_ZNSt16allocator_traitsISaI4EdgeEE10deallocateERS1_PS0_m
FN:495,_ZNSt16allocator_traitsISaISt4pairIiiEEE10deallocateERS2_PS1_m
FNDA:2,_ZNSt16allocator_traitsISaISt4pairIiiEEE10deallocateERS2_PS1_m
FN:495,_ZNSt16allocator_traitsISaImEE10deallocateERS0_Pmm
FNDA:0,_ZNSt16allocator_traitsISaImEE10deallocateERS0_Pmm
FN:495,_ZNSt16allocator_traitsISaISt6vectorIiSaIiEEEE10deallocateERS3_PS2_m
FNDA:2,_ZNSt16allocator_traitsISaISt6vectorIiSaIiEEEE10deallocateERS3_PS2_m
FN:511,_ZNSt16allocator_traitsISaISt6vectorIiSaIiEEEE9constructIS2_JRKS2_EEEvRS3_PT_DpOT0_
FNDA:0,_ZNSt16allocator_traitsISaISt6vectorIiSaIiEEEE9constructIS2_JRKS2_EEEvRS3_PT_DpOT0_
FN:511,_ZNSt16allocator_traitsISaISt4pairIiiEEE9constructIS1_JS1_EEEvRS2_PT_DpOT0_
FNDA:9,_ZNSt16allocator_traitsISaISt4pairIiiEEE9constructIS1_JS1_EEEvRS2_PT_DpOT0_
FN:511,_ZNSt16allocator_traitsISaISt6vectorI4EdgeSaIS1_EEEE9constructIS3_JS3_EEEvRS4_PT_DpOT0_
FNDA:0,_ZNSt16allocator_traitsISaISt6vectorI4EdgeSaIS1_EEEE9constructIS3_JS3_EEEvRS4_PT_DpOT0_
FN:511,_ZNSt16allocator_traitsISaI4EdgeEE9constructIS0_JS0_EEEvRS1_PT_DpOT0_
FNDA:0,_ZNSt16allocator_traitsISaI4EdgeEE9constructIS0_JS0_EEEvRS1_PT_DpOT0_
FN:511,_ZNSt16allocator_traitsISaIiEE9constructIiJiEEEvRS0_PT_DpOT0_
FNDA:9,_ZNSt16allocator_traitsISaIiEE9constructIiJiEEEvRS0_PT_DpOT0_
FN:531,_ZNSt16allocator_traitsISaISt4pairIiiEEE7destroyIS1_EEvRS2_PT_
FNDA:9,_ZNSt16allocator_traitsISaISt4pairIiiEEE7destroyIS1_EEvRS2_PT_
FN:531,_ZNSt16allocator_traitsISaISt6vectorIiSaIiEEEE7destroyIS2_EEvRS3_PT_
FNDA:0,_ZNSt16allocator_traitsISaISt6vectorIiSaIiEEEE7destroyIS2_EEvRS3_PT_
FN:531,_ZNSt16allocator_traitsISaISt6vectorI4EdgeSaIS1_EEEE7destroyIS3_EEvRS4_PT_
FNDA:0,_ZNSt16allocator_traitsISaISt6vectorI4EdgeSaIS1_EEEE7destroyIS3_EEvRS4_PT_
FN:547,_ZNSt16allocator_traitsISaISt6vectorIiSaIiEEEE8max_sizeERKS3_
FNDA:4,_ZNSt16allocator_traitsISaISt6vectorIiSaIiEEEE8max_sizeERKS3_
FN:547,_ZNSt16allocator_traitsISaISt6vectorI4EdgeSaIS1_EEEE8max_sizeERKS4_
FNDA:0,_ZNSt16allocator_traitsISaISt6vectorI4EdgeSaIS1_EEEE8max_sizeERKS4_
FN:547,_ZNSt16allocator_traitsISaI4EdgeEE8max_sizeERKS1_
FNDA:0,_ZNSt16allocator_traitsISaI4EdgeEE8max_sizeERKS1_
FN:547,_ZNSt16allocator_traitsISaIiEE8max_sizeERKS0_
FNDA:36,_ZNSt16allocator_traitsISaIiEE8max_sizeERKS0_
FN:547,_ZNSt16allocator_traitsISaISt4pairIiiEEE8max_sizeERKS2_
FNDA:4,_ZNSt16allocator_traitsISaISt4pairIiiEEE8max_sizeERKS2_
FN:562,_ZNSt16allocator_traitsISaIiEE37select_on_container_copy_constructionERKS0_
FNDA:16,_ZNSt16allocator_traitsISaIiEE37select_on_container_copy_constructionERKS0_
FN:562,_ZNSt16allocator_traitsISaIcEE37select_on_container_copy_constructionERKS0_
FNDA:0,_ZNSt16allocator_traitsISaIcEE37select_on_container_copy_constructionERKS0_
FN:678,_ZSt15__alloc_on_copyISaIiEEvRT_RKS1_
FNDA:0,_ZSt15__alloc_on_copyISaIiEEvRT_RKS1_
FN:710,_ZSt15__alloc_on_moveISaIiEEvRT_S2_
FNDA:0,_ZSt15__alloc_on_moveISaIiEEvRT_S2_
FN:845,_ZSt8_DestroyIN9__gnu_cxx17__normal_iteratorIPiSt6vectorIiSaIiEEEEiEvT_S7_RSaIT0_E
FNDA:0,_ZSt8_DestroyIN9__gnu_cxx17__normal_iteratorIPiSt6vectorIiSaIiEEEEiEvT_S7_RSaIT0_E
FN:845,_ZSt8_DestroyIPiiEvT_S1_RSaIT0_E
FNDA:40,_ZSt8_DestroyIPiiEvT_S1_RSaIT0_E
FN:845,_ZSt8_DestroyIPSt4pairIiiES1_EvT_S3_RSaIT0_E
FNDA:2,_ZSt8_DestroyIPSt4pairIiiES1_EvT_S3_RSaIT0_E
FN:845,_ZSt8_DestroyIP4EdgeS0_EvT_S2_RSaIT0_E
FNDA:0,_ZSt8_DestroyIP4EdgeS0_EvT_S2_RSaIT0_E
FN:845,_ZSt8_DestroyIPSt6vectorIiSaIiEES2_EvT_S4_RSaIT0_E
FNDA:6,_ZSt8_DestroyIPSt6vectorIiSaIiEES2_EvT_S4_RSaIT0_E
FN:845,_ZSt8_DestroyIPSt6vectorI4EdgeSaIS1_EES3_EvT_S5_RSaIT0_E
FNDA:0,_ZSt8_DestroyIPSt6vectorI4EdgeSaIS1_EES3_EvT_S5_RSaIT0_E
DA:463,2
DA:464,2
DA:463,45
DA:464,45
DA:463,0
DA:464,0
DA:463,0
DA:464,0
DA:463,2
DA:464,2
DA:463,0
DA:464,0
DA:495,0
DA:496,0
DA:495,2
DA:496,2
DA:495,0
DA:496,0
DA:495,45
DA:496,45
DA:495,2
DA:496,2
DA:495,0
DA:496,0
DA:511,0
DA:516,0
DA:520,0
DA:511,0
DA:516,0
DA:520,0
DA:511,9
DA:516,9
DA:520,9
DA:511,0
DA:516,0
DA:520,0
DA:511,9
DA:516,9
DA:520,9
DA:531,0
DA:535,0
DA:539,0
DA:531,0
DA:535,0
DA:539,0
DA:531,9
DA:535,9
DA:539,9
DA:547,4
DA:550,4
DA:547,0
DA:550,0
DA:547,4
DA:550,4
DA:547,0
DA:550,0
DA:547,36
DA:550,36
DA:562,16
DA:563,16
DA:562,0
DA:563,0
DA:678,0
DA:688,0
DA:710,0
DA:716,0
DA:720,0
DA:845,0
DA:848,0
DA:849,0
DA:845,40
DA:848,40
DA:849,40
DA:845,2
DA:848,2
DA:849,2
DA:845,0
DA:848,0
DA:849,0
DA:845,6
DA:848,6
DA:849,6
DA:845,0
DA:848,0
DA:849,0
end_of_record
SF:/usr/include/c++/11/bits/stl_function.h
FN:389,_ZNKSt7greaterISt4pairIiiEEclERKS1_S4_
FNDA:0,_ZNKSt7greaterISt4pairIiiEEclERKS1_S4_
DA:389,0
DA:390,0
end_of_record
SF:/usr/include/c++/11/bits/stl_queue.h
FN:514,_ZNSt14priority_queueISt4pairIiiESt6vectorIS1_SaIS1_EESt7greaterIS1_EEC2IS4_vEEv
FNDA:2,_ZNSt14priority_queueISt4pairIiiESt6vectorIS1_SaIS1_EESt7greaterIS1_EEC2IS4_vEEv
FN:612,_ZNKSt14priority_queueISt4pairIiiESt6vectorIS1_SaIS1_EESt7greaterIS1_EE5emptyEv
FNDA:11,_ZNKSt14priority_queueISt4pairIiiESt6vectorIS1_SaIS1_EESt7greaterIS1_EE5emptyEv
FN:625,_ZNKSt14priority_queueISt4pairIiiESt6vectorIS1_SaIS1_EESt7greaterIS1_EE3topEv
FNDA:9,_ZNKSt14priority_queueISt4pairIiiESt6vectorIS1_SaIS1_EESt7greaterIS1_EE3topEv
FN:648,_ZNSt14priority_queueISt4pairIiiESt6vectorIS1_SaIS1_EESt7greaterIS1_EE4pushEOS1_
FNDA:9,_ZNSt14priority_queueISt4pairIiiESt6vectorIS1_SaIS1_EESt7greaterIS1_EE4pushEOS1_
FN:675,_ZNSt14priority_queueISt4pairIiiESt6vectorIS1_SaIS1_EESt7greaterIS1_EE3popEv
FNDA:9,_ZNSt14priority_queueISt4pairIiiESt6vectorIS1_SaIS1_EESt7greaterIS1_EE3popEv
DA:514,2
DA:515,2
DA:612,11
DA:613,11
DA:625,9
DA:628,9
DA:648,9
DA:650,9
DA:651,9
DA:652,9
DA:675,9
DA:678,9
DA:679,9
DA:680,9
end_of_record
SF:/usr/include/c++/11/bits/stl_bvector.h
FN:77,_ZNSt14_Bit_referenceC2EPmm
FNDA:163,_ZNSt14_Bit_referenceC2EPmm
FN:86,_ZNKSt14_Bit_referencecvbEv
FNDA:106,_ZNKSt14_Bit_referencecvbEv
FN:90,_ZNSt14_Bit_referenceaSEb
FNDA:57,_ZNSt14_Bit_referenceaSEb
FN:148,_ZNSt18_Bit_iterator_baseC2EPmj
FNDA:213,_ZNSt18_Bit_iterator_baseC2EPmj
FN:172,_ZNSt18_Bit_iterator_base7_M_incrEl
FNDA:112,_ZNSt18_Bit_iterator_base7_M_incrEl
FN:241,_ZNSt13_Bit_iteratorC2Ev
FNDA:52,_ZNSt13_Bit_iteratorC2Ev
FN:243,_ZNSt13_Bit_iteratorC2EPmj
FNDA:126,_ZNSt13_Bit_iteratorC2EPmj
FN:251,_ZNKSt13_Bit_iteratordeEv
FNDA:131,_ZNKSt13_Bit_iteratordeEv
FN:285,_ZNSt13_Bit_iteratorpLEl
FNDA:112,_ZNSt13_Bit_iteratorpLEl
FN:299,_ZNKSt13_Bit_iteratorixEl
FNDA:99,_ZNKSt13_Bit_iteratorixEl
FN:303,_ZStplRKSt13_Bit_iteratorl
FNDA:112,_ZStplRKSt13_Bit_iteratorl
FN:443,_ZNSt13_Bvector_baseISaIbEE18_Bvector_impl_dataC2Ev
FNDA:26,_ZNSt13_Bvector_baseISaIbEE18_Bvector_impl_dataC2Ev
FN:465,_ZNSt13_Bvector_baseISaIbEE18_Bvector_impl_data8_M_resetEv
FNDA:13,_ZNSt13_Bvector_baseISaIbEE18_Bvector_impl_data8_M_resetEv
FN:485,_ZNSt13_Bvector_baseISaIbEE13_Bvector_implC2ERKSaImE
FNDA:13,_ZNSt13_Bvector_baseISaIbEE13_Bvector_implC2ERKSaImE
FN:502,_ZNKSt13_Bvector_baseISaIbEE13_Bvector_impl11_M_end_addrEv
FNDA:19,_ZNKSt13_Bvector_baseISaIbEE13_Bvector_impl11_M_end_addrEv
FN:531,_ZNSt13_Bvector_baseISaIbEEC2ERKS0_
FNDA:13,_ZNSt13_Bvector_baseISaIbEEC2ERKS0_
FN:542,_ZNSt13_Bvector_baseISaIbEED2Ev
FNDA:13,_ZNSt13_Bvector_baseISaIbEED2Ev
FN:549,_ZNSt13_Bvector_baseISaIbEE11_M_allocateEm
FNDA:13,_ZNSt13_Bvector_baseISaIbEE11_M_allocateEm
FN:553,_ZNSt13_Bvector_baseISaIbEE13_M_deallocateEv
FNDA:13,_ZNSt13_Bvector_baseISaIbEE13_M_deallocateEv
FN:572,_ZNSt13_Bvector_baseISaIbEE8_S_nwordEm
FNDA:26,_ZNSt13_Bvector_baseISaIbEE8_S_nwordEm
FN:647,_ZNSt6vectorIbSaIbEEC2EmRKbRKS0_
FNDA:6,_ZNSt6vectorIbSaIbEEC2EmRKbRKS0_
FN:733,_ZNSt6vectorIbSaIbEED2Ev
FNDA:13,_ZNSt6vectorIbSaIbEED2Ev
FN:831,_ZNSt6vectorIbSaIbEE5beginEv
FNDA:106,_ZNSt6vectorIbSaIbEE5beginEv
FN:906,_ZNSt6vectorIbSaIbEEixEm
FNDA:99,_ZNSt6vectorIbSaIbEEixEm
FN:1137,_ZNSt6vectorIbSaIbEE13_M_initializeEm
FNDA:13,_ZNSt6vectorIbSaIbEE13_M_initializeEm
FN:1150,_ZNSt6vectorIbSaIbEE19_M_initialize_valueEb
FNDA:6,_ZNSt6vectorIbSaIbEE19_M_initialize_valueEb
DA:77,163
DA:78,163
DA:86,106
DA:87,106
DA:90,57
DA:92,57
DA:93,34
DA:95,23
DA:96,57
DA:148,213
DA:149,213
DA:172,112
DA:174,112
DA:175,112
DA:176,112
DA:177,112
DA:179,0
DA:180,0
DA:182,112
DA:183,112
DA:241,52
DA:243,126
DA:244,126
DA:251,131
DA:252,131
DA:285,112
DA:287,112
DA:288,112
DA:299,99
DA:300,99
DA:303,112
DA:305,112
DA:306,112
DA:307,112
DA:443,26
DA:444,26
DA:445,26
DA:465,13
DA:466,13
DA:485,13
DA:486,13
DA:487,13
DA:502,19
DA:504,19
DA:505,19
DA:506,0
DA:531,13
DA:532,13
DA:542,13
DA:543,13
DA:549,13
DA:550,13
DA:553,13
DA:555,13
DA:557,13
DA:558,13
DA:559,13
DA:561,13
DA:563,13
DA:572,26
DA:573,26
DA:647,6
DA:654,6
DA:656,6
DA:657,6
DA:658,6
DA:733,13
DA:831,106
DA:832,106
DA:906,99
DA:907,99
DA:1137,13
DA:1139,13
DA:1141,13
DA:1142,13
DA:1143,13
DA:1144,13
DA:1145,13
DA:1147,13
DA:1150,6
DA:1152,6
DA:1153,6
DA:1154,6
DA:1156,6
end_of_record
SF:/usr/include/c++/11/bits/basic_string.tcc
FN:206,_ZNSt7__cxx1112basic_stringIcSt11char_traitsIcESaIcEE12_M_constructIPcEEvT_S7_St20forward_iterator_tag
FNDA:0,_ZNSt7__cxx1112basic_stringIcSt11char_traitsIcESaIcEE12_M_constructIPcEEvT_S7_St20forward_iterator_tag
FN:206,_ZNSt7__cxx1112basic_stringIcSt11char_traitsIcESaIcEE12_M_constructIPKcEEvT_S8_St20forward_iterator_tag
FNDA:0,_ZNSt7__cxx1112basic_stringIcSt11char_traitsIcESaIcEE12_M_constructIPKcEEvT_S8_St20forward_iterator_tag
DA:206,0
DA:211,0
DA:212,0
DA:215,0
DA:217,0
DA:219,0
DA:220,0
DA:225,0
DA:226,0
DA:228,0
DA:229,0
DA:232,0
DA:233,0
DA:206,0
DA:211,0
DA:212,0
DA:215,0
DA:217,0
DA:219,0
DA:220,0
DA:225,0
DA:226,0
DA:228,0
DA:229,0
DA:232,0
DA:233,0
end_of_record
SF:/usr/include/c++/11/bits/stl_algobase.h
FN:152,_ZSt9iter_swapIN9__gnu_cxx17__normal_iteratorIPiSt6vectorIiSaIiEEEES6_EvT_T0_
FNDA:4,_ZSt9iter_swapIN9__gnu_cxx17__normal_iteratorIPiSt6vectorIiSaIiEEEES6_EvT_T0_
FN:230,_ZSt3minImERKT_S2_S2_
FNDA:0,_ZSt3minImERKT_S2_S2_
FN:254,_ZSt3maxImERKT_S2_S2_
FNDA:0,_ZSt3maxImERKT_S2_S2_
FN:313,_ZSt12__niter_baseIPiET_S1_
FNDA:58,_ZSt12__niter_baseIPiET_S1_
FN:313,_ZSt12__niter_baseIP4EdgeET_S2_
FNDA:0,_ZSt12__niter_baseIP4EdgeET_S2_
FN:313,_ZSt12__niter_baseIPSt6vectorI4EdgeSaIS1_EEET_S5_
FNDA:0,_ZSt12__niter_baseIPSt6vectorI4EdgeSaIS1_EEET_S5_
FN:313,_ZSt12__niter_baseIPSt4pairIiiEET_S3_
FNDA:12,_ZSt12__niter_baseIPSt4pairIiiEET_S3_
FN:313,_ZSt12__niter_baseIPSt6vectorIiSaIiEEET_S4_
FNDA:0,_ZSt12__niter_baseIPSt6vectorIiSaIiEEET_S4_
FN:328,_ZSt12__niter_wrapIN9__gnu_cxx17__normal_iteratorIPiSt6vectorIiSaIiEEEES2_ET_S7_T0_
FNDA:0,_ZSt12__niter_wrapIN9__gnu_cxx17__normal_iteratorIPiSt6vectorIiSaIiEEEES2_ET_S7_T0_
FN:335,_ZSt12__niter_wrapIPiET_RKS1_S1_
FNDA:16,_ZSt12__niter_wrapIPiET_RKS1_S1_
FN:335,_ZSt12__niter_wrapIPSt6vectorIiSaIiEEET_RKS4_S4_
FNDA:0,_ZSt12__niter_wrapIPSt6vectorIiSaIiEEET_RKS4_S4_
FN:420,_ZNSt11__copy_moveILb0ELb1ESt26random_access_iterator_tagE8__copy_mIiEEPT_PKS3_S6_S4_
FNDA:16,_ZNSt11__copy_moveILb0ELb1ESt26random_access_iterator_tagE8__copy_mIiEEPT_PKS3_S6_S4_
FN:486,_ZSt14__copy_move_a2ILb0EPKiPiET1_T0_S4_S3_
FNDA:16,_ZSt14__copy_move_a2ILb0EPKiPiET1_T0_S4_S3_
FN:486,_ZSt14__copy_move_a2ILb0EPiS0_ET1_T0_S2_S1_
FNDA:0,_ZSt14__copy_move_a2ILb0EPiS0_ET1_T0_S2_S1_
FN:521,_ZSt14__copy_move_a1ILb0EPKiPiET1_T0_S4_S3_
FNDA:16,_ZSt14__copy_move_a1ILb0EPKiPiET1_T0_S4_S3_
FN:521,_ZSt14__copy_move_a1ILb0EPiS0_ET1_T0_S2_S1_
FNDA:0,_ZSt14__copy_move_a1ILb0EPiS0_ET1_T0_S2_S1_
FN:527,_ZSt13__copy_move_aILb0EN9__gnu_cxx17__normal_iteratorIPKiSt6vectorIiSaIiEEEEPiET1_T0_SA_S9_
FNDA:16,_ZSt13__copy_move_aILb0EN9__gnu_cxx17__normal_iteratorIPKiSt6vectorIiSaIiEEEEPiET1_T0_SA_S9_
FN:527,_ZSt13__copy_move_aILb0EN9__gnu_cxx17__normal_iteratorIPKiSt6vectorIiSaIiEEEENS1_IPiS6_EEET1_T0_SB_SA_
FNDA:0,_ZSt13__copy_move_aILb0EN9__gnu_cxx17__normal_iteratorIPKiSt6vectorIiSaIiEEEENS1_IPiS6_EEET1_T0_SB_SA_
FN:527,_ZSt13__copy_move_aILb0EPiS0_ET1_T0_S2_S1_
FNDA:0,_ZSt13__copy_move_aILb0EPiS0_ET1_T0_S2_S1_
FN:611,_ZSt4copyIN9__gnu_cxx17__normal_iteratorIPKiSt6vectorIiSaIiEEEENS1_IPiS6_EEET0_T_SB_SA_
FNDA:0,_ZSt4copyIN9__gnu_cxx17__normal_iteratorIPKiSt6vectorIiSaIiEEEENS1_IPiS6_EEET0_T_SB_SA_
FN:611,_ZSt4copyIN9__gnu_cxx17__normal_iteratorIPKiSt6vectorIiSaIiEEEEPiET0_T_SA_S9_
FNDA:16,_ZSt4copyIN9__gnu_cxx17__normal_iteratorIPKiSt6vectorIiSaIiEEEEPiET0_T_SA_S9_
FN:611,_ZSt4copyIPiS0_ET0_T_S2_S1_
FNDA:0,_ZSt4copyIPiS0_ET0_T_S2_S1_
FN:714,_ZNSt20__copy_move_backwardILb1ELb0ESt26random_access_iterator_tagE13__copy_move_bIPSt6vectorIiSaIiEES6_EET0_T_S8_S7_
FNDA:0,_ZNSt20__copy_move_backwardILb1ELb0ESt26random_access_iterator_tagE13__copy_move_bIPSt6vectorIiSaIiEES6_EET0_T_S8_S7_
FN:750,_ZSt23__copy_move_backward_a2ILb1EPSt6vectorIiSaIiEES3_ET1_T0_S5_S4_
FNDA:0,_ZSt23__copy_move_backward_a2ILb1EPSt6vectorIiSaIiEES3_ET1_T0_S5_S4_
FN:768,_ZSt23__copy_move_backward_a1ILb1EPSt6vectorIiSaIiEES3_ET1_T0_S5_S4_
FNDA:0,_ZSt23__copy_move_backward_a1ILb1EPSt6vectorIiSaIiEES3_ET1_T0_S5_S4_
FN:796,_ZSt22__copy_move_backward_aILb1EPSt6vectorIiSaIiEES3_ET1_T0_S5_S4_
FNDA:0,_ZSt22__copy_move_backward_aILb1EPSt6vectorIiSaIiEES3_ET1_T0_S5_S4_
FN:884,_ZSt13move_backwardIPSt6vectorIiSaIiEES3_ET0_T_S5_S4_
FNDA:0,_ZSt13move_backwardIPSt6vectorIiSaIiEES3_ET0_T_S5_S4_
FN:908,_ZSt9__fill_a1IPSt6vectorIiSaIiEES2_EN9__gnu_cxx11__enable_ifIXntsrSt11__is_scalarIT0_E7__valueEvE6__typeET_SB_RKS7_
FNDA:0,_ZSt9__fill_a1IPSt6vectorIiSaIiEES2_EN9__gnu_cxx11__enable_ifIXntsrSt11__is_scalarIT0_E7__valueEvE6__typeET_SB_RKS7_
FN:919,_ZSt9__fill_a1IPiiEN9__gnu_cxx11__enable_ifIXsrSt11__is_scalarIT0_E7__valueEvE6__typeET_S8_RKS4_
FNDA:22,_ZSt9__fill_a1IPiiEN9__gnu_cxx11__enable_ifIXsrSt11__is_scalarIT0_E7__valueEvE6__typeET_S8_RKS4_
FN:968,_ZSt8__fill_aIPiiEvT_S1_RKT0_
FNDA:22,_ZSt8__fill_aIPiiEvT_S1_RKT0_
FN:968,_ZSt8__fill_aIPSt6vectorIiSaIiEES2_EvT_S4_RKT0_
FNDA:0,_ZSt8__fill_aIPSt6vectorIiSaIiEES2_EvT_S4_RKT0_
FN:992,_ZSt4fillIPSt6vectorIiSaIiEES2_EvT_S4_RKT0_
FNDA:0,_ZSt4fillIPSt6vectorIiSaIiEES2_EvT_S4_RKT0_
FN:1010,_ZSt17__size_to_integerm
FNDA:22,_ZSt17__size_to_integerm
FN:1109,_ZSt10__fill_n_aIPimiET_S1_T0_RKT1_St26random_access_iterator_tag
FNDA:22,_ZSt10__fill_n_aIPimiET_S1_T0_RKT1_St26random_access_iterator_tag
FN:1144,_ZSt6fill_nIPimiET_S1_T0_RKT1_
FNDA:22,_ZSt6fill_nIPimiET_S1_T0_RKT1_
DA:152,4
DA:182,4
DA:184,4
DA:230,0
DA:235,0
DA:236,0
DA:237,0
DA:254,0
DA:259,0
DA:260,0
DA:261,0
DA:313,12
DA:315,12
DA:313,58
DA:315,58
DA:313,0
DA:315,0
DA:313,0
DA:315,0
DA:313,0
DA:315,0
DA:328,0
DA:329,0
DA:335,16
DA:336,16
DA:335,0
DA:336,0
DA:420,16
DA:429,16
DA:430,16
DA:431,16
DA:432,16
DA:486,0
DA:495,0
DA:486,16
DA:495,16
DA:521,0
DA:522,0
DA:521,16
DA:522,16
DA:527,16
DA:529,16
DA:532,16
DA:527,0
DA:529,0
DA:532,0
DA:527,0
DA:529,0
DA:532,0
DA:611,16
DA:620,16
DA:611,0
DA:620,0
DA:611,0
DA:620,0
DA:714,0
DA:717,0
DA:718,0
DA:719,0
DA:720,0
DA:750,0
DA:760,0
DA:762,0
DA:768,0
DA:769,0
DA:796,0
DA:798,0
DA:801,0
DA:884,0
DA:894,0
DA:896,0
DA:908,0
DA:911,0
DA:912,0
DA:913,0
DA:919,22
DA:922,22
DA:923,121
DA:924,99
DA:925,22
DA:968,22
DA:969,22
DA:968,0
DA:969,0
DA:992,0
DA:999,0
DA:1000,0
DA:1010,22
DA:1109,22
DA:1115,22
DA:1116,0
DA:1120,22
DA:1121,22
DA:1144,22
DA:1149,22
DA:1150,44
end_of_record
SF:/usr/include/c++/11/bits/cpp_type_traits.h
FN:560,_ZSt12__miter_baseIPiET_S1_
FNDA:0,_ZSt12__miter_baseIPiET_S1_
FN:560,_ZSt12__miter_baseIN9__gnu_cxx17__normal_iteratorIPKiSt6vectorIiSaIiEEEEET_S8_
FNDA:32,_ZSt12__miter_baseIN9__gnu_cxx17__normal_iteratorIPKiSt6vectorIiSaIiEEEEET_S8_
FN:560,_ZSt12__miter_baseIPSt6vectorIiSaIiEEET_S4_
FNDA:0,_ZSt12__miter_baseIPSt6vectorIiSaIiEEET_S4_
DA:560,0
DA:561,0
DA:560,32
DA:561,32
DA:560,0
DA:561,0
end_of_record
SF:/usr/include/c++/11/bits/allocator.h
FN:156,_ZNSaI4EdgeEC2Ev
FNDA:0,_ZNSaI4EdgeEC2Ev
FN:156,_ZNSaISt4pairIiiEEC2Ev
FNDA:2,_ZNSaISt4pairIiiEEC2Ev
FN:156,_ZNSaIbEC2Ev
FNDA:6,_ZNSaIbEC2Ev
FN:156,_ZNSaIiEC2Ev
FNDA:24,_ZNSaIiEC2Ev
FN:159,_ZNSaImEC2ERKS_
FNDA:0,_ZNSaImEC2ERKS_
FN:159,_ZNSaI4EdgeEC2ERKS0_
FNDA:0,_ZNSaI4EdgeEC2ERKS0_
FN:159,_ZNSaIiEC2ERKS_
FNDA:76,_ZNSaIiEC2ERKS_
FN:169,_ZNSaImEC2IbEERKSaIT_E
FNDA:13,_ZNSaImEC2IbEERKSaIT_E
FN:174,_ZNSaImED2Ev
FNDA:0,_ZNSaImED2Ev
FN:174,_ZNSaISt4pairIiiEED2Ev
FNDA:2,_ZNSaISt4pairIiiEED2Ev
FN:174,_ZNSaI4EdgeED2Ev
FNDA:0,_ZNSaI4EdgeED2Ev
FN:174,_ZNSaIbED2Ev
FNDA:13,_ZNSaIbED2Ev
FN:174,_ZNSaIiED2Ev
FNDA:100,_ZNSaIiED2Ev
FN:174,_ZNSaISt6vectorIiSaIiEEED2Ev
FNDA:4,_ZNSaISt6vectorIiSaIiEEED2Ev
FN:174,_ZNSaISt6vectorI4EdgeSaIS0_EEED2Ev
FNDA:0,_ZNSaISt6vectorI4EdgeSaIS0_EEED2Ev
FN:209,_ZStneRKSaIiES1_
FNDA:0,_ZStneRKSaIiES1_
DA:156,0
DA:156,2
DA:156,6
DA:156,24
DA:159,0
DA:160,0
DA:159,0
DA:160,0
DA:159,76
DA:160,76
DA:169,13
DA:174,0
DA:174,2
DA:174,0
DA:174,13
DA:174,100
DA:174,4
DA:174,0
DA:209,0
DA:210,0
end_of_record
